(lp0
(lp1
S'ABS130'
p2
aI81926
aI58
aI72
aS'T Th'
p3
aS'12:00 PM'
p4
aI12
aI0
aI13
aI15
aNaNaNaNaNaNaNaS'Not Reserved'
p5
aa(lp6
S'ABS130'
p7
aI81953
aI21
aI24
aS'Th'
p8
aS' 1:30 PM'
p9
aI13
aI30
aI15
aI30
aNaNaNaNaNaNaNag5
aa(lp10
S'ABS130'
p11
aI87046
aI21
aI24
aS'Th'
p12
aS' 4:00 PM'
p13
aI16
aI0
aI18
aI0
aNaNaNaNaNaNaNag5
aa(lp14
S'ABS130'
p15
aI90618
aI16
aI24
aS'T'
p16
aS' 1:30 PM'
p17
aI13
aI30
aI15
aI30
aNaNaNaNaNaNaNag5
aa(lp18
S'ABS225'
p19
aI84371
aI11
aI24
aS'M W F'
p20
aS'10:30 AM'
p21
aI10
aI30
aI11
aI20
aNaNaNaNaNaNaNag5
aa(lp22
S'ABS226'
p23
aI84372
aI16
aI24
aS'M'
p24
aS' 1:00 PM'
p25
aI13
aI0
aI15
aI30
aNaNaNaNaNaNaNag5
aa(lp26
S'ABS270'
p27
aI81955
aI77
aI100
aS'ONLINE'
p28
aNaNaNaNaNaNaNaNaNaNaNaNaS'Reserved'
p29
aa(lp30
S'ABS271'
p31
aI90605
aI12
aI30
ag24
aS' 4:30 PM'
p32
aI16
aI30
aI19
aI15
aNaNaNaNaNaNaNag5
aa(lp33
S'ABS274'
p34
aI84728
aI8
aI24
ag16
aS' 4:30 PM'
p35
aI16
aI30
aI19
aI15
aNaNaNaNaNaNaNag5
aa(lp36
S'ABS274'
p37
aI84731
aI8
aI24
aS'Th'
p38
aS' 1:30 PM'
p39
aI13
aI30
aI16
aI15
aNaNaNaNaNaNaNag5
aa(lp40
S'ABS302'
p41
aI81956
aI17
aI60
ag28
aNaNaNaNaNaNaNaNaNaNaNaNag29
aa(lp42
S'ABS311'
p43
aI90935
aI3
aI40
aS'T Th'
p44
aS' 1:30 PM'
p45
aI13
aI30
aI14
aI45
aNaNaNaNaNaNaNag5
aa(lp46
S'ABS350'
p47
aI91851
aI23
aI23
aS'T Th'
p48
aS' 1:30 PM'
p49
aI13
aI30
aI14
aI45
aNaNaNaNaNaNaNag5
aa(lp50
S'ABS355'
p51
aI81957
aI13
aI54
aS'T Th'
p52
aS'12:00 PM'
p53
aI12
aI0
aI13
aI15
aNaNaNaNaNaNaNag5
aa(lp54
S'ABS360'
p55
aI81958
aI302
aI500
ag28
aNaNaNaNaNaNaNaNaNaNaNaNag29
aa(lp56
S'ABS364'
p57
aI87047
aI11
aI20
aS'T Th'
p58
aS'12:00 PM'
p59
aI12
aI0
aI13
aI15
aNaNaNaNaNaNaNag5
aa(lp60
S'ABS370'
p61
aI82025
aI0
aI54
aS'T Th'
p62
aS' 9:00 AM'
p63
aI9
aI0
aI10
aI15
aNaNaNaNaNaNaNag29
aa(lp64
S'ABS380'
p65
aI82026
aI20
aI24
aS'M W F'
p66
aS' 1:30 PM'
p67
aI13
aI30
aI14
aI20
aNaNaNaNaNaNaNag5
aa(lp68
S'ABS380'
p69
aI82027
aI20
aI24
aS'F'
p70
aS' 2:30 PM'
p71
aI14
aI30
aI16
aI15
aNaNaNaNaNaNaNag5
aa(lp72
S'ABS384'
p73
aI91082
aI24
aI28
aS'Th'
p74
aS' 4:30 PM'
p75
aI16
aI30
aI19
aI15
aNaNaNaNaNaNaNag5
aa(lp76
S'ABS394'
p77
aI83565
aI37
aI50
aS'T Th'
p78
aS' 1:30 PM'
p79
aI13
aI30
aI14
aI45
aNaNaNaNaNaNaNag5
aa(lp80
S'ABS425'
p81
aI87049
aI24
aI24
aS'M W F'
p82
aS' 9:00 AM'
p83
aI9
aI0
aI9
aI50
aNaNaNaNaNaNaNag5
aa(lp84
S'ABS440'
p85
aI84373
aI20
aI24
aS'M W F'
p86
aS' 9:00 AM'
p87
aI9
aI0
aI9
aI50
aNaNaNaNaNaNaNag5
aa(lp88
S'ABS441'
p89
aI84374
aI21
aI24
aS'W'
p90
aS'12:00 PM'
p91
aI12
aI0
aI12
aI50
aNaNaNaNaNaNaNag5
aa(lp92
S'ABS460'
p93
aI82029
aI53
aI100
ag28
aNaNaNaNaNaNaNaNaNaNaNaNag29
aa(lp94
S'ABS465'
p95
aI85914
aI5
aI5
ag28
aNaNaNaNaNaNaNaNaNaNaNaNag5
aa(lp96
S'ABS472'
p97
aI90936
aI5
aI15
aS'T Th'
p98
aS' 9:00 AM'
p99
aI9
aI0
aI10
aI15
aNaNaNaNaNaNaNag5
aa(lp100
S'ABS476'
p101
aI84376
aI2
aI24
aS'T Th'
p102
aS'10:30 AM'
p103
aI10
aI30
aI11
aI45
aNaNaNaNaNaNaNag5
aa(lp104
S'ABS484'
p105
aI85601
aI3
aI3
ag28
aNaNaNaNaNaNaNaNaNaNaNaNag5
aa(lp106
S'ABS485'
p107
aI85470
aI11
aI20
ag16
aS' 4:30 PM'
p108
aI16
aI30
aI19
aI15
aNaNaNaNaNaNaNag5
aa(lp109
S'ABS489'
p110
aI81962
aI4
aI5
ag28
aNaNaNaNaNaNaNaNaNaNaNaNag5
aa(lp111
S'ABS490'
p112
aI82031
aI32
aI32
ag90
aS' 3:00 PM'
p113
aI15
aI0
aI15
aI50
aNaNaNaNaNaNaNag5
aa(lp114
S'ABS493'
p115
aI82053
aI5
aI5
ag28
aNaNaNaNaNaNaNaNaNaNaNaNag5
aa(lp116
S'ABS494'
p117
aI85782
aI19
aI28
aS'Th'
p118
aS' 7:30 PM'
p119
aI19
aI30
aI22
aI15
aNaNaNaNaNaNaNag5
aa(lp120
S'ABS494'
p121
aI87050
aI21
aI24
aS'T Th'
p122
aS' 9:00 AM'
p123
aI9
aI0
aI10
aI15
aNaNaNaNaNaNaNag5
aa(lp124
S'ABS494'
p125
aI87189
aI15
aI24
aS'T Th'
p126
aS'10:30 AM'
p127
aI10
aI30
aI11
aI45
aNaNaNaNaNaNaNag5
aa(lp128
S'ABS494'
p129
aI90931
aI1
aI5
ag28
aNaNaNaNaNaNaNaNaNaNaNaNag5
aa(lp130
S'ABS499'
p131
aI82077
aI5
aI5
ag28
aNaNaNaNaNaNaNaNaNaNaNaNag5
aa(lp132
S'ABS499'
p133
aI85732
aI11
aI12
aS'M W F'
p134
aS' 4:30 PM'
p135
aI16
aI30
aI18
aI50
aNaNaNaNaNaNaNag5
aa(lp136
S'ABS550'
p137
aI87268
aI5
aI8
ag24
aS'1:00PM'
p138
aI13
aI0
aI13
aI50
aS'M T W Th F'
p139
aS'9:00AM'
p140
aI9
aI0
aS'12:00PM'
p141
aI12
aI0
ag5
aa(lp142
S'ABS590'
p143
aI82080
aI5
aI5
ag28
aNaNaNaNaNaNaNaNaNaNaNaNag5
aa(lp144
S'ABS592'
p145
aI82081
aI5
aI5
ag28
aNaNaNaNaNaNaNaNaNaNaNaNag5
aa(lp146
S'ABS593'
p147
aI82082
aI30
aI30
ag28
aNaNaNaNaNaNaNaNaNaNaNaNag5
aa(lp148
S'ABS595'
p149
aI82836
aI10
aI10
ag28
aNaNaNaNaNaNaNaNaNaNaNaNag5
aa(lp150
S'ABS598'
p151
aI85471
aI4
aI4
ag16
aS' 4:30 PM'
p152
aI16
aI30
aI19
aI15
aNaNaNaNaNaNaNag5
aa(lp153
S'ABS598'
p154
aI90937
aI7
aI7
aS'T Th'
p155
aS' 9:00 AM'
p156
aI9
aI0
aI10
aI15
aNaNaNaNaNaNaNag5
aa(lp157
S'ABS598'
p158
aI91673
aI5
aI5
aS'T Th'
p159
aS' 9:00 AM'
p160
aI9
aI0
aI10
aI15
aNaNaNaNaNaNaNag5
aa(lp161
S'ABS598'
p162
aI91674
aI4
aI5
ag16
aS'3:00PM'
p163
aI15
aI0
aI16
aI15
aS''
p164
ag164
aNaNag164
aNaNag5
aa(lp165
S'ABS599'
p166
aI84182
aI5
aI5
ag28
aNaNaNaNaNaNaNaNaNaNaNaNag5
aa(lp167
S'ABS691'
p168
aI83560
aI11
aI12
ag90
aS' 3:00 PM'
p169
aI15
aI0
aI15
aI50
aNaNaNaNaNaNaNag5
aa.