(lp0
(lp1
S'ACO100'
p2
aI82202
aI22
aI36
aS'M W F'
p3
aS'10:30 AM'
p4
aI10
aI30
aI11
aI20
aNaNaNaNaNaNaNaS'Not Reserved'
p5
aa(lp6
S'ACO101'
p7
aI70445
aI30
aI36
aS'M W'
p8
aS' 3:00 PM'
p9
aI15
aI0
aI16
aI15
aNaNaNaNaNaNaNaS'Reserved'
p10
aa(lp11
S'ACO101'
p12
aI90503
aI27
aI36
aS'T Th'
p13
aS' 1:30 PM'
p14
aI13
aI30
aI14
aI45
aNaNaNaNaNaNaNag10
aa(lp15
S'ACO102'
p16
aI70446
aI19
aI36
aS'T Th'
p17
aS'12:00 PM'
p18
aI12
aI0
aI13
aI15
aNaNaNaNaNaNaNag10
aa(lp19
S'ACO201'
p20
aI77631
aI17
aI36
aS'T Th'
p21
aS'12:00 PM'
p22
aI12
aI0
aI13
aI15
aNaNaNaNaNaNaNag5
aa(lp23
S'ACO320'
p24
aI76821
aI19
aI36
aS'T Th'
p25
aS' 9:00 AM'
p26
aI9
aI0
aI10
aI15
aNaNaNaNaNaNaNag5
aa(lp27
S'ACO330'
p28
aI72444
aI22
aI36
aS'T Th'
p29
aS'10:30 AM'
p30
aI10
aI30
aI11
aI45
aNaNaNaNaNaNaNag5
aa(lp31
S'ACO422'
p32
aI90504
aI34
aI36
aS'T Th'
p33
aS' 9:00 AM'
p34
aI9
aI0
aI10
aI15
aNaNaNaNaNaNaNag5
aa(lp35
S'ACO430'
p36
aI82204
aI35
aI36
aS'T Th'
p37
aS' 1:30 PM'
p38
aI13
aI30
aI14
aI45
aNaNaNaNaNaNaNag5
aa(lp39
S'ACO484'
p40
aI80559
aI5
aI5
aS'ONLINE'
p41
aNaNaNaNaNaNaNaNaNaNaNaNag5
aa(lp42
S'ACO484'
p43
aI80735
aI5
aI5
ag41
aNaNaNaNaNaNaNaNaNaNaNaNag5
aa(lp44
S'ACO499'
p45
aI91756
aI4
aI5
ag41
aNaNaNaNaNaNaNaNaNaNaNaNag5
aa(lp46
S'ACO499'
p47
aI75914
aI12
aI15
ag41
aNaNaNaNaNaNaNaNaNaNaNaNag5
aa.