(lp0
(lp1
S'ACT201'
p2
aI81441
aI53
aI75
aS'M W'
p3
aS' 1:30 PM'
p4
aI13
aI30
aI14
aI45
aNaNaNaNaNaNaNaS'Not Reserved'
p5
aa(lp6
S'ACT310'
p7
aI89378
aI8
aI30
aS'T Th'
p8
aS' 4:30 PM'
p9
aI16
aI30
aI18
aI10
aNaNaNaNaNaNaNag5
aa(lp10
S'ACT415'
p11
aI81442
aI15
aI40
aS'M W'
p12
aS' 3:00 PM'
p13
aI15
aI0
aI16
aI15
aNaNaNaNaNaNaNag5
aa(lp14
S'ACT440'
p15
aI89377
aI22
aI30
aS'M W'
p16
aS' 4:30 PM'
p17
aI16
aI30
aI17
aI45
aNaNaNaNaNaNaNag5
aa(lp18
S'ACT450'
p19
aI83979
aI30
aI35
aS'T Th'
p20
aS' 3:00 PM'
p21
aI15
aI0
aI16
aI15
aNaNaNaNaNaNaNag5
aa(lp22
S'ACT484'
p23
aI91669
aI15
aI15
aS'ONLINE'
p24
aNaNaNaNaNaNaNaNaNaNaNaNag5
aa(lp25
S'ACT491'
p26
aI83457
aI23
aI30
aS'F'
p27
aS' 1:30 PM'
p28
aI13
aI30
aI14
aI45
aNaNaNaNaNaNaNag5
aa.