(lp0
(lp1
S'ADE321'
p2
aI70447
aI2
aI15
aS'M W'
p3
aS' 1:30 PM'
p4
aI13
aI30
aI17
aI55
aNaNaNaNaNaNaNaS'Not Reserved'
p5
aa(lp6
S'ADE321'
p7
aI70448
aI6
aI15
aS'M W'
p8
aS' 1:30 PM'
p9
aI13
aI30
aI17
aI55
aNaNaNaNaNaNaNag5
aa(lp10
S'ADE321'
p11
aI70449
aI4
aI15
aS'M W'
p12
aS' 1:30 PM'
p13
aI13
aI30
aI17
aI55
aNaNaNaNaNaNaNag5
aa(lp14
S'ADE421'
p15
aI70450
aI2
aI15
aS'W F'
p16
aS' 1:30 PM'
p17
aI13
aI30
aI17
aI55
aNaNaNaNaNaNaNag5
aa(lp18
S'ADE421'
p19
aI70451
aI3
aI15
aS'W F'
p20
aS' 1:30 PM'
p21
aI13
aI30
aI17
aI55
aNaNaNaNaNaNaNag5
aa(lp22
S'ADE421'
p23
aI70452
aI6
aI15
aS'W F'
p24
aS' 1:30 PM'
p25
aI13
aI30
aI17
aI55
aNaNaNaNaNaNaNag5
aa(lp26
S'ADE511'
p27
aI70453
aI18
aI18
aS'M W F'
p28
aS' 1:30 PM'
p29
aI13
aI30
aI17
aI5
aNaNaNaNaNaNaNag5
aa(lp30
S'ADE521'
p31
aI70454
aI15
aI15
aS'M W'
p32
aS' 1:30 PM'
p33
aI13
aI30
aI17
aI55
aNaNaNaNaNaNaNag5
aa(lp34
S'ADE521'
p35
aI70455
aI15
aI15
aS'M W'
p36
aS' 1:30 PM'
p37
aI13
aI30
aI17
aI55
aNaNaNaNaNaNaNag5
aa(lp38
S'ADE521'
p39
aI70456
aI15
aI15
aS'M W'
p40
aS' 1:30 PM'
p41
aI13
aI30
aI17
aI55
aNaNaNaNaNaNaNag5
aa(lp42
S'ADE621'
p43
aI70457
aI6
aI7
aS'W F'
p44
aS' 1:30 PM'
p45
aI13
aI30
aI17
aI55
aNaNaNaNaNaNaNag5
aa(lp46
S'ADE621'
p47
aI70458
aI5
aI10
aS'W F'
p48
aS' 1:30 PM'
p49
aI13
aI30
aI17
aI55
aNaNaNaNaNaNaNag5
aa(lp50
S'ADE621'
p51
aI74094
aI2
aI8
aS'W F'
p52
aS' 1:30 PM'
p53
aI13
aI30
aI17
aI55
aNaNaNaNaNaNaNag5
aa(lp54
S'ADE621'
p55
aI74428
aI3
aI8
aS'W F'
p56
aS' 1:30 PM'
p57
aI13
aI30
aI17
aI55
aNaNaNaNaNaNaNag5
aa(lp58
S'ADE621'
p59
aI83975
aI3
aI4
aS'W F'
p60
aS' 1:30 PM'
p61
aI13
aI30
aI17
aI55
aNaNaNaNaNaNaNag5
aa.