(lp0
(lp1
S'AEE325'
p2
aI79303
aI25
aI70
aS'T Th'
p3
aS' 1:30 PM'
p4
aI13
aI30
aI14
aI45
aNaNaNaNaNaNaNaS'Reserved'
p5
aa(lp6
S'AEE325'
p7
aI79304
aI1
aI10
aS'F'
p8
aS' 9:45 AM'
p9
aI9
aI45
aI11
aI40
aNaNaNaNaNaNaNaS'Not Reserved'
p10
aa(lp11
S'AEE325'
p12
aI79305
aI0
aI10
ag8
aS' 9:45 AM'
p13
aI9
aI45
aI11
aI40
aNaNaNaNaNaNaNag5
aa(lp14
S'AEE325'
p15
aI79306
aI4
aI10
ag8
aS' 2:00 PM'
p16
aI14
aI0
aI15
aI55
aNaNaNaNaNaNaNag10
aa(lp17
S'AEE325'
p18
aI79308
aI7
aI10
aS'T'
p19
aS' 5:00 PM'
p20
aI17
aI0
aI18
aI55
aNaNaNaNaNaNaNag10
aa(lp21
S'AEE325'
p22
aI79311
aI8
aI10
aS'Th'
p23
aS' 5:00 PM'
p24
aI17
aI0
aI18
aI55
aNaNaNaNaNaNaNag10
aa(lp25
S'AEE325'
p26
aI79313
aI5
aI10
aS'M'
p27
aS' 4:30 PM'
p28
aI16
aI30
aI18
aI25
aNaNaNaNaNaNaNag10
aa(lp29
S'AEE325'
p30
aI79373
aI0
aI10
aS'W'
p31
aS'11:00 AM'
p32
aI11
aI0
aI12
aI55
aNaNaNaNaNaNaNag5
aa(lp33
S'AEE360'
p34
aI71607
aI49
aI120
aS'T Th'
p35
aS' 7:30 AM'
p36
aI7
aI30
aI8
aI45
aNaNaNaNaNaNaNag5
aa(lp37
S'AEE360'
p38
aI73874
aI11
aI20
ag8
aS' 7:30 AM'
p39
aI7
aI30
aI9
aI25
aNaNaNaNaNaNaNag10
aa(lp40
S'AEE360'
p41
aI73875
aI11
aI20
ag8
aS' 9:45 AM'
p42
aI9
aI45
aI11
aI40
aNaNaNaNaNaNaNag10
aa(lp43
S'AEE360'
p44
aI73876
aI7
aI20
ag8
aS'11:55 AM'
p45
aI11
aI55
aI13
aI45
aNaNaNaNaNaNaNag10
aa(lp46
S'AEE360'
p47
aI73877
aI16
aI20
ag8
aS' 2:00 PM'
p48
aI14
aI0
aI15
aI55
aNaNaNaNaNaNaNag10
aa(lp49
S'AEE360'
p50
aI79374
aI4
aI20
ag31
aS' 9:00 AM'
p51
aI9
aI0
aI10
aI55
aNaNaNaNaNaNaNag10
aa(lp52
S'AEE360'
p53
aI80785
aI0
aI20
ag27
aS'12:00 PM'
p54
aI12
aI0
aI13
aI55
aNaNaNaNaNaNaNag5
aa(lp55
S'AEE360'
p56
aI73536
aI1
aI10
aS'T Th'
p57
aS' 7:30 AM'
p58
aI7
aI30
aI8
aI45
aNaNaNaNaNaNaNag5
aa(lp59
S'AEE360'
p60
aI73878
aI1
aI10
ag31
aS'12:00 PM'
p61
aI12
aI0
aI13
aI55
aNaNaNaNaNaNaNag10
aa(lp62
S'AEE415'
p63
aI71612
aI1
aI75
aS'M W'
p64
aS'10:30 AM'
p65
aI10
aI30
aI11
aI45
aNaNaNaNaNaNaNag10
aa(lp66
S'AEE415'
p67
aI79795
aI0
aI15
ag8
aS' 9:00 AM'
p68
aI9
aI0
aI10
aI15
aNaNaNaNaNaNaNag5
aa(lp69
S'AEE415'
p70
aI80011
aI0
aI15
ag8
aS'10:30 AM'
p71
aI10
aI30
aI11
aI45
aNaNaNaNaNaNaNag5
aa(lp72
S'AEE415'
p73
aI80012
aI0
aI15
ag8
aS'12:00 PM'
p74
aI12
aI0
aI13
aI15
aNaNaNaNaNaNaNag5
aa(lp75
S'AEE415'
p76
aI80013
aI0
aI15
ag8
aS' 1:30 PM'
p77
aI13
aI30
aI14
aI45
aNaNaNaNaNaNaNag5
aa(lp78
S'AEE415'
p79
aI86699
aI1
aI15
ag8
aS' 7:30 AM'
p80
aI7
aI30
aI8
aI45
aNaNaNaNaNaNaNag10
aa(lp81
S'AEE445'
p82
aI79951
aI17
aI40
aS'M W'
p83
aS' 4:30 PM'
p84
aI16
aI30
aI17
aI45
aNaNaNaNaNaNaNag5
aa(lp85
S'AEE463'
p86
aI71613
aI7
aI75
aS'T Th'
p87
aS' 3:00 PM'
p88
aI15
aI0
aI16
aI15
aNaNaNaNaNaNaNag5
aa(lp89
S'AEE465'
p90
aI72439
aI11
aI44
aS'M W'
p91
aS' 9:00 AM'
p92
aI9
aI0
aI10
aI15
aNaNaNaNaNaNaNag10
aa(lp93
S'AEE468'
p94
aI75053
aI23
aI50
ag31
aS'12:00 PM'
p95
aI12
aI0
aI14
aI50
aNaNaNaNaNaNaNag10
aa.