(lp0
(lp1
S'AEP501'
p2
aI80130
aI22
aI30
aS'ONLINE'
p3
aNaNaNaNaNaNaNaNaNaNaNaNaS'Reserved'
p4
aa(lp5
S'AEP590'
p6
aI75239
aI29
aI30
ag3
aNaNaNaNaNaNaNaNaNaNaNaNaS'Not Reserved'
p7
aa(lp8
S'AEP592'
p9
aI75387
aI30
aI30
ag3
aNaNaNaNaNaNaNaNaNaNaNaNag7
aa(lp10
S'AEP593'
p11
aI75240
aI28
aI30
aS'T'
p12
aS' 3:00 PM'
p13
aI15
aI0
aI16
aI15
aNaNaNaNaNaNaNag7
aa.