(lp0
(lp1
S'AES101'
p2
aI70459
aI50
aI54
aS'Th'
p3
aS' 9:00 AM'
p4
aI9
aI0
aI10
aI15
aNaNaNaNaNaNaNaS'Not Reserved'
p5
aa(lp6
S'AES101'
p7
aI70460
aI49
aI54
aS'T'
p8
aS' 1:30 PM'
p9
aI13
aI30
aI14
aI45
aNaNaNaNaNaNaNag5
aa(lp10
S'AES102'
p11
aI70461
aI93
aI96
aS'Th'
p12
aS' 6:00 AM'
p13
aI6
aI0
aI8
aI0
aNaNaNaNaNaNaNag5
aa(lp14
S'AES201'
p15
aI70462
aI37
aI54
aS'Th'
p16
aS' 1:30 PM'
p17
aI13
aI30
aI14
aI45
aNaNaNaNaNaNaNag5
aa(lp18
S'AES201'
p19
aI70463
aI39
aI54
ag8
aS' 9:00 AM'
p20
aI9
aI0
aI10
aI15
aNaNaNaNaNaNaNag5
aa(lp21
S'AES202'
p22
aI70464
aI67
aI96
aS'Th'
p23
aS' 6:00 AM'
p24
aI6
aI0
aI8
aI0
aNaNaNaNaNaNaNag5
aa(lp25
S'AES294'
p26
aI72457
aI131
aI200
aS'M W F'
p27
aS' 6:00 AM'
p28
aI6
aI0
aI7
aI0
aNaNaNaNaNaNaNag5
aa(lp29
S'AES301'
p30
aI70465
aI27
aI40
aS'T Th'
p31
aS'10:30 AM'
p32
aI10
aI30
aI11
aI45
aNaNaNaNaNaNaNag5
aa(lp33
S'AES302'
p34
aI78586
aI85
aI96
aS'Th'
p35
aS' 6:00 AM'
p36
aI6
aI0
aI8
aI0
aNaNaNaNaNaNaNag5
aa(lp37
S'AES401'
p38
aI70466
aI18
aI35
aS'T Th'
p39
aS'12:00 PM'
p40
aI12
aI0
aI13
aI15
aNaNaNaNaNaNaNag5
aa(lp41
S'AES402'
p42
aI78590
aI83
aI96
aS'Th'
p43
aS' 6:00 AM'
p44
aI6
aI0
aI8
aI0
aNaNaNaNaNaNaNag5
aa.