(lp0
(lp1
S'AET210'
p2
aI90353
aI4
aI7
aS'T Th'
p3
aS' 3:00 PM'
p4
aI15
aI0
aI16
aI15
aNaNaNaNaNaNaNaS'Not Reserved'
p5
aa(lp6
S'AET215'
p7
aI91129
aI2
aI3
aS'ONLINE'
p8
aNaNaNaNaNaNaNaNaNaNaNaNag5
aa(lp9
S'AET300'
p10
aI70467
aI30
aI32
aS'T Th'
p11
aS'12:00 PM'
p12
aI12
aI0
aI13
aI15
aNaNaNaNaNaNaNag5
aa(lp13
S'AET417'
p14
aI70468
aI37
aI40
aS'T Th'
p15
aS' 4:30 PM'
p16
aI16
aI30
aI17
aI45
aNaNaNaNaNaNaNag5
aa(lp17
S'AET524'
p18
aI70469
aI8
aI10
aS'T Th'
p19
aS' 9:00 AM'
p20
aI9
aI0
aI10
aI15
aNaNaNaNaNaNaNag5
aa.