(lp0
(lp1
S'AFR200'
p2
aI90011
aI29
aI40
aS'ONLINE'
p3
aNaNaNaNaNaNaNaNaNaNaNaNaS'Not Reserved'
p4
aa(lp5
S'AFR200'
p6
aI82760
aI21
aI54
aS'T Th'
p7
aS'10:30 AM'
p8
aI10
aI30
aI11
aI45
aNaNaNaNaNaNaNag4
aa(lp9
S'AFR200'
p10
aI82902
aI24
aI38
aS'T Th'
p11
aS' 3:00 PM'
p12
aI15
aI0
aI16
aI15
aNaNaNaNaNaNaNag4
aa(lp13
S'AFR202'
p14
aI82162
aI0
aI25
aS'M W'
p15
aS'12:00 PM'
p16
aI12
aI0
aI13
aI15
aNaNaNaNaNaNaNaS'Reserved'
p17
aa(lp18
S'AFR210'
p19
aI79636
aI37
aI52
aS'T Th'
p20
aS' 9:00 AM'
p21
aI9
aI0
aI10
aI15
aNaNaNaNaNaNaNag17
aa(lp22
S'AFR212'
p23
aI91375
aI10
aI10
aS'Th'
p24
aS'1:30PM'
p25
aI13
aI30
aI14
aI45
aS''
p26
aS'12:00AM'
p27
aNaNaS'12:00AM'
p28
aNaNag4
aa(lp29
S'AFR212'
p30
aI91376
aI3
aI5
aS'T'
p31
aS'1:30PM'
p32
aI13
aI30
aI14
aI45
ag26
aS'12:00AM'
p33
aNaNaS'12:00AM'
p34
aNaNag4
aa(lp35
S'AFR215'
p36
aI82861
aI34
aI80
aS'T Th'
p37
aS'12:00 PM'
p38
aI12
aI0
aI13
aI15
aNaNaNaNaNaNaNag4
aa(lp39
S'AFR300'
p40
aI89747
aI17
aI30
aS'T Th'
p41
aS'12:00 PM'
p42
aI12
aI0
aI13
aI15
aNaNaNaNaNaNaNag4
aa(lp43
S'AFR301'
p44
aI84274
aI5
aI15
aS'T Th'
p45
aS' 3:00 PM'
p46
aI15
aI0
aI16
aI15
aNaNaNaNaNaNaNag4
aa(lp47
S'AFR302'
p48
aI89933
aI5
aI10
aS'T Th'
p49
aS' 9:00 AM'
p50
aI9
aI0
aI10
aI15
aNaNaNaNaNaNaNag4
aa(lp51
S'AFR336'
p52
aI89960
aI15
aI25
ag3
aNaNaNaNaNaNaNaNaNaNaNaNag4
aa(lp53
S'AFR350'
p54
aI83882
aI4
aI10
ag3
aNaNaNaNaNaNaNaNaNaNaNaNag17
aa(lp55
S'AFR352'
p56
aI90868
aI10
aI10
aS'T Th'
p57
aS'10:30 AM'
p58
aI10
aI30
aI11
aI45
aNaNaNaNaNaNaNag4
aa(lp59
S'AFR353'
p60
aI84407
aI4
aI10
aS'M'
p61
aS' 4:30 PM'
p62
aI16
aI30
aI19
aI15
aNaNaNaNaNaNaNag4
aa(lp63
S'AFR370'
p64
aI89959
aI0
aI42
aS'T Th'
p65
aS'12:00 PM'
p66
aI12
aI0
aI13
aI15
aNaNaNaNaNaNaNag17
aa(lp67
S'AFR372'
p68
aI82896
aI7
aI10
aS'T Th'
p69
aS' 4:30 PM'
p70
aI16
aI30
aI17
aI45
aNaNaNaNaNaNaNag4
aa(lp71
S'AFR375'
p72
aI76490
aI46
aI60
ag3
aNaNaNaNaNaNaNaNaNaNaNaNag17
aa(lp73
S'AFR375'
p74
aI76876
aI120
aI132
aS'T Th'
p75
aS' 7:30 AM'
p76
aI7
aI30
aI8
aI45
aNaNaNaNaNaNaNag4
aa(lp77
S'AFR394'
p78
aI91396
aI6
aI6
aS'W'
p79
aS' 4:30 PM'
p80
aI16
aI30
aI18
aI20
aNaNaNaNaNaNaNag4
aa(lp81
S'AFR394'
p82
aI85629
aI6
aI20
ag3
aNaNaNaNaNaNaNaNaNaNaNaNag4
aa(lp83
S'AFR394'
p84
aI83788
aI13
aI20
ag3
aNaNaNaNaNaNaNaNaNaNaNaNag17
aa(lp85
S'AFR394'
p86
aI82866
aI17
aI20
ag3
aNaNaNaNaNaNaNaNaNaNaNaNag4
aa(lp87
S'AFR484'
p88
aI80551
aI3
aI3
ag3
aNaNaNaNaNaNaNaNaNaNaNaNag4
aa(lp89
S'AFR492'
p90
aI73892
aI10
aI10
ag3
aNaNaNaNaNaNaNaNaNaNaNaNag4
aa(lp91
S'AFR493'
p92
aI77494
aI10
aI10
ag3
aNaNaNaNaNaNaNaNaNaNaNaNag17
aa(lp93
S'AFR498'
p94
aI80182
aI5
aI5
ag3
aNaNaNaNaNaNaNaNaNaNaNaNag4
aa(lp95
S'AFR499'
p96
aI77496
aI5
aI5
ag3
aNaNaNaNaNaNaNaNaNaNaNaNag4
aa.