(lp0
(lp1
S'AGB100'
p2
aI74473
aI25
aI30
aS'M W'
p3
aS' 3:00 PM'
p4
aI15
aI0
aI16
aI15
aNaNaNaNaNaNaNaS'Not Reserved'
p5
aa(lp6
S'AGB294'
p7
aI77683
aI25
aI30
aS'ONLINE'
p8
aNaNaNaNaNaNaNaNaNaNaNaNaS'Reserved'
p9
aa(lp10
S'AGB302'
p11
aI74893
aI33
aI60
aS'M'
p12
aS' 6:00 PM'
p13
aI18
aI0
aI20
aI45
aNaNaNaNaNaNaNag5
aa(lp14
S'AGB302'
p15
aI74894
aI57
aI60
aS'M W'
p16
aS' 3:00 PM'
p17
aI15
aI0
aI16
aI15
aNaNaNaNaNaNaNag5
aa(lp18
S'AGB321'
p19
aI90294
aI35
aI40
aS'T Th'
p20
aS'10:30 AM'
p21
aI10
aI30
aI11
aI45
aNaNaNaNaNaNaNag5
aa(lp22
S'AGB333'
p23
aI90295
aI27
aI30
aS'T Th'
p24
aS' 1:30 PM'
p25
aI13
aI30
aI14
aI45
aNaNaNaNaNaNaNag5
aa(lp26
S'AGB394'
p27
aI90821
aI28
aI30
aS'T Th'
p28
aS' 9:00 AM'
p29
aI9
aI0
aI10
aI15
aNaNaNaNaNaNaNag5
aa(lp30
S'AGB410'
p31
aI81889
aI24
aI30
aS'T'
p32
aS' 6:00 PM'
p33
aI18
aI0
aI20
aI45
aNaNaNaNaNaNaNag5
aa(lp34
S'AGB435'
p35
aI77520
aI17
aI30
ag8
aNaNaNaNaNaNaNaNaNaNaNaNag9
aa(lp36
S'AGB452'
p37
aI90720
aI22
aI22
aS'T Th'
p38
aS' 1:30 PM'
p39
aI13
aI30
aI14
aI45
aNaNaNaNaNaNaNag5
aa(lp40
S'AGB456'
p41
aI80882
aI22
aI30
ag8
aNaNaNaNaNaNaNaNaNaNaNaNag9
aa(lp42
S'AGB481'
p43
aI90783
aI45
aI50
ag8
aNaNaNaNaNaNaNaNaNaNaNaNag5
aa(lp44
S'AGB484'
p45
aI74475
aI30
aI30
ag8
aNaNaNaNaNaNaNaNaNaNaNaNag5
aa(lp46
S'AGB492'
p47
aI81867
aI10
aI10
ag8
aNaNaNaNaNaNaNaNaNaNaNaNag5
aa(lp48
S'AGB493'
p49
aI77721
aI3
aI3
ag8
aNaNaNaNaNaNaNaNaNaNaNaNag5
aa(lp50
S'AGB499'
p51
aI74476
aI30
aI30
ag8
aNaNaNaNaNaNaNaNaNaNaNaNag5
aa(lp52
S'AGB595'
p53
aI74477
aI10
aI10
ag8
aNaNaNaNaNaNaNaNaNaNaNaNag5
aa(lp54
S'AGB701'
p55
aI89741
aI22
aI22
ag12
aS' 1:00 PM'
p56
aI13
aI0
aI15
aI45
aNaNaNaNaNaNaNag5
aa(lp57
S'AGB790'
p58
aI89458
aI10
aI10
ag8
aNaNaNaNaNaNaNaNaNaNaNaNag5
aa(lp59
S'AGB791'
p60
aI90785
aI9
aI10
aS'F'
p61
aS'10:30 AM'
p62
aI10
aI30
aI13
aI15
aNaNaNaNaNaNaNag5
aa(lp63
S'AGB792'
p64
aI89462
aI10
aI10
ag8
aNaNaNaNaNaNaNaNaNaNaNaNag5
aa(lp65
S'AGB799'
p66
aI89464
aI10
aI10
ag8
aNaNaNaNaNaNaNaNaNaNaNaNag5
aa.