(lp0
(lp1
S'AIS180'
p2
aI73322
aI10
aI16
aS'T Th'
p3
aS'12:00 PM'
p4
aI12
aI0
aI13
aI15
aNaNaNaNaNaNaNaS'Not Reserved'
p5
aa(lp6
S'AIS180'
p7
aI74824
aI44
aI50
aS'T Th'
p8
aS'10:30 AM'
p9
aI10
aI30
aI11
aI45
aNaNaNaNaNaNaNag5
aa(lp10
S'AIS180'
p11
aI77145
aI37
aI50
aS'ONLINE'
p12
aNaNaNaNaNaNaNaNaNaNaNaNaS'Reserved'
p13
aa(lp14
S'AIS194'
p15
aI79063
aI15
aI25
aS'M'
p16
aS' 6:00 PM'
p17
aI18
aI0
aI20
aI45
aNaNaNaNaNaNaNag5
aa(lp18
S'AIS280'
p19
aI70470
aI37
aI40
aS'T Th'
p20
aS' 3:00 PM'
p21
aI15
aI0
aI16
aI15
aNaNaNaNaNaNaNag5
aa(lp22
S'AIS285'
p23
aI74825
aI31
aI40
aS'T Th'
p24
aS'12:00 PM'
p25
aI12
aI0
aI13
aI15
aNaNaNaNaNaNaNag5
aa(lp26
S'AIS294'
p27
aI90328
aI28
aI30
aS'T Th'
p28
aS' 3:00 PM'
p29
aI15
aI0
aI16
aI15
aNaNaNaNaNaNaNag5
aa(lp30
S'AIS380'
p31
aI73942
aI31
aI40
aS'T Th'
p32
aS' 4:30 PM'
p33
aI16
aI30
aI17
aI45
aNaNaNaNaNaNaNag5
aa(lp34
S'AIS394'
p35
aI79071
aI19
aI25
aS'W'
p36
aS' 6:00 PM'
p37
aI18
aI0
aI20
aI45
aNaNaNaNaNaNaNag5
aa(lp38
S'AIS394'
p39
aI74142
aI16
aI20
ag36
aS' 4:30 PM'
p40
aI16
aI30
aI19
aI15
aNaNaNaNaNaNaNag5
aa(lp41
S'AIS420'
p42
aI70471
aI27
aI30
aS'T'
p43
aS' 4:30 PM'
p44
aI16
aI30
aI19
aI15
aNaNaNaNaNaNaNag5
aa(lp45
S'AIS484'
p46
aI70472
aI10
aI10
ag12
aNaNaNaNaNaNaNaNaNaNaNaNag5
aa(lp47
S'AIS493'
p48
aI83962
aI5
aI5
ag12
aNaNaNaNaNaNaNaNaNaNaNaNag5
aa(lp49
S'AIS494'
p50
aI89403
aI13
aI15
ag16
aS' 4:30 PM'
p51
aI16
aI30
aI19
aI15
aNaNaNaNaNaNaNag5
aa(lp52
S'AIS494'
p53
aI85971
aI23
aI30
aS'T Th'
p54
aS' 1:30 PM'
p55
aI13
aI30
aI14
aI45
aNaNaNaNaNaNaNag5
aa(lp56
S'AIS499'
p57
aI70473
aI10
aI10
ag12
aNaNaNaNaNaNaNaNaNaNaNaNag5
aa(lp58
S'AIS501'
p59
aI78008
aI19
aI20
ag36
aS' 6:00 PM'
p60
aI18
aI0
aI20
aI45
aNaNaNaNaNaNaNag5
aa(lp61
S'AIS502'
p62
aI81945
aI20
aI20
ag43
aS' 6:00 PM'
p63
aI18
aI0
aI20
aI45
aNaNaNaNaNaNaNag5
aa(lp64
S'AIS512'
p65
aI81949
aI19
aI20
aS'Th'
p66
aS' 6:00 PM'
p67
aI18
aI0
aI20
aI30
aNaNaNaNaNaNaNag5
aa(lp68
S'AIS516'
p69
aI89418
aI13
aI20
ag16
aS' 6:00 PM'
p70
aI18
aI0
aI20
aI45
aNaNaNaNaNaNaNag5
aa(lp71
S'AIS590'
p72
aI84483
aI10
aI10
ag12
aNaNaNaNaNaNaNaNaNaNaNaNag5
aa(lp73
S'AIS598'
p74
aI89440
aI10
aI10
ag16
aS' 4:30 PM'
p75
aI16
aI30
aI19
aI15
aNaNaNaNaNaNaNag5
aa(lp76
S'AIS599'
p77
aI84210
aI8
aI10
ag12
aNaNaNaNaNaNaNaNaNaNaNaNag5
aa.