(lp0
(lp1
S'ALT420'
p2
aI74502
aI25
aI30
aS'T Th'
p3
aS'12:00 PM'
p4
aI12
aI0
aI13
aI15
aNaNaNaNaNaNaNaS'Not Reserved'
p5
aa(lp6
S'ALT435'
p7
aI73633
aI15
aI20
aS'F'
p8
aS' 4:30 PM'
p9
aI16
aI30
aI19
aI15
aNaNaNaNaNaNaNag5
aa(lp10
S'ALT502'
p11
aI83602
aI20
aI25
aS'T Th'
p12
aS' 9:00 AM'
p13
aI9
aI0
aI10
aI15
aNaNaNaNaNaNaNag5
aa(lp14
S'ALT507'
p15
aI73584
aI22
aI28
aS'T Th'
p16
aS' 6:00 PM'
p17
aI18
aI0
aI19
aI15
aNaNaNaNaNaNaNag5
aa(lp18
S'ALT535'
p19
aI73634
aI18
aI34
ag8
aS' 4:30 PM'
p20
aI16
aI30
aI19
aI15
aNaNaNaNaNaNaNag5
aa(lp21
S'ALT598'
p22
aI74503
aI7
aI10
aS'T Th'
p23
aS'12:00 PM'
p24
aI12
aI0
aI13
aI15
aNaNaNaNaNaNaNag5
aa.