(lp0
(lp1
S'AML100'
p2
aI74028
aI0
aI15
aS'T Th'
p3
aS'12:00 PM'
p4
aI12
aI0
aI13
aI15
aNaNaNaNaNaNaNaS'Reserved'
p5
aa(lp6
S'AML100'
p7
aI80823
aI8
aI15
aS'T Th'
p8
aS'10:30 AM'
p9
aI10
aI30
aI11
aI45
aNaNaNaNaNaNaNaS'Not Reserved'
p10
aa(lp11
S'AML406'
p12
aI75142
aI2
aI5
aS'ONLINE'
p13
aNaNaNaNaNaNaNaNaNaNaNaNag10
aa(lp14
S'AML520'
p15
aI81282
aI6
aI15
aS'T Th'
p16
aS' 3:00 PM'
p17
aI15
aI0
aI16
aI15
aNaNaNaNaNaNaNag10
aa(lp18
S'AML590'
p19
aI75229
aI26
aI30
ag13
aNaNaNaNaNaNaNaNaNaNaNaNag5
aa(lp20
S'AML592'
p21
aI75230
aI28
aI30
ag13
aNaNaNaNaNaNaNaNaNaNaNaNag5
aa(lp22
S'AML610'
p23
aI74608
aI10
aI16
aS'T Th'
p24
aS' 4:30 PM'
p25
aI16
aI30
aI17
aI45
aNaNaNaNaNaNaNag10
aa(lp26
S'AML790'
p27
aI75228
aI30
aI30
ag13
aNaNaNaNaNaNaNaNaNaNaNaNag5
aa(lp28
S'AML792'
p29
aI75147
aI29
aI30
ag13
aNaNaNaNaNaNaNaNaNaNaNaNag5
aa(lp30
S'AML799'
p31
aI75217
aI30
aI30
ag13
aNaNaNaNaNaNaNaNaNaNaNaNag5
aa.