(lp0
(lp1
S'AMS330'
p2
aI86254
aI30
aI40
aS'T Th'
p3
aS' 1:30 PM'
p4
aI13
aI30
aI14
aI45
aNaNaNaNaNaNaNaS'Not Reserved'
p5
aa(lp6
S'AMS490'
p7
aI70478
aI14
aI15
aS'F'
p8
aS' 1:30 PM'
p9
aI13
aI30
aI14
aI45
aNaNaNaNaNaNaNag5
aa(lp10
S'AMS502'
p11
aI90500
aI14
aI15
aS'W'
p12
aS' 3:00 PM'
p13
aI15
aI0
aI17
aI30
aNaNaNaNaNaNaNag5
aa(lp14
S'AMS598'
p15
aI91081
aI10
aI10
aS'M'
p16
aS' 4:30 PM'
p17
aI16
aI30
aI19
aI15
aNaNaNaNaNaNaNag5
aa.