(lp0
(lp1
S'AMT101'
p2
aI82058
aI29
aI60
aS'M'
p3
aS' 4:30 PM'
p4
aI16
aI30
aI17
aI20
aNaNaNaNaNaNaNaS'Not Reserved'
p5
aa(lp6
S'AMT105'
p7
aI78192
aI54
aI60
aS'T'
p8
aS'4:30PM'
p9
aI16
aI30
aI17
aI20
aS''
p10
ag10
aNaNag10
aNaNag5
aa(lp11
S'AMT110'
p12
aI78193
aI54
aI60
ag8
aS'4:30PM'
p13
aI16
aI30
aI17
aI20
ag10
ag10
aNaNag10
aNaNag5
aa(lp14
S'AMT150'
p15
aI78195
aI52
aI60
ag8
aS'4:30PM'
p16
aI16
aI30
aI17
aI20
ag10
ag10
aNaNag10
aNaNag5
aa(lp17
S'AMT170'
p18
aI81419
aI23
aI30
aS'ONLINE'
p19
aNaNaNaNaNaNaNaNaNaNaNaNaS'Reserved'
p20
aa(lp21
S'AMT182'
p22
aI73062
aI36
aI45
aS'M W'
p23
aS' 3:00 PM'
p24
aI15
aI0
aI16
aI15
aNaNaNaNaNaNaNag5
aa(lp25
S'AMT182'
p26
aI73063
aI34
aI45
aS'T Th'
p27
aS' 1:30 PM'
p28
aI13
aI30
aI14
aI45
aNaNaNaNaNaNaNag5
aa(lp29
S'AMT182'
p30
aI84774
aI44
aI45
aS'T Th'
p31
aS' 9:00 AM'
p32
aI9
aI0
aI10
aI15
aNaNaNaNaNaNaNag5
aa(lp33
S'AMT201'
p34
aI70480
aI29
aI60
aS'M W F'
p35
aS'12:00 PM'
p36
aI12
aI0
aI12
aI50
aNaNaNaNaNaNaNag5
aa(lp37
S'AMT205'
p38
aI78393
aI51
aI60
ag8
aS'4:30PM'
p39
aI16
aI30
aI17
aI20
ag10
ag10
aNaNag10
aNaNag5
aa(lp40
S'AMT210'
p41
aI78394
aI57
aI60
ag8
aS'4:30PM'
p42
aI16
aI30
aI17
aI20
ag10
ag10
aNaNag10
aNaNag5
aa(lp43
S'AMT214'
p44
aI73064
aI4
aI30
aS'M W F'
p45
aS'10:30 AM'
p46
aI10
aI30
aI11
aI20
aNaNaNaNaNaNaNag5
aa(lp47
S'AMT220'
p48
aI75355
aI106
aI125
ag19
aNaNaNaNaNaNaNaNaNaNaNaNag20
aa(lp49
S'AMT222'
p50
aI73066
aI6
aI12
aS'T Th'
p51
aS'10:30 AM'
p52
aI10
aI30
aI11
aI45
aNaNaNaNaNaNaNag5
aa(lp53
S'AMT222'
p54
aI78003
aI11
aI11
aS'T Th'
p55
aS'10:30 AM'
p56
aI10
aI30
aI11
aI45
aNaNaNaNaNaNaNag5
aa(lp57
S'AMT222'
p58
aI86047
aI0
aI1
aS'T Th'
p59
aS'10:30 AM'
p60
aI10
aI30
aI11
aI45
aNaNaNaNaNaNaNag20
aa(lp61
S'AMT250'
p62
aI78395
aI54
aI60
ag8
aS'4:30PM'
p63
aI16
aI30
aI17
aI20
ag10
ag10
aNaNag10
aNaNag5
aa(lp64
S'AMT270'
p65
aI91207
aI22
aI30
aS'Sa'
p66
aS' 9:00 AM'
p67
aI9
aI0
aI9
aI30
aNaNaNaNaNaNaNag5
aa(lp68
S'AMT270'
p69
aI91230
aI22
aI30
aS'Sa'
p70
aS' 9:30 AM'
p71
aI9
aI30
aI12
aI30
aNaNaNaNaNaNaNag5
aa(lp72
S'AMT280'
p73
aI70481
aI24
aI72
aS'T Th'
p74
aS'10:30 AM'
p75
aI10
aI30
aI11
aI45
aNaNaNaNaNaNaNag5
aa(lp76
S'AMT280'
p77
aI70482
aI0
aI24
ag8
aS' 6:00 PM'
p78
aI18
aI0
aI20
aI45
aNaNaNaNaNaNaNag20
aa(lp79
S'AMT280'
p80
aI80445
aI0
aI24
aS'W'
p81
aS' 1:00 PM'
p82
aI13
aI0
aI15
aI45
aNaNaNaNaNaNaNag20
aa(lp83
S'AMT285'
p84
aI73067
aI18
aI25
aS'M W F'
p85
aS' 1:30 PM'
p86
aI13
aI30
aI14
aI20
aNaNaNaNaNaNaNag5
aa(lp87
S'AMT286'
p88
aI73068
aI13
aI35
ag81
aS' 4:30 PM'
p89
aI16
aI30
aI17
aI20
aNaNaNaNaNaNaNag5
aa(lp90
S'AMT287'
p91
aI73471
aI22
aI63
aS'M W'
p92
aS' 4:30 PM'
p93
aI16
aI30
aI17
aI45
aNaNaNaNaNaNaNag5
aa(lp94
S'AMT287'
p95
aI77936
aI0
aI21
ag3
aS' 6:30 PM'
p96
aI18
aI30
aI20
aI45
aNaNaNaNaNaNaNag20
aa(lp97
S'AMT287'
p98
aI80594
aI1
aI21
ag8
aS' 1:00 PM'
p99
aI13
aI0
aI15
aI45
aNaNaNaNaNaNaNag5
aa(lp100
S'AMT292'
p101
aI70484
aI14
aI20
aS'M W'
p102
aS' 9:00 AM'
p103
aI9
aI0
aI9
aI50
aNaNaNaNaNaNaNag5
aa(lp104
S'AMT292'
p105
aI72746
aI14
aI20
aS'T Th'
p106
aS'10:30 AM'
p107
aI10
aI30
aI11
aI45
aNaNaNaNaNaNaNag5
aa(lp108
S'AMT305'
p109
aI78402
aI52
aI60
ag8
aS'4:30PM'
p110
aI16
aI30
aI17
aI20
ag10
ag10
aNaNag10
aNaNag5
aa(lp111
S'AMT308'
p112
aI70483
aI24
aI55
aS'M W F'
p113
aS' 9:00 AM'
p114
aI9
aI0
aI9
aI50
aNaNaNaNaNaNaNag5
aa(lp115
S'AMT310'
p116
aI78403
aI57
aI60
ag8
aS'4:30PM'
p117
aI16
aI30
aI17
aI20
ag10
ag10
aNaNag10
aNaNag5
aa(lp118
S'AMT350'
p119
aI70479
aI21
aI50
aS'T Th'
p120
aS'12:00 PM'
p121
aI12
aI0
aI13
aI15
aNaNaNaNaNaNaNag5
aa(lp122
S'AMT350'
p123
aI72742
aI5
aI25
ag8
aS' 1:30 PM'
p124
aI13
aI30
aI14
aI45
aNaNaNaNaNaNaNag5
aa(lp125
S'AMT350'
p126
aI80422
aI16
aI25
aS'Th'
p127
aS' 1:30 PM'
p128
aI13
aI30
aI14
aI45
aNaNaNaNaNaNaNag5
aa(lp129
S'AMT360'
p130
aI91142
aI18
aI25
aS'M W'
p131
aS' 6:00 PM'
p132
aI18
aI0
aI19
aI15
aNaNaNaNaNaNaNag5
aa(lp133
S'AMT382'
p134
aI76317
aI9
aI15
aS'M W'
p135
aS' 1:30 PM'
p136
aI13
aI30
aI14
aI45
aNaNaNaNaNaNaNag5
aa(lp137
S'AMT408'
p138
aI74283
aI31
aI50
ag19
aNaNaNaNaNaNaNaNaNaNaNaNag5
aa(lp139
S'AMT410'
p140
aI70485
aI28
aI45
aS'M W F'
p141
aS'12:00 PM'
p142
aI12
aI0
aI13
aI15
aNaNaNaNaNaNaNag5
aa(lp143
S'AMT442'
p144
aI70486
aI28
aI50
aS'M W F'
p145
aS' 1:30 PM'
p146
aI13
aI30
aI14
aI20
aNaNaNaNaNaNaNag5
aa(lp147
S'AMT444'
p148
aI70487
aI26
aI50
ag8
aS' 6:00 PM'
p149
aI18
aI0
aI20
aI45
aNaNaNaNaNaNaNag5
aa(lp150
S'AMT456'
p151
aI90887
aI5
aI30
ag19
aNaNaNaNaNaNaNaNaNaNaNaNag20
aa(lp152
S'AMT482'
p153
aI72744
aI6
aI15
aS'T Th'
p154
aS' 1:30 PM'
p155
aI13
aI30
aI14
aI45
aNaNaNaNaNaNaNag5
aa(lp156
S'AMT484'
p157
aI70489
aI20
aI20
ag19
aNaNaNaNaNaNaNaNaNaNaNaNag5
aa(lp158
S'AMT484'
p159
aI85524
aI3
aI5
ag19
aNaNaNaNaNaNaNaNaNaNaNaNag5
aa(lp160
S'AMT486'
p161
aI73069
aI21
aI30
aS'T Th'
p162
aS' 9:00 AM'
p163
aI9
aI0
aI10
aI15
aNaNaNaNaNaNaNag5
aa(lp164
S'AMT490'
p165
aI73070
aI2
aI10
aS'M W F'
p166
aS'10:30 AM'
p167
aI10
aI30
aI11
aI20
aNaNaNaNaNaNaNag5
aa(lp168
S'AMT491'
p169
aI70490
aI27
aI38
aS'M W'
p170
aS' 3:00 PM'
p171
aI15
aI0
aI16
aI15
aNaNaNaNaNaNaNag5
aa(lp172
S'AMT499'
p173
aI70491
aI15
aI15
ag19
aNaNaNaNaNaNaNaNaNaNaNaNag5
aa(lp174
S'AMT526'
p175
aI75112
aI11
aI15
ag19
aNaNaNaNaNaNaNaNaNaNaNaNag20
aa(lp176
S'AMT533'
p177
aI84625
aI19
aI30
ag81
aS' 4:30 PM'
p178
aI16
aI30
aI19
aI15
aNaNaNaNaNaNaNag5
aa(lp179
S'AMT541'
p180
aI86270
aI26
aI30
ag8
aS' 6:00 PM'
p181
aI18
aI0
aI20
aI45
aNaNaNaNaNaNaNag5
aa(lp182
S'AMT570'
p183
aI86271
aI23
aI30
ag19
aNaNaNaNaNaNaNaNaNaNaNaNag20
aa(lp184
S'AMT584'
p185
aI91671
aI20
aI20
ag19
aNaNaNaNaNaNaNaNaNaNaNaNag5
aa(lp186
S'AMT590'
p187
aI70492
aI10
aI10
ag19
aNaNaNaNaNaNaNaNaNaNaNaNag5
aa(lp188
S'AMT592'
p189
aI70493
aI10
aI10
ag19
aNaNaNaNaNaNaNaNaNaNaNaNag5
aa(lp190
S'AMT593'
p191
aI91672
aI30
aI30
ag19
aNaNaNaNaNaNaNaNaNaNaNaNag5
aa(lp192
S'AMT595'
p193
aI70494
aI5
aI5
ag19
aNaNaNaNaNaNaNaNaNaNaNaNag5
aa(lp194
S'AMT599'
p195
aI70495
aI10
aI10
ag19
aNaNaNaNaNaNaNaNaNaNaNaNag5
aa.