(lp0
(lp1
S'ANB601'
p2
aI79870
aI5
aI6
aS'T Th'
p3
aS'12:00PM'
p4
aI12
aI0
aI12
aI50
aS'T Th'
p5
aS'9:00AM'
p6
aI9
aI0
aS'11:45AM'
p7
aI11
aI45
aS'Not Reserved'
p8
aa(lp9
S'ANB602'
p10
aI75070
aI28
aI32
aS'M'
p11
aS' 1:30 PM'
p12
aI13
aI30
aI14
aI45
aNaNaNaNaNaNaNag8
aa(lp13
S'ANB790'
p14
aI75388
aI30
aI30
aS'ONLINE'
p15
aNaNaNaNaNaNaNaNaNaNaNaNag8
aa(lp16
S'ANB792'
p17
aI75389
aI29
aI30
ag15
aNaNaNaNaNaNaNaNaNaNaNaNag8
aa(lp18
S'ANB795'
p19
aI75390
aI30
aI30
ag15
aNaNaNaNaNaNaNaNaNaNaNaNag8
aa(lp20
S'ANB799'
p21
aI75391
aI30
aI30
ag15
aNaNaNaNaNaNaNaNaNaNaNaNag8
aa.