(lp0
(lp1
S'APA191'
p2
aI82657
aI19
aI19
aS'Th'
p3
aS'10:30 AM'
p4
aI10
aI30
aI11
aI20
aNaNaNaNaNaNaNaS'Not Reserved'
p5
aa(lp6
S'APA200'
p7
aI79722
aI40
aI75
aS'T'
p8
aS'1:30PM'
p9
aI13
aI30
aI14
aI45
aS''
p10
aS'12:00AM'
p11
aNaNaS'12:00AM'
p12
aNaNag5
aa(lp13
S'APA200'
p14
aI70496
aI63
aI75
aS'Th'
p15
aS'1:30PM'
p16
aI13
aI30
aI14
aI45
ag10
aS'12:00AM'
p17
aNaNaS'12:00AM'
p18
aNaNag5
aa(lp19
S'APA210'
p20
aI89936
aI1
aI20
ag8
aS'1:30PM'
p21
aI13
aI30
aI14
aI45
ag10
aS'12:00AM'
p22
aNaNaS'12:00AM'
p23
aNaNag5
aa(lp24
S'APA210'
p25
aI89937
aI7
aI10
aS'Th'
p26
aS'1:30PM'
p27
aI13
aI30
aI14
aI45
ag10
aS'12:00AM'
p28
aNaNaS'12:00AM'
p29
aNaNag5
aa(lp30
S'APA340'
p31
aI82678
aI26
aI35
aS'T Th'
p32
aS'10:30 AM'
p33
aI10
aI30
aI11
aI45
aNaNaNaNaNaNaNag5
aa(lp34
S'APA345'
p35
aI84057
aI0
aI90
aS'ONLINE'
p36
aNaNaNaNaNaNaNaNaNaNaNaNaS'Reserved'
p37
aa(lp38
S'APA350'
p39
aI82711
aI7
aI10
ag36
aNaNaNaNaNaNaNaNaNaNaNaNag37
aa(lp40
S'APA352'
p41
aI90869
aI10
aI10
aS'T Th'
p42
aS'10:30 AM'
p43
aI10
aI30
aI11
aI45
aNaNaNaNaNaNaNag5
aa(lp44
S'APA360'
p45
aI80041
aI0
aI45
ag36
aNaNaNaNaNaNaNaNaNaNaNaNag37
aa(lp46
S'APA360'
p47
aI73104
aI0
aI45
aS'T Th'
p48
aS' 9:00 AM'
p49
aI9
aI0
aI10
aI15
aNaNaNaNaNaNaNag37
aa(lp50
S'APA360'
p51
aI84469
aI13
aI35
aS'T Th'
p52
aS' 3:00 PM'
p53
aI15
aI0
aI16
aI15
aNaNaNaNaNaNaNag5
aa(lp54
S'APA360'
p55
aI89939
aI42
aI45
aS'M W'
p56
aS' 3:00 PM'
p57
aI15
aI0
aI16
aI15
aNaNaNaNaNaNaNag5
aa(lp58
S'APA394'
p59
aI91400
aI6
aI6
aS'W'
p60
aS' 4:30 PM'
p61
aI16
aI30
aI18
aI20
aNaNaNaNaNaNaNag5
aa(lp62
S'APA394'
p63
aI90021
aI32
aI33
aS'T Th'
p64
aS'12:00 PM'
p65
aI12
aI0
aI13
aI15
aNaNaNaNaNaNaNag5
aa(lp66
S'APA484'
p67
aI70497
aI2
aI3
ag36
aNaNaNaNaNaNaNaNaNaNaNaNag37
aa(lp68
S'APA492'
p69
aI75611
aI5
aI5
ag36
aNaNaNaNaNaNaNaNaNaNaNaNag5
aa(lp70
S'APA493'
p71
aI84524
aI5
aI5
ag36
aNaNaNaNaNaNaNaNaNaNaNaNag5
aa(lp72
S'APA498'
p73
aI84393
aI1
aI3
ag36
aNaNaNaNaNaNaNaNaNaNaNaNag5
aa(lp74
S'APA499'
p75
aI70498
aI5
aI5
ag36
aNaNaNaNaNaNaNaNaNaNaNaNag5
aa.