(lp0
(lp1
S'APL555'
p2
aI89818
aI4
aI15
aS'T Th'
p3
aS'12:00 PM'
p4
aI12
aI0
aI13
aI15
aNaNaNaNaNaNaNaS'Not Reserved'
p5
aa(lp6
S'APL588'
p7
aI88783
aI5
aI5
aS'M'
p8
aS' 4:30 PM'
p9
aI16
aI30
aI19
aI15
aNaNaNaNaNaNaNag5
aa(lp10
S'APL591'
p11
aI89823
aI18
aI20
aS'T'
p12
aS' 4:30 PM'
p13
aI16
aI30
aI19
aI15
aNaNaNaNaNaNaNag5
aa(lp14
S'APL594'
p15
aI86498
aI20
aI20
aS'F'
p16
aS' 1:30 PM'
p17
aI13
aI30
aI14
aI45
aNaNaNaNaNaNaNag5
aa(lp18
S'APL784'
p19
aI76471
aI20
aI20
aS'ONLINE'
p20
aNaNaNaNaNaNaNaNaNaNaNaNag5
aa(lp21
S'APL790'
p22
aI77870
aI20
aI20
ag20
aNaNaNaNaNaNaNaNaNaNaNaNag5
aa(lp23
S'APL792'
p24
aI77871
aI20
aI20
ag20
aNaNaNaNaNaNaNaNaNaNaNaNag5
aa(lp25
S'APL795'
p26
aI77872
aI20
aI20
ag20
aNaNaNaNaNaNaNaNaNaNaNaNag5
aa(lp27
S'APL799'
p28
aI76457
aI20
aI20
ag20
aNaNaNaNaNaNaNaNaNaNaNaNag5
aa.