(lp0
(lp1
S'ARA101'
p2
aI79945
aI12
aI19
aS'F'
p3
aS'10:30 AM'
p4
aI10
aI30
aI11
aI20
aNaNaNaNaNaNaNaS'Not Reserved'
p5
aa(lp6
S'ARA101'
p7
aI79946
aI15
aI19
ag3
aS'10:30 AM'
p8
aI10
aI30
aI11
aI20
aNaNaNaNaNaNaNag5
aa(lp9
S'ARA101'
p10
aI81745
aI19
aI19
ag3
aS' 1:30 PM'
p11
aI13
aI30
aI14
aI20
aNaNaNaNaNaNaNag5
aa(lp12
S'ARA101'
p13
aI79944
aI109
aI120
aS'T'
p14
aS' 6:00 PM'
p15
aI18
aI0
aI20
aI45
aNaNaNaNaNaNaNag5
aa(lp16
S'ARA110'
p17
aI73687
aI14
aI15
aS'M W'
p18
aS' 7:30 AM'
p19
aI7
aI30
aI10
aI15
aNaNaNaNaNaNaNag5
aa(lp20
S'ARA195'
p21
aI72845
aI131
aI150
aS'ONLINE'
p22
aNaNaNaNaNaNaNaNaNaNaNaNaS'Reserved'
p23
aa(lp24
S'ARA202'
p25
aI70499
aI66
aI100
aS'T Th'
p26
aS' 1:30 PM'
p27
aI13
aI30
aI14
aI45
aNaNaNaNaNaNaNag5
aa(lp28
S'ARA218'
p29
aI83759
aI23
aI25
aS'W'
p30
aS' 4:30 PM'
p31
aI16
aI30
aI19
aI15
aNaNaNaNaNaNaNag5
aa(lp32
S'ARA394'
p33
aI72542
aI30
aI30
ag22
aNaNaNaNaNaNaNaNaNaNaNaNag5
aa(lp34
S'ARA394'
p35
aI73661
aI11
aI20
aS'T Th'
p36
aS' 9:00 AM'
p37
aI9
aI0
aI10
aI15
aNaNaNaNaNaNaNag5
aa(lp38
S'ARA396'
p39
aI78803
aI215
aI250
aS'T Th'
p40
aS' 3:00 PM'
p41
aI15
aI0
aI16
aI15
aNaNaNaNaNaNaNag5
aa(lp42
S'ARA460'
p43
aI70500
aI2
aI30
ag3
aS'10:30AM'
p44
aI10
aI30
aI12
aI30
ag3
aS'3:00PM'
p45
aI15
aI0
aS'4:45PM'
p46
aI16
aI45
ag5
aa(lp47
S'ARA484'
p48
aI70501
aI30
aI30
ag22
aNaNaNaNaNaNaNaNaNaNaNaNag5
aa(lp49
S'ARA484'
p50
aI85913
aI30
aI30
ag22
aNaNaNaNaNaNaNaNaNaNaNaNag5
aa(lp51
S'ARA489'
p52
aI79899
aI2
aI15
ag14
aS' 4:30 PM'
p53
aI16
aI30
aI19
aI15
aNaNaNaNaNaNaNag5
aa(lp54
S'ARA499'
p55
aI70502
aI30
aI30
ag22
aNaNaNaNaNaNaNaNaNaNaNaNag5
aa(lp56
S'ARA499'
p57
aI72543
aI30
aI30
ag22
aNaNaNaNaNaNaNaNaNaNaNaNag5
aa(lp58
S'ARA560'
p59
aI80901
aI5
aI5
ag3
aS'10:30AM'
p60
aI10
aI30
aI12
aI30
ag3
aS'3:00PM'
p61
aI15
aI0
aS'4:45PM'
p62
aI16
aI45
ag5
aa(lp63
S'ARA584'
p64
aI70503
aI30
aI30
ag22
aNaNaNaNaNaNaNaNaNaNaNaNag5
aa(lp65
S'ARA589'
p66
aI81777
aI5
aI5
ag14
aS' 4:30 PM'
p67
aI16
aI30
aI19
aI15
aNaNaNaNaNaNaNag5
aa(lp68
S'ARA592'
p69
aI70504
aI30
aI30
ag22
aNaNaNaNaNaNaNaNaNaNaNaNag5
aa(lp70
S'ARA598'
p71
aI76928
aI10
aI10
aS'M W'
p72
aS' 7:30 AM'
p73
aI7
aI30
aI10
aI20
aNaNaNaNaNaNaNag5
aa(lp74
S'ARA598'
p75
aI74838
aI21
aI25
ag3
aS' 9:00 AM'
p76
aI9
aI0
aI11
aI45
aNaNaNaNaNaNaNag5
aa.