(lp0
(lp1
S'ARB101'
p2
aI77102
aI19
aI28
aS'T Th'
p3
aS'1:30PM'
p4
aI13
aI30
aI14
aI45
aS''
p5
ag5
aNaNag5
aNaNaS'Not Reserved'
p6
aa(lp7
S'ARB101'
p8
aI70507
aI21
aI28
aS'T Th'
p9
aS'9:00AM'
p10
aI9
aI0
aI10
aI15
ag5
ag5
aNaNag5
aNaNag6
aa(lp11
S'ARB101'
p12
aI70506
aI20
aI28
aS'M W'
p13
aS'12:00PM'
p14
aI12
aI0
aI13
aI15
ag5
ag5
aNaNag5
aNaNag6
aa(lp15
S'ARB101'
p16
aI73746
aI9
aI28
aS'M W'
p17
aS'1:30PM'
p18
aI13
aI30
aI14
aI45
ag5
ag5
aNaNag5
aNaNag6
aa(lp19
S'ARB102'
p20
aI75720
aI1
aI28
aS'M W'
p21
aS'3:00PM'
p22
aI15
aI0
aI16
aI15
ag5
ag5
aNaNag5
aNaNag6
aa(lp23
S'ARB201'
p24
aI70508
aI14
aI28
aS'M W'
p25
aS'10:30AM'
p26
aI10
aI30
aI11
aI45
ag5
ag5
aNaNag5
aNaNag6
aa(lp27
S'ARB201'
p28
aI84068
aI23
aI28
aS'M W'
p29
aS'9:00AM'
p30
aI9
aI0
aI10
aI15
ag5
ag5
aNaNag5
aNaNag6
aa(lp31
S'ARB202'
p32
aI79663
aI21
aI28
aS'M W'
p33
aS'12:00PM'
p34
aI12
aI0
aI13
aI15
ag5
ag5
aNaNag5
aNaNag6
aa(lp35
S'ARB311'
p36
aI72844
aI10
aI25
aS'T Th'
p37
aS'12:00 PM'
p38
aI12
aI0
aI13
aI15
aNaNaNaNaNaNaNag6
aa(lp39
S'ARB331'
p40
aI72901
aI12
aI25
aS'ONLINE'
p41
aNaNaNaNaNaNaNaNaNaNaNaNag6
aa(lp42
S'ARB336'
p43
aI83105
aI15
aI25
ag41
aNaNaNaNaNaNaNaNaNaNaNaNaS'Reserved'
p44
aa(lp45
S'ARB337'
p46
aI83107
aI18
aI25
ag41
aNaNaNaNaNaNaNaNaNaNaNaNag44
aa(lp47
S'ARB351'
p48
aI75723
aI18
aI28
ag41
aNaNaNaNaNaNaNaNaNaNaNaNag44
aa(lp49
S'ARB394'
p50
aI81943
aI2
aI28
aS'T Th'
p51
aS'10:30 AM'
p52
aI10
aI30
aI11
aI45
aNaNaNaNaNaNaNag6
aa(lp53
S'ARB492'
p54
aI83109
aI1
aI1
ag41
aNaNaNaNaNaNaNaNaNaNaNaNag6
aa(lp55
S'ARB493'
p56
aI77726
aI3
aI3
ag41
aNaNaNaNaNaNaNaNaNaNaNaNag6
aa(lp57
S'ARB494'
p58
aI84054
aI21
aI25
aS'T Th'
p59
aS' 1:30 PM'
p60
aI13
aI30
aI14
aI45
aNaNaNaNaNaNaNag6
aa(lp61
S'ARB499'
p62
aI75919
aI3
aI3
ag41
aNaNaNaNaNaNaNaNaNaNaNaNag6
aa(lp63
S'ARB590'
p64
aI91728
aI2
aI2
ag41
aNaNaNaNaNaNaNaNaNaNaNaNag6
aa.