(lp0
(lp1
S'ARE250'
p2
aI75426
aI9
aI25
aS'M W'
p3
aS' 1:30 PM'
p4
aI13
aI30
aI15
aI15
aNaNaNaNaNaNaNaS'Not Reserved'
p5
aa(lp6
S'ARE370'
p7
aI72506
aI5
aI25
aS'Th'
p8
aS' 4:30 PM'
p9
aI16
aI30
aI19
aI15
aNaNaNaNaNaNaNag5
aa(lp10
S'ARE394'
p11
aI72565
aI30
aI30
aS'ONLINE'
p12
aNaNaNaNaNaNaNaNaNaNaNaNag5
aa(lp13
S'ARE486'
p14
aI70509
aI8
aI25
aS'W F'
p15
aS'10:30AM'
p16
aI10
aI30
aI12
aI15
aS'Sa'
p17
aS'8:00AM'
p18
aI8
aI0
aS'12:30PM'
p19
aI12
aI30
ag5
aa(lp20
S'ARE492'
p21
aI76400
aI30
aI30
ag12
aNaNaNaNaNaNaNaNaNaNaNaNag5
aa(lp22
S'ARE493'
p23
aI76401
aI30
aI30
ag12
aNaNaNaNaNaNaNaNaNaNaNaNag5
aa(lp24
S'ARE494'
p25
aI72504
aI0
aI20
aS'W'
p26
aS' 4:30 PM'
p27
aI16
aI30
aI19
aI15
aNaNaNaNaNaNaNaS'Reserved'
p28
aa(lp29
S'ARE499'
p30
aI83659
aI30
aI30
ag12
aNaNaNaNaNaNaNaNaNaNaNaNag5
aa(lp31
S'ARE520'
p32
aI86769
aI12
aI15
aS'M'
p33
aS' 4:30 PM'
p34
aI16
aI30
aI19
aI15
aNaNaNaNaNaNaNag5
aa(lp35
S'ARE540'
p36
aI86768
aI13
aI15
aS'T'
p37
aS' 4:30 PM'
p38
aI16
aI30
aI19
aI15
aNaNaNaNaNaNaNag5
aa(lp39
S'ARE584'
p40
aI70510
aI30
aI30
ag12
aNaNaNaNaNaNaNaNaNaNaNaNag5
aa(lp41
S'ARE590'
p42
aI70511
aI30
aI30
ag12
aNaNaNaNaNaNaNaNaNaNaNaNag5
aa(lp43
S'ARE592'
p44
aI70512
aI30
aI30
ag12
aNaNaNaNaNaNaNaNaNaNaNaNag5
aa(lp45
S'ARE595'
p46
aI72549
aI30
aI30
ag12
aNaNaNaNaNaNaNaNaNaNaNaNag5
aa(lp47
S'ARE598'
p48
aI72505
aI5
aI5
ag26
aS' 4:30 PM'
p49
aI16
aI30
aI19
aI15
aNaNaNaNaNaNaNag5
aa(lp50
S'ARE599'
p51
aI70513
aI30
aI30
ag12
aNaNaNaNaNaNaNaNaNaNaNaNag5
aa(lp52
S'ARE684'
p53
aI72566
aI30
aI30
ag12
aNaNaNaNaNaNaNaNaNaNaNaNag5
aa(lp54
S'ARE690'
p55
aI70514
aI30
aI30
ag12
aNaNaNaNaNaNaNaNaNaNaNaNag5
aa(lp56
S'ARE692'
p57
aI70515
aI30
aI30
ag12
aNaNaNaNaNaNaNaNaNaNaNaNag5
aa(lp58
S'ARE695'
p59
aI72550
aI30
aI30
ag12
aNaNaNaNaNaNaNaNaNaNaNaNag5
aa(lp60
S'ARE790'
p61
aI70516
aI30
aI30
ag12
aNaNaNaNaNaNaNaNaNaNaNaNag5
aa(lp62
S'ARE792'
p63
aI70517
aI30
aI30
ag12
aNaNaNaNaNaNaNaNaNaNaNaNag5
aa(lp64
S'ARE795'
p65
aI72551
aI30
aI30
ag12
aNaNaNaNaNaNaNaNaNaNaNaNag5
aa(lp66
S'ARE799'
p67
aI70518
aI30
aI30
ag12
aNaNaNaNaNaNaNaNaNaNaNaNag5
aa.