(lp0
(lp1
S'ARS100'
p2
aI73906
aI179
aI300
aS'ONLINE'
p3
aNaNaNaNaNaNaNaNaNaNaNaNaS'Reserved'
p4
aa(lp5
S'ARS100'
p6
aI77009
aI270
aI300
ag3
aNaNaNaNaNaNaNaNaNaNaNaNag4
aa(lp7
S'ARS100'
p8
aI73557
aI323
aI400
aS'T Th'
p9
aS' 3:00 PM'
p10
aI15
aI0
aI16
aI15
aNaNaNaNaNaNaNaS'Not Reserved'
p11
aa(lp12
S'ARS101'
p13
aI75078
aI173
aI200
ag3
aNaNaNaNaNaNaNaNaNaNaNaNag4
aa(lp14
S'ARS101'
p15
aI75079
aI189
aI200
ag3
aNaNaNaNaNaNaNaNaNaNaNaNag4
aa(lp16
S'ARS101'
p17
aI74052
aI378
aI400
aS'M W'
p18
aS' 4:30 PM'
p19
aI16
aI30
aI17
aI45
aNaNaNaNaNaNaNag11
aa(lp20
S'ARS101'
p21
aI83644
aI179
aI195
aS'T Th'
p22
aS' 3:00 PM'
p23
aI15
aI0
aI16
aI15
aNaNaNaNaNaNaNag11
aa(lp24
S'ARS102'
p25
aI83113
aI265
aI300
ag3
aNaNaNaNaNaNaNaNaNaNaNaNag4
aa(lp26
S'ARS102'
p27
aI75080
aI289
aI300
ag3
aNaNaNaNaNaNaNaNaNaNaNaNag4
aa(lp28
S'ARS102'
p29
aI76679
aI358
aI400
aS'T Th'
p30
aS' 4:30 PM'
p31
aI16
aI30
aI17
aI45
aNaNaNaNaNaNaNag11
aa(lp32
S'ARS201'
p33
aI79926
aI54
aI100
ag3
aNaNaNaNaNaNaNaNaNaNaNaNag4
aa(lp34
S'ARS201'
p35
aI74120
aI95
aI109
aS'M W F'
p36
aS' 9:00 AM'
p37
aI9
aI0
aI9
aI50
aNaNaNaNaNaNaNag11
aa(lp38
S'ARS202'
p39
aI83114
aI95
aI109
aS'T Th'
p40
aS' 1:30 PM'
p41
aI13
aI30
aI14
aI45
aNaNaNaNaNaNaNag11
aa(lp42
S'ARS300'
p43
aI75081
aI144
aI200
ag3
aNaNaNaNaNaNaNaNaNaNaNaNag4
aa(lp44
S'ARS300'
p45
aI75082
aI197
aI200
ag3
aNaNaNaNaNaNaNaNaNaNaNaNag4
aa(lp46
S'ARS345'
p47
aI81929
aI78
aI109
aS'M W'
p48
aS' 3:00 PM'
p49
aI15
aI0
aI16
aI15
aNaNaNaNaNaNaNag11
aa(lp50
S'ARS362'
p51
aI86773
aI27
aI48
aS'M W'
p52
aS' 3:00 PM'
p53
aI15
aI0
aI16
aI15
aNaNaNaNaNaNaNag11
aa(lp54
S'ARS394'
p55
aI79935
aI0
aI45
ag3
aNaNaNaNaNaNaNaNaNaNaNaNag4
aa(lp56
S'ARS394'
p57
aI83116
aI0
aI40
ag3
aNaNaNaNaNaNaNaNaNaNaNaNag4
aa(lp58
S'ARS394'
p59
aI81947
aI1
aI25
ag3
aNaNaNaNaNaNaNaNaNaNaNaNag4
aa(lp60
S'ARS394'
p61
aI90082
aI0
aI50
ag3
aNaNaNaNaNaNaNaNaNaNaNaNag4
aa(lp62
S'ARS394'
p63
aI79937
aI41
aI48
aS'M W'
p64
aS' 4:30 PM'
p65
aI16
aI30
aI17
aI45
aNaNaNaNaNaNaNag11
aa(lp66
S'ARS394'
p67
aI77332
aI30
aI30
ag3
aNaNaNaNaNaNaNaNaNaNaNaNag11
aa(lp68
S'ARS406'
p69
aI86876
aI87
aI105
aS'T Th'
p70
aS' 9:00 AM'
p71
aI9
aI0
aI10
aI15
aNaNaNaNaNaNaNag11
aa(lp72
S'ARS438'
p73
aI86878
aI0
aI30
ag3
aNaNaNaNaNaNaNaNaNaNaNaNag4
aa(lp74
S'ARS440'
p75
aI79942
aI6
aI20
ag3
aNaNaNaNaNaNaNaNaNaNaNaNag4
aa(lp76
S'ARS441'
p77
aI86899
aI4
aI15
aS'W'
p78
aS' 1:30 PM'
p79
aI13
aI30
aI16
aI15
aNaNaNaNaNaNaNag11
aa(lp80
S'ARS442'
p81
aI78353
aI33
aI45
aS'T Th'
p82
aS'12:00 PM'
p83
aI12
aI0
aI13
aI15
aNaNaNaNaNaNaNag11
aa(lp84
S'ARS473'
p85
aI76720
aI48
aI100
aS'T Th'
p86
aS'10:30 AM'
p87
aI10
aI30
aI11
aI45
aNaNaNaNaNaNaNag11
aa(lp88
S'ARS480'
p89
aI76706
aI14
aI20
ag78
aS' 1:30 PM'
p90
aI13
aI30
aI16
aI15
aNaNaNaNaNaNaNag11
aa(lp91
S'ARS484'
p92
aI70519
aI29
aI30
ag3
aNaNaNaNaNaNaNaNaNaNaNaNag11
aa(lp93
S'ARS484'
p94
aI84235
aI30
aI30
ag3
aNaNaNaNaNaNaNaNaNaNaNaNag11
aa(lp95
S'ARS485'
p96
aI86910
aI10
aI30
ag3
aNaNaNaNaNaNaNaNaNaNaNaNag4
aa(lp97
S'ARS492'
p98
aI72552
aI30
aI30
ag3
aNaNaNaNaNaNaNaNaNaNaNaNag11
aa(lp99
S'ARS493'
p100
aI73465
aI30
aI30
ag3
aNaNaNaNaNaNaNaNaNaNaNaNag11
aa(lp101
S'ARS498'
p102
aI83136
aI35
aI40
aS'M'
p103
aS' 1:30 PM'
p104
aI13
aI30
aI16
aI15
aNaNaNaNaNaNaNag11
aa(lp105
S'ARS498'
p106
aI78404
aI7
aI12
ag78
aS' 9:00 AM'
p107
aI9
aI0
aI11
aI45
aNaNaNaNaNaNaNag11
aa(lp108
S'ARS498'
p109
aI78424
aI7
aI16
aS'T'
p110
aS' 4:30 PM'
p111
aI16
aI30
aI19
aI15
aNaNaNaNaNaNaNag11
aa(lp112
S'ARS499'
p113
aI72553
aI30
aI30
ag3
aNaNaNaNaNaNaNaNaNaNaNaNag11
aa(lp114
S'ARS501'
p115
aI73646
aI16
aI20
aS'T Th'
p116
aS' 9:00 AM'
p117
aI9
aI0
aI10
aI15
aNaNaNaNaNaNaNag11
aa(lp118
S'ARS506'
p119
aI86877
aI2
aI4
aS'T Th'
p120
aS' 9:00 AM'
p121
aI9
aI0
aI10
aI15
aNaNaNaNaNaNaNag11
aa(lp122
S'ARS540'
p123
aI90559
aI7
aI7
ag3
aNaNaNaNaNaNaNaNaNaNaNaNag4
aa(lp124
S'ARS541'
p125
aI86900
aI1
aI5
ag78
aS' 1:30 PM'
p126
aI13
aI30
aI16
aI15
aNaNaNaNaNaNaNag11
aa(lp127
S'ARS574'
p128
aI76721
aI5
aI9
aS'T Th'
p129
aS'10:30 AM'
p130
aI10
aI30
aI11
aI45
aNaNaNaNaNaNaNag11
aa(lp131
S'ARS584'
p132
aI70521
aI30
aI30
ag3
aNaNaNaNaNaNaNaNaNaNaNaNag11
aa(lp133
S'ARS584'
p134
aI72515
aI20
aI20
ag3
aNaNaNaNaNaNaNaNaNaNaNaNag11
aa(lp135
S'ARS590'
p136
aI72555
aI30
aI30
ag3
aNaNaNaNaNaNaNaNaNaNaNaNag11
aa(lp137
S'ARS591'
p138
aI78405
aI7
aI8
ag78
aS' 9:00 AM'
p139
aI9
aI0
aI11
aI45
aNaNaNaNaNaNaNag11
aa(lp140
S'ARS591'
p141
aI78425
aI1
aI4
ag110
aS' 4:30 PM'
p142
aI16
aI30
aI19
aI15
aNaNaNaNaNaNaNag11
aa(lp143
S'ARS591'
p144
aI78177
aI7
aI8
ag103
aS' 1:30 PM'
p145
aI13
aI30
aI16
aI15
aNaNaNaNaNaNaNag11
aa(lp146
S'ARS591'
p147
aI85765
aI17
aI20
ag103
aS'10:30 AM'
p148
aI10
aI30
aI13
aI15
aNaNaNaNaNaNaNag11
aa(lp149
S'ARS592'
p150
aI72556
aI30
aI30
ag3
aNaNaNaNaNaNaNaNaNaNaNaNag11
aa(lp151
S'ARS592'
p152
aI72943
aI30
aI30
ag3
aNaNaNaNaNaNaNaNaNaNaNaNag11
aa(lp153
S'ARS595'
p154
aI72557
aI30
aI30
ag3
aNaNaNaNaNaNaNaNaNaNaNaNag11
aa(lp155
S'ARS598'
p156
aI78354
aI0
aI3
aS'T Th'
p157
aS'12:00 PM'
p158
aI12
aI0
aI13
aI15
aNaNaNaNaNaNaNag4
aa(lp159
S'ARS599'
p160
aI72558
aI30
aI30
ag3
aNaNaNaNaNaNaNaNaNaNaNaNag11
aa(lp161
S'ARS690'
p162
aI72559
aI30
aI30
ag3
aNaNaNaNaNaNaNaNaNaNaNaNag11
aa(lp163
S'ARS692'
p164
aI70522
aI30
aI30
ag3
aNaNaNaNaNaNaNaNaNaNaNaNag11
aa(lp165
S'ARS790'
p166
aI72561
aI30
aI30
ag3
aNaNaNaNaNaNaNaNaNaNaNaNag11
aa(lp167
S'ARS792'
p168
aI70523
aI30
aI30
ag3
aNaNaNaNaNaNaNaNaNaNaNaNag11
aa(lp169
S'ARS795'
p170
aI72560
aI30
aI30
ag3
aNaNaNaNaNaNaNaNaNaNaNaNag11
aa(lp171
S'ARS799'
p172
aI70524
aI30
aI30
ag3
aNaNaNaNaNaNaNaNaNaNaNaNag11
aa.