(lp0
(lp1
S'ASB100'
p2
aI77450
aI238
aI400
aS'ONLINE'
p3
aNaNaNaNaNaNaNaNaNaNaNaNaS'Reserved'
p4
aa(lp5
S'ASB100'
p6
aI86860
aI34
aI80
aS'T'
p7
aS'12:00 PM'
p8
aI12
aI0
aI13
aI15
aNaNaNaNaNaNaNag4
aa(lp9
S'ASB100'
p10
aI86861
aI20
aI80
aS'Th'
p11
aS'12:00 PM'
p12
aI12
aI0
aI13
aI15
aNaNaNaNaNaNaNaS'Not Reserved'
p13
aa(lp14
S'ASB101'
p15
aI81472
aI377
aI450
aS'M W'
p16
aS' 9:00 AM'
p17
aI9
aI0
aI10
aI15
aNaNaNaNaNaNaNag13
aa(lp18
S'ASB102'
p19
aI86859
aI43
aI80
aS'W'
p20
aS' 3:00 PM'
p21
aI15
aI0
aI16
aI15
aNaNaNaNaNaNaNag13
aa(lp22
S'ASB102'
p23
aI78408
aI65
aI80
aS'M'
p24
aS'3:00PM'
p25
aI15
aI0
aI16
aI15
aS''
p26
aS'12:00AM'
p27
aNaNaS'12:00AM'
p28
aNaNag13
aa(lp29
S'ASB191'
p30
aI76723
aI19
aI19
ag24
aS'12:00 PM'
p31
aI12
aI0
aI12
aI50
aNaNaNaNaNaNaNag13
aa(lp32
S'ASB191'
p33
aI80037
aI19
aI19
ag20
aS'12:00 PM'
p34
aI12
aI0
aI12
aI50
aNaNaNaNaNaNaNag13
aa(lp35
S'ASB202'
p36
aI75627
aI120
aI150
aS'M W'
p37
aS'12:00 PM'
p38
aI12
aI0
aI13
aI15
aNaNaNaNaNaNaNag13
aa(lp39
S'ASB202'
p40
aI74686
aI34
aI45
aS'T Th'
p41
aS'12:00 PM'
p42
aI12
aI0
aI13
aI15
aNaNaNaNaNaNaNag13
aa(lp43
S'ASB210'
p44
aI78377
aI112
aI200
ag3
aNaNaNaNaNaNaNaNaNaNaNaNag4
aa(lp45
S'ASB211'
p46
aI70175
aI10
aI32
aS'T Th'
p47
aS' 4:30 PM'
p48
aI16
aI30
aI17
aI45
aNaNaNaNaNaNaNag13
aa(lp49
S'ASB222'
p50
aI70174
aI309
aI450
aS'M W'
p51
aS' 1:30 PM'
p52
aI13
aI30
aI14
aI45
aNaNaNaNaNaNaNag13
aa(lp53
S'ASB222'
p54
aI74685
aI42
aI100
ag3
aNaNaNaNaNaNaNaNaNaNaNaNag4
aa(lp55
S'ASB223'
p56
aI86882
aI120
aI195
aS'T Th'
p57
aS'10:30 AM'
p58
aI10
aI30
aI11
aI45
aNaNaNaNaNaNaNag13
aa(lp59
S'ASB252'
p60
aI86884
aI147
aI175
aS'M W'
p61
aS' 3:00 PM'
p62
aI15
aI0
aI16
aI15
aNaNaNaNaNaNaNag13
aa(lp63
S'ASB272'
p64
aI82150
aI111
aI120
aS'M W'
p65
aS' 1:30 PM'
p66
aI13
aI30
aI14
aI45
aNaNaNaNaNaNaNag13
aa(lp67
S'ASB300'
p68
aI78379
aI0
aI300
ag3
aNaNaNaNaNaNaNaNaNaNaNaNag4
aa(lp69
S'ASB301'
p70
aI87762
aI81
aI100
aS'T Th'
p71
aS' 9:00 AM'
p72
aI9
aI0
aI10
aI15
aNaNaNaNaNaNaNag13
aa(lp73
S'ASB310'
p74
aI91381
aI17
aI20
aS'T Th'
p75
aS'12:00 PM'
p76
aI12
aI0
aI13
aI15
aNaNaNaNaNaNaNag13
aa(lp77
S'ASB311'
p78
aI80272
aI46
aI60
aS'T Th'
p79
aS' 1:30 PM'
p80
aI13
aI30
aI14
aI45
aNaNaNaNaNaNaNag13
aa(lp81
S'ASB316'
p82
aI86885
aI63
aI100
aS'M W'
p83
aS' 3:00 PM'
p84
aI15
aI0
aI16
aI15
aNaNaNaNaNaNaNag13
aa(lp85
S'ASB335'
p86
aI82169
aI40
aI70
aS'M W'
p87
aS' 1:30 PM'
p88
aI13
aI30
aI14
aI45
aNaNaNaNaNaNaNag13
aa(lp89
S'ASB336'
p90
aI91382
aI14
aI20
ag3
aNaNaNaNaNaNaNaNaNaNaNaNag4
aa(lp91
S'ASB337'
p92
aI80043
aI84
aI150
ag3
aNaNaNaNaNaNaNaNaNaNaNaNag4
aa(lp93
S'ASB344'
p94
aI82167
aI33
aI100
aS'M W'
p95
aS' 9:00 AM'
p96
aI9
aI0
aI10
aI15
aNaNaNaNaNaNaNag13
aa(lp97
S'ASB346'
p98
aI75563
aI36
aI80
ag3
aNaNaNaNaNaNaNaNaNaNaNaNag4
aa(lp99
S'ASB353'
p100
aI76345
aI188
aI300
ag3
aNaNaNaNaNaNaNaNaNaNaNaNag4
aa(lp101
S'ASB353'
p102
aI74529
aI5
aI30
ag20
aS' 6:00 PM'
p103
aI18
aI0
aI20
aI45
aNaNaNaNaNaNaNag13
aa(lp104
S'ASB353'
p105
aI83293
aI34
aI75
ag3
aNaNaNaNaNaNaNaNaNaNaNaNag4
aa(lp106
S'ASB353'
p107
aI83296
aI60
aI75
ag3
aNaNaNaNaNaNaNaNaNaNaNaNag4
aa(lp108
S'ASB353'
p109
aI83331
aI91
aI100
ag3
aNaNaNaNaNaNaNaNaNaNaNaNag4
aa(lp110
S'ASB353'
p111
aI83141
aI24
aI30
aS'F'
p112
aS'9:00AM'
p113
aI9
aI0
aI10
aI15
ag26
ag26
aNaNag26
aNaNag13
aa(lp114
S'ASB394'
p115
aI91403
aI22
aI25
ag3
aNaNaNaNaNaNaNaNaNaNaNaNag4
aa(lp116
S'ASB394'
p117
aI81862
aI29
aI40
aS'M W'
p118
aS'10:30 AM'
p119
aI10
aI30
aI11
aI45
aNaNaNaNaNaNaNag13
aa(lp120
S'ASB394'
p121
aI81866
aI22
aI40
aS'T Th'
p122
aS' 1:30 PM'
p123
aI13
aI30
aI14
aI45
aNaNaNaNaNaNaNag13
aa(lp124
S'ASB394'
p125
aI90330
aI1
aI10
aS'T Th'
p126
aS'10:30 AM'
p127
aI10
aI30
aI11
aI45
aNaNaNaNaNaNaNag13
aa(lp128
S'ASB394'
p129
aI86497
aI8
aI10
ag7
aS' 6:00 PM'
p130
aI18
aI0
aI20
aI45
aNaNaNaNaNaNaNag13
aa(lp131
S'ASB395'
p132
aI91176
aI97
aI100
ag3
aNaNaNaNaNaNaNaNaNaNaNaNag4
aa(lp133
S'ASB452'
p134
aI90654
aI12
aI30
aS'T Th'
p135
aS' 1:30 PM'
p136
aI13
aI30
aI14
aI45
aNaNaNaNaNaNaNag13
aa(lp137
S'ASB464'
p138
aI87009
aI17
aI20
aS'M W'
p139
aS'12:00 PM'
p140
aI12
aI0
aI13
aI15
aNaNaNaNaNaNaNag13
aa(lp141
S'ASB490'
p142
aI86886
aI66
aI80
aS'T Th'
p143
aS' 9:00 AM'
p144
aI9
aI0
aI10
aI15
aNaNaNaNaNaNaNag13
aa(lp145
S'ASB497'
p146
aI87026
aI3
aI3
aS'Th'
p147
aS' 1:30 PM'
p148
aI13
aI30
aI16
aI15
aNaNaNaNaNaNaNag13
aa(lp149
S'ASB497'
p150
aI87027
aI0
aI3
ag20
aS' 9:00 AM'
p151
aI9
aI0
aI11
aI45
aNaNaNaNaNaNaNag4
aa(lp152
S'ASB500'
p153
aI74424
aI0
aI15
ag24
aS' 9:00 AM'
p154
aI9
aI0
aI11
aI45
aNaNaNaNaNaNaNag4
aa(lp155
S'ASB541'
p156
aI86826
aI3
aI15
ag7
aS' 1:30 PM'
p157
aI13
aI30
aI16
aI15
aNaNaNaNaNaNaNag13
aa(lp158
S'ASB579'
p159
aI80211
aI8
aI20
ag24
aS' 4:30 PM'
p160
aI16
aI30
aI19
aI15
aNaNaNaNaNaNaNag13
aa(lp161
S'ASB580'
p162
aI80334
aI28
aI30
ag3
aNaNaNaNaNaNaNaNaNaNaNaNag4
aa(lp163
S'ASB583'
p164
aI86065
aI30
aI30
ag3
aNaNaNaNaNaNaNaNaNaNaNaNag4
aa(lp165
S'ASB584'
p166
aI75146
aI30
aI30
ag3
aNaNaNaNaNaNaNaNaNaNaNaNag4
aa(lp167
S'ASB584'
p168
aI75197
aI30
aI30
ag3
aNaNaNaNaNaNaNaNaNaNaNaNag4
aa(lp169
S'ASB590'
p170
aI75185
aI29
aI30
ag3
aNaNaNaNaNaNaNaNaNaNaNaNag13
aa(lp171
S'ASB591'
p172
aI81927
aI14
aI20
ag24
aS' 4:30 PM'
p173
aI16
aI30
aI17
aI45
aNaNaNaNaNaNaNag4
aa(lp174
S'ASB591'
p175
aI83608
aI11
aI20
aS'Th'
p176
aS' 4:30 PM'
p177
aI16
aI30
aI19
aI15
aNaNaNaNaNaNaNag13
aa(lp178
S'ASB592'
p179
aI75231
aI30
aI30
ag3
aNaNaNaNaNaNaNaNaNaNaNaNag13
aa(lp180
S'ASB790'
p181
aI75175
aI26
aI30
ag3
aNaNaNaNaNaNaNaNaNaNaNaNag4
aa(lp182
S'ASB792'
p183
aI75179
aI29
aI30
ag3
aNaNaNaNaNaNaNaNaNaNaNaNag13
aa(lp184
S'ASB799'
p185
aI75176
aI29
aI30
ag3
aNaNaNaNaNaNaNaNaNaNaNaNag13
aa.