(lp0
(lp1
S'ASM104'
p2
aI81259
aI27
aI350
aS'ONLINE'
p3
aNaNaNaNaNaNaNaNaNaNaNaNaS'Reserved'
p4
aa(lp5
S'ASM104'
p6
aI81262
aI38
aI100
aS'M W'
p7
aS'12:00 PM'
p8
aI12
aI0
aI13
aI15
aNaNaNaNaNaNaNag4
aa(lp9
S'ASM104'
p10
aI81263
aI38
aI100
ag3
aNaNaNaNaNaNaNaNaNaNaNaNag4
aa(lp11
S'ASM246'
p12
aI86907
aI114
aI150
aS'T Th'
p13
aS' 3:00 PM'
p14
aI15
aI0
aI16
aI15
aNaNaNaNaNaNaNaS'Not Reserved'
p15
aa(lp16
S'ASM300'
p17
aI75561
aI6
aI30
aS'T Th'
p18
aS'10:30 AM'
p19
aI10
aI30
aI11
aI45
aNaNaNaNaNaNaNag4
aa(lp20
S'ASM344'
p21
aI86920
aI6
aI30
aS'M W'
p22
aS'10:30 AM'
p23
aI10
aI30
aI11
aI45
aNaNaNaNaNaNaNag15
aa(lp24
S'ASM344'
p25
aI86921
aI4
aI15
aS'Th'
p26
aS'12:55 PM'
p27
aI12
aI55
aI14
aI45
aNaNaNaNaNaNaNag15
aa(lp28
S'ASM344'
p29
aI86922
aI2
aI15
aS'Th'
p30
aS' 3:05 PM'
p31
aI15
aI5
aI16
aI55
aNaNaNaNaNaNaNag15
aa(lp32
S'ASM345'
p33
aI86909
aI77
aI175
aS'T Th'
p34
aS'12:00 PM'
p35
aI12
aI0
aI13
aI15
aNaNaNaNaNaNaNag15
aa(lp36
S'ASM365'
p37
aI81939
aI8
aI50
aS'T Th'
p38
aS' 3:00 PM'
p39
aI15
aI0
aI16
aI15
aNaNaNaNaNaNaNag15
aa(lp40
S'ASM443'
p41
aI89003
aI7
aI25
aS'M W'
p42
aS' 9:00 AM'
p43
aI9
aI0
aI10
aI15
aNaNaNaNaNaNaNag15
aa(lp44
S'ASM446'
p45
aI81941
aI27
aI40
aS'T Th'
p46
aS' 3:00 PM'
p47
aI15
aI0
aI16
aI15
aNaNaNaNaNaNaNag15
aa(lp48
S'ASM460'
p49
aI86914
aI53
aI60
aS'M W'
p50
aS' 3:00 PM'
p51
aI15
aI0
aI16
aI15
aNaNaNaNaNaNaNag15
aa(lp52
S'ASM506'
p53
aI75141
aI0
aI3
aS'M W'
p54
aS' 9:00 AM'
p55
aI9
aI0
aI12
aI0
aNaNaNaNaNaNaNag4
aa(lp56
S'ASM543'
p57
aI89004
aI4
aI5
aS'M W'
p58
aS' 9:00 AM'
p59
aI9
aI0
aI10
aI15
aNaNaNaNaNaNaNag15
aa(lp60
S'ASM565'
p61
aI86862
aI12
aI15
aS'M W'
p62
aS' 3:00 PM'
p63
aI15
aI0
aI16
aI15
aNaNaNaNaNaNaNag15
aa(lp64
S'ASM568'
p65
aI91161
aI9
aI15
aS'W'
p66
aS'12:00 PM'
p67
aI12
aI0
aI14
aI45
aNaNaNaNaNaNaNag15
aa(lp68
S'ASM570'
p69
aI91163
aI1
aI5
aS'M'
p70
aS' 3:00 PM'
p71
aI15
aI0
aI17
aI45
aNaNaNaNaNaNaNag15
aa(lp72
S'ASM579'
p73
aI73164
aI11
aI12
ag70
aS' 4:30 PM'
p74
aI16
aI30
aI19
aI15
aNaNaNaNaNaNaNag4
aa(lp75
S'ASM590'
p76
aI75233
aI28
aI30
ag3
aNaNaNaNaNaNaNaNaNaNaNaNag15
aa(lp77
S'ASM591'
p78
aI81973
aI1
aI10
ag70
aS' 1:30 PM'
p79
aI13
aI30
aI16
aI15
aNaNaNaNaNaNaNag15
aa(lp80
S'ASM591'
p81
aI86944
aI14
aI15
aS'T'
p82
aS' 9:00 AM'
p83
aI9
aI0
aI11
aI45
aNaNaNaNaNaNaNag15
aa(lp84
S'ASM592'
p85
aI75234
aI29
aI30
ag3
aNaNaNaNaNaNaNaNaNaNaNaNag4
aa(lp86
S'ASM611'
p87
aI86837
aI4
aI10
ag66
aS' 1:30 PM'
p88
aI13
aI30
aI16
aI15
aNaNaNaNaNaNaNag15
aa(lp89
S'ASM790'
p90
aI75201
aI30
aI30
ag3
aNaNaNaNaNaNaNaNaNaNaNaNag15
aa(lp91
S'ASM792'
p92
aI75158
aI27
aI30
ag3
aNaNaNaNaNaNaNaNaNaNaNaNag15
aa(lp93
S'ASM799'
p94
aI75148
aI28
aI31
ag3
aNaNaNaNaNaNaNaNaNaNaNaNag15
aa.