(lp0
(lp1
S'AST111'
p2
aI75005
aI0
aI800
aS'ONLINE'
p3
aNaNaNaNaNaNaNaNaNaNaNaNaS'Reserved'
p4
aa(lp5
S'AST111'
p6
aI70559
aI41
aI220
aS'T Th'
p7
aS' 3:00 PM'
p8
aI15
aI0
aI16
aI15
aNaNaNaNaNaNaNaS'Not Reserved'
p9
aa(lp10
S'AST111'
p11
aI79347
aI143
aI220
aS'M W F'
p12
aS'10:30 AM'
p13
aI10
aI30
aI11
aI20
aNaNaNaNaNaNaNag9
aa(lp14
S'AST111'
p15
aI91425
aI182
aI220
aS'T Th'
p16
aS'10:30 AM'
p17
aI10
aI30
aI11
aI45
aNaNaNaNaNaNaNag9
aa(lp18
S'AST111'
p19
aI70176
aI126
aI150
aS'T Th'
p20
aS' 1:30 PM'
p21
aI13
aI30
aI14
aI45
aNaNaNaNaNaNaNag9
aa(lp22
S'AST113'
p23
aI77746
aI123
aI800
ag3
aNaNaNaNaNaNaNaNaNaNaNaNag4
aa(lp24
S'AST113'
p25
aI72916
aI6
aI24
aS'M'
p26
aS' 8:30 PM'
p27
aI20
aI30
aI23
aI0
aNaNaNaNaNaNaNag9
aa(lp28
S'AST113'
p29
aI72917
aI12
aI24
ag26
aS' 8:30 PM'
p30
aI20
aI30
aI23
aI0
aNaNaNaNaNaNaNag9
aa(lp31
S'AST113'
p32
aI72918
aI0
aI24
ag26
aS' 7:30 PM'
p33
aI19
aI30
aI22
aI0
aNaNaNaNaNaNaNag4
aa(lp34
S'AST113'
p35
aI72919
aI0
aI24
ag26
aS' 7:30 PM'
p36
aI19
aI30
aI22
aI0
aNaNaNaNaNaNaNag4
aa(lp37
S'AST113'
p38
aI72920
aI10
aI24
aS'T'
p39
aS' 8:30 PM'
p40
aI20
aI30
aI23
aI0
aNaNaNaNaNaNaNag9
aa(lp41
S'AST113'
p42
aI72921
aI21
aI24
ag39
aS' 8:30 PM'
p43
aI20
aI30
aI23
aI0
aNaNaNaNaNaNaNag9
aa(lp44
S'AST113'
p45
aI72922
aI0
aI24
ag39
aS' 7:30 PM'
p46
aI19
aI30
aI22
aI0
aNaNaNaNaNaNaNag4
aa(lp47
S'AST113'
p48
aI74342
aI0
aI24
ag39
aS' 7:30 PM'
p49
aI19
aI30
aI22
aI0
aNaNaNaNaNaNaNag4
aa(lp50
S'AST113'
p51
aI72923
aI19
aI24
aS'W'
p52
aS' 8:30 PM'
p53
aI20
aI30
aI23
aI0
aNaNaNaNaNaNaNag9
aa(lp54
S'AST113'
p55
aI74258
aI21
aI24
ag52
aS' 8:30 PM'
p56
aI20
aI30
aI23
aI0
aNaNaNaNaNaNaNag9
aa(lp57
S'AST113'
p58
aI72924
aI0
aI24
ag52
aS' 7:30 PM'
p59
aI19
aI30
aI22
aI0
aNaNaNaNaNaNaNag4
aa(lp60
S'AST113'
p61
aI74259
aI0
aI24
ag52
aS' 7:30 PM'
p62
aI19
aI30
aI22
aI0
aNaNaNaNaNaNaNag4
aa(lp63
S'AST113'
p64
aI72925
aI21
aI24
aS'Th'
p65
aS' 8:30 PM'
p66
aI20
aI30
aI23
aI0
aNaNaNaNaNaNaNag9
aa(lp67
S'AST113'
p68
aI76546
aI20
aI24
aS'Th'
p69
aS' 8:30 PM'
p70
aI20
aI30
aI23
aI0
aNaNaNaNaNaNaNag9
aa(lp71
S'AST113'
p72
aI72926
aI3
aI24
aS'Th'
p73
aS' 7:30 PM'
p74
aI19
aI30
aI22
aI0
aNaNaNaNaNaNaNag9
aa(lp75
S'AST113'
p76
aI72927
aI21
aI24
aS'Th'
p77
aS' 7:30 PM'
p78
aI19
aI30
aI22
aI0
aNaNaNaNaNaNaNag9
aa(lp79
S'AST113'
p80
aI74343
aI21
aI24
aS'Th'
p81
aS' 7:30 PM'
p82
aI19
aI30
aI22
aI0
aNaNaNaNaNaNaNag9
aa(lp83
S'AST113'
p84
aI72606
aI10
aI24
ag39
aS' 6:00 PM'
p85
aI18
aI0
aI20
aI45
aNaNaNaNaNaNaNag9
aa(lp86
S'AST113'
p87
aI72607
aI19
aI24
ag52
aS' 6:00 PM'
p88
aI18
aI0
aI20
aI45
aNaNaNaNaNaNaNag9
aa(lp89
S'AST113'
p90
aI72608
aI20
aI24
aS'Th'
p91
aS' 6:00 PM'
p92
aI18
aI0
aI20
aI45
aNaNaNaNaNaNaNag9
aa(lp93
S'AST321'
p94
aI75098
aI1
aI50
aS'T Th'
p95
aS' 3:00 PM'
p96
aI15
aI0
aI16
aI15
aNaNaNaNaNaNaNag4
aa(lp97
S'AST422'
p98
aI79854
aI0
aI20
aS'M W'
p99
aS' 3:00 PM'
p100
aI15
aI0
aI16
aI15
aNaNaNaNaNaNaNag4
aa(lp101
S'AST494'
p102
aI91613
aI5
aI5
aS'T Th'
p103
aS' 9:00 AM'
p104
aI9
aI0
aI10
aI15
aNaNaNaNaNaNaNag9
aa(lp105
S'AST498'
p106
aI80471
aI7
aI10
aS'F'
p107
aS'12:15 PM'
p108
aI12
aI15
aI13
aI30
aNaNaNaNaNaNaNag9
aa(lp109
S'AST499'
p110
aI91791
aI0
aI6
ag3
aNaNaNaNaNaNaNaNaNaNaNaNag4
aa(lp111
S'AST531'
p112
aI91325
aI15
aI20
aS'M W'
p113
aS' 9:00 AM'
p114
aI9
aI0
aI10
aI15
aNaNaNaNaNaNaNag9
aa(lp115
S'AST591'
p116
aI70560
aI14
aI15
ag107
aS'12:15 PM'
p117
aI12
aI15
aI13
aI30
aNaNaNaNaNaNaNag9
aa(lp118
S'AST598'
p119
aI91614
aI4
aI10
aS'T Th'
p120
aS' 9:00 AM'
p121
aI9
aI0
aI10
aI15
aNaNaNaNaNaNaNag9
aa(lp122
S'AST599'
p123
aI70561
aI20
aI20
ag3
aNaNaNaNaNaNaNaNaNaNaNaNag9
aa(lp124
S'AST692'
p125
aI76458
aI10
aI10
ag3
aNaNaNaNaNaNaNaNaNaNaNaNag9
aa(lp126
S'AST792'
p127
aI70562
aI19
aI20
ag3
aNaNaNaNaNaNaNaNaNaNaNaNag9
aa(lp128
S'AST795'
p129
aI86001
aI1
aI1
ag3
aNaNaNaNaNaNaNaNaNaNaNaNag9
aa(lp130
S'AST799'
p131
aI70563
aI20
aI20
ag3
aNaNaNaNaNaNaNaNaNaNaNaNag9
aa.