(lp0
(lp1
S'ATE361'
p2
aI70564
aI38
aI80
aS'T Th'
p3
aS' 6:00 PM'
p4
aI18
aI0
aI19
aI15
aNaNaNaNaNaNaNaS'Not Reserved'
p5
aa(lp6
S'ATE451'
p7
aI70565
aI40
aI80
aS'T Th'
p8
aS' 4:30 PM'
p9
aI16
aI30
aI17
aI45
aNaNaNaNaNaNaNaS'Reserved'
p10
aa(lp11
S'ATE521'
p12
aI70566
aI26
aI32
aS'T Th'
p13
aS' 3:00 PM'
p14
aI15
aI0
aI16
aI15
aNaNaNaNaNaNaNag5
aa(lp15
S'ATE550'
p16
aI75206
aI35
aI35
aS'T Th'
p17
aS' 1:30 PM'
p18
aI13
aI30
aI14
aI45
aNaNaNaNaNaNaNag5
aa(lp19
S'ATE553'
p20
aI70567
aI50
aI50
aS'T Th'
p21
aS' 6:00 PM'
p22
aI18
aI0
aI19
aI15
aNaNaNaNaNaNaNag5
aa(lp23
S'ATE560'
p24
aI74215
aI6
aI20
aS'M'
p25
aS' 6:00 PM'
p26
aI18
aI0
aI20
aI45
aNaNaNaNaNaNaNag5
aa(lp27
S'ATE562'
p28
aI82981
aI10
aI10
ag25
aS' 7:30 AM'
p29
aI7
aI30
aI10
aI15
aNaNaNaNaNaNaNag5
aa(lp30
S'ATE563'
p31
aI70568
aI42
aI56
aS'T Th'
p32
aS' 4:30 PM'
p33
aI16
aI30
aI17
aI45
aNaNaNaNaNaNaNag5
aa(lp34
S'ATE595'
p35
aI70569
aI4
aI5
aS'ONLINE'
p36
aNaNaNaNaNaNaNaNaNaNaNaNag5
aa.