(lp0
(lp1
S'BCH361'
p2
aI70570
aI0
aI181
aS'M W'
p3
aS' 3:00 PM'
p4
aI15
aI0
aI16
aI15
aNaNaNaNaNaNaNaS'Reserved'
p5
aa(lp6
S'BCH361'
p7
aI79738
aI5
aI175
aS'T Th'
p8
aS' 1:30 PM'
p9
aI13
aI30
aI14
aI45
aNaNaNaNaNaNaNaS'Not Reserved'
p10
aa(lp11
S'BCH361'
p12
aI81503
aI0
aI48
aS'T Th'
p13
aS'10:30 AM'
p14
aI10
aI30
aI11
aI45
aNaNaNaNaNaNaNag5
aa(lp15
S'BCH361'
p16
aI87352
aI0
aI48
aS'M W'
p17
aS'10:30 AM'
p18
aI10
aI30
aI11
aI45
aNaNaNaNaNaNaNag5
aa(lp19
S'BCH361'
p20
aI75759
aI116
aI168
aS'T Th'
p21
aS'12:00 PM'
p22
aI12
aI0
aI13
aI15
aNaNaNaNaNaNaNag5
aa(lp23
S'BCH361'
p24
aI84091
aI41
aI80
aS'T Th'
p25
aS' 1:30 PM'
p26
aI13
aI30
aI14
aI45
aNaNaNaNaNaNaNag5
aa(lp27
S'BCH367'
p28
aI70571
aI18
aI112
aS'F'
p29
aS' 7:30 AM'
p30
aI7
aI30
aI8
aI20
aNaNaNaNaNaNaNag10
aa(lp31
S'BCH367'
p32
aI70572
aI0
aI16
aS'M'
p33
aS'10:30 AM'
p34
aI10
aI30
aI13
aI20
aNaNaNaNaNaNaNag5
aa(lp35
S'BCH367'
p36
aI70573
aI0
aI16
ag33
aS' 1:30 PM'
p37
aI13
aI30
aI16
aI20
aNaNaNaNaNaNaNag5
aa(lp38
S'BCH367'
p39
aI70574
aI1
aI16
ag33
aS' 6:00 PM'
p40
aI18
aI0
aI20
aI50
aNaNaNaNaNaNaNag10
aa(lp41
S'BCH367'
p42
aI72788
aI11
aI16
aS'T'
p43
aS'11:00 AM'
p44
aI11
aI0
aI13
aI50
aNaNaNaNaNaNaNag10
aa(lp45
S'BCH367'
p46
aI73939
aI0
aI16
ag43
aS' 4:30 PM'
p47
aI16
aI30
aI19
aI20
aNaNaNaNaNaNaNag5
aa(lp48
S'BCH367'
p49
aI77581
aI0
aI16
aS'W'
p50
aS'10:30 AM'
p51
aI10
aI30
aI13
aI20
aNaNaNaNaNaNaNag5
aa(lp52
S'BCH367'
p53
aI77582
aI6
aI16
ag50
aS' 1:30 PM'
p54
aI13
aI30
aI16
aI20
aNaNaNaNaNaNaNag10
aa(lp55
S'BCH367'
p56
aI85680
aI10
aI40
ag29
aS' 9:00 AM'
p57
aI9
aI0
aI9
aI50
aNaNaNaNaNaNaNag5
aa(lp58
S'BCH367'
p59
aI85681
aI0
aI20
ag29
aS'10:00 AM'
p60
aI10
aI0
aI12
aI30
aNaNaNaNaNaNaNag5
aa(lp61
S'BCH367'
p62
aI85683
aI10
aI20
ag29
aS' 1:30 PM'
p63
aI13
aI30
aI16
aI0
aNaNaNaNaNaNaNag10
aa(lp64
S'BCH367'
p65
aI75760
aI22
aI48
ag33
aS'10:30 AM'
p66
aI10
aI30
aI11
aI45
aNaNaNaNaNaNaNag5
aa(lp67
S'BCH367'
p68
aI83235
aI9
aI12
ag50
aS' 7:30 AM'
p69
aI7
aI30
aI10
aI20
aNaNaNaNaNaNaNag10
aa(lp70
S'BCH367'
p71
aI83236
aI0
aI12
ag50
aS'10:30 AM'
p72
aI10
aI30
aI13
aI20
aNaNaNaNaNaNaNag5
aa(lp73
S'BCH367'
p74
aI83237
aI5
aI12
ag33
aS' 6:00 PM'
p75
aI18
aI0
aI20
aI50
aNaNaNaNaNaNaNag10
aa(lp76
S'BCH367'
p77
aI83265
aI8
aI12
ag29
aS' 7:30 AM'
p78
aI7
aI30
aI10
aI20
aNaNaNaNaNaNaNag10
aa(lp79
S'BCH367'
p80
aI76101
aI21
aI48
ag33
aS' 1:30 PM'
p81
aI13
aI30
aI14
aI45
aNaNaNaNaNaNaNag5
aa(lp82
S'BCH367'
p83
aI83238
aI8
aI12
ag50
aS' 7:30 AM'
p84
aI7
aI30
aI10
aI20
aNaNaNaNaNaNaNag10
aa(lp85
S'BCH367'
p86
aI83239
aI0
aI12
ag50
aS'10:30 AM'
p87
aI10
aI30
aI13
aI20
aNaNaNaNaNaNaNag5
aa(lp88
S'BCH367'
p89
aI83240
aI6
aI12
ag33
aS' 6:00 PM'
p90
aI18
aI0
aI20
aI50
aNaNaNaNaNaNaNag10
aa(lp91
S'BCH367'
p92
aI83266
aI7
aI12
ag29
aS' 7:30 AM'
p93
aI7
aI30
aI10
aI20
aNaNaNaNaNaNaNag10
aa(lp94
S'BCH371'
p95
aI78469
aI20
aI60
aS'T Th'
p96
aS' 9:00 AM'
p97
aI9
aI0
aI10
aI15
aNaNaNaNaNaNaNag10
aa(lp98
S'BCH372'
p99
aI78470
aI0
aI24
ag43
aS'10:30 AM'
p100
aI10
aI30
aI13
aI15
aNaNaNaNaNaNaNag5
aa(lp101
S'BCH372'
p102
aI91516
aI21
aI24
ag43
aS' 2:15 PM'
p103
aI14
aI15
aI17
aI0
aNaNaNaNaNaNaNag10
aa(lp104
S'BCH392'
p105
aI70575
aI47
aI50
aS'ONLINE'
p106
aNaNaNaNaNaNaNaNaNaNaNaNag10
aa(lp107
S'BCH461'
p108
aI70576
aI0
aI132
aS'M W F'
p109
aS'12:00 PM'
p110
aI12
aI0
aI12
aI50
aNaNaNaNaNaNaNag5
aa(lp111
S'BCH461'
p112
aI73754
aI63
aI125
aS'T Th'
p113
aS' 9:00 AM'
p114
aI9
aI0
aI10
aI15
aNaNaNaNaNaNaNag10
aa(lp115
S'BCH462'
p116
aI76266
aI109
aI178
aS'T Th'
p117
aS' 4:30 PM'
p118
aI16
aI30
aI17
aI45
aNaNaNaNaNaNaNag10
aa(lp119
S'BCH463'
p120
aI73235
aI64
aI140
aS'M W F'
p121
aS' 1:30 PM'
p122
aI13
aI30
aI14
aI20
aNaNaNaNaNaNaNag10
aa(lp123
S'BCH467'
p124
aI74205
aI13
aI112
ag50
aS' 7:30 AM'
p125
aI7
aI30
aI8
aI20
aNaNaNaNaNaNaNag10
aa(lp126
S'BCH467'
p127
aI74206
aI0
aI12
ag43
aS' 8:00 AM'
p128
aI8
aI0
aI12
aI50
aNaNaNaNaNaNaNag5
aa(lp129
S'BCH467'
p130
aI74207
aI1
aI16
ag43
aS' 1:00 PM'
p131
aI13
aI0
aI17
aI50
aNaNaNaNaNaNaNag10
aa(lp132
S'BCH467'
p133
aI74208
aI0
aI16
ag50
aS' 2:30 PM'
p134
aI14
aI30
aI19
aI20
aNaNaNaNaNaNaNag5
aa(lp135
S'BCH467'
p136
aI76330
aI0
aI16
ag50
aS' 8:30 AM'
p137
aI8
aI30
aI13
aI20
aNaNaNaNaNaNaNag5
aa(lp138
S'BCH467'
p139
aI77584
aI1
aI16
aS'Th'
p140
aS'12:00 PM'
p141
aI12
aI0
aI16
aI50
aNaNaNaNaNaNaNag10
aa(lp142
S'BCH467'
p143
aI77585
aI7
aI16
aS'Th'
p144
aS' 2:30 PM'
p145
aI14
aI30
aI19
aI20
aNaNaNaNaNaNaNag10
aa(lp146
S'BCH467'
p147
aI83992
aI0
aI16
aS'Th'
p148
aS' 8:00 AM'
p149
aI8
aI0
aI12
aI50
aNaNaNaNaNaNaNag5
aa(lp150
S'BCH484'
p151
aI72883
aI5
aI5
ag106
aNaNaNaNaNaNaNaNaNaNaNaNag10
aa(lp152
S'BCH492'
p153
aI70577
aI29
aI30
ag106
aNaNaNaNaNaNaNaNaNaNaNaNag10
aa(lp154
S'BCH493'
p155
aI70578
aI7
aI10
ag106
aNaNaNaNaNaNaNaNaNaNaNaNag10
aa(lp156
S'BCH494'
p157
aI78032
aI22
aI25
aS'M W F'
p158
aS'12:00 PM'
p159
aI12
aI0
aI12
aI50
aNaNaNaNaNaNaNag10
aa(lp160
S'BCH494'
p161
aI91467
aI12
aI12
ag50
aS' 1:30 PM'
p162
aI13
aI30
aI14
aI20
aNaNaNaNaNaNaNag10
aa(lp163
S'BCH494'
p164
aI91733
aI5
aI5
aS'W F'
p165
aS'10:30 AM'
p166
aI10
aI30
aI11
aI45
aNaNaNaNaNaNaNag10
aa(lp167
S'BCH501'
p168
aI78030
aI18
aI40
ag29
aS' 1:30 PM'
p169
aI13
aI30
aI14
aI45
aNaNaNaNaNaNaNag10
aa(lp170
S'BCH561'
p171
aI83394
aI18
aI20
aS'M W'
p172
aS' 3:00 PM'
p173
aI15
aI0
aI17
aI45
aNaNaNaNaNaNaNag10
aa(lp174
S'BCH564'
p175
aI91717
aI18
aI24
aS'M W F'
p176
aS'10:30 AM'
p177
aI10
aI30
aI11
aI20
aNaNaNaNaNaNaNag10
aa(lp178
S'BCH568'
p179
aI90562
aI22
aI24
aS'T Th'
p180
aS' 1:00 PM'
p181
aI13
aI0
aI15
aI45
aNaNaNaNaNaNaNag10
aa(lp182
S'BCH592'
p183
aI72865
aI37
aI40
ag106
aNaNaNaNaNaNaNaNaNaNaNaNag10
aa(lp184
S'BCH593'
p185
aI74859
aI29
aI30
ag106
aNaNaNaNaNaNaNaNaNaNaNaNag10
aa(lp186
S'BCH598'
p187
aI91732
aI4
aI5
aS'W F'
p188
aS'10:30 AM'
p189
aI10
aI30
aI11
aI45
aNaNaNaNaNaNaNag10
aa(lp190
S'BCH598'
p191
aI91832
aI12
aI12
aS'M W'
p192
aS' 1:30 PM'
p193
aI13
aI30
aI14
aI45
aNaNaNaNaNaNaNag10
aa(lp194
S'BCH598'
p195
aI78031
aI20
aI20
aS'T Th'
p196
aS'12:00 PM'
p197
aI12
aI0
aI13
aI15
aNaNaNaNaNaNaNag10
aa(lp198
S'BCH598'
p199
aI78995
aI10
aI13
aS'T Th'
p200
aS' 9:00 AM'
p201
aI9
aI0
aI10
aI15
aNaNaNaNaNaNaNag10
aa(lp202
S'BCH599'
p203
aI72866
aI40
aI40
ag106
aNaNaNaNaNaNaNaNaNaNaNaNag10
aa(lp204
S'BCH792'
p205
aI72867
aI50
aI60
ag106
aNaNaNaNaNaNaNaNaNaNaNaNag10
aa(lp206
S'BCH799'
p207
aI72868
aI40
aI40
ag106
aNaNaNaNaNaNaNaNaNaNaNaNag10
aa.