(lp0
(lp1
S'BCS101'
p2
aI75469
aI21
aI25
aS'T Th'
p3
aS'12:00PM'
p4
aI12
aI0
aI13
aI15
aS''
p5
ag5
aNaNag5
aNaNaS'Not Reserved'
p6
aa(lp7
S'BCS201'
p8
aI75470
aI23
aI25
aS'T Th'
p9
aS'1:30PM'
p10
aI13
aI30
aI14
aI45
ag5
ag5
aNaNag5
aNaNag6
aa(lp11
S'BCS311'
p12
aI89788
aI15
aI15
aS'ONLINE'
p13
aNaNaNaNaNaNaNaNaNaNaNaNaS'Reserved'
p14
aa(lp15
S'BCS495'
p16
aI85741
aI5
aI5
ag13
aNaNaNaNaNaNaNaNaNaNaNaNag6
aa.