(lp0
(lp1
S'BDE598'
p2
aI80612
aI25
aI30
aS'W'
p3
aS'12:00 PM'
p4
aI12
aI0
aI12
aI50
aNaNaNaNaNaNaNaS'Not Reserved'
p5
aa(lp6
S'BDE692'
p7
aI84364
aI8
aI8
aS'ONLINE'
p8
aNaNaNaNaNaNaNaNaNaNaNaNag5
aa(lp9
S'BDE792'
p10
aI73573
aI52
aI60
ag8
aNaNaNaNaNaNaNaNaNaNaNaNag5
aa(lp11
S'BDE799'
p12
aI77838
aI30
aI30
ag8
aNaNaNaNaNaNaNaNaNaNaNaNag5
aa.