(lp0
(lp1
S'BIO100'
p2
aI83007
aI0
aI75
aS'T Th'
p3
aS'12:00 PM'
p4
aI12
aI0
aI13
aI15
aNaNaNaNaNaNaNaS'Reserved'
p5
aa(lp6
S'BIO100'
p7
aI83008
aI0
aI75
aS'ONLINE'
p8
aNaNaNaNaNaNaNaNaNaNaNaNag5
aa(lp9
S'BIO100'
p10
aI89879
aI0
aI75
aS'T Th'
p11
aS' 4:30 PM'
p12
aI16
aI30
aI17
aI45
aNaNaNaNaNaNaNag5
aa(lp13
S'BIO100'
p14
aI90279
aI0
aI75
ag8
aNaNaNaNaNaNaNaNaNaNaNaNag5
aa(lp15
S'BIO100'
p16
aI89881
aI0
aI75
aS'T Th'
p17
aS' 3:00 PM'
p18
aI15
aI0
aI16
aI15
aNaNaNaNaNaNaNag5
aa(lp19
S'BIO100'
p20
aI90281
aI0
aI75
ag8
aNaNaNaNaNaNaNaNaNaNaNaNag5
aa(lp21
S'BIO100'
p22
aI89882
aI0
aI75
aS'T Th'
p23
aS' 3:00 PM'
p24
aI15
aI0
aI16
aI15
aNaNaNaNaNaNaNag5
aa(lp25
S'BIO100'
p26
aI90282
aI0
aI75
ag8
aNaNaNaNaNaNaNaNaNaNaNaNag5
aa(lp27
S'BIO100'
p28
aI89903
aI13
aI75
aS'T Th'
p29
aS' 9:00 AM'
p30
aI9
aI0
aI10
aI15
aNaNaNaNaNaNaNag5
aa(lp31
S'BIO100'
p32
aI90066
aI56
aI75
ag8
aNaNaNaNaNaNaNaNaNaNaNaNaS'Not Reserved'
p33
aa(lp34
S'BIO100'
p35
aI89904
aI45
aI75
aS'T Th'
p36
aS' 9:00 AM'
p37
aI9
aI0
aI10
aI15
aNaNaNaNaNaNaNag33
aa(lp38
S'BIO100'
p39
aI90284
aI0
aI30
ag8
aNaNaNaNaNaNaNaNaNaNaNaNag5
aa(lp40
S'BIO100'
p41
aI81200
aI36
aI60
aS'T'
p42
aS'9:00AM'
p43
aI9
aI0
aI10
aI15
aS'Th'
p44
aS'9:00AM'
p45
aI9
aI0
aS'10:15AM'
p46
aI10
aI15
ag5
aa(lp47
S'BIO100'
p48
aI86205
aI36
aI60
ag8
aNaNaNaNaNaNaNaNaNaNaNaNag33
aa(lp49
S'BIO100'
p50
aI82951
aI39
aI60
ag42
aS'1:30PM'
p51
aI13
aI30
aI14
aI45
aS'Th'
p52
aS'1:30PM'
p53
aI13
aI30
aS'2:45PM'
p54
aI14
aI45
ag33
aa(lp55
S'BIO100'
p56
aI83014
aI39
aI60
ag8
aNaNaNaNaNaNaNaNaNaNaNaNag33
aa(lp57
S'BIO100'
p58
aI81964
aI23
aI42
aS'T Th'
p59
aS' 9:00 AM'
p60
aI9
aI0
aI10
aI15
aNaNaNaNaNaNaNag33
aa(lp61
S'BIO100'
p62
aI81965
aI8
aI24
ag42
aS'10:30 AM'
p63
aI10
aI30
aI12
aI30
aNaNaNaNaNaNaNag33
aa(lp64
S'BIO100'
p65
aI81966
aI21
aI24
aS'Th'
p66
aS'10:30 AM'
p67
aI10
aI30
aI12
aI30
aNaNaNaNaNaNaNag33
aa(lp68
S'BIO100'
p69
aI70581
aI84
aI120
aS'M W F'
p70
aS' 9:00 AM'
p71
aI9
aI0
aI9
aI50
aNaNaNaNaNaNaNag5
aa(lp72
S'BIO100'
p73
aI72721
aI17
aI24
ag42
aS'10:30 AM'
p74
aI10
aI30
aI12
aI20
aNaNaNaNaNaNaNag33
aa(lp75
S'BIO100'
p76
aI73309
aI16
aI24
ag42
aS'12:30 PM'
p77
aI12
aI30
aI14
aI20
aNaNaNaNaNaNaNag33
aa(lp78
S'BIO100'
p79
aI73821
aI20
aI24
ag42
aS' 2:30 PM'
p80
aI14
aI30
aI16
aI20
aNaNaNaNaNaNaNag33
aa(lp81
S'BIO100'
p82
aI74047
aI17
aI24
ag42
aS' 4:30 PM'
p83
aI16
aI30
aI18
aI20
aNaNaNaNaNaNaNag33
aa(lp84
S'BIO100'
p85
aI85582
aI14
aI24
aS'M'
p86
aS' 2:30 PM'
p87
aI14
aI30
aI16
aI20
aNaNaNaNaNaNaNag33
aa(lp88
S'BIO112'
p89
aI91660
aI40
aI40
aS'Th'
p90
aS'5:30PM'
p91
aI17
aI30
aI18
aI30
aS''
p92
ag92
aNaNag92
aNaNag5
aa(lp93
S'BIO113'
p94
aI81432
aI22
aI48
aS'T Th'
p95
aS' 9:00 AM'
p96
aI9
aI0
aI10
aI15
aNaNaNaNaNaNaNag33
aa(lp97
S'BIO113'
p98
aI86210
aI5
aI24
aS'F'
p99
aS'10:30 AM'
p100
aI10
aI30
aI13
aI15
aNaNaNaNaNaNaNag33
aa(lp101
S'BIO113'
p102
aI86211
aI17
aI24
ag99
aS' 2:00 PM'
p103
aI14
aI0
aI16
aI45
aNaNaNaNaNaNaNag33
aa(lp104
S'BIO130'
p105
aI85678
aI0
aI125
ag8
aNaNaNaNaNaNaNaNaNaNaNaNag5
aa(lp106
S'BIO130'
p107
aI85699
aI0
aI125
ag8
aNaNaNaNaNaNaNaNaNaNaNaNag5
aa(lp108
S'BIO130'
p109
aI81438
aI0
aI250
ag8
aNaNaNaNaNaNaNaNaNaNaNaNag5
aa(lp110
S'BIO130'
p111
aI81439
aI0
aI250
ag8
aNaNaNaNaNaNaNaNaNaNaNaNag5
aa(lp112
S'BIO140'
p113
aI76262
aI41
aI50
ag8
aNaNaNaNaNaNaNaNaNaNaNaNag5
aa(lp114
S'BIO151'
p115
aI82942
aI142
aI144
ag86
aS'12:00PM'
p116
aI12
aI0
aI12
aI50
aS'W F'
p117
aS'12:00PM'
p118
aI12
aI0
aS'1:15PM'
p119
aI13
aI15
ag33
aa(lp120
S'BIO151'
p121
aI82943
aI24
aI24
ag42
aS' 9:00 AM'
p122
aI9
aI0
aI11
aI0
aNaNaNaNaNaNaNag33
aa(lp123
S'BIO151'
p124
aI82944
aI23
aI24
ag42
aS' 1:30 PM'
p125
aI13
aI30
aI15
aI30
aNaNaNaNaNaNaNag33
aa(lp126
S'BIO151'
p127
aI82945
aI24
aI24
aS'W'
p128
aS' 9:00 AM'
p129
aI9
aI0
aI11
aI0
aNaNaNaNaNaNaNag33
aa(lp130
S'BIO151'
p131
aI82946
aI24
aI24
ag128
aS' 3:00 PM'
p132
aI15
aI0
aI17
aI0
aNaNaNaNaNaNaNag33
aa(lp133
S'BIO151'
p134
aI82947
aI23
aI24
aS'Th'
p135
aS' 9:00 AM'
p136
aI9
aI0
aI11
aI0
aNaNaNaNaNaNaNag33
aa(lp137
S'BIO151'
p138
aI89945
aI24
aI24
aS'Th'
p139
aS' 1:30 PM'
p140
aI13
aI30
aI15
aI30
aNaNaNaNaNaNaNag33
aa(lp141
S'BIO181'
p142
aI70207
aI242
aI432
aS'M W F'
p143
aS'10:30 AM'
p144
aI10
aI30
aI11
aI20
aNaNaNaNaNaNaNag33
aa(lp145
S'BIO181'
p146
aI72674
aI23
aI24
ag86
aS' 4:30 PM'
p147
aI16
aI30
aI19
aI15
aNaNaNaNaNaNaNag5
aa(lp148
S'BIO181'
p149
aI72675
aI0
aI24
ag86
aS' 1:30 PM'
p150
aI13
aI30
aI16
aI15
aNaNaNaNaNaNaNag5
aa(lp151
S'BIO181'
p152
aI72676
aI16
aI24
ag86
aS' 4:30 PM'
p153
aI16
aI30
aI19
aI15
aNaNaNaNaNaNaNag5
aa(lp154
S'BIO181'
p155
aI72678
aI4
aI24
ag42
aS'10:30 AM'
p156
aI10
aI30
aI13
aI15
aNaNaNaNaNaNaNag33
aa(lp157
S'BIO181'
p158
aI72679
aI0
aI24
ag42
aS' 1:30 PM'
p159
aI13
aI30
aI16
aI15
aNaNaNaNaNaNaNag5
aa(lp160
S'BIO181'
p161
aI72680
aI18
aI24
ag42
aS' 4:30 PM'
p162
aI16
aI30
aI19
aI15
aNaNaNaNaNaNaNag33
aa(lp163
S'BIO181'
p164
aI72682
aI6
aI24
ag128
aS' 1:30 PM'
p165
aI13
aI30
aI16
aI15
aNaNaNaNaNaNaNag33
aa(lp166
S'BIO181'
p167
aI72683
aI22
aI24
ag128
aS' 1:30 PM'
p168
aI13
aI30
aI16
aI15
aNaNaNaNaNaNaNag33
aa(lp169
S'BIO181'
p170
aI72684
aI16
aI24
ag128
aS' 4:30 PM'
p171
aI16
aI30
aI19
aI15
aNaNaNaNaNaNaNag33
aa(lp172
S'BIO181'
p173
aI72685
aI19
aI24
ag128
aS' 4:30 PM'
p174
aI16
aI30
aI19
aI15
aNaNaNaNaNaNaNag33
aa(lp175
S'BIO181'
p176
aI72686
aI19
aI24
aS'Th'
p177
aS'10:30 AM'
p178
aI10
aI30
aI13
aI15
aNaNaNaNaNaNaNag33
aa(lp179
S'BIO181'
p180
aI72687
aI22
aI24
aS'Th'
p181
aS'10:30 AM'
p182
aI10
aI30
aI13
aI15
aNaNaNaNaNaNaNag33
aa(lp183
S'BIO181'
p184
aI73676
aI0
aI24
ag86
aS' 1:30 PM'
p185
aI13
aI30
aI16
aI15
aNaNaNaNaNaNaNag5
aa(lp186
S'BIO181'
p187
aI74492
aI14
aI24
aS'Th'
p188
aS' 1:30 PM'
p189
aI13
aI30
aI16
aI15
aNaNaNaNaNaNaNag33
aa(lp190
S'BIO181'
p191
aI80755
aI23
aI24
aS'Th'
p192
aS' 4:30 PM'
p193
aI16
aI30
aI19
aI15
aNaNaNaNaNaNaNag33
aa(lp194
S'BIO181'
p195
aI80756
aI17
aI24
aS'Th'
p196
aS' 1:30 PM'
p197
aI13
aI30
aI16
aI15
aNaNaNaNaNaNaNag33
aa(lp198
S'BIO181'
p199
aI80802
aI23
aI24
aS'Th'
p200
aS' 4:30 PM'
p201
aI16
aI30
aI19
aI15
aNaNaNaNaNaNaNag33
aa(lp202
S'BIO181'
p203
aI89874
aI0
aI24
ag42
aS'10:30 AM'
p204
aI10
aI30
aI13
aI15
aNaNaNaNaNaNaNag5
aa(lp205
S'BIO181'
p206
aI73932
aI5
aI24
aS'M W F'
p207
aS'10:30 AM'
p208
aI10
aI30
aI11
aI20
aNaNaNaNaNaNaNag5
aa(lp209
S'BIO181'
p210
aI72681
aI5
aI24
ag42
aS' 1:30 PM'
p211
aI13
aI30
aI16
aI15
aNaNaNaNaNaNaNag33
aa(lp212
S'BIO181'
p213
aI77255
aI105
aI190
aS'M W'
p214
aS' 6:00 PM'
p215
aI18
aI0
aI19
aI15
aNaNaNaNaNaNaNag33
aa(lp216
S'BIO181'
p217
aI72688
aI20
aI24
ag42
aS' 7:30 PM'
p218
aI19
aI30
aI22
aI15
aNaNaNaNaNaNaNag33
aa(lp219
S'BIO181'
p220
aI77322
aI0
aI24
ag86
aS' 7:30 PM'
p221
aI19
aI30
aI22
aI15
aNaNaNaNaNaNaNag5
aa(lp222
S'BIO181'
p223
aI77323
aI6
aI24
ag42
aS' 7:30 PM'
p224
aI19
aI30
aI22
aI15
aNaNaNaNaNaNaNag33
aa(lp225
S'BIO181'
p226
aI77324
aI4
aI24
ag128
aS' 7:30 PM'
p227
aI19
aI30
aI22
aI15
aNaNaNaNaNaNaNag33
aa(lp228
S'BIO181'
p229
aI77325
aI18
aI24
aS'Th'
p230
aS' 7:30 PM'
p231
aI19
aI30
aI22
aI15
aNaNaNaNaNaNaNag33
aa(lp232
S'BIO181'
p233
aI77326
aI12
aI24
ag86
aS' 7:30 PM'
p234
aI19
aI30
aI22
aI15
aNaNaNaNaNaNaNag33
aa(lp235
S'BIO181'
p236
aI77327
aI23
aI24
ag128
aS' 7:30 PM'
p237
aI19
aI30
aI22
aI15
aNaNaNaNaNaNaNag33
aa(lp238
S'BIO181'
p239
aI75023
aI77
aI96
aS'M W F'
p240
aS' 9:00 AM'
p241
aI9
aI0
aI9
aI50
aNaNaNaNaNaNaNag33
aa(lp242
S'BIO181'
p243
aI75027
aI20
aI24
ag42
aS' 9:00 AM'
p244
aI9
aI0
aI11
aI45
aNaNaNaNaNaNaNag33
aa(lp245
S'BIO181'
p246
aI85476
aI16
aI24
ag42
aS' 6:30 PM'
p247
aI18
aI30
aI21
aI15
aNaNaNaNaNaNaNag33
aa(lp248
S'BIO181'
p249
aI86214
aI17
aI24
ag128
aS' 1:30 PM'
p250
aI13
aI30
aI16
aI15
aNaNaNaNaNaNaNag33
aa(lp251
S'BIO181'
p252
aI86212
aI56
aI76
aS'T Th'
p253
aS'10:30 AM'
p254
aI10
aI30
aI11
aI45
aNaNaNaNaNaNaNag33
aa(lp255
S'BIO181'
p256
aI75024
aI18
aI24
ag86
aS'10:30 AM'
p257
aI10
aI30
aI13
aI15
aNaNaNaNaNaNaNag33
aa(lp258
S'BIO181'
p259
aI75028
aI17
aI24
ag42
aS'12:00 PM'
p260
aI12
aI0
aI14
aI45
aNaNaNaNaNaNaNag33
aa(lp261
S'BIO181'
p262
aI86213
aI20
aI24
ag128
aS'10:30 AM'
p263
aI10
aI30
aI13
aI15
aNaNaNaNaNaNaNag33
aa(lp264
S'BIO181'
p265
aI81968
aI57
aI96
aS'M W F'
p266
aS'10:30 AM'
p267
aI10
aI30
aI11
aI20
aNaNaNaNaNaNaNag33
aa(lp268
S'BIO181'
p269
aI81969
aI8
aI24
ag86
aS'12:00 PM'
p270
aI12
aI0
aI14
aI30
aNaNaNaNaNaNaNag33
aa(lp271
S'BIO181'
p272
aI81970
aI20
aI24
ag86
aS' 3:00 PM'
p273
aI15
aI0
aI17
aI30
aNaNaNaNaNaNaNag33
aa(lp274
S'BIO181'
p275
aI81977
aI15
aI24
ag42
aS'12:00 PM'
p276
aI12
aI0
aI14
aI30
aNaNaNaNaNaNaNag33
aa(lp277
S'BIO181'
p278
aI81978
aI14
aI24
ag128
aS'12:00 PM'
p279
aI12
aI0
aI14
aI30
aNaNaNaNaNaNaNag33
aa(lp280
S'BIO181'
p281
aI75011
aI139
aI168
aS'M W F'
p282
aS'12:00 PM'
p283
aI12
aI0
aI12
aI50
aNaNaNaNaNaNaNag5
aa(lp284
S'BIO181'
p285
aI75013
aI12
aI24
ag128
aS' 2:00 PM'
p286
aI14
aI0
aI16
aI50
aNaNaNaNaNaNaNag33
aa(lp287
S'BIO181'
p288
aI75245
aI20
aI24
aS'Th'
p289
aS' 7:30 AM'
p290
aI7
aI30
aI10
aI20
aNaNaNaNaNaNaNag33
aa(lp291
S'BIO181'
p292
aI76412
aI19
aI24
aS'Th'
p293
aS'10:30 AM'
p294
aI10
aI30
aI13
aI20
aNaNaNaNaNaNaNag33
aa(lp295
S'BIO181'
p296
aI76529
aI20
aI24
aS'Th'
p297
aS' 1:30 PM'
p298
aI13
aI30
aI16
aI20
aNaNaNaNaNaNaNag33
aa(lp299
S'BIO181'
p300
aI78035
aI22
aI24
aS'Th'
p301
aS' 4:30 PM'
p302
aI16
aI30
aI19
aI20
aNaNaNaNaNaNaNag33
aa(lp303
S'BIO181'
p304
aI78037
aI23
aI24
ag99
aS' 7:30 AM'
p305
aI7
aI30
aI10
aI20
aNaNaNaNaNaNaNag33
aa(lp306
S'BIO181'
p307
aI86715
aI23
aI24
aS'Th'
p308
aS' 7:30 AM'
p309
aI7
aI30
aI10
aI20
aNaNaNaNaNaNaNag33
aa(lp310
S'BIO181'
p311
aI75012
aI126
aI144
aS'M W F'
p312
aS' 1:30 PM'
p313
aI13
aI30
aI14
aI20
aNaNaNaNaNaNaNag5
aa(lp314
S'BIO181'
p315
aI75016
aI22
aI24
ag128
aS' 5:00 PM'
p316
aI17
aI0
aI19
aI50
aNaNaNaNaNaNaNag33
aa(lp317
S'BIO181'
p318
aI76929
aI19
aI24
aS'Th'
p319
aS' 1:30 PM'
p320
aI13
aI30
aI16
aI20
aNaNaNaNaNaNaNag33
aa(lp321
S'BIO181'
p322
aI78036
aI24
aI24
aS'Th'
p323
aS' 4:30 PM'
p324
aI16
aI30
aI19
aI20
aNaNaNaNaNaNaNag33
aa(lp325
S'BIO181'
p326
aI78836
aI19
aI24
ag99
aS'10:30 AM'
p327
aI10
aI30
aI13
aI20
aNaNaNaNaNaNaNag33
aa(lp328
S'BIO181'
p329
aI85580
aI20
aI24
ag128
aS' 2:30 PM'
p330
aI14
aI30
aI17
aI20
aNaNaNaNaNaNaNag33
aa(lp331
S'BIO181'
p332
aI85581
aI22
aI24
aS'Th'
p333
aS'10:30 AM'
p334
aI10
aI30
aI13
aI20
aNaNaNaNaNaNaNag33
aa(lp335
S'BIO182'
p336
aI70192
aI57
aI408
aS'M W F'
p337
aS'12:00 PM'
p338
aI12
aI0
aI12
aI50
aNaNaNaNaNaNaNag33
aa(lp339
S'BIO182'
p340
aI70193
aI0
aI24
ag86
aS' 1:30 PM'
p341
aI13
aI30
aI16
aI15
aNaNaNaNaNaNaNag5
aa(lp342
S'BIO182'
p343
aI70194
aI0
aI24
ag86
aS' 4:30 PM'
p344
aI16
aI30
aI19
aI15
aNaNaNaNaNaNaNag5
aa(lp345
S'BIO182'
p346
aI70195
aI0
aI24
ag86
aS' 1:30 PM'
p347
aI13
aI30
aI16
aI15
aNaNaNaNaNaNaNag5
aa(lp348
S'BIO182'
p349
aI70196
aI0
aI24
ag42
aS' 7:30 AM'
p350
aI7
aI30
aI10
aI15
aNaNaNaNaNaNaNag5
aa(lp351
S'BIO182'
p352
aI70197
aI0
aI24
ag42
aS' 1:30 PM'
p353
aI13
aI30
aI16
aI15
aNaNaNaNaNaNaNag5
aa(lp354
S'BIO182'
p355
aI70198
aI14
aI24
ag42
aS' 4:30 PM'
p356
aI16
aI30
aI19
aI15
aNaNaNaNaNaNaNag33
aa(lp357
S'BIO182'
p358
aI70199
aI2
aI24
ag42
aS' 1:30 PM'
p359
aI13
aI30
aI16
aI15
aNaNaNaNaNaNaNag33
aa(lp360
S'BIO182'
p361
aI70201
aI0
aI24
ag128
aS' 1:30 PM'
p362
aI13
aI30
aI16
aI15
aNaNaNaNaNaNaNag5
aa(lp363
S'BIO182'
p364
aI70202
aI2
aI24
ag128
aS' 4:30 PM'
p365
aI16
aI30
aI19
aI15
aNaNaNaNaNaNaNag33
aa(lp366
S'BIO182'
p367
aI70203
aI0
aI24
aS'Th'
p368
aS'10:30 AM'
p369
aI10
aI30
aI13
aI15
aNaNaNaNaNaNaNag5
aa(lp370
S'BIO182'
p371
aI70204
aI0
aI24
aS'Th'
p372
aS' 1:30 PM'
p373
aI13
aI30
aI16
aI15
aNaNaNaNaNaNaNag5
aa(lp374
S'BIO182'
p375
aI70205
aI0
aI24
ag99
aS' 1:30 PM'
p376
aI13
aI30
aI16
aI15
aNaNaNaNaNaNaNag5
aa(lp377
S'BIO182'
p378
aI70206
aI14
aI24
aS'Th'
p379
aS'10:30 AM'
p380
aI10
aI30
aI13
aI15
aNaNaNaNaNaNaNag33
aa(lp381
S'BIO182'
p382
aI75942
aI0
aI24
ag42
aS'10:30 AM'
p383
aI10
aI30
aI13
aI15
aNaNaNaNaNaNaNag5
aa(lp384
S'BIO182'
p385
aI75943
aI13
aI24
aS'Th'
p386
aS' 7:30 AM'
p387
aI7
aI30
aI10
aI15
aNaNaNaNaNaNaNag33
aa(lp388
S'BIO182'
p389
aI75944
aI12
aI24
aS'Th'
p390
aS' 4:30 PM'
p391
aI16
aI30
aI19
aI15
aNaNaNaNaNaNaNag33
aa(lp392
S'BIO182'
p393
aI82753
aI0
aI24
ag128
aS' 1:30 PM'
p394
aI13
aI30
aI16
aI15
aNaNaNaNaNaNaNag5
aa(lp395
S'BIO182'
p396
aI73931
aI16
aI24
aS'M W F'
p397
aS'12:00 PM'
p398
aI12
aI0
aI12
aI50
aNaNaNaNaNaNaNag5
aa(lp399
S'BIO182'
p400
aI70200
aI16
aI24
ag128
aS' 7:30 AM'
p401
aI7
aI30
aI10
aI15
aNaNaNaNaNaNaNag33
aa(lp402
S'BIO182'
p403
aI75030
aI34
aI72
aS'T Th'
p404
aS'10:30 AM'
p405
aI10
aI30
aI11
aI45
aNaNaNaNaNaNaNag33
aa(lp406
S'BIO182'
p407
aI75031
aI4
aI24
ag128
aS'12:00 PM'
p408
aI12
aI0
aI14
aI45
aNaNaNaNaNaNaNag33
aa(lp409
S'BIO182'
p410
aI75032
aI9
aI24
ag128
aS' 3:15 PM'
p411
aI15
aI15
aI18
aI0
aNaNaNaNaNaNaNag33
aa(lp412
S'BIO182'
p413
aI78139
aI21
aI24
ag128
aS' 6:30 PM'
p414
aI18
aI30
aI21
aI15
aNaNaNaNaNaNaNag33
aa(lp415
S'BIO182'
p416
aI81985
aI48
aI72
aS'M W F'
p417
aS'10:30 AM'
p418
aI10
aI30
aI11
aI20
aNaNaNaNaNaNaNag33
aa(lp419
S'BIO182'
p420
aI81986
aI13
aI24
ag128
aS' 8:00 AM'
p421
aI8
aI0
aI10
aI20
aNaNaNaNaNaNaNag33
aa(lp422
S'BIO182'
p423
aI81988
aI18
aI24
ag128
aS'12:00 PM'
p424
aI12
aI0
aI14
aI30
aNaNaNaNaNaNaNag33
aa(lp425
S'BIO182'
p426
aI81989
aI17
aI24
ag86
aS'12:00 PM'
p427
aI12
aI0
aI14
aI30
aNaNaNaNaNaNaNag33
aa(lp428
S'BIO182'
p429
aI75761
aI85
aI144
aS'T Th'
p430
aS' 3:00 PM'
p431
aI15
aI0
aI16
aI15
aNaNaNaNaNaNaNag5
aa(lp432
S'BIO182'
p433
aI76097
aI8
aI24
ag128
aS' 2:00 PM'
p434
aI14
aI0
aI16
aI50
aNaNaNaNaNaNaNag33
aa(lp435
S'BIO182'
p436
aI76098
aI18
aI24
ag128
aS' 5:00 PM'
p437
aI17
aI0
aI19
aI50
aNaNaNaNaNaNaNag33
aa(lp438
S'BIO182'
p439
aI76099
aI18
aI24
aS'Th'
p440
aS' 7:30 AM'
p441
aI7
aI30
aI10
aI20
aNaNaNaNaNaNaNag33
aa(lp442
S'BIO182'
p443
aI76613
aI8
aI24
aS'Th'
p444
aS'10:30 AM'
p445
aI10
aI30
aI13
aI20
aNaNaNaNaNaNaNag33
aa(lp446
S'BIO182'
p447
aI78038
aI13
aI24
ag99
aS'10:30 AM'
p448
aI10
aI30
aI13
aI20
aNaNaNaNaNaNaNag33
aa(lp449
S'BIO182'
p450
aI86716
aI20
aI24
ag99
aS' 7:30 AM'
p451
aI7
aI30
aI10
aI20
aNaNaNaNaNaNaNag33
aa(lp452
S'BIO189'
p453
aI74948
aI19
aI19
ag86
aS' 4:30 PM'
p454
aI16
aI30
aI17
aI20
aNaNaNaNaNaNaNag5
aa(lp455
S'BIO189'
p456
aI74950
aI19
aI19
ag99
aS' 4:30 PM'
p457
aI16
aI30
aI17
aI20
aNaNaNaNaNaNaNag33
aa(lp458
S'BIO189'
p459
aI74951
aI17
aI19
ag86
aS' 4:30 PM'
p460
aI16
aI30
aI17
aI20
aNaNaNaNaNaNaNag5
aa(lp461
S'BIO189'
p462
aI74954
aI19
aI19
ag86
aS' 4:30 PM'
p463
aI16
aI30
aI17
aI20
aNaNaNaNaNaNaNag5
aa(lp464
S'BIO189'
p465
aI74956
aI18
aI19
ag99
aS' 4:30 PM'
p466
aI16
aI30
aI17
aI20
aNaNaNaNaNaNaNag33
aa(lp467
S'BIO189'
p468
aI74957
aI18
aI19
ag86
aS' 4:30 PM'
p469
aI16
aI30
aI17
aI20
aNaNaNaNaNaNaNag5
aa(lp470
S'BIO189'
p471
aI75518
aI2
aI19
ag86
aS' 4:30 PM'
p472
aI16
aI30
aI17
aI20
aNaNaNaNaNaNaNag33
aa(lp473
S'BIO189'
p474
aI77262
aI18
aI19
ag99
aS' 4:30 PM'
p475
aI16
aI30
aI17
aI20
aNaNaNaNaNaNaNag33
aa(lp476
S'BIO189'
p477
aI77263
aI12
aI19
ag86
aS' 4:30 PM'
p478
aI16
aI30
aI17
aI20
aNaNaNaNaNaNaNag33
aa(lp479
S'BIO189'
p480
aI77266
aI14
aI19
ag86
aS' 4:30 PM'
p481
aI16
aI30
aI17
aI20
aNaNaNaNaNaNaNag33
aa(lp482
S'BIO189'
p483
aI77268
aI18
aI19
ag99
aS' 4:30 PM'
p484
aI16
aI30
aI17
aI20
aNaNaNaNaNaNaNag33
aa(lp485
S'BIO189'
p486
aI77269
aI17
aI19
ag86
aS' 4:30 PM'
p487
aI16
aI30
aI17
aI20
aNaNaNaNaNaNaNag33
aa(lp488
S'BIO189'
p489
aI80124
aI15
aI19
ag128
aS' 4:30 PM'
p490
aI16
aI30
aI17
aI20
aNaNaNaNaNaNaNag33
aa(lp491
S'BIO189'
p492
aI80125
aI19
aI19
ag99
aS' 4:30 PM'
p493
aI16
aI30
aI17
aI20
aNaNaNaNaNaNaNag33
aa(lp494
S'BIO189'
p495
aI82443
aI17
aI19
ag99
aS' 4:30 PM'
p496
aI16
aI30
aI17
aI20
aNaNaNaNaNaNaNag33
aa(lp497
S'BIO189'
p498
aI73580
aI267
aI310
ag86
aS' 4:30 PM'
p499
aI16
aI30
aI17
aI45
aNaNaNaNaNaNaNag33
aa(lp500
S'BIO189'
p501
aI74949
aI18
aI19
ag128
aS' 4:30 PM'
p502
aI16
aI30
aI17
aI20
aNaNaNaNaNaNaNag5
aa(lp503
S'BIO189'
p504
aI74952
aI18
aI19
ag128
aS' 4:30 PM'
p505
aI16
aI30
aI17
aI20
aNaNaNaNaNaNaNag5
aa(lp506
S'BIO189'
p507
aI74953
aI18
aI19
ag99
aS' 4:30 PM'
p508
aI16
aI30
aI17
aI20
aNaNaNaNaNaNaNag33
aa(lp509
S'BIO189'
p510
aI74955
aI19
aI19
ag128
aS' 4:30 PM'
p511
aI16
aI30
aI17
aI20
aNaNaNaNaNaNaNag5
aa(lp512
S'BIO189'
p513
aI74958
aI16
aI19
ag128
aS' 4:30 PM'
p514
aI16
aI30
aI17
aI20
aNaNaNaNaNaNaNag33
aa(lp515
S'BIO189'
p516
aI75317
aI18
aI19
ag99
aS' 4:30 PM'
p517
aI16
aI30
aI17
aI20
aNaNaNaNaNaNaNag33
aa(lp518
S'BIO189'
p519
aI77184
aI19
aI19
ag128
aS' 4:30 PM'
p520
aI16
aI30
aI17
aI20
aNaNaNaNaNaNaNag33
aa(lp521
S'BIO189'
p522
aI77264
aI19
aI19
ag128
aS' 4:30 PM'
p523
aI16
aI30
aI17
aI20
aNaNaNaNaNaNaNag33
aa(lp524
S'BIO189'
p525
aI77265
aI19
aI19
ag99
aS' 4:30 PM'
p526
aI16
aI30
aI17
aI20
aNaNaNaNaNaNaNag33
aa(lp527
S'BIO189'
p528
aI77267
aI19
aI19
ag128
aS' 4:30 PM'
p529
aI16
aI30
aI17
aI20
aNaNaNaNaNaNaNag33
aa(lp530
S'BIO189'
p531
aI77270
aI19
aI19
ag128
aS' 4:30 PM'
p532
aI16
aI30
aI17
aI20
aNaNaNaNaNaNaNag33
aa(lp533
S'BIO189'
p534
aI80123
aI19
aI19
ag86
aS' 4:30 PM'
p535
aI16
aI30
aI17
aI20
aNaNaNaNaNaNaNag33
aa(lp536
S'BIO189'
p537
aI80126
aI13
aI19
ag86
aS' 4:30 PM'
p538
aI16
aI30
aI17
aI20
aNaNaNaNaNaNaNag33
aa(lp539
S'BIO189'
p540
aI82444
aI19
aI19
ag128
aS' 4:30 PM'
p541
aI16
aI30
aI17
aI20
aNaNaNaNaNaNaNag33
aa(lp542
S'BIO189'
p543
aI89776
aI19
aI19
ag99
aS' 4:30 PM'
p544
aI16
aI30
aI17
aI20
aNaNaNaNaNaNaNag33
aa(lp545
S'BIO189'
p546
aI74947
aI297
aI310
ag128
aS' 4:30 PM'
p547
aI16
aI30
aI17
aI45
aNaNaNaNaNaNaNag33
aa(lp548
S'BIO201'
p549
aI70208
aI104
aI467
aS'T Th'
p550
aS' 1:30 PM'
p551
aI13
aI30
aI14
aI45
aNaNaNaNaNaNaNag33
aa(lp552
S'BIO201'
p553
aI70209
aI0
aI24
ag86
aS'12:00 PM'
p554
aI12
aI0
aI14
aI50
aNaNaNaNaNaNaNag5
aa(lp555
S'BIO201'
p556
aI70210
aI0
aI24
ag86
aS' 3:00 PM'
p557
aI15
aI0
aI17
aI50
aNaNaNaNaNaNaNag5
aa(lp558
S'BIO201'
p559
aI70211
aI0
aI25
ag42
aS' 9:00 AM'
p560
aI9
aI0
aI11
aI50
aNaNaNaNaNaNaNag5
aa(lp561
S'BIO201'
p562
aI70212
aI0
aI25
ag42
aS' 3:00 PM'
p563
aI15
aI0
aI17
aI50
aNaNaNaNaNaNaNag5
aa(lp564
S'BIO201'
p565
aI70213
aI0
aI25
ag128
aS' 9:00 AM'
p566
aI9
aI0
aI11
aI50
aNaNaNaNaNaNaNag5
aa(lp567
S'BIO201'
p568
aI70214
aI0
aI25
ag128
aS'12:00 PM'
p569
aI12
aI0
aI14
aI50
aNaNaNaNaNaNaNag5
aa(lp570
S'BIO201'
p571
aI70215
aI2
aI25
ag128
aS' 3:00 PM'
p572
aI15
aI0
aI17
aI50
aNaNaNaNaNaNaNag33
aa(lp573
S'BIO201'
p574
aI70216
aI15
aI25
ag128
aS' 6:00 PM'
p575
aI18
aI0
aI20
aI50
aNaNaNaNaNaNaNag33
aa(lp576
S'BIO201'
p577
aI70217
aI1
aI25
aS'Th'
p578
aS' 9:00 AM'
p579
aI9
aI0
aI11
aI50
aNaNaNaNaNaNaNag33
aa(lp580
S'BIO201'
p581
aI70218
aI2
aI25
aS'Th'
p582
aS' 3:00 PM'
p583
aI15
aI0
aI17
aI50
aNaNaNaNaNaNaNag33
aa(lp584
S'BIO201'
p585
aI70219
aI4
aI24
ag86
aS'12:00 PM'
p586
aI12
aI0
aI14
aI50
aNaNaNaNaNaNaNag33
aa(lp587
S'BIO201'
p588
aI70220
aI19
aI24
ag86
aS' 3:00 PM'
p589
aI15
aI0
aI17
aI50
aNaNaNaNaNaNaNag33
aa(lp590
S'BIO201'
p591
aI70221
aI6
aI25
ag42
aS' 9:00 AM'
p592
aI9
aI0
aI11
aI50
aNaNaNaNaNaNaNag33
aa(lp593
S'BIO201'
p594
aI70222
aI2
aI24
ag128
aS' 9:00 AM'
p595
aI9
aI0
aI11
aI50
aNaNaNaNaNaNaNag33
aa(lp596
S'BIO201'
p597
aI70223
aI11
aI24
ag128
aS'12:00 PM'
p598
aI12
aI0
aI14
aI50
aNaNaNaNaNaNaNag33
aa(lp599
S'BIO201'
p600
aI70224
aI13
aI24
ag128
aS' 3:00 PM'
p601
aI15
aI0
aI17
aI50
aNaNaNaNaNaNaNag33
aa(lp602
S'BIO201'
p603
aI70225
aI19
aI25
aS'Th'
p604
aS' 9:00 AM'
p605
aI9
aI0
aI11
aI50
aNaNaNaNaNaNaNag33
aa(lp606
S'BIO201'
p607
aI73014
aI10
aI24
aS'Th'
p608
aS' 3:00 PM'
p609
aI15
aI0
aI17
aI50
aNaNaNaNaNaNaNag33
aa(lp610
S'BIO201'
p611
aI73337
aI0
aI25
ag42
aS' 3:00 PM'
p612
aI15
aI0
aI17
aI50
aNaNaNaNaNaNaNag5
aa(lp613
S'BIO201'
p614
aI76994
aI46
aI96
aS'T Th'
p615
aS'10:30 AM'
p616
aI10
aI30
aI11
aI45
aNaNaNaNaNaNaNag33
aa(lp617
S'BIO201'
p618
aI76995
aI0
aI24
aS'Th'
p619
aS'12:00 PM'
p620
aI12
aI0
aI14
aI45
aNaNaNaNaNaNaNag5
aa(lp621
S'BIO201'
p622
aI76996
aI4
aI24
aS'Th'
p623
aS' 3:15 PM'
p624
aI15
aI15
aI18
aI0
aNaNaNaNaNaNaNag33
aa(lp625
S'BIO201'
p626
aI78365
aI18
aI24
ag99
aS' 9:00 AM'
p627
aI9
aI0
aI11
aI45
aNaNaNaNaNaNaNag33
aa(lp628
S'BIO201'
p629
aI82110
aI19
aI72
aS'T Th'
p630
aS' 3:00 PM'
p631
aI15
aI0
aI16
aI15
aNaNaNaNaNaNaNag33
aa(lp632
S'BIO201'
p633
aI82112
aI2
aI24
ag42
aS'12:00 PM'
p634
aI12
aI0
aI14
aI30
aNaNaNaNaNaNaNag33
aa(lp635
S'BIO201'
p636
aI82115
aI9
aI24
aS'Th'
p637
aS'12:00 PM'
p638
aI12
aI0
aI14
aI30
aNaNaNaNaNaNaNag33
aa(lp639
S'BIO201'
p640
aI84193
aI8
aI24
ag42
aS' 9:00 AM'
p641
aI9
aI0
aI11
aI30
aNaNaNaNaNaNaNag33
aa(lp642
S'BIO201'
p643
aI82111
aI30
aI96
ag8
aNaNaNaNaNaNaNaNaNaNaNaNag5
aa(lp644
S'BIO201'
p645
aI82113
aI9
aI24
ag42
aS' 4:30 PM'
p646
aI16
aI30
aI19
aI0
aNaNaNaNaNaNaNag33
aa(lp647
S'BIO201'
p648
aI82116
aI0
aI24
aS'Th'
p649
aS' 9:00 AM'
p650
aI9
aI0
aI11
aI30
aNaNaNaNaNaNaNag5
aa(lp651
S'BIO201'
p652
aI82117
aI19
aI24
aS'Th'
p653
aS' 4:30 PM'
p654
aI16
aI30
aI19
aI0
aNaNaNaNaNaNaNag33
aa(lp655
S'BIO201'
p656
aI84195
aI2
aI24
ag86
aS' 4:30 PM'
p657
aI16
aI30
aI19
aI0
aNaNaNaNaNaNaNag33
aa(lp658
S'BIO201'
p659
aI70604
aI31
aI120
aS'M W F'
p660
aS'10:30AM'
p661
aI10
aI30
aI11
aI20
ag92
aS'12:00AM'
p662
aNaNaS'12:00AM'
p663
aNaNag5
aa(lp664
S'BIO201'
p665
aI74541
aI0
aI24
ag86
aS' 1:00 PM'
p666
aI13
aI0
aI14
aI50
aNaNaNaNaNaNaNag5
aa(lp667
S'BIO201'
p668
aI74544
aI10
aI24
ag42
aS' 9:00 AM'
p669
aI9
aI0
aI10
aI50
aNaNaNaNaNaNaNag33
aa(lp670
S'BIO201'
p671
aI76283
aI0
aI24
ag128
aS' 1:00 PM'
p672
aI13
aI0
aI14
aI50
aNaNaNaNaNaNaNag5
aa(lp673
S'BIO201'
p674
aI76541
aI5
aI24
aS'Th'
p675
aS' 3:00 PM'
p676
aI15
aI0
aI16
aI50
aNaNaNaNaNaNaNag33
aa(lp677
S'BIO201'
p678
aI83436
aI16
aI24
ag86
aS' 5:00 PM'
p679
aI17
aI0
aI18
aI50
aNaNaNaNaNaNaNag33
aa(lp680
S'BIO201'
p681
aI70605
aI71
aI120
aS'M W F'
p682
aS'12:00PM'
p683
aI12
aI0
aI12
aI50
ag92
aS'12:00AM'
p684
aNaNaS'12:00AM'
p685
aNaNag5
aa(lp686
S'BIO201'
p687
aI74539
aI10
aI24
ag86
aS' 9:00 AM'
p688
aI9
aI0
aI10
aI50
aNaNaNaNaNaNaNag33
aa(lp689
S'BIO201'
p690
aI74542
aI11
aI24
ag86
aS' 3:00 PM'
p691
aI15
aI0
aI16
aI50
aNaNaNaNaNaNaNag33
aa(lp692
S'BIO201'
p693
aI74545
aI19
aI24
ag42
aS'11:00 AM'
p694
aI11
aI0
aI12
aI50
aNaNaNaNaNaNaNag33
aa(lp695
S'BIO201'
p696
aI76285
aI19
aI24
ag128
aS' 5:00 PM'
p697
aI17
aI0
aI18
aI50
aNaNaNaNaNaNaNag33
aa(lp698
S'BIO201'
p699
aI76540
aI12
aI24
aS'Th'
p700
aS' 1:00 PM'
p701
aI13
aI0
aI14
aI50
aNaNaNaNaNaNaNag33
aa(lp702
S'BIO201'
p703
aI76282
aI122
aI168
aS'M W F'
p704
aS'9:00AM'
p705
aI9
aI0
aI9
aI50
ag92
aS'12:00AM'
p706
aNaNaS'12:00AM'
p707
aNaNag5
aa(lp708
S'BIO201'
p709
aI74540
aI7
aI24
ag86
aS'11:00 AM'
p710
aI11
aI0
aI12
aI50
aNaNaNaNaNaNaNag33
aa(lp711
S'BIO201'
p712
aI74543
aI22
aI24
ag86
aS' 7:00 PM'
p713
aI19
aI0
aI20
aI50
aNaNaNaNaNaNaNag33
aa(lp714
S'BIO201'
p715
aI74546
aI13
aI24
ag42
aS' 1:00 PM'
p716
aI13
aI0
aI14
aI50
aNaNaNaNaNaNaNag33
aa(lp717
S'BIO201'
p718
aI74548
aI23
aI24
ag42
aS' 5:00 PM'
p719
aI17
aI0
aI18
aI50
aNaNaNaNaNaNaNag33
aa(lp720
S'BIO201'
p721
aI76284
aI20
aI24
ag128
aS' 3:00 PM'
p722
aI15
aI0
aI16
aI50
aNaNaNaNaNaNaNag33
aa(lp723
S'BIO201'
p724
aI76539
aI19
aI24
aS'Th'
p725
aS'11:00 AM'
p726
aI11
aI0
aI12
aI50
aNaNaNaNaNaNaNag33
aa(lp727
S'BIO201'
p728
aI76933
aI18
aI24
ag99
aS'11:00 AM'
p729
aI11
aI0
aI12
aI50
aNaNaNaNaNaNaNag33
aa(lp730
S'BIO201'
p731
aI76538
aI77
aI120
aS'M W F'
p732
aS'1:30PM'
p733
aI13
aI30
aI14
aI20
ag92
aS'12:00AM'
p734
aNaNaS'12:00AM'
p735
aNaNag5
aa(lp736
S'BIO201'
p737
aI74547
aI10
aI24
ag42
aS' 3:00 PM'
p738
aI15
aI0
aI16
aI50
aNaNaNaNaNaNaNag33
aa(lp739
S'BIO201'
p740
aI74549
aI18
aI24
ag128
aS' 9:00 AM'
p741
aI9
aI0
aI10
aI50
aNaNaNaNaNaNaNag33
aa(lp742
S'BIO201'
p743
aI74550
aI11
aI24
ag128
aS'11:00 AM'
p744
aI11
aI0
aI12
aI50
aNaNaNaNaNaNaNag33
aa(lp745
S'BIO201'
p746
aI76286
aI19
aI24
aS'Th'
p747
aS' 9:00 AM'
p748
aI9
aI0
aI10
aI50
aNaNaNaNaNaNaNag33
aa(lp749
S'BIO201'
p750
aI76932
aI19
aI24
ag99
aS' 9:00 AM'
p751
aI9
aI0
aI10
aI50
aNaNaNaNaNaNaNag33
aa(lp752
S'BIO202'
p753
aI70226
aI42
aI190
aS'T Th'
p754
aS'10:30 AM'
p755
aI10
aI30
aI11
aI45
aNaNaNaNaNaNaNag33
aa(lp756
S'BIO202'
p757
aI70227
aI0
aI24
ag42
aS'12:00 PM'
p758
aI12
aI0
aI14
aI50
aNaNaNaNaNaNaNag5
aa(lp759
S'BIO202'
p760
aI70228
aI0
aI24
ag128
aS' 9:00 AM'
p761
aI9
aI0
aI11
aI50
aNaNaNaNaNaNaNag5
aa(lp762
S'BIO202'
p763
aI70229
aI0
aI24
aS'Th'
p764
aS'12:00 PM'
p765
aI12
aI0
aI14
aI50
aNaNaNaNaNaNaNag5
aa(lp766
S'BIO202'
p767
aI70230
aI0
aI24
ag128
aS' 3:00 PM'
p768
aI15
aI0
aI17
aI50
aNaNaNaNaNaNaNag5
aa(lp769
S'BIO202'
p770
aI79416
aI0
aI24
ag128
aS'12:00 PM'
p771
aI12
aI0
aI14
aI50
aNaNaNaNaNaNaNag5
aa(lp772
S'BIO202'
p773
aI80465
aI2
aI24
ag42
aS' 3:00 PM'
p774
aI15
aI0
aI17
aI50
aNaNaNaNaNaNaNag33
aa(lp775
S'BIO202'
p776
aI80635
aI18
aI24
aS'Th'
p777
aS' 3:00 PM'
p778
aI15
aI0
aI17
aI50
aNaNaNaNaNaNaNag33
aa(lp779
S'BIO202'
p780
aI82119
aI9
aI48
ag86
aS'4:30PM'
p781
aI16
aI30
aI17
aI15
ag92
ag92
aNaNag92
aNaNag33
aa(lp782
S'BIO202'
p783
aI82125
aI0
aI24
ag86
aS' 1:30 PM'
p784
aI13
aI30
aI16
aI0
aNaNaNaNaNaNaNag5
aa(lp785
S'BIO202'
p786
aI82126
aI9
aI24
ag86
aS' 5:30 PM'
p787
aI17
aI30
aI20
aI0
aNaNaNaNaNaNaNag33
aa(lp788
S'BIO202'
p789
aI82121
aI4
aI48
ag8
aNaNaNaNaNaNaNaNaNaNaNaNag5
aa(lp790
S'BIO202'
p791
aI82127
aI0
aI24
ag128
aS' 6:00 PM'
p792
aI18
aI0
aI20
aI30
aNaNaNaNaNaNaNag5
aa(lp793
S'BIO202'
p794
aI84196
aI4
aI24
ag99
aS'12:00 PM'
p795
aI12
aI0
aI14
aI30
aNaNaNaNaNaNaNag33
aa(lp796
S'BIO202'
p797
aI73312
aI0
aI168
aS'T Th'
p798
aS'9:00AM'
p799
aI9
aI0
aI10
aI15
ag92
aS'12:00AM'
p800
aNaNaS'12:00AM'
p801
aNaNag5
aa(lp802
S'BIO202'
p803
aI72732
aI0
aI24
ag86
aS'11:00 AM'
p804
aI11
aI0
aI12
aI50
aNaNaNaNaNaNaNag5
aa(lp805
S'BIO202'
p806
aI75644
aI0
aI24
ag86
aS' 3:00 PM'
p807
aI15
aI0
aI16
aI50
aNaNaNaNaNaNaNag5
aa(lp808
S'BIO202'
p809
aI75647
aI0
aI24
ag42
aS' 1:00 PM'
p810
aI13
aI0
aI14
aI50
aNaNaNaNaNaNaNag5
aa(lp811
S'BIO202'
p812
aI75649
aI0
aI24
ag42
aS' 5:00 PM'
p813
aI17
aI0
aI18
aI50
aNaNaNaNaNaNaNag5
aa(lp814
S'BIO202'
p815
aI75650
aI0
aI24
ag128
aS'11:00 AM'
p816
aI11
aI0
aI12
aI50
aNaNaNaNaNaNaNag5
aa(lp817
S'BIO202'
p818
aI76418
aI0
aI24
ag42
aS' 3:00 PM'
p819
aI15
aI0
aI16
aI50
aNaNaNaNaNaNaNag5
aa(lp820
S'BIO202'
p821
aI76950
aI0
aI24
aS'Th'
p822
aS'11:00 AM'
p823
aI11
aI0
aI12
aI50
aNaNaNaNaNaNaNag5
aa(lp824
S'BIO202'
p825
aI75645
aI73
aI168
aS'T Th'
p826
aS'7:30AM'
p827
aI7
aI30
aI8
aI45
ag92
aS'12:00AM'
p828
aNaNaS'12:00AM'
p829
aNaNag5
aa(lp830
S'BIO202'
p831
aI72733
aI3
aI24
ag86
aS' 1:00 PM'
p832
aI13
aI0
aI14
aI50
aNaNaNaNaNaNaNag33
aa(lp833
S'BIO202'
p834
aI75646
aI14
aI24
ag86
aS' 5:00 PM'
p835
aI17
aI0
aI18
aI50
aNaNaNaNaNaNaNag33
aa(lp836
S'BIO202'
p837
aI75648
aI0
aI24
ag42
aS'11:00 AM'
p838
aI11
aI0
aI12
aI50
aNaNaNaNaNaNaNag5
aa(lp839
S'BIO202'
p840
aI75651
aI11
aI24
ag128
aS' 1:00 PM'
p841
aI13
aI0
aI14
aI50
aNaNaNaNaNaNaNag33
aa(lp842
S'BIO202'
p843
aI76461
aI7
aI24
aS'Th'
p844
aS' 1:00 PM'
p845
aI13
aI0
aI14
aI50
aNaNaNaNaNaNaNag33
aa(lp846
S'BIO202'
p847
aI76951
aI16
aI24
ag128
aS' 9:00 AM'
p848
aI9
aI0
aI10
aI50
aNaNaNaNaNaNaNag33
aa(lp849
S'BIO202'
p850
aI86717
aI22
aI24
ag128
aS' 3:00 PM'
p851
aI15
aI0
aI16
aI50
aNaNaNaNaNaNaNag33
aa(lp852
S'BIO281'
p853
aI79384
aI396
aI456
aS'T Th'
p854
aS'10:30 AM'
p855
aI10
aI30
aI11
aI20
aNaNaNaNaNaNaNag33
aa(lp856
S'BIO281'
p857
aI79385
aI19
aI24
ag86
aS' 9:00 AM'
p858
aI9
aI0
aI11
aI45
aNaNaNaNaNaNaNag5
aa(lp859
S'BIO281'
p860
aI79386
aI13
aI24
ag86
aS'12:00 PM'
p861
aI12
aI0
aI14
aI45
aNaNaNaNaNaNaNag33
aa(lp862
S'BIO281'
p863
aI79387
aI17
aI24
ag86
aS' 3:00 PM'
p864
aI15
aI0
aI17
aI45
aNaNaNaNaNaNaNag5
aa(lp865
S'BIO281'
p866
aI79388
aI22
aI24
ag86
aS' 6:00 PM'
p867
aI18
aI0
aI20
aI45
aNaNaNaNaNaNaNag33
aa(lp868
S'BIO281'
p869
aI79390
aI15
aI24
ag42
aS'12:00 PM'
p870
aI12
aI0
aI14
aI45
aNaNaNaNaNaNaNag5
aa(lp871
S'BIO281'
p872
aI79391
aI18
aI24
ag42
aS' 3:00 PM'
p873
aI15
aI0
aI17
aI45
aNaNaNaNaNaNaNag5
aa(lp874
S'BIO281'
p875
aI79393
aI23
aI24
ag128
aS' 7:30 AM'
p876
aI7
aI30
aI10
aI15
aNaNaNaNaNaNaNag33
aa(lp877
S'BIO281'
p878
aI79394
aI20
aI24
ag128
aS'10:30 AM'
p879
aI10
aI30
aI13
aI15
aNaNaNaNaNaNaNag33
aa(lp880
S'BIO281'
p881
aI79395
aI20
aI24
ag128
aS' 1:30 PM'
p882
aI13
aI30
aI16
aI15
aNaNaNaNaNaNaNag33
aa(lp883
S'BIO281'
p884
aI79396
aI23
aI24
ag128
aS' 4:30 PM'
p885
aI16
aI30
aI19
aI15
aNaNaNaNaNaNaNag33
aa(lp886
S'BIO281'
p887
aI79398
aI19
aI24
aS'Th'
p888
aS'12:00 PM'
p889
aI12
aI0
aI14
aI45
aNaNaNaNaNaNaNag5
aa(lp890
S'BIO281'
p891
aI79399
aI21
aI24
aS'Th'
p892
aS' 3:00 PM'
p893
aI15
aI0
aI17
aI45
aNaNaNaNaNaNaNag33
aa(lp894
S'BIO281'
p895
aI79400
aI24
aI24
aS'Th'
p896
aS' 6:00 PM'
p897
aI18
aI0
aI20
aI45
aNaNaNaNaNaNaNag33
aa(lp898
S'BIO281'
p899
aI79401
aI22
aI24
ag99
aS' 9:00 AM'
p900
aI9
aI0
aI11
aI45
aNaNaNaNaNaNaNag33
aa(lp901
S'BIO281'
p902
aI79402
aI24
aI24
ag99
aS'12:00 PM'
p903
aI12
aI0
aI14
aI45
aNaNaNaNaNaNaNag33
aa(lp904
S'BIO281'
p905
aI79404
aI39
aI48
ag128
aS' 9:00 AM'
p906
aI9
aI0
aI9
aI50
aNaNaNaNaNaNaNag33
aa(lp907
S'BIO281'
p908
aI79405
aI35
aI48
ag128
aS'12:00 PM'
p909
aI12
aI0
aI12
aI50
aNaNaNaNaNaNaNag5
aa(lp910
S'BIO281'
p911
aI79406
aI36
aI48
ag128
aS' 3:00 PM'
p912
aI15
aI0
aI15
aI50
aNaNaNaNaNaNaNag33
aa(lp913
S'BIO281'
p914
aI79407
aI44
aI48
ag128
aS' 4:30 PM'
p915
aI16
aI30
aI17
aI20
aNaNaNaNaNaNaNag33
aa(lp916
S'BIO281'
p917
aI79408
aI44
aI48
ag128
aS' 9:00 AM'
p918
aI9
aI0
aI9
aI50
aNaNaNaNaNaNaNag33
aa(lp919
S'BIO281'
p920
aI79409
aI45
aI48
ag128
aS'12:00 PM'
p921
aI12
aI0
aI12
aI50
aNaNaNaNaNaNaNag33
aa(lp922
S'BIO281'
p923
aI79410
aI44
aI48
ag128
aS' 3:00 PM'
p924
aI15
aI0
aI15
aI50
aNaNaNaNaNaNaNag33
aa(lp925
S'BIO281'
p926
aI79411
aI47
aI48
ag128
aS' 4:30 PM'
p927
aI16
aI30
aI17
aI20
aNaNaNaNaNaNaNag33
aa(lp928
S'BIO281'
p929
aI80164
aI24
aI24
ag128
aS' 7:30 PM'
p930
aI19
aI30
aI22
aI15
aNaNaNaNaNaNaNag33
aa(lp931
S'BIO281'
p932
aI85403
aI38
aI48
ag42
aS' 1:30 PM'
p933
aI13
aI30
aI14
aI20
aNaNaNaNaNaNaNag5
aa(lp934
S'BIO281'
p935
aI79415
aI29
aI72
aS'T Th'
p936
aS'10:30 AM'
p937
aI10
aI30
aI11
aI20
aNaNaNaNaNaNaNag5
aa(lp938
S'BIO281'
p939
aI79389
aI5
aI24
ag42
aS' 7:30 AM'
p940
aI7
aI30
aI10
aI15
aNaNaNaNaNaNaNag5
aa(lp941
S'BIO281'
p942
aI79392
aI12
aI24
ag42
aS' 6:00 PM'
p943
aI18
aI0
aI20
aI45
aNaNaNaNaNaNaNag5
aa(lp944
S'BIO281'
p945
aI79397
aI12
aI24
aS'Th'
p946
aS' 7:30 AM'
p947
aI7
aI30
aI10
aI15
aNaNaNaNaNaNaNag5
aa(lp948
S'BIO281'
p949
aI79403
aI29
aI72
ag128
aS' 7:55 AM'
p950
aI7
aI55
aI8
aI45
aNaNaNaNaNaNaNag5
aa(lp951
S'BIO282'
p952
aI82472
aI59
aI131
aS'T Th'
p953
aS'12:00 PM'
p954
aI12
aI0
aI12
aI50
aNaNaNaNaNaNaNag33
aa(lp955
S'BIO282'
p956
aI82473
aI7
aI24
ag42
aS' 1:30 PM'
p957
aI13
aI30
aI16
aI15
aNaNaNaNaNaNaNag33
aa(lp958
S'BIO282'
p959
aI82474
aI18
aI24
aS'Th'
p960
aS' 1:30 PM'
p961
aI13
aI30
aI16
aI15
aNaNaNaNaNaNaNag33
aa(lp962
S'BIO282'
p963
aI82475
aI12
aI24
ag42
aS' 4:30 PM'
p964
aI16
aI30
aI19
aI15
aNaNaNaNaNaNaNag33
aa(lp965
S'BIO282'
p966
aI82476
aI13
aI24
aS'Th'
p967
aS' 4:30 PM'
p968
aI16
aI30
aI19
aI15
aNaNaNaNaNaNaNag33
aa(lp969
S'BIO282'
p970
aI82477
aI13
aI48
ag128
aS' 6:00 PM'
p971
aI18
aI0
aI18
aI50
aNaNaNaNaNaNaNag33
aa(lp972
S'BIO282'
p973
aI82478
aI45
aI48
ag128
aS' 7:00 PM'
p974
aI19
aI0
aI19
aI50
aNaNaNaNaNaNaNag33
aa(lp975
S'BIO282'
p976
aI84642
aI7
aI18
ag128
aS' 7:30 AM'
p977
aI7
aI30
aI10
aI15
aNaNaNaNaNaNaNag33
aa(lp978
S'BIO282'
p979
aI84643
aI2
aI17
ag128
aS'10:30 AM'
p980
aI10
aI30
aI13
aI15
aNaNaNaNaNaNaNag33
aa(lp981
S'BIO282'
p982
aI84644
aI1
aI35
ag128
aS' 1:30 PM'
p983
aI13
aI30
aI14
aI20
aNaNaNaNaNaNaNag33
aa(lp984
S'BIO289'
p985
aI78494
aI70
aI70
ag99
aS' 9:00 AM'
p986
aI9
aI0
aI10
aI15
aNaNaNaNaNaNaNag33
aa(lp987
S'BIO300'
p988
aI74629
aI41
aI48
aS'M W F'
p989
aS' 9:00 AM'
p990
aI9
aI0
aI9
aI50
aNaNaNaNaNaNaNag33
aa(lp991
S'BIO301'
p992
aI74632
aI33
aI36
ag42
aS' 7:30 AM'
p993
aI7
aI30
aI10
aI15
aNaNaNaNaNaNaNag33
aa(lp994
S'BIO305'
p995
aI74636
aI52
aI120
aS'T Th'
p996
aS' 9:00 AM'
p997
aI9
aI0
aI10
aI15
aNaNaNaNaNaNaNag33
aa(lp998
S'BIO305'
p999
aI74638
aI0
aI24
aS'Th'
p1000
aS'12:00 PM'
p1001
aI12
aI0
aI14
aI45
aNaNaNaNaNaNaNag5
aa(lp1002
S'BIO305'
p1003
aI74639
aI9
aI24
aS'Th'
p1004
aS' 3:15 PM'
p1005
aI15
aI15
aI18
aI0
aNaNaNaNaNaNaNag33
aa(lp1006
S'BIO305'
p1007
aI74640
aI13
aI24
aS'Th'
p1008
aS' 6:30 PM'
p1009
aI18
aI30
aI21
aI15
aNaNaNaNaNaNaNag33
aa(lp1010
S'BIO305'
p1011
aI74641
aI17
aI24
ag99
aS' 9:00 AM'
p1012
aI9
aI0
aI11
aI45
aNaNaNaNaNaNaNag33
aa(lp1013
S'BIO305'
p1014
aI78366
aI13
aI24
ag99
aS'12:15 PM'
p1015
aI12
aI15
aI15
aI0
aNaNaNaNaNaNaNag33
aa(lp1016
S'BIO306'
p1017
aI86170
aI38
aI48
aS'M W'
p1018
aS' 3:00 PM'
p1019
aI15
aI0
aI16
aI15
aNaNaNaNaNaNaNag33
aa(lp1020
S'BIO310'
p1021
aI70582
aI37
aI50
ag8
aNaNaNaNaNaNaNaNaNaNaNaNag33
aa(lp1022
S'BIO311'
p1023
aI75533
aI218
aI300
aS'T Th'
p1024
aS' 1:30 PM'
p1025
aI13
aI30
aI14
aI45
aNaNaNaNaNaNaNag33
aa(lp1026
S'BIO312'
p1027
aI73682
aI0
aI95
ag86
aS'1:30PM'
p1028
aI13
aI30
aI14
aI45
ag92
aS'12:00AM'
p1029
aNaNaS'12:00AM'
p1030
aNaNag5
aa(lp1031
S'BIO320'
p1032
aI70579
aI73
aI175
aS'M W'
p1033
aS' 1:30 PM'
p1034
aI13
aI30
aI14
aI45
aNaNaNaNaNaNaNag33
aa(lp1035
S'BIO322'
p1036
aI72880
aI27
aI100
aS'T Th'
p1037
aS' 4:30 PM'
p1038
aI16
aI30
aI17
aI45
aNaNaNaNaNaNaNag33
aa(lp1039
S'BIO324'
p1040
aI89829
aI64
aI125
aS'T Th'
p1041
aS' 4:30 PM'
p1042
aI16
aI30
aI17
aI45
aNaNaNaNaNaNaNag33
aa(lp1043
S'BIO325'
p1044
aI75520
aI0
aI35
aS'M W'
p1045
aS' 4:30 PM'
p1046
aI16
aI30
aI17
aI45
aNaNaNaNaNaNaNag5
aa(lp1047
S'BIO331'
p1048
aI75521
aI65
aI160
aS'T Th'
p1049
aS' 3:00 PM'
p1050
aI15
aI0
aI16
aI15
aNaNaNaNaNaNaNag33
aa(lp1051
S'BIO331'
p1052
aI83443
aI3
aI30
aS'T Th'
p1053
aS' 3:00 PM'
p1054
aI15
aI0
aI16
aI15
aNaNaNaNaNaNaNag5
aa(lp1055
S'BIO331'
p1056
aI74642
aI3
aI50
aS'T Th'
p1057
aS'12:00 PM'
p1058
aI12
aI0
aI13
aI15
aNaNaNaNaNaNaNag33
aa(lp1059
S'BIO340'
p1060
aI81424
aI149
aI225
aS'M W'
p1061
aS'1:30PM'
p1062
aI13
aI30
aI14
aI45
ag99
aS'1:30PM'
p1063
aI13
aI30
aS'2:20PM'
p1064
aI14
aI20
ag33
aa(lp1065
S'BIO340'
p1066
aI73678
aI42
aI336
aS'T Th'
p1067
aS' 9:00 AM'
p1068
aI9
aI0
aI10
aI15
aNaNaNaNaNaNaNag33
aa(lp1069
S'BIO340'
p1070
aI75534
aI0
aI48
ag42
aS' 3:00 PM'
p1071
aI15
aI0
aI15
aI50
aNaNaNaNaNaNaNag5
aa(lp1072
S'BIO340'
p1073
aI75535
aI0
aI48
ag42
aS' 4:30 PM'
p1074
aI16
aI30
aI17
aI20
aNaNaNaNaNaNaNag5
aa(lp1075
S'BIO340'
p1076
aI75536
aI1
aI48
ag42
aS' 6:00 PM'
p1077
aI18
aI0
aI18
aI50
aNaNaNaNaNaNaNag33
aa(lp1078
S'BIO340'
p1079
aI75537
aI0
aI48
ag42
aS' 7:30 PM'
p1080
aI19
aI30
aI20
aI20
aNaNaNaNaNaNaNag5
aa(lp1081
S'BIO340'
p1082
aI75539
aI0
aI48
ag42
aS' 4:30 PM'
p1083
aI16
aI30
aI17
aI20
aNaNaNaNaNaNaNag5
aa(lp1084
S'BIO340'
p1085
aI75540
aI1
aI48
ag42
aS' 6:00 PM'
p1086
aI18
aI0
aI18
aI50
aNaNaNaNaNaNaNag33
aa(lp1087
S'BIO340'
p1088
aI75541
aI40
aI48
ag42
aS' 7:30 PM'
p1089
aI19
aI30
aI20
aI20
aNaNaNaNaNaNaNag33
aa(lp1090
S'BIO340'
p1091
aI75543
aI0
aI48
aS'T Th'
p1092
aS' 9:00 AM'
p1093
aI9
aI0
aI10
aI15
aNaNaNaNaNaNaNag5
aa(lp1094
S'BIO340'
p1095
aI75542
aI0
aI48
ag128
aS' 6:00 PM'
p1096
aI18
aI0
aI19
aI40
aNaNaNaNaNaNaNag5
aa(lp1097
S'BIO340'
p1098
aI80108
aI0
aI60
aS'M W'
p1099
aS' 1:30 PM'
p1100
aI13
aI30
aI14
aI45
aNaNaNaNaNaNaNag5
aa(lp1101
S'BIO340'
p1102
aI80110
aI0
aI60
ag99
aS' 1:30 PM'
p1103
aI13
aI30
aI14
aI20
aNaNaNaNaNaNaNag5
aa(lp1104
S'BIO340'
p1105
aI76952
aI47
aI120
aS'M W'
p1106
aS'12:00 PM'
p1107
aI12
aI0
aI13
aI15
aNaNaNaNaNaNaNag5
aa(lp1108
S'BIO340'
p1109
aI76953
aI1
aI60
ag99
aS'12:00 PM'
p1110
aI12
aI0
aI13
aI15
aNaNaNaNaNaNaNag33
aa(lp1111
S'BIO340'
p1112
aI82049
aI36
aI50
ag99
aS' 1:30 PM'
p1113
aI13
aI30
aI14
aI45
aNaNaNaNaNaNaNag33
aa(lp1114
S'BIO345'
p1115
aI74903
aI158
aI328
aS'T Th'
p1116
aS'10:30 AM'
p1117
aI10
aI30
aI11
aI30
aNaNaNaNaNaNaNag33
aa(lp1118
S'BIO345'
p1119
aI91183
aI0
aI48
aS'Th'
p1120
aS' 3:00 PM'
p1121
aI15
aI0
aI16
aI20
aNaNaNaNaNaNaNag5
aa(lp1122
S'BIO345'
p1123
aI91184
aI4
aI48
aS'Th'
p1124
aS' 4:30 PM'
p1125
aI16
aI30
aI17
aI50
aNaNaNaNaNaNaNag33
aa(lp1126
S'BIO345'
p1127
aI91185
aI31
aI48
aS'Th'
p1128
aS' 6:00 PM'
p1129
aI18
aI0
aI19
aI20
aNaNaNaNaNaNaNag33
aa(lp1130
S'BIO345'
p1131
aI91186
aI43
aI48
aS'Th'
p1132
aS' 7:30 PM'
p1133
aI19
aI30
aI20
aI40
aNaNaNaNaNaNaNag33
aa(lp1134
S'BIO345'
p1135
aI91187
aI1
aI48
aS'Th'
p1136
aS' 3:30 PM'
p1137
aI15
aI30
aI16
aI50
aNaNaNaNaNaNaNag33
aa(lp1138
S'BIO345'
p1139
aI91188
aI40
aI48
aS'Th'
p1140
aS' 4:30 PM'
p1141
aI16
aI30
aI17
aI50
aNaNaNaNaNaNaNag33
aa(lp1142
S'BIO345'
p1143
aI91189
aI47
aI48
aS'Th'
p1144
aS' 7:30 PM'
p1145
aI19
aI30
aI20
aI40
aNaNaNaNaNaNaNag33
aa(lp1146
S'BIO345'
p1147
aI83444
aI25
aI48
aS'T Th'
p1148
aS'10:30 AM'
p1149
aI10
aI30
aI11
aI30
aNaNaNaNaNaNaNag5
aa(lp1150
S'BIO345'
p1151
aI91190
aI25
aI48
aS'Th'
p1152
aS' 6:00 PM'
p1153
aI18
aI0
aI19
aI20
aNaNaNaNaNaNaNag33
aa(lp1154
S'BIO345'
p1155
aI74643
aI62
aI80
aS'M W F'
p1156
aS' 9:00 AM'
p1157
aI9
aI0
aI9
aI50
aNaNaNaNaNaNaNag33
aa(lp1158
S'BIO351'
p1159
aI70231
aI0
aI290
aS'T Th'
p1160
aS'12:00 PM'
p1161
aI12
aI0
aI13
aI15
aNaNaNaNaNaNaNag5
aa(lp1162
S'BIO352'
p1163
aI72665
aI0
aI24
aS'M W'
p1164
aS' 9:00 AM'
p1165
aI9
aI0
aI11
aI45
aNaNaNaNaNaNaNag5
aa(lp1166
S'BIO352'
p1167
aI72668
aI1
aI24
aS'M W'
p1168
aS' 1:30 PM'
p1169
aI13
aI30
aI16
aI15
aNaNaNaNaNaNaNag33
aa(lp1170
S'BIO353'
p1171
aI70580
aI169
aI310
aS'M W'
p1172
aS' 3:00 PM'
p1173
aI15
aI0
aI16
aI15
aNaNaNaNaNaNaNag33
aa(lp1174
S'BIO353'
p1175
aI90993
aI0
aI0
ag8
aNaNaNaNaNaNaNaNaNaNaNaNag5
aa(lp1176
S'BIO353'
p1177
aI83445
aI2
aI40
aS'M W'
p1178
aS' 3:00 PM'
p1179
aI15
aI0
aI16
aI15
aNaNaNaNaNaNaNag5
aa(lp1180
S'BIO353'
p1181
aI90006
aI2
aI40
ag86
aS' 1:00 PM'
p1182
aI13
aI0
aI13
aI50
aNaNaNaNaNaNaNag33
aa(lp1183
S'BIO353'
p1184
aI86939
aI16
aI40
aS'M W'
p1185
aS' 3:00 PM'
p1186
aI15
aI0
aI16
aI15
aNaNaNaNaNaNaNag33
aa(lp1187
S'BIO360'
p1188
aI70232
aI95
aI240
aS'T Th'
p1189
aS'10:30 AM'
p1190
aI10
aI30
aI11
aI20
aNaNaNaNaNaNaNag33
aa(lp1191
S'BIO360'
p1192
aI89906
aI25
aI48
ag99
aS'10:30 AM'
p1193
aI10
aI30
aI11
aI20
aNaNaNaNaNaNaNag33
aa(lp1194
S'BIO360'
p1195
aI89918
aI15
aI48
ag99
aS'12:00 PM'
p1196
aI12
aI0
aI12
aI50
aNaNaNaNaNaNaNag33
aa(lp1197
S'BIO360'
p1198
aI89919
aI13
aI48
ag99
aS'10:30 AM'
p1199
aI10
aI30
aI11
aI20
aNaNaNaNaNaNaNag33
aa(lp1200
S'BIO360'
p1201
aI89920
aI12
aI48
ag99
aS' 9:00 AM'
p1202
aI9
aI0
aI9
aI50
aNaNaNaNaNaNaNag33
aa(lp1203
S'BIO360'
p1204
aI89921
aI30
aI48
ag99
aS'12:00 PM'
p1205
aI12
aI0
aI12
aI50
aNaNaNaNaNaNaNag33
aa(lp1206
S'BIO360'
p1207
aI82011
aI30
aI48
aS'T Th'
p1208
aS' 9:00 AM'
p1209
aI9
aI0
aI10
aI15
aNaNaNaNaNaNaNag33
aa(lp1210
S'BIO361'
p1211
aI72509
aI0
aI16
ag86
aS' 9:00 AM'
p1212
aI9
aI0
aI12
aI50
aNaNaNaNaNaNaNag5
aa(lp1213
S'BIO361'
p1214
aI82210
aI0
aI16
ag128
aS'12:00 PM'
p1215
aI12
aI0
aI12
aI50
aNaNaNaNaNaNaNag5
aa(lp1216
S'BIO361'
p1217
aI72510
aI0
aI16
ag86
aS' 1:30 PM'
p1218
aI13
aI30
aI17
aI20
aNaNaNaNaNaNaNag5
aa(lp1219
S'BIO361'
p1220
aI82211
aI0
aI16
ag128
aS' 1:30 PM'
p1221
aI13
aI30
aI14
aI20
aNaNaNaNaNaNaNag5
aa(lp1222
S'BIO361'
p1223
aI73283
aI0
aI16
ag42
aS' 1:30 PM'
p1224
aI13
aI30
aI17
aI20
aNaNaNaNaNaNaNag5
aa(lp1225
S'BIO361'
p1226
aI82212
aI0
aI16
aS'Th'
p1227
aS' 1:30 PM'
p1228
aI13
aI30
aI14
aI20
aNaNaNaNaNaNaNag5
aa(lp1229
S'BIO361'
p1230
aI73284
aI0
aI16
ag128
aS' 9:00 AM'
p1231
aI9
aI0
aI12
aI50
aNaNaNaNaNaNaNag5
aa(lp1232
S'BIO361'
p1233
aI75428
aI0
aI16
ag86
aS'12:00 PM'
p1234
aI12
aI0
aI12
aI50
aNaNaNaNaNaNaNag5
aa(lp1235
S'BIO361'
p1236
aI73285
aI9
aI16
ag128
aS' 1:30 PM'
p1237
aI13
aI30
aI17
aI20
aNaNaNaNaNaNaNag33
aa(lp1238
S'BIO361'
p1239
aI75429
aI9
aI16
ag86
aS' 1:30 PM'
p1240
aI13
aI30
aI14
aI20
aNaNaNaNaNaNaNag33
aa(lp1241
S'BIO361'
p1242
aI75427
aI4
aI16
aS'Th'
p1243
aS' 1:30 PM'
p1244
aI13
aI30
aI17
aI20
aNaNaNaNaNaNaNag33
aa(lp1245
S'BIO361'
p1246
aI75430
aI4
aI16
ag42
aS' 1:30 PM'
p1247
aI13
aI30
aI14
aI20
aNaNaNaNaNaNaNag33
aa(lp1248
S'BIO386'
p1249
aI76858
aI47
aI80
aS'M W'
p1250
aS' 9:00 AM'
p1251
aI9
aI0
aI10
aI15
aNaNaNaNaNaNaNag33
aa(lp1252
S'BIO386'
p1253
aI76859
aI12
aI20
ag42
aS' 9:00 AM'
p1254
aI9
aI0
aI11
aI45
aNaNaNaNaNaNaNag33
aa(lp1255
S'BIO386'
p1256
aI76860
aI12
aI20
ag42
aS'12:00 PM'
p1257
aI12
aI0
aI14
aI45
aNaNaNaNaNaNaNag33
aa(lp1258
S'BIO386'
p1259
aI76861
aI12
aI20
aS'Th'
p1260
aS' 9:00 AM'
p1261
aI9
aI0
aI11
aI45
aNaNaNaNaNaNaNag33
aa(lp1262
S'BIO386'
p1263
aI76862
aI11
aI20
aS'Th'
p1264
aS'12:00 PM'
p1265
aI12
aI0
aI14
aI30
aNaNaNaNaNaNaNag33
aa(lp1266
S'BIO389'
p1267
aI78495
aI32
aI32
ag99
aS' 9:00 AM'
p1268
aI9
aI0
aI10
aI15
aNaNaNaNaNaNaNag33
aa(lp1269
S'BIO390'
p1270
aI70583
aI18
aI18
aS'Th'
p1271
aS' 4:30 PM'
p1272
aI16
aI30
aI19
aI0
aNaNaNaNaNaNaNag33
aa(lp1273
S'BIO390'
p1274
aI70584
aI18
aI18
ag8
aNaNaNaNaNaNaNaNaNaNaNaNag33
aa(lp1275
S'BIO390'
p1276
aI70585
aI30
aI30
ag8
aNaNaNaNaNaNaNaNaNaNaNaNag33
aa(lp1277
S'BIO390'
p1278
aI70586
aI18
aI18
ag8
aNaNaNaNaNaNaNaNaNaNaNaNag33
aa(lp1279
S'BIO415'
p1280
aI73290
aI13
aI40
aS'T Th'
p1281
aS'10:30 AM'
p1282
aI10
aI30
aI11
aI45
aNaNaNaNaNaNaNag33
aa(lp1283
S'BIO415'
p1284
aI73481
aI12
aI15
aS'Th'
p1285
aS' 4:30 PM'
p1286
aI16
aI30
aI19
aI15
aNaNaNaNaNaNaNag33
aa(lp1287
S'BIO415'
p1288
aI73482
aI5
aI15
aS'Th'
p1289
aS' 4:30 PM'
p1290
aI16
aI30
aI19
aI0
aNaNaNaNaNaNaNag33
aa(lp1291
S'BIO415'
p1292
aI80530
aI9
aI15
ag99
aS' 9:00 AM'
p1293
aI9
aI0
aI11
aI45
aNaNaNaNaNaNaNag33
aa(lp1294
S'BIO415'
p1295
aI80531
aI7
aI15
ag99
aS' 1:30 PM'
p1296
aI13
aI30
aI16
aI15
aNaNaNaNaNaNaNag33
aa(lp1297
S'BIO418'
p1298
aI87505
aI6
aI20
aS'T Th'
p1299
aS'12:00 PM'
p1300
aI12
aI0
aI13
aI15
aNaNaNaNaNaNaNag33
aa(lp1301
S'BIO420'
p1302
aI76525
aI1
aI35
aS'T Th'
p1303
aS' 9:00 AM'
p1304
aI9
aI0
aI10
aI15
aNaNaNaNaNaNaNag33
aa(lp1305
S'BIO421'
p1306
aI76753
aI27
aI28
aS'Th'
p1307
aS' 4:30 PM'
p1308
aI16
aI30
aI19
aI15
aNaNaNaNaNaNaNag33
aa(lp1309
S'BIO422'
p1310
aI78505
aI35
aI60
aS'T Th'
p1311
aS' 3:00 PM'
p1312
aI15
aI0
aI16
aI15
aNaNaNaNaNaNaNag33
aa(lp1313
S'BIO431'
p1314
aI86223
aI20
aI60
aS'M W F'
p1315
aS'12:00 PM'
p1316
aI12
aI0
aI12
aI50
aNaNaNaNaNaNaNag33
aa(lp1317
S'BIO434'
p1318
aI83428
aI26
aI36
aS'M W'
p1319
aS' 1:30 PM'
p1320
aI13
aI30
aI14
aI45
aNaNaNaNaNaNaNag33
aa(lp1321
S'BIO434'
p1322
aI83429
aI4
aI6
aS'M W'
p1323
aS' 1:30 PM'
p1324
aI13
aI30
aI14
aI45
aNaNaNaNaNaNaNag5
aa(lp1325
S'BIO434'
p1326
aI90227
aI4
aI6
ag99
aS' 1:30 PM'
p1327
aI13
aI30
aI14
aI20
aNaNaNaNaNaNaNag33
aa(lp1328
S'BIO435'
p1329
aI79868
aI3
aI14
ag42
aS'12:00 PM'
p1330
aI12
aI0
aI12
aI50
aNaNaNaNaNaNaNag33
aa(lp1331
S'BIO435'
p1332
aI79869
aI3
aI14
aS'T Th'
p1333
aS' 9:00 AM'
p1334
aI9
aI0
aI11
aI45
aNaNaNaNaNaNaNag33
aa(lp1335
S'BIO436'
p1336
aI81423
aI0
aI20
aS'T Th'
p1337
aS' 1:30 PM'
p1338
aI13
aI30
aI14
aI45
aNaNaNaNaNaNaNag5
aa(lp1339
S'BIO446'
p1340
aI81470
aI0
aI40
aS'T Th'
p1341
aS' 3:00 PM'
p1342
aI15
aI0
aI16
aI15
aNaNaNaNaNaNaNag5
aa(lp1343
S'BIO451'
p1344
aI91794
aI25
aI25
aS'M W'
p1345
aS' 8:15 AM'
p1346
aI8
aI15
aI11
aI45
aNaNaNaNaNaNaNag33
aa(lp1347
S'BIO461'
p1348
aI72965
aI18
aI70
aS'T Th'
p1349
aS'12:00 PM'
p1350
aI12
aI0
aI13
aI15
aNaNaNaNaNaNaNag33
aa(lp1351
S'BIO461'
p1352
aI83447
aI11
aI15
aS'T Th'
p1353
aS'12:00 PM'
p1354
aI12
aI0
aI13
aI15
aNaNaNaNaNaNaNag5
aa(lp1355
S'BIO467'
p1356
aI72960
aI19
aI48
aS'T Th'
p1357
aS'10:30 AM'
p1358
aI10
aI30
aI11
aI45
aNaNaNaNaNaNaNag33
aa(lp1359
S'BIO467'
p1360
aI83448
aI3
aI6
aS'T Th'
p1361
aS'10:30 AM'
p1362
aI10
aI30
aI11
aI45
aNaNaNaNaNaNaNag5
aa(lp1363
S'BIO472'
p1364
aI87142
aI0
aI20
aS'T Th'
p1365
aS'12:00 PM'
p1366
aI12
aI0
aI13
aI15
aNaNaNaNaNaNaNag5
aa(lp1367
S'BIO472'
p1368
aI87143
aI0
aI10
ag128
aS' 2:00 PM'
p1369
aI14
aI0
aI17
aI0
aNaNaNaNaNaNaNag5
aa(lp1370
S'BIO472'
p1371
aI87144
aI0
aI10
ag86
aS' 2:00 PM'
p1372
aI14
aI0
aI17
aI0
aNaNaNaNaNaNaNag5
aa(lp1373
S'BIO474'
p1374
aI81430
aI0
aI24
ag42
aS' 4:30 PM'
p1375
aI16
aI30
aI19
aI15
aNaNaNaNaNaNaNag5
aa(lp1376
S'BIO474'
p1377
aI81431
aI0
aI24
aS'Th'
p1378
aS' 4:30 PM'
p1379
aI16
aI30
aI19
aI15
aNaNaNaNaNaNaNag5
aa(lp1380
S'BIO480'
p1381
aI91209
aI18
aI20
ag86
aS' 4:30 PM'
p1382
aI16
aI30
aI19
aI15
aNaNaNaNaNaNaNag33
aa(lp1383
S'BIO484'
p1384
aI70587
aI30
aI30
ag8
aNaNaNaNaNaNaNaNaNaNaNaNag5
aa(lp1385
S'BIO489'
p1386
aI78496
aI18
aI18
ag99
aS' 9:00 AM'
p1387
aI9
aI0
aI10
aI15
aNaNaNaNaNaNaNag33
aa(lp1388
S'BIO490'
p1389
aI70588
aI18
aI18
aS'Th'
p1390
aS' 4:30 PM'
p1391
aI16
aI30
aI19
aI0
aNaNaNaNaNaNaNag33
aa(lp1392
S'BIO490'
p1393
aI70589
aI18
aI18
ag8
aNaNaNaNaNaNaNaNaNaNaNaNag33
aa(lp1394
S'BIO492'
p1395
aI70590
aI27
aI30
ag8
aNaNaNaNaNaNaNaNaNaNaNaNag33
aa(lp1396
S'BIO493'
p1397
aI70591
aI38
aI40
ag8
aNaNaNaNaNaNaNaNaNaNaNaNag33
aa(lp1398
S'BIO494'
p1399
aI89826
aI27
aI30
aS'M W F'
p1400
aS' 1:30 PM'
p1401
aI13
aI30
aI15
aI10
aNaNaNaNaNaNaNag33
aa(lp1402
S'BIO494'
p1403
aI80585
aI10
aI10
ag99
aS' 9:00 AM'
p1404
aI9
aI0
aI10
aI15
aNaNaNaNaNaNaNag33
aa(lp1405
S'BIO494'
p1406
aI73679
aI49
aI50
ag8
aNaNaNaNaNaNaNaNaNaNaNaNag33
aa(lp1407
S'BIO494'
p1408
aI73705
aI60
aI60
ag8
aNaNaNaNaNaNaNaNaNaNaNaNag33
aa(lp1409
S'BIO494'
p1410
aI75933
aI32
aI40
ag8
aNaNaNaNaNaNaNaNaNaNaNaNag33
aa(lp1411
S'BIO494'
p1412
aI74742
aI38
aI50
aS'T Th'
p1413
aS' 9:00 AM'
p1414
aI9
aI0
aI10
aI15
aNaNaNaNaNaNaNag33
aa(lp1415
S'BIO494'
p1416
aI83930
aI0
aI3
ag128
aS' 9:00 AM'
p1417
aI9
aI0
aI11
aI45
aNaNaNaNaNaNaNag5
aa(lp1418
S'BIO494'
p1419
aI84580
aI3
aI5
ag99
aS' 1:30 PM'
p1420
aI13
aI30
aI14
aI20
aNaNaNaNaNaNaNag33
aa(lp1421
S'BIO494'
p1422
aI86926
aI0
aI15
aS'T Th'
p1423
aS'10:30 AM'
p1424
aI10
aI30
aI11
aI45
aNaNaNaNaNaNaNag5
aa(lp1425
S'BIO494'
p1426
aI89838
aI16
aI32
aS'M W'
p1427
aS' 3:00 PM'
p1428
aI15
aI0
aI16
aI15
aNaNaNaNaNaNaNag33
aa(lp1429
S'BIO494'
p1430
aI77489
aI26
aI38
ag86
aS' 6:00 PM'
p1431
aI18
aI0
aI20
aI45
aNaNaNaNaNaNaNag33
aa(lp1432
S'BIO494'
p1433
aI91178
aI24
aI25
ag99
aS'2:00PM'
p1434
aI14
aI0
aI16
aI0
ag99
aS'2:00PM'
p1435
aI14
aI0
aS'4:00PM'
p1436
aI16
aI0
ag33
aa(lp1437
S'BIO494'
p1438
aI73005
aI14
aI24
ag128
aS' 6:00 PM'
p1439
aI18
aI0
aI20
aI45
aNaNaNaNaNaNaNag33
aa(lp1440
S'BIO494'
p1441
aI73822
aI21
aI24
aS'Th'
p1442
aS' 6:00 PM'
p1443
aI18
aI0
aI20
aI45
aNaNaNaNaNaNaNag33
aa(lp1444
S'BIO494'
p1445
aI74274
aI11
aI12
ag86
aS' 6:00 PM'
p1446
aI18
aI0
aI18
aI50
aNaNaNaNaNaNaNag33
aa(lp1447
S'BIO494'
p1448
aI76536
aI12
aI12
ag8
aNaNaNaNaNaNaNaNaNaNaNaNag33
aa(lp1449
S'BIO494'
p1450
aI78290
aI5
aI5
ag8
aNaNaNaNaNaNaNaNaNaNaNaNag33
aa(lp1451
S'BIO495'
p1452
aI75549
aI97
aI100
ag8
aNaNaNaNaNaNaNaNaNaNaNaNag33
aa(lp1453
S'BIO496'
p1454
aI75553
aI40
aI40
ag8
aNaNaNaNaNaNaNaNaNaNaNaNag33
aa(lp1455
S'BIO498'
p1456
aI73374
aI0
aI4
ag128
aS' 3:00 PM'
p1457
aI15
aI0
aI17
aI45
aNaNaNaNaNaNaNag5
aa(lp1458
S'BIO499'
p1459
aI84741
aI4
aI4
ag8
aNaNaNaNaNaNaNaNaNaNaNaNag33
aa(lp1460
S'BIO499'
p1461
aI70592
aI99
aI100
ag8
aNaNaNaNaNaNaNaNaNaNaNaNag33
aa(lp1462
S'BIO499'
p1463
aI75130
aI29
aI80
ag128
aS' 3:00 PM'
p1464
aI15
aI0
aI15
aI50
aNaNaNaNaNaNaNag33
aa(lp1465
S'BIO499'
p1466
aI85440
aI1
aI1
ag8
aNaNaNaNaNaNaNaNaNaNaNaNag33
aa(lp1467
S'BIO499'
p1468
aI80986
aI5
aI5
ag8
aNaNaNaNaNaNaNaNaNaNaNaNag33
aa(lp1469
S'BIO502'
p1470
aI77389
aI4
aI4
aS'T Th'
p1471
aS' 1:30 PM'
p1472
aI13
aI30
aI16
aI15
aNaNaNaNaNaNaNag33
aa(lp1473
S'BIO503'
p1474
aI76442
aI4
aI6
ag42
aS' 1:30 PM'
p1475
aI13
aI30
aI16
aI20
aNaNaNaNaNaNaNag33
aa(lp1476
S'BIO504'
p1477
aI76443
aI21
aI25
aS'T Th'
p1478
aS'12:00 PM'
p1479
aI12
aI0
aI13
aI15
aNaNaNaNaNaNaNag33
aa(lp1480
S'BIO506'
p1481
aI75132
aI4
aI5
aS'M W'
p1482
aS' 9:00 AM'
p1483
aI9
aI0
aI12
aI0
aNaNaNaNaNaNaNag33
aa(lp1484
S'BIO521'
p1485
aI76993
aI0
aI5
aS'Th'
p1486
aS' 4:30 PM'
p1487
aI16
aI30
aI19
aI15
aNaNaNaNaNaNaNag5
aa(lp1488
S'BIO543'
p1489
aI70593
aI27
aI30
aS'M W F'
p1490
aS' 9:00 AM'
p1491
aI9
aI0
aI9
aI50
aNaNaNaNaNaNaNag33
aa(lp1492
S'BIO570'
p1493
aI77032
aI2
aI5
ag86
aS' 3:00 PM'
p1494
aI15
aI0
aI17
aI45
aNaNaNaNaNaNaNag33
aa(lp1495
S'BIO584'
p1496
aI84534
aI12
aI12
ag8
aNaNaNaNaNaNaNaNaNaNaNaNag33
aa(lp1497
S'BIO584'
p1498
aI85916
aI1
aI1
ag8
aNaNaNaNaNaNaNaNaNaNaNaNag33
aa(lp1499
S'BIO584'
p1500
aI90265
aI20
aI20
ag8
aNaNaNaNaNaNaNaNaNaNaNaNag33
aa(lp1501
S'BIO590'
p1502
aI70594
aI49
aI50
ag8
aNaNaNaNaNaNaNaNaNaNaNaNag33
aa(lp1503
S'BIO591'
p1504
aI70595
aI25
aI25
ag99
aS' 1:30 PM'
p1505
aI13
aI30
aI15
aI30
aNaNaNaNaNaNaNag33
aa(lp1506
S'BIO591'
p1507
aI78127
aI4
aI4
ag8
aNaNaNaNaNaNaNaNaNaNaNaNag33
aa(lp1508
S'BIO591'
p1509
aI82390
aI0
aI5
ag86
aS' 4:40 PM'
p1510
aI16
aI40
aI17
aI40
aNaNaNaNaNaNaNag5
aa(lp1511
S'BIO591'
p1512
aI83459
aI18
aI20
aS'Th'
p1513
aS'12:00 PM'
p1514
aI12
aI0
aI13
aI15
aNaNaNaNaNaNaNag33
aa(lp1515
S'BIO591'
p1516
aI83931
aI2
aI2
ag128
aS' 9:00 AM'
p1517
aI9
aI0
aI11
aI45
aNaNaNaNaNaNaNag33
aa(lp1518
S'BIO591'
p1519
aI84729
aI20
aI20
ag8
aNaNaNaNaNaNaNaNaNaNaNaNag33
aa(lp1520
S'BIO591'
p1521
aI83634
aI3
aI3
ag8
aNaNaNaNaNaNaNaNaNaNaNaNag33
aa(lp1522
S'BIO591'
p1523
aI91109
aI12
aI12
aS'T Th'
p1524
aS' 3:00 PM'
p1525
aI15
aI0
aI16
aI15
aNaNaNaNaNaNaNag33
aa(lp1526
S'BIO591'
p1527
aI80803
aI40
aI40
ag128
aS' 3:00 PM'
p1528
aI15
aI0
aI16
aI45
aNaNaNaNaNaNaNag33
aa(lp1529
S'BIO591'
p1530
aI80804
aI10
aI10
ag8
aNaNaNaNaNaNaNaNaNaNaNaNag33
aa(lp1531
S'BIO591'
p1532
aI85658
aI30
aI30
ag8
aNaNaNaNaNaNaNaNaNaNaNaNag33
aa(lp1533
S'BIO591'
p1534
aI74117
aI8
aI10
aS'M W F'
p1535
aS'10:30 AM'
p1536
aI10
aI30
aI11
aI20
aNaNaNaNaNaNaNag33
aa(lp1537
S'BIO591'
p1538
aI74714
aI17
aI20
ag99
aS'12:00 PM'
p1539
aI12
aI0
aI13
aI15
aNaNaNaNaNaNaNag33
aa(lp1540
S'BIO591'
p1541
aI74874
aI3
aI4
ag128
aS' 3:00 PM'
p1542
aI15
aI0
aI17
aI45
aNaNaNaNaNaNaNag33
aa(lp1543
S'BIO591'
p1544
aI76323
aI5
aI5
ag8
aNaNaNaNaNaNaNaNaNaNaNaNag33
aa(lp1545
S'BIO591'
p1546
aI85788
aI29
aI30
ag8
aNaNaNaNaNaNaNaNaNaNaNaNag33
aa(lp1547
S'BIO592'
p1548
aI70596
aI97
aI100
ag8
aNaNaNaNaNaNaNaNaNaNaNaNag33
aa(lp1549
S'BIO595'
p1550
aI70597
aI100
aI100
ag8
aNaNaNaNaNaNaNaNaNaNaNaNag33
aa(lp1551
S'BIO598'
p1552
aI78999
aI6
aI10
aS'T Th'
p1553
aS' 9:00 AM'
p1554
aI9
aI0
aI10
aI15
aNaNaNaNaNaNaNag33
aa(lp1555
S'BIO598'
p1556
aI70598
aI10
aI10
ag42
aS' 3:00 PM'
p1557
aI15
aI0
aI17
aI30
aNaNaNaNaNaNaNag33
aa(lp1558
S'BIO598'
p1559
aI83932
aI14
aI15
ag86
aS' 3:30 PM'
p1560
aI15
aI30
aI16
aI30
aNaNaNaNaNaNaNag33
aa(lp1561
S'BIO598'
p1562
aI75350
aI13
aI15
aS'T Th'
p1563
aS' 3:00 PM'
p1564
aI15
aI0
aI16
aI15
aNaNaNaNaNaNaNag33
aa(lp1565
S'BIO598'
p1566
aI75450
aI22
aI24
ag8
aNaNaNaNaNaNaNaNaNaNaNaNag33
aa(lp1567
S'BIO598'
p1568
aI77490
aI8
aI10
ag86
aS' 6:00 PM'
p1569
aI18
aI0
aI20
aI45
aNaNaNaNaNaNaNag33
aa(lp1570
S'BIO598'
p1571
aI91024
aI7
aI10
aS'T Th'
p1572
aS'12:00 PM'
p1573
aI12
aI0
aI13
aI15
aNaNaNaNaNaNaNag33
aa(lp1574
S'BIO598'
p1575
aI91179
aI21
aI25
ag99
aS'2:00PM'
p1576
aI14
aI0
aI16
aI0
ag99
aS'2:00PM'
p1577
aI14
aI0
aS'4:00PM'
p1578
aI16
aI0
ag33
aa(lp1579
S'BIO598'
p1580
aI76380
aI5
aI5
ag8
aNaNaNaNaNaNaNaNaNaNaNaNag33
aa(lp1581
S'BIO598'
p1582
aI86927
aI2
aI5
aS'T Th'
p1583
aS'10:30 AM'
p1584
aI10
aI30
aI11
aI45
aNaNaNaNaNaNaNag33
aa(lp1585
S'BIO599'
p1586
aI70599
aI99
aI100
ag8
aNaNaNaNaNaNaNaNaNaNaNaNag33
aa(lp1587
S'BIO610'
p1588
aI75033
aI31
aI35
aS'Th'
p1589
aS'12:00 PM'
p1590
aI12
aI0
aI13
aI15
aNaNaNaNaNaNaNag33
aa(lp1591
S'BIO614'
p1592
aI89833
aI19
aI30
aS'T Th'
p1593
aS'12:00 PM'
p1594
aI12
aI0
aI13
aI15
aNaNaNaNaNaNaNag33
aa(lp1595
S'BIO615'
p1596
aI76829
aI15
aI18
ag42
aS'12:00 PM'
p1597
aI12
aI0
aI13
aI15
aNaNaNaNaNaNaNag33
aa(lp1598
S'BIO691'
p1599
aI83306
aI10
aI10
aS'T Th'
p1600
aS'10:30 AM'
p1601
aI10
aI30
aI11
aI55
aNaNaNaNaNaNaNag33
aa(lp1602
S'BIO691'
p1603
aI83307
aI9
aI10
aS'T Th'
p1604
aS' 3:30 PM'
p1605
aI15
aI30
aI16
aI55
aNaNaNaNaNaNaNag33
aa(lp1606
S'BIO691'
p1607
aI83308
aI20
aI20
ag42
aS' 6:00 PM'
p1608
aI18
aI0
aI19
aI55
aNaNaNaNaNaNaNag33
aa(lp1609
S'BIO784'
p1610
aI84284
aI30
aI30
ag8
aNaNaNaNaNaNaNaNaNaNaNaNag33
aa(lp1611
S'BIO790'
p1612
aI76415
aI15
aI15
ag8
aNaNaNaNaNaNaNaNaNaNaNaNag33
aa(lp1613
S'BIO790'
p1614
aI70600
aI100
aI100
ag8
aNaNaNaNaNaNaNaNaNaNaNaNag33
aa(lp1615
S'BIO792'
p1616
aI70601
aI94
aI100
ag8
aNaNaNaNaNaNaNaNaNaNaNaNag33
aa(lp1617
S'BIO795'
p1618
aI70602
aI99
aI100
ag8
aNaNaNaNaNaNaNaNaNaNaNaNag33
aa(lp1619
S'BIO799'
p1620
aI70603
aI97
aI100
ag8
aNaNaNaNaNaNaNaNaNaNaNaNag33
aa.