(lp0
(lp1
S'BIS300'
p2
aI77695
aI5
aI5
aS'ONLINE'
p3
aNaNaNaNaNaNaNaNaNaNaNaNaS'Reserved'
p4
aa(lp5
S'BIS301'
p6
aI73295
aI0
aI25
ag3
aNaNaNaNaNaNaNaNaNaNaNaNag4
aa(lp7
S'BIS301'
p8
aI73485
aI15
aI25
ag3
aNaNaNaNaNaNaNaNaNaNaNaNag4
aa(lp9
S'BIS301'
p10
aI75663
aI23
aI25
ag3
aNaNaNaNaNaNaNaNaNaNaNaNag4
aa(lp11
S'BIS301'
p12
aI78209
aI10
aI25
ag3
aNaNaNaNaNaNaNaNaNaNaNaNag4
aa(lp13
S'BIS301'
p14
aI80718
aI23
aI25
ag3
aNaNaNaNaNaNaNaNaNaNaNaNag4
aa(lp15
S'BIS301'
p16
aI77696
aI22
aI25
ag3
aNaNaNaNaNaNaNaNaNaNaNaNag4
aa(lp17
S'BIS301'
p18
aI73707
aI4
aI25
aS'T Th'
p19
aS'10:30 AM'
p20
aI10
aI30
aI11
aI45
aNaNaNaNaNaNaNag4
aa(lp21
S'BIS301'
p22
aI80443
aI23
aI25
ag3
aNaNaNaNaNaNaNaNaNaNaNaNag4
aa(lp23
S'BIS301'
p24
aI91079
aI21
aI25
aS'T Th'
p25
aS'12:00 PM'
p26
aI12
aI0
aI13
aI15
aNaNaNaNaNaNaNaS'Not Reserved'
p27
aa(lp28
S'BIS302'
p29
aI77697
aI10
aI25
ag3
aNaNaNaNaNaNaNaNaNaNaNaNag4
aa(lp30
S'BIS302'
p31
aI90374
aI19
aI25
ag3
aNaNaNaNaNaNaNaNaNaNaNaNag4
aa(lp32
S'BIS302'
p33
aI76623
aI7
aI25
ag3
aNaNaNaNaNaNaNaNaNaNaNaNag4
aa(lp34
S'BIS302'
p35
aI76622
aI22
aI25
ag3
aNaNaNaNaNaNaNaNaNaNaNaNag4
aa(lp36
S'BIS302'
p37
aI76826
aI0
aI25
ag3
aNaNaNaNaNaNaNaNaNaNaNaNag4
aa(lp38
S'BIS302'
p39
aI80576
aI25
aI25
ag3
aNaNaNaNaNaNaNaNaNaNaNaNag4
aa(lp40
S'BIS302'
p41
aI80719
aI25
aI25
ag3
aNaNaNaNaNaNaNaNaNaNaNaNag4
aa(lp42
S'BIS302'
p43
aI90393
aI6
aI25
aS'T Th'
p44
aS'12:00 PM'
p45
aI12
aI0
aI13
aI15
aNaNaNaNaNaNaNag27
aa(lp46
S'BIS340'
p47
aI90433
aI25
aI30
aS'T'
p48
aS' 6:00 PM'
p49
aI18
aI0
aI20
aI45
aNaNaNaNaNaNaNag4
aa(lp50
S'BIS345'
p51
aI84495
aI1
aI5
ag3
aNaNaNaNaNaNaNaNaNaNaNaNag4
aa(lp52
S'BIS345'
p53
aI90376
aI25
aI25
ag3
aNaNaNaNaNaNaNaNaNaNaNaNag4
aa(lp54
S'BIS345'
p55
aI90377
aI24
aI25
ag3
aNaNaNaNaNaNaNaNaNaNaNaNag4
aa(lp56
S'BIS345'
p57
aI90432
aI26
aI30
aS'Th'
p58
aS' 6:00 PM'
p59
aI18
aI0
aI20
aI45
aNaNaNaNaNaNaNag4
aa(lp60
S'BIS350'
p61
aI77698
aI9
aI15
ag3
aNaNaNaNaNaNaNaNaNaNaNaNag4
aa(lp62
S'BIS350'
p63
aI90378
aI23
aI25
ag3
aNaNaNaNaNaNaNaNaNaNaNaNag4
aa(lp64
S'BIS350'
p65
aI90380
aI22
aI25
ag3
aNaNaNaNaNaNaNaNaNaNaNaNag4
aa(lp66
S'BIS350'
p67
aI90434
aI25
aI30
aS'W'
p68
aS' 6:00 PM'
p69
aI18
aI0
aI20
aI45
aNaNaNaNaNaNaNag4
aa(lp70
S'BIS353'
p71
aI90431
aI27
aI30
ag68
aS' 6:00 PM'
p72
aI18
aI0
aI20
aI45
aNaNaNaNaNaNaNag4
aa(lp73
S'BIS360'
p74
aI84283
aI5
aI5
ag3
aNaNaNaNaNaNaNaNaNaNaNaNag27
aa(lp75
S'BIS360'
p76
aI90430
aI27
aI30
ag48
aS' 6:00 PM'
p77
aI18
aI0
aI20
aI45
aNaNaNaNaNaNaNag4
aa(lp78
S'BIS370'
p79
aI78352
aI5
aI5
ag3
aNaNaNaNaNaNaNaNaNaNaNaNag4
aa(lp80
S'BIS394'
p81
aI77409
aI4
aI5
ag3
aNaNaNaNaNaNaNaNaNaNaNaNag4
aa(lp82
S'BIS394'
p83
aI80475
aI5
aI5
ag3
aNaNaNaNaNaNaNaNaNaNaNaNag4
aa(lp84
S'BIS394'
p85
aI90437
aI14
aI15
ag3
aNaNaNaNaNaNaNaNaNaNaNaNag4
aa(lp86
S'BIS401'
p87
aI76831
aI20
aI20
ag3
aNaNaNaNaNaNaNaNaNaNaNaNag4
aa(lp88
S'BIS401'
p89
aI78656
aI30
aI30
ag3
aNaNaNaNaNaNaNaNaNaNaNaNag4
aa(lp90
S'BIS401'
p91
aI79630
aI20
aI20
ag3
aNaNaNaNaNaNaNaNaNaNaNaNag4
aa(lp92
S'BIS401'
p93
aI70607
aI150
aI150
ag3
aNaNaNaNaNaNaNaNaNaNaNaNag4
aa(lp94
S'BIS401'
p95
aI76361
aI20
aI20
ag3
aNaNaNaNaNaNaNaNaNaNaNaNag4
aa(lp96
S'BIS401'
p97
aI76834
aI10
aI10
ag3
aNaNaNaNaNaNaNaNaNaNaNaNag4
aa(lp98
S'BIS402'
p99
aI77701
aI8
aI15
ag3
aNaNaNaNaNaNaNaNaNaNaNaNag4
aa(lp100
S'BIS402'
p101
aI78221
aI14
aI20
ag3
aNaNaNaNaNaNaNaNaNaNaNaNag4
aa(lp102
S'BIS402'
p103
aI82526
aI16
aI20
ag3
aNaNaNaNaNaNaNaNaNaNaNaNag4
aa(lp104
S'BIS402'
p105
aI77702
aI13
aI15
ag3
aNaNaNaNaNaNaNaNaNaNaNaNag4
aa(lp106
S'BIS402'
p107
aI78223
aI19
aI20
ag3
aNaNaNaNaNaNaNaNaNaNaNaNag4
aa(lp108
S'BIS402'
p109
aI85956
aI14
aI25
ag3
aNaNaNaNaNaNaNaNaNaNaNaNag4
aa(lp110
S'BIS402'
p111
aI70608
aI21
aI25
ag48
aS' 6:00 PM'
p112
aI18
aI0
aI20
aI45
aNaNaNaNaNaNaNag27
aa(lp113
S'BIS402'
p114
aI80423
aI22
aI25
ag3
aNaNaNaNaNaNaNaNaNaNaNaNag4
aa(lp115
S'BIS402'
p116
aI90817
aI25
aI25
ag3
aNaNaNaNaNaNaNaNaNaNaNaNag4
aa(lp117
S'BIS470'
p118
aI77817
aI5
aI5
ag3
aNaNaNaNaNaNaNaNaNaNaNaNag4
aa(lp119
S'BIS484'
p120
aI78122
aI5
aI5
ag3
aNaNaNaNaNaNaNaNaNaNaNaNag4
aa(lp121
S'BIS484'
p122
aI80916
aI20
aI20
ag3
aNaNaNaNaNaNaNaNaNaNaNaNag4
aa(lp123
S'BIS484'
p124
aI78124
aI5
aI5
ag3
aNaNaNaNaNaNaNaNaNaNaNaNag4
aa(lp125
S'BIS484'
p126
aI80136
aI5
aI5
ag3
aNaNaNaNaNaNaNaNaNaNaNaNag4
aa(lp127
S'BIS484'
p128
aI72877
aI7
aI10
ag3
aNaNaNaNaNaNaNaNaNaNaNaNag4
aa(lp129
S'BIS499'
p130
aI80137
aI10
aI10
ag3
aNaNaNaNaNaNaNaNaNaNaNaNag4
aa(lp131
S'BIS499'
p132
aI73976
aI10
aI10
ag3
aNaNaNaNaNaNaNaNaNaNaNaNag4
aa.