(lp0
(lp1
S'BLE220'
p2
aI83080
aI54
aI70
aS'ONLINE'
p3
aNaNaNaNaNaNaNaNaNaNaNaNaS'Reserved'
p4
aa(lp5
S'BLE220'
p6
aI73949
aI29
aI35
aS'T Th'
p7
aS' 9:00 AM'
p8
aI9
aI0
aI10
aI15
aNaNaNaNaNaNaNaS'Not Reserved'
p9
aa(lp10
S'BLE220'
p11
aI74051
aI27
aI35
aS'T Th'
p12
aS'10:30 AM'
p13
aI10
aI30
aI11
aI45
aNaNaNaNaNaNaNag9
aa(lp14
S'BLE220'
p15
aI74125
aI21
aI35
aS'T Th'
p16
aS' 3:00 PM'
p17
aI15
aI0
aI16
aI15
aNaNaNaNaNaNaNag9
aa(lp18
S'BLE220'
p19
aI74631
aI0
aI35
aS'T Th'
p20
aS'12:00 PM'
p21
aI12
aI0
aI13
aI15
aNaNaNaNaNaNaNag4
aa(lp22
S'BLE220'
p23
aI74633
aI19
aI35
ag3
aNaNaNaNaNaNaNaNaNaNaNaNag4
aa(lp24
S'BLE220'
p25
aI74634
aI0
aI35
aS'T Th'
p26
aS' 1:30 PM'
p27
aI13
aI30
aI14
aI45
aNaNaNaNaNaNaNag4
aa(lp28
S'BLE220'
p29
aI74635
aI17
aI35
aS'M W'
p30
aS' 3:00 PM'
p31
aI15
aI0
aI16
aI15
aNaNaNaNaNaNaNag9
aa(lp32
S'BLE220'
p33
aI74637
aI2
aI35
aS'T Th'
p34
aS' 9:00 AM'
p35
aI9
aI0
aI10
aI0
aNaNaNaNaNaNaNag9
aa(lp36
S'BLE220'
p37
aI79934
aI25
aI35
ag3
aNaNaNaNaNaNaNaNaNaNaNaNag4
aa(lp38
S'BLE220'
p39
aI79936
aI35
aI35
ag3
aNaNaNaNaNaNaNaNaNaNaNaNag4
aa(lp40
S'BLE220'
p41
aI79969
aI27
aI35
aS'Th'
p42
aS' 4:30 PM'
p43
aI16
aI30
aI19
aI15
aNaNaNaNaNaNaNag9
aa(lp44
S'BLE220'
p45
aI81318
aI8
aI25
aS'M W'
p46
aS'12:00 PM'
p47
aI12
aI0
aI13
aI15
aNaNaNaNaNaNaNag9
aa(lp48
S'BLE520'
p49
aI79830
aI15
aI15
ag3
aNaNaNaNaNaNaNaNaNaNaNaNag4
aa(lp50
S'BLE535'
p51
aI80587
aI10
aI10
ag3
aNaNaNaNaNaNaNaNaNaNaNaNag4
aa.