(lp0
(lp1
S'BMD501'
p2
aI91709
aI1
aI4
aS'ONLINE'
p3
aNaNaNaNaNaNaNaNaNaNaNaNaS'Reserved'
p4
aa(lp5
S'BMD592'
p6
aI91450
aI26
aI30
ag3
aNaNaNaNaNaNaNaNaNaNaNaNaS'Not Reserved'
p7
aa(lp8
S'BMD593'
p9
aI91451
aI26
aI30
ag3
aNaNaNaNaNaNaNaNaNaNaNaNag7
aa.