(lp0
(lp1
S'BME100'
p2
aI81996
aI180
aI204
aS'M W'
p3
aS' 3:00 PM'
p4
aI15
aI0
aI16
aI15
aNaNaNaNaNaNaNaS'Reserved'
p5
aa(lp6
S'BME100'
p7
aI81997
aI84
aI102
aS'W'
p8
aS' 8:00 AM'
p9
aI8
aI0
aI10
aI20
aNaNaNaNaNaNaNag5
aa(lp10
S'BME100'
p11
aI81998
aI96
aI102
ag8
aS'10:30 AM'
p12
aI10
aI30
aI12
aI50
aNaNaNaNaNaNaNag5
aa(lp13
S'BME111'
p14
aI70609
aI160
aI300
aS'ONLINE'
p15
aNaNaNaNaNaNaNaNaNaNaNaNaS'Not Reserved'
p16
aa(lp17
S'BME182'
p18
aI79174
aI74
aI102
aS'M'
p19
aS' 9:00 AM'
p20
aI9
aI0
aI11
aI30
aNaNaNaNaNaNaNag16
aa(lp21
S'BME182'
p22
aI79175
aI68
aI102
ag19
aS'12:00 PM'
p23
aI12
aI0
aI14
aI30
aNaNaNaNaNaNaNag16
aa(lp24
S'BME200'
p25
aI79230
aI61
aI100
aS'M W'
p26
aS' 3:00 PM'
p27
aI15
aI0
aI16
aI15
aNaNaNaNaNaNaNag16
aa(lp28
S'BME200'
p29
aI87460
aI68
aI100
aS'T Th'
p30
aS' 3:00 PM'
p31
aI15
aI0
aI16
aI15
aNaNaNaNaNaNaNag16
aa(lp32
S'BME213'
p33
aI79178
aI0
aI150
aS'T Th'
p34
aS'12:00 PM'
p35
aI12
aI0
aI13
aI15
aNaNaNaNaNaNaNag5
aa(lp36
S'BME214'
p37
aI79179
aI1
aI150
aS'T Th'
p38
aS'12:00 PM'
p39
aI12
aI0
aI13
aI15
aNaNaNaNaNaNaNag16
aa(lp40
S'BME235'
p41
aI79232
aI23
aI153
aS'M W'
p42
aS' 4:30 PM'
p43
aI16
aI30
aI17
aI45
aNaNaNaNaNaNaNag16
aa(lp44
S'BME235'
p45
aI79234
aI2
aI51
ag19
aS' 9:00 AM'
p46
aI9
aI0
aI11
aI30
aNaNaNaNaNaNaNag16
aa(lp47
S'BME235'
p48
aI79790
aI19
aI51
aS'T'
p49
aS' 9:00 AM'
p50
aI9
aI0
aI11
aI30
aNaNaNaNaNaNaNag16
aa(lp51
S'BME235'
p52
aI79791
aI2
aI51
ag19
aS'12:00 PM'
p53
aI12
aI0
aI14
aI30
aNaNaNaNaNaNaNag16
aa(lp54
S'BME282'
p55
aI79176
aI13
aI75
ag8
aS' 9:00 AM'
p56
aI9
aI0
aI11
aI30
aNaNaNaNaNaNaNag16
aa(lp57
S'BME300'
p58
aI88103
aI1
aI102
aS'T Th'
p59
aS' 9:00 AM'
p60
aI9
aI0
aI10
aI15
aNaNaNaNaNaNaNag16
aa(lp61
S'BME301'
p62
aI79226
aI22
aI100
aS'M W'
p63
aS'10:30 AM'
p64
aI10
aI30
aI11
aI20
aNaNaNaNaNaNaNag16
aa(lp65
S'BME318'
p66
aI79235
aI0
aI102
aS'M W'
p67
aS' 4:30 PM'
p68
aI16
aI30
aI17
aI45
aNaNaNaNaNaNaNag5
aa(lp69
S'BME318'
p70
aI79435
aI0
aI102
ag49
aS'12:00 PM'
p71
aI12
aI0
aI14
aI30
aNaNaNaNaNaNaNag5
aa(lp72
S'BME322'
p73
aI79228
aI0
aI102
aS'F'
p74
aS'12:00 PM'
p75
aI12
aI0
aI12
aI50
aNaNaNaNaNaNaNag5
aa(lp76
S'BME331'
p77
aI83088
aI7
aI100
aS'T Th'
p78
aS'3:00PM'
p79
aI15
aI0
aI16
aI15
ag49
aS'6:00PM'
p80
aI18
aI0
aS'9:00PM'
p81
aI21
aI0
ag16
aa(lp82
S'BME350'
p83
aI79436
aI21
aI190
aS'T Th'
p84
aS' 4:30 PM'
p85
aI16
aI30
aI17
aI45
aNaNaNaNaNaNaNag16
aa(lp86
S'BME350'
p87
aI90910
aI21
aI102
ag74
aS' 1:00 PM'
p88
aI13
aI0
aI14
aI15
aNaNaNaNaNaNaNag16
aa(lp89
S'BME350'
p90
aI91027
aI0
aI88
ag19
aS' 1:00 PM'
p91
aI13
aI0
aI14
aI15
aNaNaNaNaNaNaNag5
aa(lp92
S'BME382'
p93
aI88079
aI0
aI50
ag8
aS' 1:00 PM'
p94
aI13
aI0
aI15
aI50
aNaNaNaNaNaNaNag5
aa(lp95
S'BME382'
p96
aI91025
aI19
aI50
ag74
aS' 8:30 AM'
p97
aI8
aI30
aI11
aI20
aNaNaNaNaNaNaNag16
aa(lp98
S'BME394'
p99
aI80958
aI10
aI10
ag15
aNaNaNaNaNaNaNaNaNaNaNaNag16
aa(lp100
S'BME394'
p101
aI80959
aI10
aI10
ag15
aNaNaNaNaNaNaNaNaNaNaNaNag16
aa(lp102
S'BME394'
p103
aI80257
aI10
aI10
ag15
aNaNaNaNaNaNaNaNaNaNaNaNag16
aa(lp104
S'BME394'
p105
aI80574
aI30
aI30
ag15
aNaNaNaNaNaNaNaNaNaNaNaNag16
aa(lp106
S'BME413'
p107
aI79241
aI0
aI86
aS'T Th'
p108
aS' 1:30 PM'
p109
aI13
aI30
aI14
aI45
aNaNaNaNaNaNaNag5
aa(lp110
S'BME417'
p111
aI79246
aI0
aI86
aS'T Th'
p112
aS' 9:00 AM'
p113
aI9
aI0
aI10
aI15
aNaNaNaNaNaNaNag5
aa(lp114
S'BME417'
p115
aI79247
aI9
aI86
aS'T Th'
p116
aS' 9:00 AM'
p117
aI9
aI0
aI10
aI15
aNaNaNaNaNaNaNag16
aa(lp118
S'BME417'
p119
aI88326
aI0
aI86
aS'Th'
p120
aS'10:30 AM'
p121
aI10
aI30
aI13
aI0
aNaNaNaNaNaNaNag5
aa(lp122
S'BME417'
p123
aI88327
aI9
aI86
aS'Th'
p124
aS' 3:00 PM'
p125
aI15
aI0
aI17
aI30
aNaNaNaNaNaNaNag16
aa(lp126
S'BME423'
p127
aI77176
aI2
aI86
ag49
aS'10:30 AM'
p128
aI10
aI30
aI13
aI0
aNaNaNaNaNaNaNag16
aa(lp129
S'BME484'
p130
aI80960
aI10
aI10
ag15
aNaNaNaNaNaNaNaNaNaNaNaNag16
aa(lp131
S'BME484'
p132
aI74181
aI30
aI30
ag15
aNaNaNaNaNaNaNaNaNaNaNaNag16
aa(lp133
S'BME492'
p134
aI79845
aI20
aI20
ag15
aNaNaNaNaNaNaNaNaNaNaNaNag16
aa(lp135
S'BME492'
p136
aI70610
aI29
aI30
ag15
aNaNaNaNaNaNaNaNaNaNaNaNag5
aa(lp137
S'BME493'
p138
aI79844
aI20
aI20
ag15
aNaNaNaNaNaNaNaNaNaNaNaNag16
aa(lp139
S'BME493'
p140
aI70611
aI28
aI30
ag15
aNaNaNaNaNaNaNaNaNaNaNaNag5
aa(lp141
S'BME494'
p142
aI88832
aI7
aI10
aS'T Th'
p143
aS'12:00 PM'
p144
aI12
aI0
aI13
aI15
aNaNaNaNaNaNaNag16
aa(lp145
S'BME494'
p146
aI88836
aI1
aI15
aS'M W F'
p147
aS'10:30 AM'
p148
aI10
aI30
aI11
aI20
aNaNaNaNaNaNaNag16
aa(lp149
S'BME494'
p150
aI90476
aI0
aI1
aS'M W'
p151
aS' 3:00 PM'
p152
aI15
aI0
aI16
aI15
aNaNaNaNaNaNaNag5
aa(lp153
S'BME520'
p154
aI85878
aI36
aI45
aS'T Th'
p155
aS' 3:00 PM'
p156
aI15
aI0
aI16
aI15
aNaNaNaNaNaNaNag16
aa(lp157
S'BME525'
p158
aI91606
aI0
aI16
aS'Th'
p159
aS' 4:30 PM'
p160
aI16
aI30
aI19
aI30
aNaNaNaNaNaNaNag5
aa(lp161
S'BME584'
p162
aI80961
aI10
aI10
ag15
aNaNaNaNaNaNaNaNaNaNaNaNag16
aa(lp163
S'BME584'
p164
aI77750
aI15
aI15
ag15
aNaNaNaNaNaNaNaNaNaNaNaNag16
aa(lp165
S'BME590'
p166
aI73238
aI15
aI15
ag15
aNaNaNaNaNaNaNaNaNaNaNaNag16
aa(lp167
S'BME591'
p168
aI70612
aI81
aI150
ag74
aS' 3:00 PM'
p169
aI15
aI0
aI15
aI50
aNaNaNaNaNaNaNag16
aa(lp170
S'BME592'
p171
aI70613
aI39
aI40
ag15
aNaNaNaNaNaNaNaNaNaNaNaNag16
aa(lp172
S'BME593'
p173
aI70614
aI58
aI60
ag19
aS'12:00 PM'
p174
aI12
aI0
aI12
aI50
aNaNaNaNaNaNaNag16
aa(lp175
S'BME595'
p176
aI70615
aI5
aI5
ag15
aNaNaNaNaNaNaNaNaNaNaNaNag16
aa(lp177
S'BME598'
p178
aI91056
aI3
aI25
ag8
aS' 1:00 PM'
p179
aI13
aI0
aI14
aI40
aNaNaNaNaNaNaNag16
aa(lp180
S'BME598'
p181
aI88828
aI21
aI30
aS'T Th'
p182
aS'12:00 PM'
p183
aI12
aI0
aI13
aI15
aNaNaNaNaNaNaNag16
aa(lp184
S'BME598'
p185
aI88837
aI15
aI30
aS'M W F'
p186
aS'10:30 AM'
p187
aI10
aI30
aI11
aI20
aNaNaNaNaNaNaNag16
aa(lp188
S'BME598'
p189
aI88844
aI0
aI25
aS'T Th'
p190
aS' 1:30 PM'
p191
aI13
aI30
aI14
aI45
aNaNaNaNaNaNaNag5
aa(lp192
S'BME598'
p193
aI88918
aI20
aI35
aS'M W F'
p194
aS' 9:00 AM'
p195
aI9
aI0
aI9
aI50
aNaNaNaNaNaNaNag16
aa(lp196
S'BME598'
p197
aI88920
aI16
aI40
ag19
aS' 6:00 PM'
p198
aI18
aI0
aI19
aI55
aNaNaNaNaNaNaNag16
aa(lp199
S'BME598'
p200
aI90477
aI0
aI3
aS'M W'
p201
aS' 3:00 PM'
p202
aI15
aI0
aI16
aI15
aNaNaNaNaNaNaNag5
aa(lp203
S'BME598'
p204
aI90518
aI21
aI50
aS'T Th'
p205
aS'10:30 AM'
p206
aI10
aI30
aI11
aI45
aNaNaNaNaNaNaNag16
aa(lp207
S'BME598'
p208
aI91475
aI26
aI45
aS'M W'
p209
aS' 4:30 PM'
p210
aI16
aI30
aI17
aI45
aNaNaNaNaNaNaNag16
aa(lp211
S'BME599'
p212
aI70617
aI29
aI30
ag15
aNaNaNaNaNaNaNaNaNaNaNaNag16
aa(lp213
S'BME780'
p214
aI79843
aI5
aI5
ag15
aNaNaNaNaNaNaNaNaNaNaNaNag16
aa(lp215
S'BME792'
p216
aI70618
aI67
aI75
ag15
aNaNaNaNaNaNaNaNaNaNaNaNag16
aa(lp217
S'BME799'
p218
aI70619
aI30
aI30
ag15
aNaNaNaNaNaNaNaNaNaNaNaNag16
aa.