(lp0
(lp1
S'BMI101'
p2
aI82533
aI22
aI30
aS'T Th'
p3
aS'10:30 AM'
p4
aI10
aI30
aI11
aI45
aNaNaNaNaNaNaNaS'Not Reserved'
p5
aa(lp6
S'BMI102'
p7
aI86698
aI21
aI30
aS'M W F'
p8
aS' 9:00 AM'
p9
aI9
aI0
aI10
aI15
aNaNaNaNaNaNaNag5
aa(lp10
S'BMI501'
p11
aI74526
aI34
aI40
aS'T Th'
p12
aS'10:30 AM'
p13
aI10
aI30
aI11
aI45
aNaNaNaNaNaNaNag5
aa(lp14
S'BMIMet'
p15
aI74527
aI35
aI40
aS'T Th'
p16
aS' 9:00 AM'
p17
aI9
aI0
aI10
aI15
aNaNaNaNaNaNaNag5
aa(lp18
S'BMI504'
p19
aI76429
aI26
aI30
aS'F'
p20
aS' 9:00 AM'
p21
aI9
aI0
aI11
aI45
aNaNaNaNaNaNaNag5
aa(lp22
S'BMI507'
p23
aI77156
aI9
aI12
ag20
aS' 9:00 AM'
p24
aI9
aI0
aI11
aI45
aNaNaNaNaNaNaNag5
aa(lp25
S'BMI540'
p26
aI74528
aI3
aI24
aS'T Th'
p27
aS' 9:00 AM'
p28
aI9
aI0
aI10
aI15
aNaNaNaNaNaNaNag5
aa(lp29
S'BMI560'
p30
aI75209
aI3
aI4
aS'ONLINE'
p31
aNaNaNaNaNaNaNaNaNaNaNaNag5
aa(lp32
S'BMI560'
p33
aI85536
aI4
aI4
ag31
aNaNaNaNaNaNaNaNaNaNaNaNag5
aa(lp34
S'BMI560'
p35
aI85769
aI1
aI2
ag31
aNaNaNaNaNaNaNaNaNaNaNaNag5
aa(lp36
S'BMI560'
p37
aI85875
aI3
aI3
ag31
aNaNaNaNaNaNaNaNaNaNaNaNag5
aa(lp38
S'BMI570'
p39
aI76100
aI35
aI40
ag20
aS' 2:45 PM'
p40
aI14
aI45
aI16
aI0
aNaNaNaNaNaNaNag5
aa(lp41
S'BMI584'
p42
aI80883
aI8
aI8
ag31
aNaNaNaNaNaNaNaNaNaNaNaNag5
aa(lp43
S'BMI590'
p44
aI75411
aI6
aI6
ag31
aNaNaNaNaNaNaNaNaNaNaNaNag5
aa(lp45
S'BMI590'
p46
aI85714
aI3
aI3
ag31
aNaNaNaNaNaNaNaNaNaNaNaNag5
aa(lp47
S'BMI591'
p48
aI86693
aI28
aI28
aS'M'
p49
aS' 9:00 AM'
p50
aI9
aI0
aI11
aI45
aNaNaNaNaNaNaNag5
aa(lp51
S'BMI591'
p52
aI86694
aI28
aI28
aS'W'
p53
aS' 9:00 AM'
p54
aI9
aI0
aI11
aI45
aNaNaNaNaNaNaNag5
aa(lp55
S'BMI591'
p56
aI86695
aI28
aI28
ag20
aS' 9:00 AM'
p57
aI9
aI0
aI11
aI45
aNaNaNaNaNaNaNag5
aa(lp58
S'BMI591'
p59
aI88274
aI28
aI28
aS'T Th'
p60
aS' 9:00 AM'
p61
aI9
aI0
aI10
aI15
aNaNaNaNaNaNaNag5
aa(lp62
S'BMI591'
p63
aI88276
aI28
aI28
aS'T Th'
p64
aS'10:30 AM'
p65
aI10
aI30
aI11
aI45
aNaNaNaNaNaNaNag5
aa(lp66
S'BMI592'
p67
aI75412
aI5
aI5
ag31
aNaNaNaNaNaNaNaNaNaNaNaNag5
aa(lp68
S'BMI592'
p69
aI85453
aI4
aI4
ag31
aNaNaNaNaNaNaNaNaNaNaNaNag5
aa(lp70
S'BMI592'
p71
aI85455
aI4
aI4
ag31
aNaNaNaNaNaNaNaNaNaNaNaNag5
aa(lp72
S'BMI592'
p73
aI85602
aI4
aI4
ag31
aNaNaNaNaNaNaNaNaNaNaNaNag5
aa(lp74
S'BMI592'
p75
aI85603
aI4
aI4
ag31
aNaNaNaNaNaNaNaNaNaNaNaNag5
aa(lp76
S'BMI592'
p77
aI85770
aI3
aI3
ag31
aNaNaNaNaNaNaNaNaNaNaNaNag5
aa(lp78
S'BMI592'
p79
aI85791
aI3
aI3
ag31
aNaNaNaNaNaNaNaNaNaNaNaNag5
aa(lp80
S'BMI592'
p81
aI85839
aI3
aI3
ag31
aNaNaNaNaNaNaNaNaNaNaNaNag5
aa(lp82
S'BMI595'
p83
aI74812
aI25
aI25
ag31
aNaNaNaNaNaNaNaNaNaNaNaNag5
aa(lp84
S'BMI790'
p85
aI75413
aI6
aI6
ag31
aNaNaNaNaNaNaNaNaNaNaNaNag5
aa(lp86
S'BMI790'
p87
aI85708
aI4
aI4
ag31
aNaNaNaNaNaNaNaNaNaNaNaNag5
aa(lp88
S'BMI790'
p89
aI85831
aI3
aI3
ag31
aNaNaNaNaNaNaNaNaNaNaNaNag5
aa(lp90
S'BMI790'
p91
aI85952
aI1
aI1
ag31
aNaNaNaNaNaNaNaNaNaNaNaNag5
aa(lp92
S'BMI790'
p93
aI85988
aI4
aI4
ag31
aNaNaNaNaNaNaNaNaNaNaNaNag5
aa(lp94
S'BMI792'
p95
aI85447
aI2
aI2
ag31
aNaNaNaNaNaNaNaNaNaNaNaNag5
aa(lp96
S'BMI792'
p97
aI85951
aI4
aI4
ag31
aNaNaNaNaNaNaNaNaNaNaNaNag5
aa(lp98
S'BMI799'
p99
aI75190
aI10
aI10
ag31
aNaNaNaNaNaNaNaNaNaNaNaNag5
aa(lp100
S'BMI799'
p101
aI85707
aI4
aI4
ag31
aNaNaNaNaNaNaNaNaNaNaNaNag5
aa(lp102
S'BMI799'
p103
aI85771
aI3
aI3
ag31
aNaNaNaNaNaNaNaNaNaNaNaNag5
aa(lp104
S'BMI799'
p105
aI86054
aI4
aI4
ag31
aNaNaNaNaNaNaNaNaNaNaNaNag5
aa.