(lp0
(lp1
S'BUA380'
p2
aI81899
aI91
aI110
aS'ONLINE'
p3
aNaNaNaNaNaNaNaNaNaNaNaNaS'Reserved'
p4
aa(lp5
S'BUA381'
p6
aI74490
aI97
aI105
ag3
aNaNaNaNaNaNaNaNaNaNaNaNag4
aa(lp7
S'BUA383'
p8
aI81902
aI88
aI100
ag3
aNaNaNaNaNaNaNaNaNaNaNaNag4
aa(lp9
S'BUA384'
p10
aI74491
aI58
aI75
ag3
aNaNaNaNaNaNaNaNaNaNaNaNag4
aa.