(lp0
(lp1
S'CDE232'
p2
aI80200
aI38
aI60
aS'ONLINE'
p3
aNaNaNaNaNaNaNaNaNaNaNaNaS'Reserved'
p4
aa(lp5
S'CDE232'
p6
aI78648
aI291
aI300
ag3
aNaNaNaNaNaNaNaNaNaNaNaNag4
aa(lp7
S'CDE232'
p8
aI70621
aI200
aI300
ag3
aNaNaNaNaNaNaNaNaNaNaNaNag4
aa(lp9
S'CDE232'
p10
aI70622
aI167
aI190
aS'M W F'
p11
aS' 1:30 PM'
p12
aI13
aI30
aI14
aI20
aNaNaNaNaNaNaNaS'Not Reserved'
p13
aa(lp14
S'CDE232'
p15
aI70623
aI83
aI120
aS'T Th'
p16
aS' 4:30 PM'
p17
aI16
aI30
aI17
aI45
aNaNaNaNaNaNaNag13
aa(lp18
S'CDE232'
p19
aI78651
aI102
aI110
aS'T'
p20
aS' 4:30 PM'
p21
aI16
aI30
aI19
aI15
aNaNaNaNaNaNaNag13
aa(lp22
S'CDE232'
p23
aI91297
aI12
aI12
ag3
aNaNaNaNaNaNaNaNaNaNaNaNag4
aa(lp24
S'CDE232'
p25
aI72909
aI45
aI60
aS'M'
p26
aS' 4:30 PM'
p27
aI16
aI30
aI19
aI15
aNaNaNaNaNaNaNag13
aa(lp28
S'CDE232'
p29
aI72910
aI90
aI100
aS'T Th'
p30
aS' 9:00 AM'
p31
aI9
aI0
aI10
aI15
aNaNaNaNaNaNaNag13
aa(lp32
S'CDE232'
p33
aI74291
aI21
aI60
aS'M W'
p34
aS'12:00 PM'
p35
aI12
aI0
aI13
aI15
aNaNaNaNaNaNaNag4
aa(lp36
S'CDE312'
p37
aI91745
aI99
aI100
ag3
aNaNaNaNaNaNaNaNaNaNaNaNag4
aa(lp38
S'CDE312'
p39
aI81393
aI5
aI50
aS'T Th'
p40
aS' 9:00 AM'
p41
aI9
aI0
aI10
aI15
aNaNaNaNaNaNaNag13
aa(lp42
S'CDE337'
p43
aI70624
aI4
aI60
aS'M W F'
p44
aS'12:00 PM'
p45
aI12
aI0
aI12
aI50
aNaNaNaNaNaNaNag13
aa(lp46
S'CDE338'
p47
aI72718
aI25
aI30
aS'W'
p48
aS' 4:30 PM'
p49
aI16
aI30
aI19
aI15
aNaNaNaNaNaNaNag13
aa(lp50
S'CDE350'
p51
aI91301
aI1
aI10
ag3
aNaNaNaNaNaNaNaNaNaNaNaNag4
aa(lp52
S'CDE394'
p53
aI91438
aI10
aI10
aS'T Th'
p54
aS' 3:00 PM'
p55
aI15
aI0
aI16
aI15
aNaNaNaNaNaNaNag13
aa(lp56
S'CDE430'
p57
aI70625
aI209
aI300
ag3
aNaNaNaNaNaNaNaNaNaNaNaNag4
aa(lp58
S'CDE430'
p59
aI78655
aI29
aI60
aS'T Th'
p60
aS' 3:00 PM'
p61
aI15
aI0
aI16
aI15
aNaNaNaNaNaNaNag13
aa(lp62
S'CDE450'
p63
aI81403
aI44
aI60
aS'M W F'
p64
aS' 1:30 PM'
p65
aI13
aI30
aI14
aI20
aNaNaNaNaNaNaNag13
aa(lp66
S'CDE450'
p67
aI88702
aI30
aI48
aS'T Th'
p68
aS' 9:00 AM'
p69
aI9
aI0
aI10
aI15
aNaNaNaNaNaNaNag13
aa(lp70
S'CDE450'
p71
aI91665
aI22
aI24
aS'T Th'
p72
aS'10:30 AM'
p73
aI10
aI30
aI11
aI45
aNaNaNaNaNaNaNag13
aa(lp74
S'CDE498'
p75
aI78782
aI6
aI12
ag26
aS' 4:30 PM'
p76
aI16
aI30
aI19
aI15
aNaNaNaNaNaNaNag13
aa(lp77
S'CDE498'
p78
aI89618
aI9
aI30
aS'T Th'
p79
aS' 3:00 PM'
p80
aI15
aI0
aI16
aI15
aNaNaNaNaNaNaNag13
aa(lp81
S'CDE499'
p82
aI90607
aI30
aI30
ag3
aNaNaNaNaNaNaNaNaNaNaNaNag13
aa(lp83
S'CDE533'
p84
aI89648
aI8
aI10
aS'Th'
p85
aS' 9:00 AM'
p86
aI9
aI0
aI12
aI0
aNaNaNaNaNaNaNag13
aa(lp87
S'CDE570'
p88
aI90703
aI27
aI30
aS'F'
p89
aS' 9:00 AM'
p90
aI9
aI0
aI11
aI45
aNaNaNaNaNaNaNag13
aa(lp91
S'CDE572'
p92
aI90704
aI27
aI30
ag89
aS' 1:00 PM'
p93
aI13
aI0
aI14
aI45
aNaNaNaNaNaNaNag13
aa(lp94
S'CDE574'
p95
aI73577
aI28
aI30
ag89
aS' 3:00 PM'
p96
aI15
aI0
aI17
aI45
aNaNaNaNaNaNaNag13
aa(lp97
S'CDE580'
p98
aI70626
aI20
aI20
ag3
aNaNaNaNaNaNaNaNaNaNaNaNag13
aa(lp99
S'CDE584'
p100
aI73570
aI23
aI25
ag3
aNaNaNaNaNaNaNaNaNaNaNaNag13
aa(lp101
S'CDE590'
p102
aI70627
aI20
aI20
ag3
aNaNaNaNaNaNaNaNaNaNaNaNag13
aa(lp103
S'CDE591'
p104
aI89651
aI44
aI50
aS'T Th'
p105
aS'10:30 AM'
p106
aI10
aI30
aI11
aI45
aNaNaNaNaNaNaNag13
aa(lp107
S'CDE591'
p108
aI89653
aI9
aI25
aS'Th'
p109
aS' 4:30 PM'
p110
aI16
aI30
aI19
aI15
aNaNaNaNaNaNaNag13
aa(lp111
S'CDE591'
p112
aI90736
aI19
aI25
aS'T Th'
p113
aS'12:00 PM'
p114
aI12
aI0
aI13
aI15
aNaNaNaNaNaNaNag13
aa(lp115
S'CDE592'
p116
aI70628
aI20
aI20
ag3
aNaNaNaNaNaNaNaNaNaNaNaNag13
aa(lp117
S'CDE592'
p118
aI82846
aI30
aI30
ag3
aNaNaNaNaNaNaNaNaNaNaNaNag4
aa(lp119
S'CDE598'
p120
aI81405
aI0
aI10
ag26
aS' 1:00 PM'
p121
aI13
aI0
aI15
aI30
aNaNaNaNaNaNaNag4
aa(lp122
S'CDE598'
p123
aI90087
aI7
aI10
aS'T Th'
p124
aS' 3:00 PM'
p125
aI15
aI0
aI16
aI15
aNaNaNaNaNaNaNag13
aa(lp126
S'CDE599'
p127
aI70629
aI20
aI20
ag3
aNaNaNaNaNaNaNaNaNaNaNaNag13
aa(lp128
S'CDE783'
p129
aI70630
aI20
aI20
ag3
aNaNaNaNaNaNaNaNaNaNaNaNag13
aa(lp130
S'CDE799'
p131
aI70631
aI19
aI20
ag3
aNaNaNaNaNaNaNaNaNaNaNaNag13
aa.