(lp0
(lp1
S'CED194'
p2
aI75461
aI26
aI26
aS'W'
p3
aS' 3:00 PM'
p4
aI15
aI0
aI16
aI45
aNaNaNaNaNaNaNaS'Not Reserved'
p5
aa(lp6
S'CED250'
p7
aI76483
aI14
aI35
aS'ONLINE'
p8
aNaNaNaNaNaNaNaNaNaNaNaNaS'Reserved'
p9
aa(lp10
S'CED250'
p11
aI86987
aI27
aI35
ag8
aNaNaNaNaNaNaNaNaNaNaNaNag9
aa(lp12
S'CED250'
p13
aI86098
aI24
aI30
aS'T Th'
p14
aS' 9:00 AM'
p15
aI9
aI0
aI10
aI15
aNaNaNaNaNaNaNag5
aa(lp16
S'CED250'
p17
aI81924
aI22
aI30
aS'T Th'
p18
aS' 9:00 AM'
p19
aI9
aI0
aI10
aI15
aNaNaNaNaNaNaNag5
aa(lp20
S'CED250'
p21
aI75463
aI20
aI30
aS'T Th'
p22
aS'10:30 AM'
p23
aI10
aI30
aI11
aI45
aNaNaNaNaNaNaNag5
aa(lp24
S'CED250'
p25
aI75464
aI20
aI30
aS'T Th'
p26
aS'12:00 PM'
p27
aI12
aI0
aI13
aI15
aNaNaNaNaNaNaNag5
aa(lp28
S'CED250'
p29
aI75993
aI23
aI30
aS'T Th'
p30
aS'12:00 PM'
p31
aI12
aI0
aI13
aI15
aNaNaNaNaNaNaNag5
aa(lp32
S'CED250'
p33
aI75466
aI22
aI30
aS'T Th'
p34
aS' 1:30 PM'
p35
aI13
aI30
aI14
aI45
aNaNaNaNaNaNaNag5
aa(lp36
S'CED250'
p37
aI75504
aI21
aI30
aS'T Th'
p38
aS' 1:30 PM'
p39
aI13
aI30
aI14
aI45
aNaNaNaNaNaNaNag5
aa(lp40
S'CED250'
p41
aI78317
aI28
aI30
aS'T Th'
p42
aS' 3:00 PM'
p43
aI15
aI0
aI16
aI15
aNaNaNaNaNaNaNag5
aa(lp44
S'CED250'
p45
aI86097
aI31
aI35
ag8
aNaNaNaNaNaNaNaNaNaNaNaNag9
aa(lp46
S'CED484'
p47
aI84508
aI20
aI20
ag8
aNaNaNaNaNaNaNaNaNaNaNaNag5
aa(lp48
S'CED501'
p49
aI78314
aI0
aI23
aS'T'
p50
aS' 9:00 AM'
p51
aI9
aI0
aI11
aI45
aNaNaNaNaNaNaNag9
aa(lp52
S'CED502'
p53
aI85439
aI13
aI30
ag50
aS' 1:30 PM'
p54
aI13
aI30
aI16
aI15
aNaNaNaNaNaNaNag9
aa(lp55
S'CED523'
p56
aI86093
aI0
aI30
ag3
aS' 9:00 AM'
p57
aI9
aI0
aI11
aI45
aNaNaNaNaNaNaNag9
aa(lp58
S'CED527'
p59
aI80436
aI0
aI28
aS'Th'
p60
aS' 9:00 AM'
p61
aI9
aI0
aI11
aI45
aNaNaNaNaNaNaNag9
aa(lp62
S'CED529'
p63
aI75472
aI2
aI30
aS'Th'
p64
aS' 4:30 PM'
p65
aI16
aI30
aI19
aI15
aNaNaNaNaNaNaNag9
aa(lp66
S'CED534'
p67
aI78313
aI0
aI30
aS'M'
p68
aS' 1:30 PM'
p69
aI13
aI30
aI16
aI15
aNaNaNaNaNaNaNag9
aa(lp70
S'CED567'
p71
aI75473
aI0
aI25
aS'F'
p72
aS' 9:00 AM'
p73
aI9
aI0
aI11
aI45
aNaNaNaNaNaNaNag9
aa(lp74
S'CED595'
p75
aI75475
aI30
aI30
ag8
aNaNaNaNaNaNaNaNaNaNaNaNag9
aa(lp76
S'CED599'
p77
aI85533
aI8
aI10
ag8
aNaNaNaNaNaNaNaNaNaNaNaNag5
aa(lp78
S'CED680'
p79
aI77743
aI30
aI30
ag3
aS' 4:30 PM'
p80
aI16
aI30
aI19
aI15
aNaNaNaNaNaNaNag5
aa(lp81
S'CED680'
p82
aI75477
aI10
aI10
ag68
aS' 3:00 PM'
p83
aI15
aI0
aI20
aI0
aNaNaNaNaNaNaNag5
aa(lp84
S'CED680'
p85
aI75476
aI10
aI10
ag50
aS' 2:30 PM'
p86
aI14
aI30
aI19
aI30
aNaNaNaNaNaNaNag5
aa(lp87
S'CED680'
p88
aI82640
aI10
aI10
aS'Th'
p89
aS' 9:00 AM'
p90
aI9
aI0
aI14
aI0
aNaNaNaNaNaNaNag5
aa(lp91
S'CED680'
p92
aI87003
aI10
aI10
aS'Th'
p93
aS' 2:30 PM'
p94
aI14
aI30
aI19
aI30
aNaNaNaNaNaNaNag5
aa(lp95
S'CED684'
p96
aI85650
aI30
aI30
ag68
aS' 4:30 PM'
p97
aI16
aI30
aI19
aI15
aNaNaNaNaNaNaNag5
aa.