(lp0
(lp1
S'CEE181'
p2
aI80629
aI33
aI91
aS'M'
p3
aS' 4:30 PM'
p4
aI16
aI30
aI17
aI45
aNaNaNaNaNaNaNaS'Not Reserved'
p5
aa(lp6
S'CEE181'
p7
aI77143
aI0
aI15
aS'T'
p8
aS' 9:00 AM'
p9
aI9
aI0
aI10
aI15
aNaNaNaNaNaNaNaS'Reserved'
p10
aa(lp11
S'CEE181'
p12
aI77154
aI0
aI15
ag8
aS' 1:30 PM'
p13
aI13
aI30
aI14
aI45
aNaNaNaNaNaNaNag10
aa(lp14
S'CEE181'
p15
aI79423
aI8
aI15
ag8
aS'12:00 PM'
p16
aI12
aI0
aI13
aI15
aNaNaNaNaNaNaNag5
aa(lp17
S'CEE181'
p18
aI79427
aI8
aI15
aS'Th'
p19
aS' 9:00 AM'
p20
aI9
aI0
aI10
aI15
aNaNaNaNaNaNaNag5
aa(lp21
S'CEE181'
p22
aI79428
aI2
aI16
aS'Th'
p23
aS'12:00 PM'
p24
aI12
aI0
aI13
aI15
aNaNaNaNaNaNaNag5
aa(lp25
S'CEE181'
p26
aI79429
aI15
aI15
aS'Th'
p27
aS' 1:30 PM'
p28
aI13
aI30
aI14
aI45
aNaNaNaNaNaNaNag5
aa(lp29
S'CEE210'
p30
aI79555
aI2
aI116
aS'F'
p31
aS'10:30 AM'
p32
aI10
aI30
aI11
aI20
aNaNaNaNaNaNaNag5
aa(lp33
S'CEE210'
p34
aI79763
aI6
aI35
aS'M W'
p35
aS' 9:00 AM'
p36
aI9
aI0
aI10
aI15
aNaNaNaNaNaNaNag5
aa(lp37
S'CEE210'
p38
aI79764
aI6
aI35
aS'M W'
p39
aS'10:30 AM'
p40
aI10
aI30
aI11
aI45
aNaNaNaNaNaNaNag5
aa(lp41
S'CEE210'
p42
aI80758
aI6
aI35
aS'M W'
p43
aS'12:00 PM'
p44
aI12
aI0
aI13
aI15
aNaNaNaNaNaNaNag5
aa(lp45
S'CEE210'
p46
aI83176
aI0
aI27
aS'M W'
p47
aS' 1:30 PM'
p48
aI13
aI30
aI14
aI45
aNaNaNaNaNaNaNag10
aa(lp49
S'CEE212'
p50
aI79552
aI31
aI74
aS'W'
p51
aS'10:30 AM'
p52
aI10
aI30
aI11
aI20
aNaNaNaNaNaNaNag5
aa(lp53
S'CEE212'
p54
aI82806
aI0
aI38
aS'T Th'
p55
aS'12:00 PM'
p56
aI12
aI0
aI13
aI15
aNaNaNaNaNaNaNag10
aa(lp57
S'CEE213'
p58
aI79556
aI37
aI74
ag3
aS'10:30 AM'
p59
aI10
aI30
aI11
aI20
aNaNaNaNaNaNaNag5
aa(lp60
S'CEE213'
p61
aI79557
aI0
aI37
aS'T Th'
p62
aS' 1:30 PM'
p63
aI13
aI30
aI14
aI45
aNaNaNaNaNaNaNag10
aa(lp64
S'CEE281'
p65
aI70633
aI0
aI8
aS'T Th'
p66
aS' 7:30 AM'
p67
aI7
aI30
aI8
aI45
aNaNaNaNaNaNaNag10
aa(lp68
S'CEE281'
p69
aI70634
aI0
aI8
aS'Sa'
p70
aS' 7:00 AM'
p71
aI7
aI0
aI13
aI0
aNaNaNaNaNaNaNag10
aa(lp72
S'CEE281'
p73
aI73345
aI0
aI8
aS'T Th'
p74
aS' 9:00 AM'
p75
aI9
aI0
aI10
aI15
aNaNaNaNaNaNaNag10
aa(lp76
S'CEE281'
p77
aI73346
aI0
aI8
aS'Sa'
p78
aS' 7:00 AM'
p79
aI7
aI0
aI13
aI0
aNaNaNaNaNaNaNag10
aa(lp80
S'CEE294'
p81
aI83529
aI18
aI30
ag31
aS' 9:00 AM'
p82
aI9
aI0
aI10
aI15
aNaNaNaNaNaNaNag5
aa(lp83
S'CEE294'
p84
aI84336
aI0
aI30
aS'M W'
p85
aS' 4:30 PM'
p86
aI16
aI30
aI19
aI15
aNaNaNaNaNaNaNag10
aa(lp87
S'CEE300'
p88
aI70635
aI15
aI62
aS'T Th'
p89
aS' 4:30 PM'
p90
aI16
aI30
aI17
aI45
aNaNaNaNaNaNaNag5
aa(lp91
S'CEE321'
p92
aI70636
aI1
aI100
aS'T Th'
p93
aS' 7:30 AM'
p94
aI7
aI30
aI8
aI45
aNaNaNaNaNaNaNag10
aa(lp95
S'CEE321'
p96
aI72761
aI1
aI100
ag51
aS' 4:30 PM'
p97
aI16
aI30
aI19
aI15
aNaNaNaNaNaNaNag5
aa(lp98
S'CEE341'
p99
aI73352
aI16
aI70
aS'T Th'
p100
aS' 9:00 AM'
p101
aI9
aI0
aI10
aI15
aNaNaNaNaNaNaNag5
aa(lp102
S'CEE341'
p103
aI73353
aI0
aI35
ag3
aS' 3:00 PM'
p104
aI15
aI0
aI17
aI45
aNaNaNaNaNaNaNag10
aa(lp105
S'CEE341'
p106
aI73354
aI16
aI35
ag51
aS' 1:30 PM'
p107
aI13
aI30
aI16
aI15
aNaNaNaNaNaNaNag5
aa(lp108
S'CEE351'
p109
aI79559
aI2
aI90
aS'M W'
p110
aS'12:00 PM'
p111
aI12
aI0
aI13
aI15
aNaNaNaNaNaNaNag5
aa(lp112
S'CEE351'
p113
aI79560
aI1
aI30
ag31
aS'12:00 PM'
p114
aI12
aI0
aI14
aI45
aNaNaNaNaNaNaNag5
aa(lp115
S'CEE351'
p116
aI79561
aI0
aI30
ag3
aS' 3:00 PM'
p117
aI15
aI0
aI17
aI45
aNaNaNaNaNaNaNag10
aa(lp118
S'CEE351'
p119
aI84498
aI1
aI30
ag8
aS'10:30 AM'
p120
aI10
aI30
aI13
aI15
aNaNaNaNaNaNaNag5
aa(lp121
S'CEE353'
p122
aI79562
aI0
aI93
aS'T Th'
p123
aS'10:30 AM'
p124
aI10
aI30
aI11
aI45
aNaNaNaNaNaNaNag10
aa(lp125
S'CEE353'
p126
aI79565
aI0
aI31
ag31
aS' 9:00 AM'
p127
aI9
aI0
aI11
aI45
aNaNaNaNaNaNaNag10
aa(lp128
S'CEE353'
p129
aI84503
aI0
aI30
aS'Th'
p130
aS'12:00 PM'
p131
aI12
aI0
aI14
aI45
aNaNaNaNaNaNaNag10
aa(lp132
S'CEE361'
p133
aI70637
aI0
aI60
aS'T Th'
p134
aS' 1:30 PM'
p135
aI13
aI30
aI14
aI45
aNaNaNaNaNaNaNag10
aa(lp136
S'CEE361'
p137
aI72770
aI0
aI60
ag31
aS' 9:00 AM'
p138
aI9
aI0
aI11
aI45
aNaNaNaNaNaNaNag10
aa(lp139
S'CEE372'
p140
aI70638
aI0
aI68
aS'M W'
p141
aS' 9:00 AM'
p142
aI9
aI0
aI10
aI40
aNaNaNaNaNaNaNag10
aa(lp143
S'CEE384'
p144
aI70639
aI0
aI83
aS'M W'
p145
aS' 1:30 PM'
p146
aI13
aI30
aI14
aI45
aNaNaNaNaNaNaNag10
aa(lp147
S'CEE384'
p148
aI77036
aI0
aI75
aS'T Th'
p149
aS' 3:00 PM'
p150
aI15
aI0
aI16
aI15
aNaNaNaNaNaNaNag10
aa(lp151
S'CEE400'
p152
aI79566
aI0
aI97
ag8
aS' 4:30 PM'
p153
aI16
aI30
aI17
aI20
aNaNaNaNaNaNaNag10
aa(lp154
S'CEE400'
p155
aI87158
aI0
aI33
ag8
aS' 5:30 PM'
p156
aI17
aI30
aI19
aI15
aNaNaNaNaNaNaNag10
aa(lp157
S'CEE400'
p158
aI87159
aI0
aI32
ag8
aS' 5:30 PM'
p159
aI17
aI30
aI19
aI15
aNaNaNaNaNaNaNag10
aa(lp160
S'CEE400'
p161
aI87160
aI0
aI32
ag8
aS' 5:30 PM'
p162
aI17
aI30
aI19
aI15
aNaNaNaNaNaNaNag10
aa(lp163
S'CEE412'
p164
aI70640
aI1
aI56
aS'M W'
p165
aS' 3:00 PM'
p166
aI15
aI0
aI16
aI15
aNaNaNaNaNaNaNag5
aa(lp167
S'CEE420'
p168
aI70641
aI0
aI66
aS'T Th'
p169
aS' 9:00 AM'
p170
aI9
aI0
aI10
aI15
aNaNaNaNaNaNaNag10
aa(lp171
S'CEE432'
p172
aI82755
aI3
aI5
aS'T Th'
p173
aS'10:30 AM'
p174
aI10
aI30
aI11
aI45
aNaNaNaNaNaNaNag5
aa(lp175
S'CEE440'
p176
aI70643
aI2
aI35
aS'T Th'
p177
aS' 1:30 PM'
p178
aI13
aI30
aI14
aI45
aNaNaNaNaNaNaNag5
aa(lp179
S'CEE466'
p180
aI70645
aI2
aI30
aS'T Th'
p181
aS' 7:30 AM'
p182
aI7
aI30
aI8
aI45
aNaNaNaNaNaNaNag5
aa(lp183
S'CEE467'
p184
aI70646
aI0
aI14
aS'T Th'
p185
aS'10:30 AM'
p186
aI10
aI30
aI11
aI45
aNaNaNaNaNaNaNag10
aa(lp187
S'CEE467'
p188
aI72789
aI0
aI14
aS'Th'
p189
aS' 3:00 PM'
p190
aI15
aI0
aI17
aI45
aNaNaNaNaNaNaNag10
aa(lp191
S'CEE470'
p192
aI82888
aI18
aI20
aS'T Th'
p193
aS' 3:00 PM'
p194
aI15
aI0
aI16
aI15
aNaNaNaNaNaNaNag5
aa(lp195
S'CEE474'
p196
aI73637
aI2
aI36
aS'T Th'
p197
aS' 3:00 PM'
p198
aI15
aI0
aI16
aI15
aNaNaNaNaNaNaNag5
aa(lp199
S'CEE483'
p200
aI70647
aI4
aI40
aS'M W'
p201
aS' 4:30 PM'
p202
aI16
aI30
aI17
aI45
aNaNaNaNaNaNaNag5
aa(lp203
S'CEE486'
p204
aI70648
aI21
aI55
aS'M W'
p205
aS' 1:30 PM'
p206
aI13
aI30
aI14
aI45
aNaNaNaNaNaNaNag5
aa(lp207
S'CEE486'
p208
aI73373
aI21
aI55
ag31
aS' 1:30 PM'
p209
aI13
aI30
aI15
aI30
aNaNaNaNaNaNaNag5
aa(lp210
S'CEE492'
p211
aI70649
aI9
aI10
aS'ONLINE'
p212
aNaNaNaNaNaNaNaNaNaNaNaNag5
aa(lp213
S'CEE493'
p214
aI70650
aI9
aI10
ag212
aNaNaNaNaNaNaNaNaNaNaNaNag5
aa(lp215
S'CEE494'
p216
aI70651
aI40
aI40
ag31
aS' 9:00 AM'
p217
aI9
aI0
aI10
aI15
aNaNaNaNaNaNaNag5
aa(lp218
S'CEE494'
p219
aI72903
aI43
aI45
ag31
aS'10:30 AM'
p220
aI10
aI30
aI11
aI45
aNaNaNaNaNaNaNag5
aa(lp221
S'CEE494'
p222
aI80241
aI8
aI25
aS'T Th'
p223
aS'10:30 AM'
p224
aI10
aI30
aI11
aI45
aNaNaNaNaNaNaNag5
aa(lp225
S'CEE494'
p226
aI86988
aI26
aI30
aS'T Th'
p227
aS' 3:00 PM'
p228
aI15
aI0
aI16
aI15
aNaNaNaNaNaNaNag5
aa(lp229
S'CEE494'
p230
aI91708
aI30
aI30
ag31
aS'10:30 AM'
p231
aI10
aI30
aI12
aI0
aNaNaNaNaNaNaNag5
aa(lp232
S'CEE498'
p233
aI85544
aI29
aI30
ag31
aS'12:00 PM'
p234
aI12
aI0
aI12
aI50
aNaNaNaNaNaNaNag5
aa(lp235
S'CEE499'
p236
aI70652
aI10
aI10
ag212
aNaNaNaNaNaNaNaNaNaNaNaNag5
aa(lp237
S'CEE511'
p238
aI70653
aI11
aI14
aS'M W'
p239
aS' 3:00 PM'
p240
aI15
aI0
aI16
aI15
aNaNaNaNaNaNaNag5
aa(lp241
S'CEE514'
p242
aI91074
aI30
aI30
ag8
aS' 4:30 PM'
p243
aI16
aI30
aI19
aI15
aNaNaNaNaNaNaNag5
aa(lp244
S'CEE514'
p245
aI91707
aI30
aI30
ag51
aS' 1:30 PM'
p246
aI13
aI30
aI16
aI0
aNaNaNaNaNaNaNag5
aa(lp247
S'CEE515'
p248
aI83173
aI24
aI37
aS'T Th'
p249
aS' 9:00 AM'
p250
aI9
aI0
aI10
aI15
aNaNaNaNaNaNaNag5
aa(lp251
S'CEE521'
p252
aI70654
aI40
aI54
aS'T Th'
p253
aS' 4:30 PM'
p254
aI16
aI30
aI17
aI45
aNaNaNaNaNaNaNag5
aa(lp255
S'CEE532'
p256
aI82754
aI10
aI22
aS'T Th'
p257
aS'10:30 AM'
p258
aI10
aI30
aI11
aI45
aNaNaNaNaNaNaNag5
aa(lp259
S'CEE541'
p260
aI75039
aI7
aI15
ag8
aS' 4:30 PM'
p261
aI16
aI30
aI19
aI15
aNaNaNaNaNaNaNag5
aa(lp262
S'CEE545'
p263
aI83160
aI5
aI10
aS'T Th'
p264
aS' 1:30 PM'
p265
aI13
aI30
aI14
aI45
aNaNaNaNaNaNaNag5
aa(lp266
S'CEE550'
p267
aI86916
aI20
aI30
aS'M W'
p268
aS' 3:00 PM'
p269
aI15
aI0
aI16
aI15
aNaNaNaNaNaNaNag5
aa(lp270
S'CEE553'
p271
aI83171
aI6
aI25
aS'T Th'
p272
aS' 3:00 PM'
p273
aI15
aI0
aI16
aI15
aNaNaNaNaNaNaNag5
aa(lp274
S'CEE557'
p275
aI86925
aI21
aI30
aS'T Th'
p276
aS' 4:30 PM'
p277
aI16
aI30
aI17
aI45
aNaNaNaNaNaNaNag5
aa(lp278
S'CEE560'
p279
aI75040
aI16
aI25
ag31
aS' 7:30 AM'
p280
aI7
aI30
aI13
aI30
aNaNaNaNaNaNaNag5
aa(lp281
S'CEE561'
p282
aI83185
aI20
aI28
aS'T Th'
p283
aS' 9:00 AM'
p284
aI9
aI0
aI10
aI15
aNaNaNaNaNaNaNag5
aa(lp285
S'CEE567'
p286
aI70655
aI4
aI10
aS'T Th'
p287
aS'10:30 AM'
p288
aI10
aI30
aI11
aI45
aNaNaNaNaNaNaNag5
aa(lp289
S'CEE567'
p290
aI72792
aI4
aI10
aS'Th'
p291
aS' 3:00 PM'
p292
aI15
aI0
aI17
aI45
aNaNaNaNaNaNaNag5
aa(lp293
S'CEE569'
p294
aI84397
aI0
aI8
aS'T Th'
p295
aS' 9:00 AM'
p296
aI9
aI0
aI10
aI15
aNaNaNaNaNaNaNag10
aa(lp297
S'CEE570'
p298
aI82889
aI12
aI13
aS'T Th'
p299
aS' 3:00 PM'
p300
aI15
aI0
aI16
aI15
aNaNaNaNaNaNaNag5
aa(lp301
S'CEE573'
p302
aI89264
aI22
aI30
aS'M W'
p303
aS' 9:00 AM'
p304
aI9
aI0
aI10
aI15
aNaNaNaNaNaNaNag5
aa(lp305
S'CEE580'
p306
aI70656
aI15
aI15
ag212
aNaNaNaNaNaNaNaNaNaNaNaNag5
aa(lp307
S'CEE582'
p308
aI82982
aI6
aI18
ag8
aS' 4:30 PM'
p309
aI16
aI30
aI19
aI15
aNaNaNaNaNaNaNag5
aa(lp310
S'CEE583'
p311
aI70657
aI3
aI20
aS'M W'
p312
aS' 4:30 PM'
p313
aI16
aI30
aI17
aI45
aNaNaNaNaNaNaNag5
aa(lp314
S'CEE584'
p315
aI91330
aI30
aI30
ag212
aNaNaNaNaNaNaNaNaNaNaNaNag5
aa(lp316
S'CEE590'
p317
aI70658
aI15
aI15
ag212
aNaNaNaNaNaNaNaNaNaNaNaNag5
aa(lp318
S'CEE591'
p319
aI70659
aI25
aI40
ag8
aS'12:00 PM'
p320
aI12
aI0
aI12
aI55
aNaNaNaNaNaNaNag5
aa(lp321
S'CEE591'
p322
aI83267
aI31
aI34
ag31
aS' 3:30 PM'
p323
aI15
aI30
aI16
aI20
aNaNaNaNaNaNaNag5
aa(lp324
S'CEE591'
p325
aI83268
aI28
aI30
ag212
aNaNaNaNaNaNaNaNaNaNaNaNag5
aa(lp326
S'CEE591'
p327
aI85548
aI30
aI30
ag31
aS'12:00 PM'
p328
aI12
aI0
aI12
aI50
aNaNaNaNaNaNaNag5
aa(lp329
S'CEE592'
p330
aI70660
aI23
aI25
ag212
aNaNaNaNaNaNaNaNaNaNaNaNag5
aa(lp331
S'CEE593'
p332
aI84112
aI30
aI30
ag212
aNaNaNaNaNaNaNaNaNaNaNaNag5
aa(lp333
S'CEE595'
p334
aI86059
aI30
aI30
ag212
aNaNaNaNaNaNaNaNaNaNaNaNag5
aa(lp335
S'CEE595'
p336
aI70661
aI15
aI15
ag212
aNaNaNaNaNaNaNaNaNaNaNaNag5
aa(lp337
S'CEE598'
p338
aI86989
aI30
aI30
aS'T Th'
p339
aS' 3:00 PM'
p340
aI15
aI0
aI16
aI15
aNaNaNaNaNaNaNag5
aa(lp341
S'CEE598'
p342
aI73375
aI0
aI9
aS'T Th'
p343
aS'10:30 AM'
p344
aI10
aI30
aI11
aI45
aNaNaNaNaNaNaNag10
aa(lp345
S'CEE598'
p346
aI73376
aI0
aI11
aS'T Th'
p347
aS' 7:30 AM'
p348
aI7
aI30
aI8
aI45
aNaNaNaNaNaNaNag10
aa(lp349
S'CEE598'
p350
aI76565
aI4
aI4
aS'T Th'
p351
aS'10:30 AM'
p352
aI10
aI30
aI11
aI45
aNaNaNaNaNaNaNag5
aa(lp353
S'CEE598'
p354
aI87411
aI29
aI30
aS'T Th'
p355
aS'10:30 AM'
p356
aI10
aI30
aI11
aI45
aNaNaNaNaNaNaNag5
aa(lp357
S'CEE598'
p358
aI75901
aI5
aI15
ag51
aS' 4:30 PM'
p359
aI16
aI30
aI19
aI15
aNaNaNaNaNaNaNag5
aa(lp360
S'CEE598'
p361
aI77703
aI2
aI10
aS'T Th'
p362
aS'10:30 AM'
p363
aI10
aI30
aI11
aI45
aNaNaNaNaNaNaNag5
aa(lp364
S'CEE598'
p365
aI83877
aI18
aI20
aS'M W'
p366
aS'10:30 AM'
p367
aI10
aI30
aI11
aI45
aNaNaNaNaNaNaNag5
aa(lp368
S'CEE598'
p369
aI84154
aI9
aI10
ag31
aS' 9:00 AM'
p370
aI9
aI0
aI15
aI0
aNaNaNaNaNaNaNag5
aa(lp371
S'CEE598'
p372
aI91576
aI19
aI30
ag51
aS' 4:30 PM'
p373
aI16
aI30
aI19
aI30
aNaNaNaNaNaNaNag5
aa(lp374
S'CEE598'
p375
aI91846
aI30
aI30
ag3
aS' 6:00 PM'
p376
aI18
aI0
aI20
aI45
aNaNaNaNaNaNaNag5
aa(lp377
S'CEE598'
p378
aI91849
aI5
aI5
aS'Th'
p379
aS' 3:00 PM'
p380
aI15
aI0
aI17
aI45
aNaNaNaNaNaNaNag5
aa(lp381
S'CEE599'
p382
aI70663
aI39
aI40
ag212
aNaNaNaNaNaNaNaNaNaNaNaNag5
aa(lp383
S'CEE790'
p384
aI70664
aI19
aI20
ag212
aNaNaNaNaNaNaNaNaNaNaNaNag5
aa(lp385
S'CEE792'
p386
aI85454
aI29
aI30
ag212
aNaNaNaNaNaNaNaNaNaNaNaNag5
aa(lp387
S'CEE792'
p388
aI70665
aI54
aI70
ag212
aNaNaNaNaNaNaNaNaNaNaNaNag5
aa(lp389
S'CEE795'
p390
aI70666
aI14
aI15
ag212
aNaNaNaNaNaNaNaNaNaNaNaNag5
aa(lp391
S'CEE799'
p392
aI70667
aI22
aI25
ag212
aNaNaNaNaNaNaNaNaNaNaNaNag5
aa.