(lp0
(lp1
S'CEN501'
p2
aI83427
aI25
aI60
aS'M W'
p3
aS' 6:00 PM'
p4
aI18
aI0
aI19
aI15
aNaNaNaNaNaNaNaS'Not Reserved'
p5
aa(lp6
S'CEN501'
p7
aI88790
aI48
aI60
aS'M W'
p8
aS' 6:00 PM'
p9
aI18
aI0
aI19
aI15
aNaNaNaNaNaNaNag5
aa(lp10
S'CEN502'
p11
aI79367
aI158
aI200
aS'M W F'
p12
aS' 9:00 AM'
p13
aI9
aI0
aI9
aI50
aNaNaNaNaNaNaNag5
aa(lp14
S'CEN580'
p15
aI78304
aI30
aI30
aS'ONLINE'
p16
aNaNaNaNaNaNaNaNaNaNaNaNag5
aa(lp17
S'CEN580'
p18
aI80571
aI30
aI30
ag16
aNaNaNaNaNaNaNaNaNaNaNaNag5
aa(lp19
S'CEN584'
p20
aI80493
aI30
aI30
ag16
aNaNaNaNaNaNaNaNaNaNaNaNag5
aa(lp21
S'CEN590'
p22
aI80952
aI30
aI30
ag16
aNaNaNaNaNaNaNaNaNaNaNaNag5
aa(lp23
S'CEN595'
p24
aI80877
aI29
aI30
ag16
aNaNaNaNaNaNaNaNaNaNaNaNag5
aa(lp25
S'CEN599'
p26
aI78284
aI29
aI30
ag16
aNaNaNaNaNaNaNaNaNaNaNaNag5
aa(lp27
S'CEN790'
p28
aI80945
aI30
aI30
ag16
aNaNaNaNaNaNaNaNaNaNaNaNag5
aa(lp29
S'CEN792'
p30
aI78282
aI30
aI30
ag16
aNaNaNaNaNaNaNaNaNaNaNaNag5
aa(lp31
S'CEN792'
p32
aI78216
aI30
aI30
ag16
aNaNaNaNaNaNaNaNaNaNaNaNag5
aa(lp33
S'CEN799'
p34
aI80953
aI30
aI30
ag16
aNaNaNaNaNaNaNaNaNaNaNaNag5
aa.