(lp0
(lp1
S'CHE211'
p2
aI85617
aI44
aI120
aS'T Th'
p3
aS' 9:00 AM'
p4
aI9
aI0
aI10
aI15
aNaNaNaNaNaNaNaS'Not Reserved'
p5
aa(lp6
S'CHE211'
p7
aI85778
aI18
aI60
aS'F'
p8
aS' 9:00 AM'
p9
aI9
aI0
aI9
aI50
aNaNaNaNaNaNaNag5
aa(lp10
S'CHE211'
p11
aI85779
aI26
aI60
ag8
aS'12:00 PM'
p12
aI12
aI0
aI12
aI50
aNaNaNaNaNaNaNag5
aa(lp13
S'CHE211'
p14
aI75140
aI28
aI120
aS'T Th'
p15
aS' 9:00 AM'
p16
aI9
aI0
aI10
aI15
aNaNaNaNaNaNaNag5
aa(lp17
S'CHE211'
p18
aI76991
aI24
aI60
ag8
aS'10:30 AM'
p19
aI10
aI30
aI11
aI20
aNaNaNaNaNaNaNag5
aa(lp20
S'CHE211'
p21
aI76992
aI4
aI60
aS'M'
p22
aS' 4:30 PM'
p23
aI16
aI30
aI17
aI20
aNaNaNaNaNaNaNag5
aa(lp24
S'CHE294'
p25
aI76580
aI15
aI15
aS'ONLINE'
p26
aNaNaNaNaNaNaNaNaNaNaNaNag5
aa(lp27
S'CHE334'
p28
aI75813
aI61
aI125
aS'T Th'
p29
aS' 3:00 PM'
p30
aI15
aI0
aI16
aI15
aNaNaNaNaNaNaNag5
aa(lp31
S'CHE334'
p32
aI84460
aI0
aI125
aS'T Th'
p33
aS' 3:00 PM'
p34
aI15
aI0
aI16
aI15
aNaNaNaNaNaNaNaS'Reserved'
p35
aa(lp36
S'CHE342'
p37
aI70670
aI66
aI125
aS'M W'
p38
aS' 4:30 PM'
p39
aI16
aI30
aI17
aI45
aNaNaNaNaNaNaNag35
aa(lp40
S'CHE342'
p41
aI84461
aI0
aI125
aS'M W'
p42
aS' 4:30 PM'
p43
aI16
aI30
aI17
aI45
aNaNaNaNaNaNaNag35
aa(lp44
S'CHE432'
p45
aI70671
aI14
aI175
aS'T Th'
p46
aS' 7:30 AM'
p47
aI7
aI30
aI8
aI45
aNaNaNaNaNaNaNag5
aa(lp48
S'CHE451'
p49
aI70672
aI0
aI30
aS'M W'
p50
aS' 1:40 PM'
p51
aI13
aI40
aI16
aI30
aNaNaNaNaNaNaNag35
aa(lp52
S'CHE451'
p53
aI76086
aI0
aI30
aS'T Th'
p54
aS' 9:00 AM'
p55
aI9
aI0
aI11
aI50
aNaNaNaNaNaNaNag35
aa(lp56
S'CHE451'
p57
aI70673
aI0
aI30
aS'T Th'
p58
aS' 1:40 PM'
p59
aI13
aI40
aI16
aI30
aNaNaNaNaNaNaNag35
aa(lp60
S'CHE451'
p61
aI84043
aI0
aI30
aS'M W'
p62
aS' 9:00 AM'
p63
aI9
aI0
aI11
aI50
aNaNaNaNaNaNaNag35
aa(lp64
S'CHE461'
p65
aI70674
aI9
aI175
aS'M W'
p66
aS'12:00 PM'
p67
aI12
aI0
aI13
aI15
aNaNaNaNaNaNaNag35
aa(lp68
S'CHE469'
p69
aI84395
aI0
aI15
aS'T Th'
p70
aS' 9:00 AM'
p71
aI9
aI0
aI10
aI15
aNaNaNaNaNaNaNag35
aa(lp72
S'CHE484'
p73
aI76606
aI30
aI30
ag26
aNaNaNaNaNaNaNaNaNaNaNaNag5
aa(lp74
S'CHE492'
p75
aI74882
aI30
aI30
ag26
aNaNaNaNaNaNaNaNaNaNaNaNag5
aa(lp76
S'CHE493'
p77
aI74883
aI29
aI30
ag26
aNaNaNaNaNaNaNaNaNaNaNaNag5
aa(lp78
S'CHE494'
p79
aI76511
aI0
aI13
aS'T Th'
p80
aS'10:30 AM'
p81
aI10
aI30
aI11
aI45
aNaNaNaNaNaNaNag35
aa(lp82
S'CHE494'
p83
aI77798
aI0
aI2
aS'T Th'
p84
aS'12:00 PM'
p85
aI12
aI0
aI13
aI15
aNaNaNaNaNaNaNag35
aa(lp86
S'CHE494'
p87
aI70675
aI22
aI22
ag26
aNaNaNaNaNaNaNaNaNaNaNaNag5
aa(lp88
S'CHE498'
p89
aI78189
aI29
aI30
ag26
aNaNaNaNaNaNaNaNaNaNaNaNag5
aa(lp90
S'CHE499'
p91
aI74884
aI29
aI30
ag26
aNaNaNaNaNaNaNaNaNaNaNaNag5
aa(lp92
S'CHE543'
p93
aI70676
aI25
aI50
aS'M W'
p94
aS' 9:00 AM'
p95
aI9
aI0
aI10
aI15
aNaNaNaNaNaNaNag5
aa(lp96
S'CHE569'
p97
aI84396
aI4
aI18
aS'T Th'
p98
aS' 9:00 AM'
p99
aI9
aI0
aI10
aI15
aNaNaNaNaNaNaNag5
aa(lp100
S'CHE591'
p101
aI74886
aI16
aI60
ag22
aS'10:30 AM'
p102
aI10
aI30
aI11
aI30
aNaNaNaNaNaNaNag5
aa(lp103
S'CHE592'
p104
aI74887
aI22
aI30
ag26
aNaNaNaNaNaNaNaNaNaNaNaNag5
aa(lp105
S'CHE593'
p106
aI76628
aI30
aI30
ag26
aNaNaNaNaNaNaNaNaNaNaNaNag5
aa(lp107
S'CHE595'
p108
aI74888
aI30
aI30
ag26
aNaNaNaNaNaNaNaNaNaNaNaNag5
aa(lp109
S'CHE598'
p110
aI76534
aI12
aI28
aS'T Th'
p111
aS'10:30 AM'
p112
aI10
aI30
aI11
aI45
aNaNaNaNaNaNaNag5
aa(lp113
S'CHE598'
p114
aI77799
aI15
aI31
aS'T Th'
p115
aS'12:00 PM'
p116
aI12
aI0
aI13
aI15
aNaNaNaNaNaNaNag5
aa(lp117
S'CHE599'
p118
aI74889
aI26
aI30
ag26
aNaNaNaNaNaNaNaNaNaNaNaNag5
aa(lp119
S'CHE792'
p120
aI74890
aI22
aI30
ag26
aNaNaNaNaNaNaNaNaNaNaNaNag5
aa(lp121
S'CHE795'
p122
aI74891
aI30
aI30
ag26
aNaNaNaNaNaNaNaNaNaNaNaNag5
aa(lp123
S'CHE799'
p124
aI74892
aI28
aI30
ag26
aNaNaNaNaNaNaNaNaNaNaNaNag5
aa.