(lp0
(lp1
S'CHI101'
p2
aI70678
aI20
aI28
aS'M T W Th F'
p3
aS' 9:00 AM'
p4
aI9
aI0
aI9
aI50
aNaNaNaNaNaNaNaS'Not Reserved'
p5
aa(lp6
S'CHI101'
p7
aI74262
aI24
aI28
aS'M T W Th F'
p8
aS'10:30 AM'
p9
aI10
aI30
aI11
aI20
aNaNaNaNaNaNaNag5
aa(lp10
S'CHI101'
p11
aI70679
aI25
aI28
aS'M T W Th F'
p12
aS'12:00 PM'
p13
aI12
aI0
aI12
aI50
aNaNaNaNaNaNaNag5
aa(lp14
S'CHI101'
p15
aI70680
aI23
aI28
aS'M T W Th F'
p16
aS' 1:30 PM'
p17
aI13
aI30
aI14
aI20
aNaNaNaNaNaNaNag5
aa(lp18
S'CHI102'
p19
aI74182
aI18
aI28
aS'M T W Th F'
p20
aS'12:00 PM'
p21
aI12
aI0
aI12
aI50
aNaNaNaNaNaNaNag5
aa(lp22
S'CHI110'
p23
aI91806
aI28
aI28
aS'M T W Th F'
p24
aS'10:30 AM'
p25
aI10
aI30
aI11
aI50
aNaNaNaNaNaNaNag5
aa(lp26
S'CHI120'
p27
aI74828
aI23
aI48
aS'T Th'
p28
aS' 3:00 PM'
p29
aI15
aI0
aI15
aI50
aNaNaNaNaNaNaNag5
aa(lp30
S'CHI120'
p31
aI89988
aI5
aI18
aS'W'
p32
aS' 3:00 PM'
p33
aI15
aI0
aI15
aI50
aNaNaNaNaNaNaNag5
aa(lp34
S'CHI120'
p35
aI89989
aI8
aI15
aS'Th'
p36
aS' 6:00 PM'
p37
aI18
aI0
aI18
aI50
aNaNaNaNaNaNaNag5
aa(lp38
S'CHI120'
p39
aI90761
aI12
aI15
aS'M'
p40
aS' 3:00 PM'
p41
aI15
aI0
aI15
aI50
aNaNaNaNaNaNaNag5
aa(lp42
S'CHI201'
p43
aI70681
aI20
aI28
aS'M T W Th F'
p44
aS' 9:00 AM'
p45
aI9
aI0
aI9
aI50
aNaNaNaNaNaNaNag5
aa(lp46
S'CHI201'
p47
aI70682
aI19
aI28
aS'M T W Th F'
p48
aS'12:00 PM'
p49
aI12
aI0
aI12
aI50
aNaNaNaNaNaNaNag5
aa(lp50
S'CHI201'
p51
aI74124
aI23
aI28
aS'M T W Th F'
p52
aS' 1:30 PM'
p53
aI13
aI30
aI14
aI20
aNaNaNaNaNaNaNag5
aa(lp54
S'CHI202'
p55
aI83569
aI22
aI28
aS'M T W Th F'
p56
aS'10:30 AM'
p57
aI10
aI30
aI11
aI20
aNaNaNaNaNaNaNag5
aa(lp58
S'CHI205'
p59
aI70683
aI12
aI28
aS'F'
p60
aS'12:00 PM'
p61
aI12
aI0
aI12
aI50
aNaNaNaNaNaNaNag5
aa(lp62
S'CHI205'
p63
aI90388
aI16
aI28
ag60
aS' 1:30 PM'
p64
aI13
aI30
aI14
aI45
aNaNaNaNaNaNaNag5
aa(lp65
S'CHI294'
p66
aI89196
aI28
aI28
aS'M T W Th F'
p67
aS'10:30 AM'
p68
aI10
aI30
aI11
aI50
aNaNaNaNaNaNaNag5
aa(lp69
S'CHI294'
p70
aI90990
aI28
aI28
aS'ONLINE'
p71
aNaNaNaNaNaNaNaNaNaNaNaNag5
aa(lp72
S'CHI301'
p73
aI73950
aI8
aI25
aS'M T W Th F'
p74
aS'12:00 PM'
p75
aI12
aI0
aI12
aI50
aNaNaNaNaNaNaNag5
aa(lp76
S'CHI301'
p77
aI74180
aI14
aI25
aS'M T W Th F'
p78
aS' 9:00 AM'
p79
aI9
aI0
aI9
aI50
aNaNaNaNaNaNaNag5
aa(lp80
S'CHI307'
p81
aI70685
aI16
aI28
aS'M W'
p82
aS' 1:30 PM'
p83
aI13
aI30
aI14
aI45
aNaNaNaNaNaNaNag5
aa(lp84
S'CHI321'
p85
aI70684
aI9
aI25
aS'M W'
p86
aS'12:00 PM'
p87
aI12
aI0
aI13
aI15
aNaNaNaNaNaNaNag5
aa(lp88
S'CHI333'
p89
aI91316
aI14
aI15
aS'T Th'
p90
aS' 1:30 PM'
p91
aI13
aI30
aI14
aI45
aNaNaNaNaNaNaNag5
aa(lp92
S'CHI338'
p93
aI90941
aI6
aI10
ag71
aNaNaNaNaNaNaNaNaNaNaNaNaS'Reserved'
p94
aa(lp95
S'CHI345'
p96
aI75207
aI13
aI25
aS'M W'
p97
aS' 4:30 PM'
p98
aI16
aI30
aI17
aI45
aNaNaNaNaNaNaNag5
aa(lp99
S'CHI348'
p100
aI90961
aI15
aI24
aS'T Th'
p101
aS'10:30 AM'
p102
aI10
aI30
aI11
aI45
aNaNaNaNaNaNaNag5
aa(lp103
S'CHI401'
p104
aI78276
aI15
aI24
aS'M W F'
p105
aS'12:00 PM'
p106
aI12
aI0
aI12
aI50
aNaNaNaNaNaNaNag5
aa(lp107
S'CHI407'
p108
aI74811
aI15
aI20
aS'T Th'
p109
aS' 9:00 AM'
p110
aI9
aI0
aI10
aI15
aNaNaNaNaNaNaNag5
aa(lp111
S'CHI451'
p112
aI81950
aI14
aI15
aS'T Th'
p113
aS'10:30 AM'
p114
aI10
aI30
aI11
aI45
aNaNaNaNaNaNaNag5
aa(lp115
S'CHI461'
p116
aI75739
aI11
aI11
aS'T Th'
p117
aS' 3:00 PM'
p118
aI15
aI0
aI16
aI15
aNaNaNaNaNaNaNag5
aa(lp119
S'CHI470'
p120
aI91309
aI25
aI25
aS'T Th'
p121
aS' 1:30 PM'
p122
aI13
aI30
aI14
aI45
aNaNaNaNaNaNaNag5
aa(lp123
S'CHI482'
p124
aI84518
aI6
aI6
aS'M W'
p125
aS' 1:30 PM'
p126
aI13
aI30
aI14
aI45
aNaNaNaNaNaNaNag5
aa(lp127
S'CHI492'
p128
aI70686
aI5
aI5
ag71
aNaNaNaNaNaNaNaNaNaNaNaNag5
aa(lp129
S'CHI493'
p130
aI70687
aI5
aI5
ag71
aNaNaNaNaNaNaNaNaNaNaNaNag5
aa(lp131
S'CHI494'
p132
aI84519
aI8
aI10
aS'M W'
p133
aS' 4:30 PM'
p134
aI16
aI30
aI17
aI45
aNaNaNaNaNaNaNag5
aa(lp135
S'CHI494'
p136
aI77736
aI6
aI10
ag71
aNaNaNaNaNaNaNaNaNaNaNaNag5
aa(lp137
S'CHI494'
p138
aI85728
aI13
aI15
aS'Th'
p139
aS' 4:30 PM'
p140
aI16
aI30
aI17
aI20
aNaNaNaNaNaNaNag5
aa(lp141
S'CHI499'
p142
aI70688
aI3
aI3
ag71
aNaNaNaNaNaNaNaNaNaNaNaNag5
aa(lp143
S'CHI500'
p144
aI73575
aI15
aI15
aS'M W'
p145
aS' 3:00 PM'
p146
aI15
aI0
aI16
aI15
aNaNaNaNaNaNaNag5
aa(lp147
S'CHI514'
p148
aI85406
aI12
aI15
aS'M W'
p149
aS' 3:00 PM'
p150
aI15
aI0
aI16
aI15
aNaNaNaNaNaNaNag5
aa(lp151
S'CHI580'
p152
aI76592
aI3
aI3
ag71
aNaNaNaNaNaNaNaNaNaNaNaNag5
aa(lp153
S'CHI590'
p154
aI70677
aI8
aI8
ag71
aNaNaNaNaNaNaNaNaNaNaNaNag5
aa(lp155
S'CHI592'
p156
aI70689
aI5
aI5
ag71
aNaNaNaNaNaNaNaNaNaNaNaNag5
aa(lp157
S'CHI593'
p158
aI85746
aI5
aI5
ag71
aNaNaNaNaNaNaNaNaNaNaNaNag5
aa(lp159
S'CHI595'
p160
aI73079
aI5
aI5
ag71
aNaNaNaNaNaNaNaNaNaNaNaNag5
aa(lp161
S'CHI598'
p162
aI76329
aI13
aI15
aS'T Th'
p163
aS' 3:00 PM'
p164
aI15
aI0
aI16
aI15
aNaNaNaNaNaNaNag5
aa(lp165
S'CHI598'
p166
aI84520
aI8
aI8
aS'M W'
p167
aS' 4:30 PM'
p168
aI16
aI30
aI17
aI45
aNaNaNaNaNaNaNag5
aa(lp169
S'CHI598'
p170
aI84521
aI9
aI12
aS'M W'
p171
aS' 1:30 PM'
p172
aI13
aI30
aI14
aI45
aNaNaNaNaNaNaNag5
aa(lp173
S'CHI599'
p174
aI70690
aI8
aI8
ag71
aNaNaNaNaNaNaNaNaNaNaNaNag5
aa(lp175
S'CHI680'
p176
aI74310
aI8
aI8
ag71
aNaNaNaNaNaNaNaNaNaNaNaNag5
aa(lp177
S'CHI690'
p178
aI74309
aI8
aI8
ag71
aNaNaNaNaNaNaNaNaNaNaNaNag5
aa(lp179
S'CHI691'
p180
aI82693
aI11
aI15
aS'M W'
p181
aS' 4:30 PM'
p182
aI16
aI30
aI17
aI45
aNaNaNaNaNaNaNag5
aa(lp183
S'CHI691'
p184
aI85407
aI10
aI15
aS'T Th'
p185
aS' 4:30 PM'
p186
aI16
aI30
aI17
aI45
aNaNaNaNaNaNaNag5
aa(lp187
S'CHI780'
p188
aI74311
aI8
aI8
ag71
aNaNaNaNaNaNaNaNaNaNaNaNag5
aa(lp189
S'CHI784'
p190
aI74312
aI8
aI8
ag71
aNaNaNaNaNaNaNaNaNaNaNaNag5
aa(lp191
S'CHI790'
p192
aI74313
aI8
aI8
ag71
aNaNaNaNaNaNaNaNaNaNaNaNag5
aa(lp193
S'CHI792'
p194
aI74314
aI6
aI8
ag71
aNaNaNaNaNaNaNaNaNaNaNaNag5
aa(lp195
S'CHI795'
p196
aI74315
aI7
aI8
ag71
aNaNaNaNaNaNaNaNaNaNaNaNag5
aa(lp197
S'CHI799'
p198
aI74316
aI8
aI8
ag71
aNaNaNaNaNaNaNaNaNaNaNaNag5
aa.