(lp0
(lp1
S'CHM101'
p2
aI70233
aI19
aI75
aS'M W'
p3
aS'10:30 AM'
p4
aI10
aI30
aI11
aI45
aNaNaNaNaNaNaNaS'Reserved'
p5
aa(lp6
S'CHM101'
p7
aI74967
aI35
aI75
aS'T Th'
p8
aS'10:30 AM'
p9
aI10
aI30
aI11
aI45
aNaNaNaNaNaNaNag5
aa(lp10
S'CHM101'
p11
aI74834
aI47
aI75
aS'M W'
p12
aS' 9:00 AM'
p13
aI9
aI0
aI10
aI15
aNaNaNaNaNaNaNaS'Not Reserved'
p14
aa(lp15
S'CHM101'
p16
aI74945
aI25
aI75
aS'T Th'
p17
aS' 1:30 PM'
p18
aI13
aI30
aI14
aI45
aNaNaNaNaNaNaNag14
aa(lp19
S'CHM101'
p20
aI70234
aI0
aI24
aS'W'
p21
aS' 8:30 AM'
p22
aI8
aI30
aI10
aI20
aNaNaNaNaNaNaNag5
aa(lp23
S'CHM101'
p24
aI70235
aI0
aI24
ag21
aS'12:30 PM'
p25
aI12
aI30
aI14
aI20
aNaNaNaNaNaNaNag5
aa(lp26
S'CHM101'
p27
aI70236
aI2
aI24
ag21
aS' 2:30 PM'
p28
aI14
aI30
aI16
aI20
aNaNaNaNaNaNaNag14
aa(lp29
S'CHM101'
p30
aI70237
aI1
aI24
ag21
aS' 4:30 PM'
p31
aI16
aI30
aI18
aI20
aNaNaNaNaNaNaNag14
aa(lp32
S'CHM101'
p33
aI70238
aI18
aI24
aS'Th'
p34
aS'12:30 PM'
p35
aI12
aI30
aI14
aI20
aNaNaNaNaNaNaNag14
aa(lp36
S'CHM101'
p37
aI70239
aI19
aI24
aS'Th'
p38
aS' 4:30 PM'
p39
aI16
aI30
aI18
aI20
aNaNaNaNaNaNaNag5
aa(lp40
S'CHM101'
p41
aI70240
aI2
aI24
ag21
aS'12:30 PM'
p42
aI12
aI30
aI14
aI20
aNaNaNaNaNaNaNag14
aa(lp43
S'CHM101'
p44
aI72625
aI23
aI24
ag21
aS' 8:30 AM'
p45
aI8
aI30
aI10
aI20
aNaNaNaNaNaNaNag14
aa(lp46
S'CHM101'
p47
aI72626
aI18
aI24
ag21
aS' 2:30 PM'
p48
aI14
aI30
aI16
aI20
aNaNaNaNaNaNaNag14
aa(lp49
S'CHM101'
p50
aI72627
aI20
aI24
ag21
aS' 4:30 PM'
p51
aI16
aI30
aI18
aI20
aNaNaNaNaNaNaNag14
aa(lp52
S'CHM101'
p53
aI74836
aI11
aI24
aS'Th'
p54
aS'10:30 AM'
p55
aI10
aI30
aI12
aI20
aNaNaNaNaNaNaNag14
aa(lp56
S'CHM101'
p57
aI83174
aI0
aI24
aS'Th'
p58
aS' 8:30 AM'
p59
aI8
aI30
aI10
aI20
aNaNaNaNaNaNaNag5
aa(lp60
S'CHM101'
p61
aI81449
aI73
aI250
aS'ONLINE'
p62
aNaNaNaNaNaNaNaNaNaNaNaNag5
aa(lp63
S'CHM101'
p64
aI81450
aI73
aI250
ag62
aNaNaNaNaNaNaNaNaNaNaNaNag14
aa(lp65
S'CHM101'
p66
aI82331
aI41
aI60
aS'T'
p67
aS'12:00PM'
p68
aI12
aI0
aI13
aI15
aS'Th'
p69
aS'12:00PM'
p70
aI12
aI0
aS'1:15PM'
p71
aI13
aI15
ag14
aa(lp72
S'CHM101'
p73
aI83110
aI41
aI60
ag62
aNaNaNaNaNaNaNaNaNaNaNaNag14
aa(lp74
S'CHM101'
p75
aI90870
aI44
aI48
aS'M W F'
p76
aS'12:00 PM'
p77
aI12
aI0
aI12
aI50
aNaNaNaNaNaNaNag14
aa(lp78
S'CHM101'
p79
aI90871
aI24
aI24
ag21
aS' 9:00 AM'
p80
aI9
aI0
aI11
aI50
aNaNaNaNaNaNaNag14
aa(lp81
S'CHM101'
p82
aI90872
aI20
aI24
ag21
aS' 1:00 PM'
p83
aI13
aI0
aI15
aI50
aNaNaNaNaNaNaNag14
aa(lp84
S'CHM101'
p85
aI70691
aI129
aI168
aS'T Th'
p86
aS' 9:00 AM'
p87
aI9
aI0
aI10
aI15
aNaNaNaNaNaNaNag5
aa(lp88
S'CHM101'
p89
aI72714
aI35
aI56
ag21
aS'12:00 PM'
p90
aI12
aI0
aI13
aI15
aNaNaNaNaNaNaNag14
aa(lp91
S'CHM101'
p92
aI72715
aI43
aI56
ag21
aS' 3:00 PM'
p93
aI15
aI0
aI16
aI15
aNaNaNaNaNaNaNag14
aa(lp94
S'CHM101'
p95
aI72716
aI51
aI56
aS'F'
p96
aS'12:00 PM'
p97
aI12
aI0
aI13
aI15
aNaNaNaNaNaNaNag14
aa(lp98
S'CHM101'
p99
aI72720
aI21
aI24
aS'M'
p100
aS' 8:30 AM'
p101
aI8
aI30
aI10
aI20
aNaNaNaNaNaNaNag14
aa(lp102
S'CHM101'
p103
aI73324
aI19
aI24
ag96
aS'10:30 AM'
p104
aI10
aI30
aI12
aI20
aNaNaNaNaNaNaNag14
aa(lp105
S'CHM101'
p106
aI73325
aI12
aI24
ag100
aS' 4:30 PM'
p107
aI16
aI30
aI18
aI20
aNaNaNaNaNaNaNag14
aa(lp108
S'CHM101'
p109
aI73823
aI21
aI24
ag67
aS' 6:30 PM'
p110
aI18
aI30
aI20
aI20
aNaNaNaNaNaNaNag14
aa(lp111
S'CHM101'
p112
aI74049
aI17
aI24
ag21
aS'10:30 AM'
p113
aI10
aI30
aI12
aI20
aNaNaNaNaNaNaNag14
aa(lp114
S'CHM101'
p115
aI77014
aI16
aI24
ag21
aS' 8:30 AM'
p116
aI8
aI30
aI10
aI20
aNaNaNaNaNaNaNag14
aa(lp117
S'CHM101'
p118
aI78862
aI23
aI24
ag96
aS' 8:30 AM'
p119
aI8
aI30
aI10
aI20
aNaNaNaNaNaNaNag14
aa(lp120
S'CHM101'
p121
aI74050
aI162
aI168
aS'M W F'
p122
aS' 9:00 AM'
p123
aI9
aI0
aI9
aI50
aNaNaNaNaNaNaNag5
aa(lp124
S'CHM101'
p125
aI74747
aI53
aI56
aS'Th'
p126
aS'10:30 AM'
p127
aI10
aI30
aI11
aI45
aNaNaNaNaNaNaNag14
aa(lp128
S'CHM101'
p129
aI74748
aI54
aI56
aS'Th'
p130
aS' 1:30 PM'
p131
aI13
aI30
aI14
aI45
aNaNaNaNaNaNaNag14
aa(lp132
S'CHM101'
p133
aI74749
aI55
aI56
ag96
aS'10:30 AM'
p134
aI10
aI30
aI11
aI45
aNaNaNaNaNaNaNag14
aa(lp135
S'CHM101'
p136
aI74750
aI22
aI24
ag100
aS'12:30 PM'
p137
aI12
aI30
aI14
aI20
aNaNaNaNaNaNaNag14
aa(lp138
S'CHM101'
p139
aI74751
aI23
aI24
ag100
aS' 2:30 PM'
p140
aI14
aI30
aI16
aI20
aNaNaNaNaNaNaNag14
aa(lp141
S'CHM101'
p142
aI74752
aI23
aI24
ag100
aS' 6:30 PM'
p143
aI18
aI30
aI20
aI20
aNaNaNaNaNaNaNag14
aa(lp144
S'CHM101'
p145
aI75324
aI23
aI24
ag21
aS'12:30 PM'
p146
aI12
aI30
aI14
aI20
aNaNaNaNaNaNaNag14
aa(lp147
S'CHM101'
p148
aI78007
aI23
aI24
ag21
aS' 2:30 PM'
p149
aI14
aI30
aI16
aI20
aNaNaNaNaNaNaNag14
aa(lp150
S'CHM101'
p151
aI78863
aI24
aI24
aS'Th'
p152
aS' 8:30 AM'
p153
aI8
aI30
aI10
aI20
aNaNaNaNaNaNaNag14
aa(lp154
S'CHM101'
p155
aI80731
aI24
aI24
ag67
aS' 8:30 AM'
p156
aI8
aI30
aI10
aI20
aNaNaNaNaNaNaNag14
aa(lp157
S'CHM101'
p158
aI80859
aI117
aI120
aS'T Th'
p159
aS' 7:30 AM'
p160
aI7
aI30
aI8
aI45
aNaNaNaNaNaNaNag5
aa(lp161
S'CHM101'
p162
aI80860
aI58
aI60
ag67
aS' 3:00 PM'
p163
aI15
aI0
aI16
aI15
aNaNaNaNaNaNaNag14
aa(lp164
S'CHM101'
p165
aI80861
aI59
aI60
aS'Th'
p166
aS' 3:00 PM'
p167
aI15
aI0
aI16
aI15
aNaNaNaNaNaNaNag14
aa(lp168
S'CHM101'
p169
aI80862
aI22
aI24
ag67
aS'10:30 AM'
p170
aI10
aI30
aI12
aI20
aNaNaNaNaNaNaNag14
aa(lp171
S'CHM101'
p172
aI80863
aI24
aI24
ag67
aS'12:30 PM'
p173
aI12
aI30
aI14
aI20
aNaNaNaNaNaNaNag14
aa(lp174
S'CHM101'
p175
aI80866
aI24
aI24
ag96
aS'10:30 AM'
p176
aI10
aI30
aI12
aI20
aNaNaNaNaNaNaNag14
aa(lp177
S'CHM101'
p178
aI85841
aI24
aI24
ag96
aS'12:30 PM'
p179
aI12
aI30
aI14
aI20
aNaNaNaNaNaNaNag14
aa(lp180
S'CHM101'
p181
aI86736
aI23
aI24
ag100
aS'10:30 AM'
p182
aI10
aI30
aI12
aI20
aNaNaNaNaNaNaNag14
aa(lp183
S'CHM107'
p184
aI91144
aI42
aI100
ag62
aNaNaNaNaNaNaNaNaNaNaNaNag5
aa(lp185
S'CHM107'
p186
aI74144
aI30
aI40
aS'M W'
p187
aS' 3:00 PM'
p188
aI15
aI0
aI16
aI15
aNaNaNaNaNaNaNag14
aa(lp189
S'CHM108'
p190
aI91140
aI73
aI100
ag62
aNaNaNaNaNaNaNaNaNaNaNaNag5
aa(lp191
S'CHM108'
p192
aI75071
aI17
aI24
aS'Th'
p193
aS' 4:30 PM'
p194
aI16
aI30
aI18
aI20
aNaNaNaNaNaNaNag14
aa(lp195
S'CHM108'
p196
aI74145
aI17
aI24
aS'Th'
p197
aS' 3:00 PM'
p198
aI15
aI0
aI16
aI15
aNaNaNaNaNaNaNag14
aa(lp199
S'CHM111'
p200
aI89867
aI24
aI24
ag21
aS'1:30PM'
p201
aI13
aI30
aI14
aI20
ag21
aS'2:30PM'
p202
aI14
aI30
aS'4:20PM'
p203
aI16
aI20
ag14
aa(lp204
S'CHM111'
p205
aI75014
aI15
aI24
ag96
aS'12:00PM'
p206
aI12
aI0
aI12
aI50
ag96
aS'1:00PM'
p207
aI13
aI0
aS'2:50PM'
p208
aI14
aI50
ag14
aa(lp209
S'CHM111'
p210
aI75015
aI23
aI24
ag100
aS'1:30PM'
p211
aI13
aI30
aI14
aI20
ag100
aS'2:30PM'
p212
aI14
aI30
aS'4:20PM'
p213
aI16
aI20
ag14
aa(lp214
S'CHM111'
p215
aI75966
aI22
aI24
ag96
aS'1:30PM'
p216
aI13
aI30
aI14
aI20
ag96
aS'2:30PM'
p217
aI14
aI30
aS'4:20PM'
p218
aI16
aI20
ag14
aa(lp219
S'CHM111'
p220
aI77728
aI23
aI24
ag100
aS'4:30PM'
p221
aI16
aI30
aI17
aI20
ag100
aS'5:30PM'
p222
aI17
aI30
aS'7:20PM'
p223
aI19
aI20
ag14
aa(lp224
S'CHM111'
p225
aI80165
aI24
aI24
ag67
aS'1:30PM'
p226
aI13
aI30
aI14
aI20
ag67
aS'2:30PM'
p227
aI14
aI30
aS'4:20PM'
p228
aI16
aI20
ag14
aa(lp229
S'CHM111'
p230
aI80181
aI24
aI24
aS'Th'
p231
aS'3:00PM'
p232
aI15
aI0
aI15
aI50
aS'Th'
p233
aS'4:00PM'
p234
aI16
aI0
aS'5:50PM'
p235
aI17
aI50
ag14
aa(lp236
S'CHM113'
p237
aI70250
aI330
aI386
aS'M W F'
p238
aS'12:00 PM'
p239
aI12
aI0
aI12
aI50
aNaNaNaNaNaNaNag5
aa(lp240
S'CHM113'
p241
aI70249
aI126
aI181
aS'T Th'
p242
aS' 9:00 AM'
p243
aI9
aI0
aI10
aI15
aNaNaNaNaNaNaNag5
aa(lp244
S'CHM113'
p245
aI70284
aI102
aI181
aS'T Th'
p246
aS'10:30 AM'
p247
aI10
aI30
aI11
aI45
aNaNaNaNaNaNaNag5
aa(lp248
S'CHM113'
p249
aI73759
aI300
aI386
aS'M W'
p250
aS' 3:00 PM'
p251
aI15
aI0
aI16
aI15
aNaNaNaNaNaNaNag5
aa(lp252
S'CHM113'
p253
aI70241
aI63
aI72
ag67
aS' 7:30 AM'
p254
aI7
aI30
aI8
aI20
aNaNaNaNaNaNaNag14
aa(lp255
S'CHM113'
p256
aI70242
aI19
aI24
ag21
aS' 8:30 AM'
p257
aI8
aI30
aI10
aI20
aNaNaNaNaNaNaNag14
aa(lp258
S'CHM113'
p259
aI70243
aI18
aI24
ag21
aS'10:30 AM'
p260
aI10
aI30
aI12
aI20
aNaNaNaNaNaNaNag5
aa(lp261
S'CHM113'
p262
aI70244
aI19
aI24
ag21
aS' 4:30 PM'
p263
aI16
aI30
aI18
aI20
aNaNaNaNaNaNaNag5
aa(lp264
S'CHM113'
p265
aI70245
aI18
aI24
aS'Th'
p266
aS' 8:30 AM'
p267
aI8
aI30
aI10
aI20
aNaNaNaNaNaNaNag5
aa(lp268
S'CHM113'
p269
aI70246
aI0
aI24
aS'Th'
p270
aS'10:30 AM'
p271
aI10
aI30
aI12
aI20
aNaNaNaNaNaNaNag5
aa(lp272
S'CHM113'
p273
aI70247
aI16
aI24
aS'Th'
p274
aS'12:30 PM'
p275
aI12
aI30
aI14
aI20
aNaNaNaNaNaNaNag5
aa(lp276
S'CHM113'
p277
aI70248
aI19
aI24
aS'Th'
p278
aS' 2:30 PM'
p279
aI14
aI30
aI16
aI20
aNaNaNaNaNaNaNag5
aa(lp280
S'CHM113'
p281
aI70251
aI64
aI72
ag100
aS' 7:30 AM'
p282
aI7
aI30
aI8
aI20
aNaNaNaNaNaNaNag14
aa(lp283
S'CHM113'
p284
aI70252
aI40
aI72
ag100
aS' 8:30 AM'
p285
aI8
aI30
aI9
aI20
aNaNaNaNaNaNaNag5
aa(lp286
S'CHM113'
p287
aI70253
aI51
aI72
ag100
aS' 9:30 AM'
p288
aI9
aI30
aI10
aI20
aNaNaNaNaNaNaNag5
aa(lp289
S'CHM113'
p290
aI70254
aI57
aI72
ag100
aS'10:30 AM'
p291
aI10
aI30
aI11
aI20
aNaNaNaNaNaNaNag5
aa(lp292
S'CHM113'
p293
aI70255
aI42
aI72
ag100
aS'11:30 AM'
p294
aI11
aI30
aI12
aI20
aNaNaNaNaNaNaNag14
aa(lp295
S'CHM113'
p296
aI70256
aI19
aI24
ag21
aS' 8:30 AM'
p297
aI8
aI30
aI10
aI20
aNaNaNaNaNaNaNag5
aa(lp298
S'CHM113'
p299
aI70257
aI19
aI24
ag21
aS'10:30 AM'
p300
aI10
aI30
aI12
aI20
aNaNaNaNaNaNaNag5
aa(lp301
S'CHM113'
p302
aI70258
aI0
aI24
ag21
aS'12:30 PM'
p303
aI12
aI30
aI14
aI20
aNaNaNaNaNaNaNag5
aa(lp304
S'CHM113'
p305
aI70259
aI19
aI24
ag21
aS' 4:30 PM'
p306
aI16
aI30
aI18
aI20
aNaNaNaNaNaNaNag5
aa(lp307
S'CHM113'
p308
aI70260
aI0
aI24
ag21
aS' 8:30 AM'
p309
aI8
aI30
aI10
aI20
aNaNaNaNaNaNaNag5
aa(lp310
S'CHM113'
p311
aI70261
aI18
aI24
ag21
aS'10:30 AM'
p312
aI10
aI30
aI12
aI20
aNaNaNaNaNaNaNag5
aa(lp313
S'CHM113'
p314
aI70262
aI10
aI24
ag21
aS'12:30 PM'
p315
aI12
aI30
aI14
aI20
aNaNaNaNaNaNaNag14
aa(lp316
S'CHM113'
p317
aI70263
aI18
aI24
ag21
aS' 4:30 PM'
p318
aI16
aI30
aI18
aI20
aNaNaNaNaNaNaNag5
aa(lp319
S'CHM113'
p320
aI70264
aI17
aI24
ag21
aS' 8:30 AM'
p321
aI8
aI30
aI10
aI20
aNaNaNaNaNaNaNag14
aa(lp322
S'CHM113'
p323
aI70265
aI18
aI24
ag21
aS'10:30 AM'
p324
aI10
aI30
aI12
aI20
aNaNaNaNaNaNaNag5
aa(lp325
S'CHM113'
p326
aI70266
aI18
aI24
ag21
aS'12:30 PM'
p327
aI12
aI30
aI14
aI20
aNaNaNaNaNaNaNag14
aa(lp328
S'CHM113'
p329
aI70268
aI21
aI24
ag21
aS' 8:30 AM'
p330
aI8
aI30
aI10
aI20
aNaNaNaNaNaNaNag14
aa(lp331
S'CHM113'
p332
aI70269
aI22
aI24
ag21
aS'10:30 AM'
p333
aI10
aI30
aI12
aI20
aNaNaNaNaNaNaNag14
aa(lp334
S'CHM113'
p335
aI70271
aI55
aI72
ag100
aS'12:30 PM'
p336
aI12
aI30
aI13
aI20
aNaNaNaNaNaNaNag14
aa(lp337
S'CHM113'
p338
aI70272
aI53
aI72
ag100
aS' 1:30 PM'
p339
aI13
aI30
aI14
aI20
aNaNaNaNaNaNaNag5
aa(lp340
S'CHM113'
p341
aI70273
aI57
aI72
ag67
aS' 8:30 AM'
p342
aI8
aI30
aI9
aI20
aNaNaNaNaNaNaNag5
aa(lp343
S'CHM113'
p344
aI70274
aI59
aI72
ag67
aS' 9:30 AM'
p345
aI9
aI30
aI10
aI20
aNaNaNaNaNaNaNag14
aa(lp346
S'CHM113'
p347
aI70275
aI44
aI72
ag67
aS'10:30 AM'
p348
aI10
aI30
aI11
aI20
aNaNaNaNaNaNaNag14
aa(lp349
S'CHM113'
p350
aI70276
aI14
aI24
aS'Th'
p351
aS' 4:30 PM'
p352
aI16
aI30
aI18
aI20
aNaNaNaNaNaNaNag14
aa(lp353
S'CHM113'
p354
aI70277
aI17
aI24
aS'Th'
p355
aS' 8:30 AM'
p356
aI8
aI30
aI10
aI20
aNaNaNaNaNaNaNag5
aa(lp357
S'CHM113'
p358
aI70278
aI22
aI24
aS'Th'
p359
aS'10:30 AM'
p360
aI10
aI30
aI12
aI20
aNaNaNaNaNaNaNag14
aa(lp361
S'CHM113'
p362
aI70279
aI19
aI24
aS'Th'
p363
aS'12:30 PM'
p364
aI12
aI30
aI14
aI20
aNaNaNaNaNaNaNag5
aa(lp365
S'CHM113'
p366
aI70280
aI19
aI24
aS'Th'
p367
aS' 2:30 PM'
p368
aI14
aI30
aI16
aI20
aNaNaNaNaNaNaNag5
aa(lp369
S'CHM113'
p370
aI70281
aI23
aI24
aS'Th'
p371
aS' 4:30 PM'
p372
aI16
aI30
aI18
aI20
aNaNaNaNaNaNaNag14
aa(lp373
S'CHM113'
p374
aI70282
aI22
aI24
aS'Th'
p375
aS' 8:30 AM'
p376
aI8
aI30
aI10
aI20
aNaNaNaNaNaNaNag14
aa(lp377
S'CHM113'
p378
aI70283
aI23
aI24
aS'Th'
p379
aS'10:30 AM'
p380
aI10
aI30
aI12
aI20
aNaNaNaNaNaNaNag14
aa(lp381
S'CHM113'
p382
aI72699
aI61
aI72
ag67
aS'11:30 AM'
p383
aI11
aI30
aI12
aI20
aNaNaNaNaNaNaNag14
aa(lp384
S'CHM113'
p385
aI72700
aI48
aI72
ag67
aS'12:30 PM'
p386
aI12
aI30
aI13
aI20
aNaNaNaNaNaNaNag14
aa(lp387
S'CHM113'
p388
aI72701
aI54
aI72
ag67
aS' 1:30 PM'
p389
aI13
aI30
aI14
aI20
aNaNaNaNaNaNaNag14
aa(lp390
S'CHM113'
p391
aI72702
aI19
aI24
aS'Th'
p392
aS'12:30 PM'
p393
aI12
aI30
aI14
aI20
aNaNaNaNaNaNaNag5
aa(lp394
S'CHM113'
p395
aI72995
aI19
aI24
aS'Th'
p396
aS' 2:30 PM'
p397
aI14
aI30
aI16
aI20
aNaNaNaNaNaNaNag5
aa(lp398
S'CHM113'
p399
aI72998
aI22
aI24
aS'Th'
p400
aS' 4:30 PM'
p401
aI16
aI30
aI18
aI20
aNaNaNaNaNaNaNag14
aa(lp402
S'CHM113'
p403
aI72999
aI21
aI24
aS'Th'
p404
aS' 8:30 AM'
p405
aI8
aI30
aI10
aI20
aNaNaNaNaNaNaNag14
aa(lp406
S'CHM113'
p407
aI73001
aI23
aI24
aS'Th'
p408
aS'10:30 AM'
p409
aI10
aI30
aI12
aI20
aNaNaNaNaNaNaNag14
aa(lp410
S'CHM113'
p411
aI73002
aI19
aI24
aS'Th'
p412
aS'12:30 PM'
p413
aI12
aI30
aI14
aI20
aNaNaNaNaNaNaNag5
aa(lp414
S'CHM113'
p415
aI73523
aI16
aI24
aS'Th'
p416
aS' 2:30 PM'
p417
aI14
aI30
aI16
aI20
aNaNaNaNaNaNaNag5
aa(lp418
S'CHM113'
p419
aI73760
aI64
aI72
ag67
aS' 2:30 PM'
p420
aI14
aI30
aI15
aI20
aNaNaNaNaNaNaNag14
aa(lp421
S'CHM113'
p422
aI73761
aI23
aI24
aS'Th'
p423
aS' 8:30 AM'
p424
aI8
aI30
aI10
aI20
aNaNaNaNaNaNaNag14
aa(lp425
S'CHM113'
p426
aI73762
aI19
aI24
aS'Th'
p427
aS'12:30 PM'
p428
aI12
aI30
aI14
aI20
aNaNaNaNaNaNaNag5
aa(lp429
S'CHM113'
p430
aI73763
aI8
aI24
aS'Th'
p431
aS' 2:30 PM'
p432
aI14
aI30
aI16
aI20
aNaNaNaNaNaNaNag5
aa(lp433
S'CHM113'
p434
aI73764
aI11
aI24
ag96
aS' 8:30 AM'
p435
aI8
aI30
aI10
aI20
aNaNaNaNaNaNaNag5
aa(lp436
S'CHM113'
p437
aI73765
aI21
aI24
ag96
aS'10:30 AM'
p438
aI10
aI30
aI12
aI20
aNaNaNaNaNaNaNag14
aa(lp439
S'CHM113'
p440
aI73766
aI22
aI24
ag96
aS' 8:30 AM'
p441
aI8
aI30
aI10
aI20
aNaNaNaNaNaNaNag14
aa(lp442
S'CHM113'
p443
aI73767
aI24
aI24
ag96
aS'10:30 AM'
p444
aI10
aI30
aI12
aI20
aNaNaNaNaNaNaNag14
aa(lp445
S'CHM113'
p446
aI73768
aI23
aI24
aS'Th'
p447
aS'10:30 AM'
p448
aI10
aI30
aI12
aI20
aNaNaNaNaNaNaNag14
aa(lp449
S'CHM113'
p450
aI90507
aI64
aI72
ag67
aS' 3:20 PM'
p451
aI15
aI20
aI16
aI20
aNaNaNaNaNaNaNag14
aa(lp452
S'CHM113'
p453
aI70750
aI78
aI96
aS'T Th'
p454
aS'12:00 PM'
p455
aI12
aI0
aI13
aI15
aNaNaNaNaNaNaNag14
aa(lp456
S'CHM113'
p457
aI70751
aI16
aI24
ag21
aS' 9:00 AM'
p458
aI9
aI0
aI11
aI45
aNaNaNaNaNaNaNag14
aa(lp459
S'CHM113'
p460
aI86225
aI18
aI24
ag96
aS' 9:00 AM'
p461
aI9
aI0
aI11
aI45
aNaNaNaNaNaNaNag14
aa(lp462
S'CHM113'
p463
aI86224
aI60
aI76
aS'M W F'
p464
aS'10:30 AM'
p465
aI10
aI30
aI11
aI20
aNaNaNaNaNaNaNag14
aa(lp466
S'CHM113'
p467
aI70754
aI19
aI24
aS'Th'
p468
aS' 8:30 AM'
p469
aI8
aI30
aI11
aI15
aNaNaNaNaNaNaNag14
aa(lp470
S'CHM113'
p471
aI70755
aI23
aI24
aS'Th'
p472
aS'11:45 AM'
p473
aI11
aI45
aI14
aI30
aNaNaNaNaNaNaNag14
aa(lp474
S'CHM113'
p475
aI70756
aI19
aI24
aS'Th'
p476
aS' 3:00 PM'
p477
aI15
aI0
aI17
aI45
aNaNaNaNaNaNaNag14
aa(lp478
S'CHM113'
p479
aI86226
aI19
aI24
ag96
aS'12:15 PM'
p480
aI12
aI15
aI15
aI0
aNaNaNaNaNaNaNag14
aa(lp481
S'CHM113'
p482
aI81395
aI104
aI120
aS'M W F'
p483
aS' 9:00 AM'
p484
aI9
aI0
aI9
aI50
aNaNaNaNaNaNaNag14
aa(lp485
S'CHM113'
p486
aI81397
aI19
aI24
ag100
aS'12:00 PM'
p487
aI12
aI0
aI13
aI50
aNaNaNaNaNaNaNag14
aa(lp488
S'CHM113'
p489
aI81399
aI21
aI24
ag67
aS' 3:30 PM'
p490
aI15
aI30
aI17
aI20
aNaNaNaNaNaNaNag14
aa(lp491
S'CHM113'
p492
aI81400
aI20
aI24
ag21
aS' 3:30 PM'
p493
aI15
aI30
aI17
aI20
aNaNaNaNaNaNaNag14
aa(lp494
S'CHM113'
p495
aI81401
aI22
aI24
ag96
aS'11:30 AM'
p496
aI11
aI30
aI13
aI20
aNaNaNaNaNaNaNag14
aa(lp497
S'CHM113'
p498
aI85489
aI22
aI24
ag21
aS'11:30 AM'
p499
aI11
aI30
aI13
aI20
aNaNaNaNaNaNaNag14
aa(lp500
S'CHM113'
p501
aI89101
aI33
aI40
ag100
aS'10:30 AM'
p502
aI10
aI30
aI11
aI20
aNaNaNaNaNaNaNag14
aa(lp503
S'CHM113'
p504
aI89103
aI38
aI40
ag21
aS'10:30 AM'
p505
aI10
aI30
aI11
aI20
aNaNaNaNaNaNaNag14
aa(lp506
S'CHM113'
p507
aI89104
aI33
aI40
ag96
aS'10:30 AM'
p508
aI10
aI30
aI11
aI20
aNaNaNaNaNaNaNag14
aa(lp509
S'CHM113'
p510
aI81396
aI87
aI120
aS'T Th'
p511
aS'12:00 PM'
p512
aI12
aI0
aI13
aI15
aNaNaNaNaNaNaNag14
aa(lp513
S'CHM113'
p514
aI81402
aI18
aI24
aS'Th'
p515
aS' 3:00 PM'
p516
aI15
aI0
aI16
aI50
aNaNaNaNaNaNaNag14
aa(lp517
S'CHM113'
p518
aI81404
aI14
aI24
ag21
aS'11:30 AM'
p519
aI11
aI30
aI13
aI20
aNaNaNaNaNaNaNag14
aa(lp520
S'CHM113'
p521
aI81411
aI15
aI24
ag67
aS'10:00 AM'
p522
aI10
aI0
aI11
aI50
aNaNaNaNaNaNaNag14
aa(lp523
S'CHM113'
p524
aI81413
aI22
aI24
aS'Th'
p525
aS'10:00 AM'
p526
aI10
aI0
aI11
aI50
aNaNaNaNaNaNaNag14
aa(lp527
S'CHM113'
p528
aI85488
aI18
aI24
ag67
aS' 1:30 PM'
p529
aI13
aI30
aI15
aI20
aNaNaNaNaNaNaNag14
aa(lp530
S'CHM113'
p531
aI89141
aI31
aI40
ag100
aS'12:00 PM'
p532
aI12
aI0
aI12
aI50
aNaNaNaNaNaNaNag14
aa(lp533
S'CHM113'
p534
aI89143
aI23
aI40
ag67
aS' 9:00 AM'
p535
aI9
aI0
aI9
aI50
aNaNaNaNaNaNaNag14
aa(lp536
S'CHM113'
p537
aI89145
aI33
aI40
aS'Th'
p538
aS' 9:00 AM'
p539
aI9
aI0
aI9
aI50
aNaNaNaNaNaNaNag14
aa(lp540
S'CHM113'
p541
aI89136
aI103
aI120
aS'M W F'
p542
aS'10:30 AM'
p543
aI10
aI30
aI11
aI20
aNaNaNaNaNaNaNag14
aa(lp544
S'CHM113'
p545
aI81410
aI22
aI24
ag100
aS' 3:00 PM'
p546
aI15
aI0
aI16
aI50
aNaNaNaNaNaNaNag14
aa(lp547
S'CHM113'
p548
aI81412
aI17
aI24
ag21
aS' 1:30 PM'
p549
aI13
aI30
aI15
aI20
aNaNaNaNaNaNaNag14
aa(lp550
S'CHM113'
p551
aI89146
aI23
aI24
aS'Th'
p552
aS' 1:00 PM'
p553
aI13
aI0
aI14
aI50
aNaNaNaNaNaNaNag14
aa(lp554
S'CHM113'
p555
aI89147
aI20
aI24
ag96
aS' 8:30 AM'
p556
aI8
aI30
aI10
aI20
aNaNaNaNaNaNaNag14
aa(lp557
S'CHM113'
p558
aI89149
aI21
aI24
ag96
aS' 1:30 PM'
p559
aI13
aI30
aI15
aI20
aNaNaNaNaNaNaNag14
aa(lp560
S'CHM113'
p561
aI89150
aI33
aI40
ag21
aS' 9:00 AM'
p562
aI9
aI0
aI9
aI50
aNaNaNaNaNaNaNag14
aa(lp563
S'CHM113'
p564
aI89177
aI35
aI40
ag21
aS'12:00 PM'
p565
aI12
aI0
aI12
aI50
aNaNaNaNaNaNaNag14
aa(lp566
S'CHM113'
p567
aI89180
aI35
aI40
ag96
aS'12:00 PM'
p568
aI12
aI0
aI12
aI50
aNaNaNaNaNaNaNag14
aa(lp569
S'CHM113'
p570
aI74166
aI126
aI168
aS'M W F'
p571
aS'10:30 AM'
p572
aI10
aI30
aI11
aI20
aNaNaNaNaNaNaNag5
aa(lp573
S'CHM113'
p574
aI74167
aI34
aI60
ag100
aS'12:00 PM'
p575
aI12
aI0
aI13
aI15
aNaNaNaNaNaNaNag14
aa(lp576
S'CHM113'
p577
aI74552
aI52
aI60
ag100
aS' 3:00 PM'
p578
aI15
aI0
aI16
aI15
aNaNaNaNaNaNaNag14
aa(lp579
S'CHM113'
p580
aI74553
aI40
aI48
ag21
aS' 1:30 PM'
p581
aI13
aI30
aI14
aI45
aNaNaNaNaNaNaNag14
aa(lp582
S'CHM113'
p583
aI74554
aI16
aI24
aS'Th'
p584
aS'12:30 PM'
p585
aI12
aI30
aI14
aI20
aNaNaNaNaNaNaNag14
aa(lp586
S'CHM113'
p587
aI74555
aI23
aI24
aS'Th'
p588
aS' 2:30 PM'
p589
aI14
aI30
aI16
aI20
aNaNaNaNaNaNaNag14
aa(lp590
S'CHM113'
p591
aI76104
aI6
aI24
ag96
aS'12:30 PM'
p592
aI12
aI30
aI14
aI20
aNaNaNaNaNaNaNag14
aa(lp593
S'CHM113'
p594
aI78041
aI22
aI24
ag96
aS' 2:30 PM'
p595
aI14
aI30
aI16
aI20
aNaNaNaNaNaNaNag14
aa(lp596
S'CHM113'
p597
aI80536
aI16
aI24
aS'Th'
p598
aS'10:30 AM'
p599
aI10
aI30
aI12
aI20
aNaNaNaNaNaNaNag14
aa(lp600
S'CHM113'
p601
aI80537
aI19
aI24
ag67
aS' 2:30 PM'
p602
aI14
aI30
aI16
aI20
aNaNaNaNaNaNaNag14
aa(lp603
S'CHM113'
p604
aI80675
aI24
aI24
ag96
aS' 2:30 PM'
p605
aI14
aI30
aI16
aI20
aNaNaNaNaNaNaNag14
aa(lp606
S'CHM113'
p607
aI80726
aI79
aI96
aS'M W F'
p608
aS'12:00 PM'
p609
aI12
aI0
aI12
aI50
aNaNaNaNaNaNaNag5
aa(lp610
S'CHM113'
p611
aI80727
aI34
aI48
ag100
aS' 4:30 PM'
p612
aI16
aI30
aI17
aI45
aNaNaNaNaNaNaNag14
aa(lp613
S'CHM113'
p614
aI80728
aI14
aI24
ag67
aS' 4:30 PM'
p615
aI16
aI30
aI18
aI20
aNaNaNaNaNaNaNag14
aa(lp616
S'CHM113'
p617
aI80729
aI22
aI24
ag67
aS' 6:30 PM'
p618
aI18
aI30
aI20
aI20
aNaNaNaNaNaNaNag14
aa(lp619
S'CHM113'
p620
aI80730
aI23
aI24
ag96
aS' 2:30 PM'
p621
aI14
aI30
aI16
aI20
aNaNaNaNaNaNaNag14
aa(lp622
S'CHM113'
p623
aI86738
aI45
aI48
ag21
aS' 4:30 PM'
p624
aI16
aI30
aI17
aI45
aNaNaNaNaNaNaNag14
aa(lp625
S'CHM113'
p626
aI86739
aI20
aI24
ag100
aS' 8:30 AM'
p627
aI8
aI30
aI10
aI20
aNaNaNaNaNaNaNag14
aa(lp628
S'CHM114'
p629
aI70692
aI352
aI386
aS'M W F'
p630
aS' 9:00 AM'
p631
aI9
aI0
aI9
aI50
aNaNaNaNaNaNaNag5
aa(lp632
S'CHM114'
p633
aI72703
aI357
aI386
aS'M W F'
p634
aS' 1:30 PM'
p635
aI13
aI30
aI14
aI20
aNaNaNaNaNaNaNag5
aa(lp636
S'CHM114'
p637
aI75299
aI344
aI386
aS'T Th'
p638
aS' 3:00 PM'
p639
aI15
aI0
aI16
aI15
aNaNaNaNaNaNaNag5
aa(lp640
S'CHM114'
p641
aI82921
aI334
aI386
aS'T Th'
p642
aS' 9:00 AM'
p643
aI9
aI0
aI10
aI15
aNaNaNaNaNaNaNag5
aa(lp644
S'CHM114'
p645
aI90354
aI157
aI181
aS'M W F'
p646
aS'12:00 PM'
p647
aI12
aI0
aI12
aI50
aNaNaNaNaNaNaNag5
aa(lp648
S'CHM114'
p649
aI70693
aI62
aI72
ag21
aS' 7:30 AM'
p650
aI7
aI30
aI8
aI20
aNaNaNaNaNaNaNag14
aa(lp651
S'CHM114'
p652
aI70694
aI40
aI72
ag21
aS'10:30 AM'
p653
aI10
aI30
aI11
aI20
aNaNaNaNaNaNaNag5
aa(lp654
S'CHM114'
p655
aI70695
aI57
aI72
aS'Th'
p656
aS'11:30 AM'
p657
aI11
aI30
aI12
aI20
aNaNaNaNaNaNaNag14
aa(lp658
S'CHM114'
p659
aI70696
aI35
aI72
ag21
aS' 2:30 PM'
p660
aI14
aI30
aI15
aI20
aNaNaNaNaNaNaNag14
aa(lp661
S'CHM114'
p662
aI70698
aI59
aI72
ag21
aS' 4:30 PM'
p663
aI16
aI30
aI17
aI20
aNaNaNaNaNaNaNag14
aa(lp664
S'CHM114'
p665
aI70699
aI20
aI24
ag100
aS'10:30 AM'
p666
aI10
aI30
aI12
aI20
aNaNaNaNaNaNaNag5
aa(lp667
S'CHM114'
p668
aI70700
aI0
aI24
ag100
aS' 2:30 PM'
p669
aI14
aI30
aI16
aI20
aNaNaNaNaNaNaNag5
aa(lp670
S'CHM114'
p671
aI70701
aI9
aI24
ag100
aS' 4:30 PM'
p672
aI16
aI30
aI18
aI20
aNaNaNaNaNaNaNag14
aa(lp673
S'CHM114'
p674
aI70702
aI10
aI24
ag100
aS'10:30 AM'
p675
aI10
aI30
aI12
aI20
aNaNaNaNaNaNaNag5
aa(lp676
S'CHM114'
p677
aI70703
aI6
aI24
ag100
aS' 2:30 PM'
p678
aI14
aI30
aI16
aI20
aNaNaNaNaNaNaNag14
aa(lp679
S'CHM114'
p680
aI70704
aI24
aI24
ag100
aS' 4:30 PM'
p681
aI16
aI30
aI18
aI20
aNaNaNaNaNaNaNag14
aa(lp682
S'CHM114'
p683
aI70705
aI22
aI24
ag100
aS'10:30 AM'
p684
aI10
aI30
aI12
aI20
aNaNaNaNaNaNaNag5
aa(lp685
S'CHM114'
p686
aI70706
aI22
aI24
ag100
aS' 2:30 PM'
p687
aI14
aI30
aI16
aI20
aNaNaNaNaNaNaNag14
aa(lp688
S'CHM114'
p689
aI70707
aI24
aI24
ag100
aS' 4:30 PM'
p690
aI16
aI30
aI18
aI20
aNaNaNaNaNaNaNag14
aa(lp691
S'CHM114'
p692
aI70708
aI17
aI24
ag100
aS'10:30 AM'
p693
aI10
aI30
aI12
aI20
aNaNaNaNaNaNaNag14
aa(lp694
S'CHM114'
p695
aI70709
aI21
aI24
ag100
aS' 2:30 PM'
p696
aI14
aI30
aI16
aI20
aNaNaNaNaNaNaNag14
aa(lp697
S'CHM114'
p698
aI70710
aI23
aI24
ag100
aS' 4:30 PM'
p699
aI16
aI30
aI18
aI20
aNaNaNaNaNaNaNag14
aa(lp700
S'CHM114'
p701
aI70711
aI19
aI24
ag100
aS'10:30 AM'
p702
aI10
aI30
aI12
aI20
aNaNaNaNaNaNaNag14
aa(lp703
S'CHM114'
p704
aI70712
aI23
aI24
ag100
aS' 2:30 PM'
p705
aI14
aI30
aI16
aI20
aNaNaNaNaNaNaNag14
aa(lp706
S'CHM114'
p707
aI73769
aI67
aI72
ag21
aS' 5:30 PM'
p708
aI17
aI30
aI18
aI20
aNaNaNaNaNaNaNag14
aa(lp709
S'CHM114'
p710
aI73770
aI71
aI72
aS'Th'
p711
aS' 7:30 AM'
p712
aI7
aI30
aI8
aI20
aNaNaNaNaNaNaNag14
aa(lp713
S'CHM114'
p714
aI73771
aI52
aI72
aS'Th'
p715
aS'10:30 AM'
p716
aI10
aI30
aI11
aI20
aNaNaNaNaNaNaNag14
aa(lp717
S'CHM114'
p718
aI73772
aI24
aI24
ag100
aS' 4:30 PM'
p719
aI16
aI30
aI18
aI20
aNaNaNaNaNaNaNag14
aa(lp720
S'CHM114'
p721
aI73773
aI22
aI24
ag67
aS' 8:30 AM'
p722
aI8
aI30
aI10
aI20
aNaNaNaNaNaNaNag14
aa(lp723
S'CHM114'
p724
aI73774
aI15
aI24
ag67
aS'10:30 AM'
p725
aI10
aI30
aI12
aI20
aNaNaNaNaNaNaNag5
aa(lp726
S'CHM114'
p727
aI73775
aI15
aI24
ag67
aS'12:30 PM'
p728
aI12
aI30
aI14
aI20
aNaNaNaNaNaNaNag14
aa(lp729
S'CHM114'
p730
aI73802
aI22
aI24
ag67
aS' 4:30 PM'
p731
aI16
aI30
aI18
aI20
aNaNaNaNaNaNaNag14
aa(lp732
S'CHM114'
p733
aI73868
aI22
aI24
ag67
aS' 8:30 AM'
p734
aI8
aI30
aI10
aI20
aNaNaNaNaNaNaNag14
aa(lp735
S'CHM114'
p736
aI73919
aI16
aI24
ag67
aS'10:30 AM'
p737
aI10
aI30
aI12
aI20
aNaNaNaNaNaNaNag14
aa(lp738
S'CHM114'
p739
aI74340
aI23
aI24
ag67
aS'12:30 PM'
p740
aI12
aI30
aI14
aI20
aNaNaNaNaNaNaNag5
aa(lp741
S'CHM114'
p742
aI75300
aI61
aI72
aS'Th'
p743
aS'12:30 PM'
p744
aI12
aI30
aI13
aI20
aNaNaNaNaNaNaNag14
aa(lp745
S'CHM114'
p746
aI75301
aI22
aI24
ag67
aS' 2:30 PM'
p747
aI14
aI30
aI16
aI20
aNaNaNaNaNaNaNag5
aa(lp748
S'CHM114'
p749
aI75302
aI24
aI24
ag67
aS' 8:30 AM'
p750
aI8
aI30
aI10
aI20
aNaNaNaNaNaNaNag14
aa(lp751
S'CHM114'
p752
aI75303
aI21
aI24
ag67
aS'10:30 AM'
p753
aI10
aI30
aI12
aI20
aNaNaNaNaNaNaNag14
aa(lp754
S'CHM114'
p755
aI76514
aI22
aI24
ag67
aS'12:30 PM'
p756
aI12
aI30
aI14
aI20
aNaNaNaNaNaNaNag14
aa(lp757
S'CHM114'
p758
aI76515
aI22
aI24
ag67
aS' 4:30 PM'
p759
aI16
aI30
aI18
aI20
aNaNaNaNaNaNaNag14
aa(lp760
S'CHM114'
p761
aI76530
aI64
aI72
aS'Th'
p762
aS' 1:30 PM'
p763
aI13
aI30
aI14
aI20
aNaNaNaNaNaNaNag14
aa(lp764
S'CHM114'
p765
aI76531
aI24
aI24
ag67
aS' 8:30 AM'
p766
aI8
aI30
aI10
aI20
aNaNaNaNaNaNaNag14
aa(lp767
S'CHM114'
p768
aI76532
aI23
aI24
ag67
aS'10:30 AM'
p769
aI10
aI30
aI12
aI20
aNaNaNaNaNaNaNag14
aa(lp770
S'CHM114'
p771
aI76533
aI22
aI24
ag67
aS'12:30 PM'
p772
aI12
aI30
aI14
aI20
aNaNaNaNaNaNaNag5
aa(lp773
S'CHM114'
p774
aI77632
aI24
aI24
ag67
aS' 4:30 PM'
p775
aI16
aI30
aI18
aI20
aNaNaNaNaNaNaNag14
aa(lp776
S'CHM114'
p777
aI77754
aI66
aI72
aS'Th'
p778
aS' 2:30 PM'
p779
aI14
aI30
aI15
aI20
aNaNaNaNaNaNaNag14
aa(lp780
S'CHM114'
p781
aI77755
aI72
aI72
aS'Th'
p782
aS' 3:30 PM'
p783
aI15
aI30
aI16
aI20
aNaNaNaNaNaNaNag14
aa(lp784
S'CHM114'
p785
aI77756
aI24
aI24
ag67
aS' 8:30 AM'
p786
aI8
aI30
aI10
aI20
aNaNaNaNaNaNaNag14
aa(lp787
S'CHM114'
p788
aI77757
aI23
aI24
ag67
aS'10:30 AM'
p789
aI10
aI30
aI12
aI20
aNaNaNaNaNaNaNag14
aa(lp790
S'CHM114'
p791
aI77758
aI21
aI24
ag67
aS'12:30 PM'
p792
aI12
aI30
aI14
aI20
aNaNaNaNaNaNaNag14
aa(lp793
S'CHM114'
p794
aI77759
aI21
aI24
ag67
aS' 4:30 PM'
p795
aI16
aI30
aI18
aI20
aNaNaNaNaNaNaNag14
aa(lp796
S'CHM114'
p797
aI77760
aI19
aI24
ag21
aS' 2:30 PM'
p798
aI14
aI30
aI16
aI20
aNaNaNaNaNaNaNag14
aa(lp799
S'CHM114'
p800
aI77761
aI24
aI24
ag21
aS' 2:30 PM'
p801
aI14
aI30
aI16
aI20
aNaNaNaNaNaNaNag14
aa(lp802
S'CHM114'
p803
aI77762
aI24
aI24
ag21
aS' 2:30 PM'
p804
aI14
aI30
aI16
aI20
aNaNaNaNaNaNaNag14
aa(lp805
S'CHM114'
p806
aI78234
aI18
aI24
ag21
aS'12:30 PM'
p807
aI12
aI30
aI14
aI20
aNaNaNaNaNaNaNag14
aa(lp808
S'CHM114'
p809
aI79815
aI69
aI72
aS'Th'
p810
aS' 4:30 PM'
p811
aI16
aI30
aI17
aI20
aNaNaNaNaNaNaNag14
aa(lp812
S'CHM114'
p813
aI79816
aI24
aI24
ag21
aS' 2:30 PM'
p814
aI14
aI30
aI16
aI20
aNaNaNaNaNaNaNag14
aa(lp815
S'CHM114'
p816
aI79817
aI19
aI24
ag21
aS'12:30 PM'
p817
aI12
aI30
aI14
aI20
aNaNaNaNaNaNaNag14
aa(lp818
S'CHM114'
p819
aI79818
aI24
aI24
ag21
aS' 2:30 PM'
p820
aI14
aI30
aI16
aI20
aNaNaNaNaNaNaNag14
aa(lp821
S'CHM114'
p822
aI80695
aI72
aI72
aS'Th'
p823
aS' 5:30 PM'
p824
aI17
aI30
aI18
aI20
aNaNaNaNaNaNaNag14
aa(lp825
S'CHM114'
p826
aI80696
aI72
aI72
ag96
aS' 7:30 AM'
p827
aI7
aI30
aI8
aI20
aNaNaNaNaNaNaNag14
aa(lp828
S'CHM114'
p829
aI80697
aI23
aI24
ag100
aS' 8:30 AM'
p830
aI8
aI30
aI10
aI20
aNaNaNaNaNaNaNag14
aa(lp831
S'CHM114'
p832
aI80698
aI24
aI24
ag100
aS' 8:30 AM'
p833
aI8
aI30
aI10
aI20
aNaNaNaNaNaNaNag14
aa(lp834
S'CHM114'
p835
aI80699
aI24
aI24
ag100
aS' 8:30 AM'
p836
aI8
aI30
aI10
aI20
aNaNaNaNaNaNaNag14
aa(lp837
S'CHM114'
p838
aI80700
aI21
aI24
ag67
aS' 2:30 PM'
p839
aI14
aI30
aI16
aI20
aNaNaNaNaNaNaNag14
aa(lp840
S'CHM114'
p841
aI80702
aI23
aI24
ag67
aS' 2:30 PM'
p842
aI14
aI30
aI16
aI20
aNaNaNaNaNaNaNag5
aa(lp843
S'CHM114'
p844
aI80865
aI24
aI24
ag100
aS'12:30 PM'
p845
aI12
aI30
aI14
aI20
aNaNaNaNaNaNaNag14
aa(lp846
S'CHM114'
p847
aI80924
aI24
aI24
ag100
aS'12:30 PM'
p848
aI12
aI30
aI14
aI20
aNaNaNaNaNaNaNag14
aa(lp849
S'CHM114'
p850
aI83163
aI72
aI72
ag21
aS' 3:30 PM'
p851
aI15
aI30
aI16
aI20
aNaNaNaNaNaNaNag14
aa(lp852
S'CHM114'
p853
aI83165
aI65
aI72
ag21
aS'11:30 AM'
p854
aI11
aI30
aI12
aI20
aNaNaNaNaNaNaNag14
aa(lp855
S'CHM114'
p856
aI83367
aI24
aI24
ag100
aS' 8:30 AM'
p857
aI8
aI30
aI10
aI20
aNaNaNaNaNaNaNag14
aa(lp858
S'CHM114'
p859
aI83368
aI22
aI24
ag100
aS'12:30 PM'
p860
aI12
aI30
aI14
aI20
aNaNaNaNaNaNaNag14
aa(lp861
S'CHM114'
p862
aI83369
aI24
aI24
ag100
aS' 8:30 AM'
p863
aI8
aI30
aI10
aI20
aNaNaNaNaNaNaNag14
aa(lp864
S'CHM114'
p865
aI83370
aI23
aI24
ag100
aS'12:30 PM'
p866
aI12
aI30
aI14
aI20
aNaNaNaNaNaNaNag14
aa(lp867
S'CHM114'
p868
aI83371
aI23
aI24
ag100
aS'12:30 PM'
p869
aI12
aI30
aI14
aI20
aNaNaNaNaNaNaNag14
aa(lp870
S'CHM114'
p871
aI83372
aI21
aI24
ag67
aS' 4:30 PM'
p872
aI16
aI30
aI18
aI20
aNaNaNaNaNaNaNag14
aa(lp873
S'CHM114'
p874
aI83373
aI24
aI24
ag67
aS' 2:30 PM'
p875
aI14
aI30
aI16
aI20
aNaNaNaNaNaNaNag14
aa(lp876
S'CHM114'
p877
aI83374
aI24
aI24
ag67
aS' 2:30 PM'
p878
aI14
aI30
aI16
aI20
aNaNaNaNaNaNaNag14
aa(lp879
S'CHM114'
p880
aI85847
aI71
aI72
ag96
aS' 8:30 AM'
p881
aI8
aI30
aI9
aI20
aNaNaNaNaNaNaNag14
aa(lp882
S'CHM114'
p883
aI85848
aI24
aI24
ag100
aS'10:30 AM'
p884
aI10
aI30
aI12
aI20
aNaNaNaNaNaNaNag14
aa(lp885
S'CHM114'
p886
aI85849
aI24
aI24
ag100
aS' 2:30 PM'
p887
aI14
aI30
aI16
aI20
aNaNaNaNaNaNaNag14
aa(lp888
S'CHM114'
p889
aI85850
aI24
aI24
ag67
aS'12:30 PM'
p890
aI12
aI30
aI14
aI20
aNaNaNaNaNaNaNag14
aa(lp891
S'CHM114'
p892
aI90509
aI65
aI72
ag96
aS'10:30 AM'
p893
aI10
aI30
aI11
aI20
aNaNaNaNaNaNaNag14
aa(lp894
S'CHM114'
p895
aI90510
aI71
aI72
ag96
aS'11:30 AM'
p896
aI11
aI30
aI12
aI20
aNaNaNaNaNaNaNag14
aa(lp897
S'CHM114'
p898
aI90511
aI68
aI72
ag96
aS' 1:30 PM'
p899
aI13
aI30
aI14
aI20
aNaNaNaNaNaNaNag14
aa(lp900
S'CHM114'
p901
aI90513
aI72
aI72
ag96
aS' 2:30 PM'
p902
aI14
aI30
aI15
aI20
aNaNaNaNaNaNaNag14
aa(lp903
S'CHM114'
p904
aI90514
aI72
aI72
ag96
aS' 3:30 PM'
p905
aI15
aI30
aI16
aI20
aNaNaNaNaNaNaNag14
aa(lp906
S'CHM114'
p907
aI90515
aI72
aI72
ag96
aS' 4:30 PM'
p908
aI16
aI30
aI17
aI20
aNaNaNaNaNaNaNag14
aa(lp909
S'CHM114'
p910
aI90675
aI24
aI24
ag100
aS' 8:30 AM'
p911
aI8
aI30
aI10
aI20
aNaNaNaNaNaNaNag14
aa(lp912
S'CHM114'
p913
aI90676
aI24
aI24
ag67
aS' 2:30 PM'
p914
aI14
aI30
aI16
aI20
aNaNaNaNaNaNaNag14
aa(lp915
S'CHM114'
p916
aI90677
aI24
aI24
ag100
aS' 8:30 AM'
p917
aI8
aI30
aI10
aI20
aNaNaNaNaNaNaNag14
aa(lp918
S'CHM114'
p919
aI90678
aI23
aI24
ag100
aS'10:30 AM'
p920
aI10
aI30
aI12
aI20
aNaNaNaNaNaNaNag14
aa(lp921
S'CHM114'
p922
aI90679
aI23
aI24
ag67
aS'10:30 AM'
p923
aI10
aI30
aI12
aI20
aNaNaNaNaNaNaNag14
aa(lp924
S'CHM114'
p925
aI90680
aI24
aI24
ag67
aS'12:30 PM'
p926
aI12
aI30
aI14
aI20
aNaNaNaNaNaNaNag14
aa(lp927
S'CHM114'
p928
aI90681
aI23
aI24
ag100
aS' 2:30 PM'
p929
aI14
aI30
aI16
aI20
aNaNaNaNaNaNaNag14
aa(lp930
S'CHM114'
p931
aI90682
aI22
aI24
ag67
aS' 2:30 PM'
p932
aI14
aI30
aI16
aI20
aNaNaNaNaNaNaNag14
aa(lp933
S'CHM116'
p934
aI70713
aI214
aI386
aS'T Th'
p935
aS'12:00 PM'
p936
aI12
aI0
aI13
aI15
aNaNaNaNaNaNaNag5
aa(lp937
S'CHM116'
p938
aI73781
aI32
aI181
aS'T Th'
p939
aS' 3:00 PM'
p940
aI15
aI0
aI16
aI15
aNaNaNaNaNaNaNag5
aa(lp941
S'CHM116'
p942
aI70714
aI10
aI24
ag67
aS' 8:30 AM'
p943
aI8
aI30
aI10
aI20
aNaNaNaNaNaNaNag5
aa(lp944
S'CHM116'
p945
aI70715
aI0
aI24
ag67
aS'10:30 AM'
p946
aI10
aI30
aI12
aI20
aNaNaNaNaNaNaNag5
aa(lp947
S'CHM116'
p948
aI70716
aI0
aI24
ag67
aS' 4:30 PM'
p949
aI16
aI30
aI18
aI20
aNaNaNaNaNaNaNag5
aa(lp950
S'CHM116'
p951
aI70717
aI1
aI24
ag67
aS' 8:30 AM'
p952
aI8
aI30
aI10
aI20
aNaNaNaNaNaNaNag14
aa(lp953
S'CHM116'
p954
aI70718
aI0
aI24
ag67
aS' 4:30 PM'
p955
aI16
aI30
aI18
aI20
aNaNaNaNaNaNaNag5
aa(lp956
S'CHM116'
p957
aI70719
aI9
aI24
ag67
aS' 8:30 AM'
p958
aI8
aI30
aI10
aI20
aNaNaNaNaNaNaNag14
aa(lp959
S'CHM116'
p960
aI70720
aI9
aI24
ag67
aS' 4:30 PM'
p961
aI16
aI30
aI18
aI20
aNaNaNaNaNaNaNag14
aa(lp962
S'CHM116'
p963
aI70721
aI20
aI24
ag67
aS' 8:30 AM'
p964
aI8
aI30
aI10
aI20
aNaNaNaNaNaNaNag14
aa(lp965
S'CHM116'
p966
aI70722
aI19
aI24
ag67
aS' 4:30 PM'
p967
aI16
aI30
aI18
aI20
aNaNaNaNaNaNaNag14
aa(lp968
S'CHM116'
p969
aI73625
aI12
aI24
ag21
aS' 4:30 PM'
p970
aI16
aI30
aI18
aI20
aNaNaNaNaNaNaNag14
aa(lp971
S'CHM116'
p972
aI73626
aI16
aI24
ag21
aS' 8:30 AM'
p973
aI8
aI30
aI10
aI20
aNaNaNaNaNaNaNag14
aa(lp974
S'CHM116'
p975
aI73627
aI11
aI24
ag21
aS'10:30 AM'
p976
aI10
aI30
aI12
aI20
aNaNaNaNaNaNaNag14
aa(lp977
S'CHM116'
p978
aI73782
aI13
aI24
ag21
aS'12:30 PM'
p979
aI12
aI30
aI14
aI20
aNaNaNaNaNaNaNag14
aa(lp980
S'CHM116'
p981
aI73783
aI1
aI24
ag21
aS'10:30 AM'
p982
aI10
aI30
aI12
aI20
aNaNaNaNaNaNaNag14
aa(lp983
S'CHM116'
p984
aI73784
aI18
aI24
ag21
aS'10:30 AM'
p985
aI10
aI30
aI12
aI20
aNaNaNaNaNaNaNag14
aa(lp986
S'CHM116'
p987
aI73785
aI16
aI24
ag21
aS' 8:30 AM'
p988
aI8
aI30
aI10
aI20
aNaNaNaNaNaNaNag14
aa(lp989
S'CHM116'
p990
aI73786
aI5
aI24
ag21
aS'10:30 AM'
p991
aI10
aI30
aI12
aI20
aNaNaNaNaNaNaNag14
aa(lp992
S'CHM116'
p993
aI73787
aI7
aI24
ag21
aS'12:30 PM'
p994
aI12
aI30
aI14
aI20
aNaNaNaNaNaNaNag14
aa(lp995
S'CHM116'
p996
aI73788
aI0
aI24
ag21
aS' 2:30 PM'
p997
aI14
aI30
aI16
aI20
aNaNaNaNaNaNaNag5
aa(lp998
S'CHM116'
p999
aI73789
aI16
aI24
ag21
aS' 4:30 PM'
p1000
aI16
aI30
aI18
aI20
aNaNaNaNaNaNaNag14
aa(lp1001
S'CHM116'
p1002
aI74840
aI59
aI72
ag21
aS' 8:30 AM'
p1003
aI8
aI30
aI9
aI20
aNaNaNaNaNaNaNag14
aa(lp1004
S'CHM116'
p1005
aI74841
aI13
aI72
ag21
aS' 9:30 AM'
p1006
aI9
aI30
aI10
aI20
aNaNaNaNaNaNaNag14
aa(lp1007
S'CHM116'
p1008
aI74842
aI0
aI72
ag21
aS'12:30 PM'
p1009
aI12
aI30
aI13
aI20
aNaNaNaNaNaNaNag5
aa(lp1010
S'CHM116'
p1011
aI74846
aI46
aI72
ag96
aS' 9:30 AM'
p1012
aI9
aI30
aI10
aI20
aNaNaNaNaNaNaNag14
aa(lp1013
S'CHM116'
p1014
aI74847
aI43
aI72
ag96
aS'12:30 PM'
p1015
aI12
aI30
aI13
aI20
aNaNaNaNaNaNaNag14
aa(lp1016
S'CHM116'
p1017
aI74869
aI0
aI72
ag21
aS' 1:30 PM'
p1018
aI13
aI30
aI14
aI20
aNaNaNaNaNaNaNag5
aa(lp1019
S'CHM116'
p1020
aI74870
aI22
aI72
aS'Th'
p1021
aS' 8:30 AM'
p1022
aI8
aI30
aI9
aI20
aNaNaNaNaNaNaNag14
aa(lp1023
S'CHM116'
p1024
aI75006
aI0
aI24
ag21
aS' 2:30 PM'
p1025
aI14
aI30
aI16
aI20
aNaNaNaNaNaNaNag5
aa(lp1026
S'CHM116'
p1027
aI73356
aI47
aI72
aS'T Th'
p1028
aS' 1:30 PM'
p1029
aI13
aI30
aI14
aI45
aNaNaNaNaNaNaNag14
aa(lp1030
S'CHM116'
p1031
aI74647
aI4
aI24
ag96
aS' 9:30 AM'
p1032
aI9
aI30
aI12
aI15
aNaNaNaNaNaNaNag14
aa(lp1033
S'CHM116'
p1034
aI76755
aI19
aI24
ag96
aS' 1:00 PM'
p1035
aI13
aI0
aI15
aI45
aNaNaNaNaNaNaNag14
aa(lp1036
S'CHM116'
p1037
aI81414
aI42
aI96
aS'M W F'
p1038
aS' 1:30 PM'
p1039
aI13
aI30
aI14
aI20
aNaNaNaNaNaNaNag14
aa(lp1040
S'CHM116'
p1041
aI81415
aI0
aI24
ag100
aS'10:00 AM'
p1042
aI10
aI0
aI11
aI50
aNaNaNaNaNaNaNag5
aa(lp1043
S'CHM116'
p1044
aI81416
aI16
aI24
ag100
aS' 3:00 PM'
p1045
aI15
aI0
aI16
aI50
aNaNaNaNaNaNaNag14
aa(lp1046
S'CHM116'
p1047
aI81417
aI14
aI24
ag21
aS' 9:00 AM'
p1048
aI9
aI0
aI10
aI50
aNaNaNaNaNaNaNag14
aa(lp1049
S'CHM116'
p1050
aI81418
aI12
aI24
aS'Th'
p1051
aS' 1:00 PM'
p1052
aI13
aI0
aI14
aI50
aNaNaNaNaNaNaNag14
aa(lp1053
S'CHM116'
p1054
aI89181
aI14
aI48
ag100
aS' 9:00 AM'
p1055
aI9
aI0
aI9
aI50
aNaNaNaNaNaNaNag14
aa(lp1056
S'CHM116'
p1057
aI89183
aI28
aI48
aS'Th'
p1058
aS'12:00 PM'
p1059
aI12
aI0
aI12
aI50
aNaNaNaNaNaNaNag14
aa(lp1060
S'CHM116'
p1061
aI74556
aI27
aI120
aS'T Th'
p1062
aS'10:30 AM'
p1063
aI10
aI30
aI11
aI45
aNaNaNaNaNaNaNag5
aa(lp1064
S'CHM116'
p1065
aI74580
aI21
aI60
ag21
aS'10:30 AM'
p1066
aI10
aI30
aI11
aI45
aNaNaNaNaNaNaNag14
aa(lp1067
S'CHM116'
p1068
aI74581
aI6
aI60
aS'Th'
p1069
aS' 9:00 AM'
p1070
aI9
aI0
aI10
aI15
aNaNaNaNaNaNaNag14
aa(lp1071
S'CHM116'
p1072
aI74582
aI0
aI24
ag21
aS' 4:30 PM'
p1073
aI16
aI30
aI18
aI20
aNaNaNaNaNaNaNag5
aa(lp1074
S'CHM116'
p1075
aI74583
aI1
aI24
ag21
aS' 6:30 PM'
p1076
aI18
aI30
aI20
aI20
aNaNaNaNaNaNaNag14
aa(lp1077
S'CHM116'
p1078
aI76105
aI0
aI24
ag96
aS' 8:30 AM'
p1079
aI8
aI30
aI10
aI20
aNaNaNaNaNaNaNag5
aa(lp1080
S'CHM116'
p1081
aI77016
aI6
aI24
ag96
aS'10:30 AM'
p1082
aI10
aI30
aI12
aI20
aNaNaNaNaNaNaNag14
aa(lp1083
S'CHM116'
p1084
aI80533
aI20
aI24
ag96
aS'12:30 PM'
p1085
aI12
aI30
aI14
aI20
aNaNaNaNaNaNaNag14
aa(lp1086
S'CHM117'
p1087
aI87889
aI122
aI140
aS'M W F'
p1088
aS'10:30 AM'
p1089
aI10
aI30
aI11
aI20
aNaNaNaNaNaNaNag5
aa(lp1090
S'CHM117'
p1091
aI75007
aI32
aI45
ag100
aS'11:30 AM'
p1092
aI11
aI30
aI12
aI20
aNaNaNaNaNaNaNag5
aa(lp1093
S'CHM117'
p1094
aI75009
aI42
aI47
ag21
aS' 1:30 PM'
p1095
aI13
aI30
aI14
aI20
aNaNaNaNaNaNaNag5
aa(lp1096
S'CHM117'
p1097
aI87890
aI48
aI48
aS'Th'
p1098
aS' 9:30 AM'
p1099
aI9
aI30
aI10
aI20
aNaNaNaNaNaNaNag5
aa(lp1100
S'CHM191'
p1101
aI73845
aI19
aI19
ag100
aS' 1:30 PM'
p1102
aI13
aI30
aI14
aI20
aNaNaNaNaNaNaNag5
aa(lp1103
S'CHM191'
p1104
aI73846
aI19
aI19
ag100
aS' 3:00 PM'
p1105
aI15
aI0
aI15
aI50
aNaNaNaNaNaNaNag5
aa(lp1106
S'CHM191'
p1107
aI73847
aI18
aI19
aS'Th'
p1108
aS'12:00 PM'
p1109
aI12
aI0
aI12
aI50
aNaNaNaNaNaNaNag5
aa(lp1110
S'CHM191'
p1111
aI73848
aI19
aI19
ag67
aS'12:00 PM'
p1112
aI12
aI0
aI12
aI50
aNaNaNaNaNaNaNag5
aa(lp1113
S'CHM191'
p1114
aI73849
aI16
aI19
ag21
aS'10:30 AM'
p1115
aI10
aI30
aI11
aI20
aNaNaNaNaNaNaNag5
aa(lp1116
S'CHM191'
p1117
aI73850
aI19
aI19
ag21
aS'12:00 PM'
p1118
aI12
aI0
aI12
aI50
aNaNaNaNaNaNaNag14
aa(lp1119
S'CHM191'
p1120
aI73851
aI18
aI19
ag21
aS' 1:30 PM'
p1121
aI13
aI30
aI14
aI20
aNaNaNaNaNaNaNag5
aa(lp1122
S'CHM191'
p1123
aI73852
aI18
aI19
aS'Th'
p1124
aS'10:30 AM'
p1125
aI10
aI30
aI11
aI20
aNaNaNaNaNaNaNag5
aa(lp1126
S'CHM191'
p1127
aI73853
aI19
aI19
aS'Th'
p1128
aS'12:00 PM'
p1129
aI12
aI0
aI12
aI50
aNaNaNaNaNaNaNag5
aa(lp1130
S'CHM191'
p1131
aI73854
aI19
aI19
ag67
aS' 1:30 PM'
p1132
aI13
aI30
aI14
aI20
aNaNaNaNaNaNaNag5
aa(lp1133
S'CHM191'
p1134
aI74817
aI19
aI19
ag67
aS'10:30 AM'
p1135
aI10
aI30
aI11
aI20
aNaNaNaNaNaNaNag5
aa(lp1136
S'CHM191'
p1137
aI74818
aI18
aI19
ag67
aS'12:00 PM'
p1138
aI12
aI0
aI12
aI50
aNaNaNaNaNaNaNag5
aa(lp1139
S'CHM191'
p1140
aI74819
aI19
aI19
ag21
aS' 1:30 PM'
p1141
aI13
aI30
aI14
aI20
aNaNaNaNaNaNaNag5
aa(lp1142
S'CHM191'
p1143
aI74820
aI18
aI19
aS'Th'
p1144
aS'10:30 AM'
p1145
aI10
aI30
aI11
aI20
aNaNaNaNaNaNaNag5
aa(lp1146
S'CHM191'
p1147
aI74821
aI19
aI19
ag100
aS' 1:30 PM'
p1148
aI13
aI30
aI14
aI20
aNaNaNaNaNaNaNag5
aa(lp1149
S'CHM191'
p1150
aI83969
aI18
aI19
ag100
aS'10:30 AM'
p1151
aI10
aI30
aI11
aI20
aNaNaNaNaNaNaNag5
aa(lp1152
S'CHM191'
p1153
aI84672
aI15
aI19
ag100
aS'10:30 AM'
p1154
aI10
aI30
aI11
aI20
aNaNaNaNaNaNaNag14
aa(lp1155
S'CHM191'
p1156
aI84722
aI11
aI19
aS'Th'
p1157
aS'12:00 PM'
p1158
aI12
aI0
aI12
aI50
aNaNaNaNaNaNaNag5
aa(lp1159
S'CHM194'
p1160
aI83145
aI25
aI25
ag62
aNaNaNaNaNaNaNaNaNaNaNaNag5
aa(lp1161
S'CHM231'
p1162
aI70723
aI68
aI164
aS'M W F'
p1163
aS'10:30 AM'
p1164
aI10
aI30
aI11
aI20
aNaNaNaNaNaNaNag14
aa(lp1165
S'CHM231'
p1166
aI81496
aI2
aI40
aS'M W F'
p1167
aS' 9:00 AM'
p1168
aI9
aI0
aI9
aI50
aNaNaNaNaNaNaNag14
aa(lp1169
S'CHM231'
p1170
aI74584
aI47
aI100
aS'T Th'
p1171
aS' 1:30 PM'
p1172
aI13
aI30
aI14
aI45
aNaNaNaNaNaNaNag5
aa(lp1173
S'CHM233'
p1174
aI70724
aI0
aI386
aS'M W F'
p1175
aS' 7:30 AM'
p1176
aI7
aI30
aI8
aI20
aNaNaNaNaNaNaNag5
aa(lp1177
S'CHM233'
p1178
aI70725
aI119
aI384
aS'T Th'
p1179
aS' 6:00 PM'
p1180
aI18
aI0
aI19
aI15
aNaNaNaNaNaNaNag14
aa(lp1181
S'CHM233'
p1182
aI76111
aI0
aI170
ag62
aNaNaNaNaNag100
aNaNaNaNaNaNag5
aa(lp1183
S'CHM233'
p1184
aI72669
aI64
aI144
aS'T Th'
p1185
aS' 9:00 AM'
p1186
aI9
aI0
aI10
aI15
aNaNaNaNaNaNaNag14
aa(lp1187
S'CHM233'
p1188
aI81497
aI22
aI72
aS'M W F'
p1189
aS'10:30 AM'
p1190
aI10
aI30
aI11
aI20
aNaNaNaNaNaNaNag14
aa(lp1191
S'CHM233'
p1192
aI75920
aI46
aI134
aS'T Th'
p1193
aS' 9:00 AM'
p1194
aI9
aI0
aI10
aI15
aNaNaNaNaNaNaNag5
aa(lp1195
S'CHM234'
p1196
aI70726
aI172
aI300
aS'M W F'
p1197
aS' 1:30 PM'
p1198
aI13
aI30
aI14
aI20
aNaNaNaNaNaNaNag14
aa(lp1199
S'CHM234'
p1200
aI76112
aI52
aI158
ag62
aNaNaNaNaNag96
aNaNaNaNaNaNag14
aa(lp1201
S'CHM234'
p1202
aI74100
aI38
aI60
aS'T Th'
p1203
aS' 1:30 PM'
p1204
aI13
aI30
aI14
aI45
aNaNaNaNaNaNaNag14
aa(lp1205
S'CHM234'
p1206
aI81498
aI26
aI72
aS'T Th'
p1207
aS' 1:30 PM'
p1208
aI13
aI30
aI14
aI45
aNaNaNaNaNaNaNag14
aa(lp1209
S'CHM234'
p1210
aI77017
aI57
aI100
aS'M W'
p1211
aS'10:30 AM'
p1212
aI10
aI30
aI11
aI45
aNaNaNaNaNaNaNag5
aa(lp1213
S'CHM235'
p1214
aI76113
aI1
aI48
ag96
aS' 9:30 AM'
p1215
aI9
aI30
aI10
aI20
aNaNaNaNaNaNaNag14
aa(lp1216
S'CHM235'
p1217
aI76118
aI8
aI48
ag96
aS'11:30 AM'
p1218
aI11
aI30
aI12
aI20
aNaNaNaNaNaNaNag14
aa(lp1219
S'CHM235'
p1220
aI76119
aI33
aI48
ag96
aS'12:30 PM'
p1221
aI12
aI30
aI13
aI20
aNaNaNaNaNaNaNag14
aa(lp1222
S'CHM235'
p1223
aI76114
aI0
aI24
ag100
aS'11:30 AM'
p1224
aI11
aI30
aI14
aI20
aNaNaNaNaNaNaNag5
aa(lp1225
S'CHM235'
p1226
aI76115
aI1
aI24
ag100
aS' 2:30 PM'
p1227
aI14
aI30
aI17
aI20
aNaNaNaNaNaNaNag14
aa(lp1228
S'CHM235'
p1229
aI76116
aI0
aI24
ag100
aS'11:30 AM'
p1230
aI11
aI30
aI14
aI20
aNaNaNaNaNaNaNag5
aa(lp1231
S'CHM235'
p1232
aI76120
aI0
aI24
ag100
aS'11:30 AM'
p1233
aI11
aI30
aI14
aI20
aNaNaNaNaNaNaNag5
aa(lp1234
S'CHM235'
p1235
aI77790
aI17
aI24
ag100
aS' 2:30 PM'
p1236
aI14
aI30
aI17
aI20
aNaNaNaNaNaNaNag14
aa(lp1237
S'CHM235'
p1238
aI85676
aI0
aI20
ag67
aS'12:00 PM'
p1239
aI12
aI0
aI12
aI50
aNaNaNaNaNaNaNag5
aa(lp1240
S'CHM235'
p1241
aI85677
aI0
aI20
ag67
aS' 1:00 PM'
p1242
aI13
aI0
aI15
aI30
aNaNaNaNaNaNaNag5
aa(lp1243
S'CHM235'
p1244
aI74586
aI44
aI80
ag96
aS' 1:30 PM'
p1245
aI13
aI30
aI14
aI45
aNaNaNaNaNaNaNag5
aa(lp1246
S'CHM235'
p1247
aI74587
aI2
aI20
ag100
aS' 9:00 AM'
p1248
aI9
aI0
aI11
aI0
aNaNaNaNaNaNaNag14
aa(lp1249
S'CHM235'
p1250
aI74589
aI11
aI20
ag100
aS'11:15 AM'
p1251
aI11
aI15
aI13
aI15
aNaNaNaNaNaNaNag14
aa(lp1252
S'CHM235'
p1253
aI77018
aI11
aI20
ag100
aS' 1:30 PM'
p1254
aI13
aI30
aI15
aI30
aNaNaNaNaNaNaNag14
aa(lp1255
S'CHM237'
p1256
aI76123
aI0
aI48
ag100
aS' 9:30 AM'
p1257
aI9
aI30
aI10
aI20
aNaNaNaNaNaNaNag5
aa(lp1258
S'CHM237'
p1259
aI76126
aI0
aI48
ag100
aS'12:30 PM'
p1260
aI12
aI30
aI13
aI20
aNaNaNaNaNaNaNag5
aa(lp1261
S'CHM237'
p1262
aI76131
aI0
aI48
ag100
aS' 1:30 PM'
p1263
aI13
aI30
aI14
aI20
aNaNaNaNaNaNaNag5
aa(lp1264
S'CHM237'
p1265
aI76134
aI0
aI48
ag100
aS' 2:30 PM'
p1266
aI14
aI30
aI15
aI20
aNaNaNaNaNaNaNag5
aa(lp1267
S'CHM237'
p1268
aI76137
aI0
aI48
ag100
aS' 3:30 PM'
p1269
aI15
aI30
aI16
aI20
aNaNaNaNaNaNaNag5
aa(lp1270
S'CHM237'
p1271
aI76141
aI2
aI48
ag100
aS' 4:30 PM'
p1272
aI16
aI30
aI17
aI20
aNaNaNaNaNaNaNag14
aa(lp1273
S'CHM237'
p1274
aI76144
aI24
aI48
ag100
aS' 5:30 PM'
p1275
aI17
aI30
aI18
aI20
aNaNaNaNaNaNaNag14
aa(lp1276
S'CHM237'
p1277
aI76150
aI5
aI48
ag67
aS' 8:30 AM'
p1278
aI8
aI30
aI9
aI20
aNaNaNaNaNaNaNag14
aa(lp1279
S'CHM237'
p1280
aI76156
aI0
aI48
ag67
aS' 9:30 AM'
p1281
aI9
aI30
aI10
aI20
aNaNaNaNaNaNaNag5
aa(lp1282
S'CHM237'
p1283
aI76160
aI0
aI48
ag67
aS'10:30 AM'
p1284
aI10
aI30
aI11
aI20
aNaNaNaNaNaNaNag5
aa(lp1285
S'CHM237'
p1286
aI76178
aI0
aI48
ag67
aS'11:30 AM'
p1287
aI11
aI30
aI12
aI20
aNaNaNaNaNaNaNag5
aa(lp1288
S'CHM237'
p1289
aI76181
aI0
aI48
ag67
aS'12:30 PM'
p1290
aI12
aI30
aI13
aI20
aNaNaNaNaNaNaNag5
aa(lp1291
S'CHM237'
p1292
aI76184
aI1
aI48
ag67
aS' 1:30 PM'
p1293
aI13
aI30
aI14
aI20
aNaNaNaNaNaNaNag14
aa(lp1294
S'CHM237'
p1295
aI76187
aI1
aI48
ag67
aS' 2:30 PM'
p1296
aI14
aI30
aI15
aI20
aNaNaNaNaNaNaNag14
aa(lp1297
S'CHM237'
p1298
aI76217
aI1
aI48
ag67
aS' 3:30 PM'
p1299
aI15
aI30
aI16
aI20
aNaNaNaNaNaNaNag14
aa(lp1300
S'CHM237'
p1301
aI82900
aI1
aI48
ag67
aS' 4:30 PM'
p1302
aI16
aI30
aI17
aI20
aNaNaNaNaNaNaNag14
aa(lp1303
S'CHM237'
p1304
aI82901
aI29
aI48
ag67
aS' 5:30 PM'
p1305
aI17
aI30
aI18
aI20
aNaNaNaNaNaNaNag14
aa(lp1306
S'CHM237'
p1307
aI76121
aI0
aI24
ag21
aS' 8:30 AM'
p1308
aI8
aI30
aI11
aI20
aNaNaNaNaNaNaNag5
aa(lp1309
S'CHM237'
p1310
aI76122
aI0
aI24
ag21
aS' 8:30 AM'
p1311
aI8
aI30
aI11
aI20
aNaNaNaNaNaNaNag5
aa(lp1312
S'CHM237'
p1313
aI76124
aI0
aI24
ag21
aS' 8:30 AM'
p1314
aI8
aI30
aI11
aI20
aNaNaNaNaNaNaNag5
aa(lp1315
S'CHM237'
p1316
aI76125
aI0
aI24
ag21
aS' 8:30 AM'
p1317
aI8
aI30
aI11
aI20
aNaNaNaNaNaNaNag5
aa(lp1318
S'CHM237'
p1319
aI76127
aI0
aI24
ag21
aS' 8:30 AM'
p1320
aI8
aI30
aI11
aI20
aNaNaNaNaNaNaNag5
aa(lp1321
S'CHM237'
p1322
aI76128
aI0
aI24
ag21
aS'12:00 PM'
p1323
aI12
aI0
aI14
aI50
aNaNaNaNaNaNaNag5
aa(lp1324
S'CHM237'
p1325
aI76129
aI0
aI24
ag21
aS'12:00 PM'
p1326
aI12
aI0
aI14
aI50
aNaNaNaNaNaNaNag5
aa(lp1327
S'CHM237'
p1328
aI76130
aI0
aI24
ag21
aS'12:00 PM'
p1329
aI12
aI0
aI14
aI50
aNaNaNaNaNaNaNag5
aa(lp1330
S'CHM237'
p1331
aI76132
aI0
aI24
ag21
aS'12:00 PM'
p1332
aI12
aI0
aI14
aI50
aNaNaNaNaNaNaNag5
aa(lp1333
S'CHM237'
p1334
aI76133
aI0
aI24
ag21
aS' 3:30 PM'
p1335
aI15
aI30
aI18
aI20
aNaNaNaNaNaNaNag5
aa(lp1336
S'CHM237'
p1337
aI76135
aI0
aI24
ag21
aS' 3:30 PM'
p1338
aI15
aI30
aI18
aI20
aNaNaNaNaNaNaNag5
aa(lp1339
S'CHM237'
p1340
aI76136
aI0
aI24
ag21
aS' 3:30 PM'
p1341
aI15
aI30
aI18
aI20
aNaNaNaNaNaNaNag5
aa(lp1342
S'CHM237'
p1343
aI76139
aI0
aI24
ag21
aS' 3:30 PM'
p1344
aI15
aI30
aI18
aI20
aNaNaNaNaNaNaNag5
aa(lp1345
S'CHM237'
p1346
aI76142
aI0
aI24
aS'Th'
p1347
aS' 8:30 AM'
p1348
aI8
aI30
aI11
aI20
aNaNaNaNaNaNaNag5
aa(lp1349
S'CHM237'
p1350
aI76143
aI0
aI24
aS'Th'
p1351
aS'12:00 PM'
p1352
aI12
aI0
aI14
aI50
aNaNaNaNaNaNaNag5
aa(lp1353
S'CHM237'
p1354
aI76145
aI0
aI24
aS'Th'
p1355
aS' 3:30 PM'
p1356
aI15
aI30
aI18
aI20
aNaNaNaNaNaNaNag5
aa(lp1357
S'CHM237'
p1358
aI76146
aI0
aI24
aS'Th'
p1359
aS' 8:30 AM'
p1360
aI8
aI30
aI11
aI20
aNaNaNaNaNaNaNag5
aa(lp1361
S'CHM237'
p1362
aI76148
aI0
aI24
aS'Th'
p1363
aS'12:00 PM'
p1364
aI12
aI0
aI14
aI50
aNaNaNaNaNaNaNag5
aa(lp1365
S'CHM237'
p1366
aI76149
aI1
aI24
aS'Th'
p1367
aS' 3:30 PM'
p1368
aI15
aI30
aI18
aI20
aNaNaNaNaNaNaNag14
aa(lp1369
S'CHM237'
p1370
aI76151
aI0
aI24
aS'Th'
p1371
aS' 8:30 AM'
p1372
aI8
aI30
aI11
aI20
aNaNaNaNaNaNaNag5
aa(lp1373
S'CHM237'
p1374
aI76152
aI0
aI24
aS'Th'
p1375
aS'12:00 PM'
p1376
aI12
aI0
aI14
aI50
aNaNaNaNaNaNaNag5
aa(lp1377
S'CHM237'
p1378
aI76157
aI7
aI24
aS'Th'
p1379
aS' 3:30 PM'
p1380
aI15
aI30
aI18
aI20
aNaNaNaNaNaNaNag14
aa(lp1381
S'CHM237'
p1382
aI76158
aI0
aI24
aS'Th'
p1383
aS' 8:30 AM'
p1384
aI8
aI30
aI11
aI20
aNaNaNaNaNaNaNag5
aa(lp1385
S'CHM237'
p1386
aI76176
aI0
aI24
aS'Th'
p1387
aS'12:00 PM'
p1388
aI12
aI0
aI14
aI50
aNaNaNaNaNaNaNag5
aa(lp1389
S'CHM237'
p1390
aI76177
aI18
aI24
aS'Th'
p1391
aS' 3:30 PM'
p1392
aI15
aI30
aI18
aI20
aNaNaNaNaNaNaNag14
aa(lp1393
S'CHM237'
p1394
aI76179
aI0
aI24
aS'Th'
p1395
aS' 8:30 AM'
p1396
aI8
aI30
aI11
aI20
aNaNaNaNaNaNaNag5
aa(lp1397
S'CHM237'
p1398
aI76180
aI0
aI24
aS'Th'
p1399
aS'12:00 PM'
p1400
aI12
aI0
aI14
aI50
aNaNaNaNaNaNaNag5
aa(lp1401
S'CHM237'
p1402
aI76182
aI14
aI24
aS'Th'
p1403
aS' 3:30 PM'
p1404
aI15
aI30
aI18
aI20
aNaNaNaNaNaNaNag14
aa(lp1405
S'CHM237'
p1406
aI76183
aI0
aI24
ag96
aS' 8:30 AM'
p1407
aI8
aI30
aI11
aI20
aNaNaNaNaNaNaNag5
aa(lp1408
S'CHM237'
p1409
aI76185
aI0
aI24
ag96
aS' 8:30 AM'
p1410
aI8
aI30
aI11
aI20
aNaNaNaNaNaNaNag5
aa(lp1411
S'CHM237'
p1412
aI76186
aI0
aI24
ag96
aS' 8:30 AM'
p1413
aI8
aI30
aI11
aI20
aNaNaNaNaNaNaNag5
aa(lp1414
S'CHM237'
p1415
aI76188
aI0
aI24
ag96
aS' 8:30 AM'
p1416
aI8
aI30
aI11
aI20
aNaNaNaNaNaNaNag5
aa(lp1417
S'CHM237'
p1418
aI76189
aI0
aI24
ag96
aS' 8:30 AM'
p1419
aI8
aI30
aI11
aI20
aNaNaNaNaNaNaNag5
aa(lp1420
S'CHM237'
p1421
aI72670
aI3
aI24
ag67
aS'10:30 AM'
p1422
aI10
aI30
aI14
aI0
aNaNaNaNaNaNaNag14
aa(lp1423
S'CHM237'
p1424
aI72671
aI0
aI24
ag67
aS' 2:30 PM'
p1425
aI14
aI30
aI18
aI0
aNaNaNaNaNaNaNag5
aa(lp1426
S'CHM237'
p1427
aI72672
aI9
aI24
ag21
aS' 9:30 AM'
p1428
aI9
aI30
aI13
aI0
aNaNaNaNaNaNaNag14
aa(lp1429
S'CHM237'
p1430
aI72673
aI14
aI24
ag21
aS' 1:30 PM'
p1431
aI13
aI30
aI17
aI0
aNaNaNaNaNaNaNag14
aa(lp1432
S'CHM237'
p1433
aI74261
aI22
aI24
ag100
aS' 4:00 PM'
p1434
aI16
aI0
aI19
aI30
aNaNaNaNaNaNaNag14
aa(lp1435
S'CHM237'
p1436
aI86233
aI22
aI24
ag21
aS' 5:30 PM'
p1437
aI17
aI30
aI21
aI0
aNaNaNaNaNaNaNag14
aa(lp1438
S'CHM237'
p1439
aI89185
aI16
aI60
ag67
aS' 9:00 AM'
p1440
aI9
aI0
aI9
aI50
aNaNaNaNaNaNaNag14
aa(lp1441
S'CHM237'
p1442
aI81499
aI0
aI20
ag67
aS'10:00 AM'
p1443
aI10
aI0
aI12
aI30
aNaNaNaNaNaNaNag5
aa(lp1444
S'CHM237'
p1445
aI81500
aI4
aI20
aS'Th'
p1446
aS'10:00 AM'
p1447
aI10
aI0
aI12
aI30
aNaNaNaNaNaNaNag14
aa(lp1448
S'CHM237'
p1449
aI81501
aI12
aI20
aS'Th'
p1450
aS' 3:00 PM'
p1451
aI15
aI0
aI17
aI30
aNaNaNaNaNaNaNag14
aa(lp1452
S'CHM237'
p1453
aI75902
aI55
aI140
ag96
aS'12:00 PM'
p1454
aI12
aI0
aI13
aI15
aNaNaNaNaNaNaNag5
aa(lp1455
S'CHM237'
p1456
aI76108
aI0
aI20
ag100
aS'10:30 AM'
p1457
aI10
aI30
aI13
aI20
aNaNaNaNaNaNaNag5
aa(lp1458
S'CHM237'
p1459
aI76109
aI2
aI20
ag100
aS' 1:30 PM'
p1460
aI13
aI30
aI16
aI20
aNaNaNaNaNaNaNag14
aa(lp1461
S'CHM237'
p1462
aI76110
aI5
aI20
ag100
aS' 4:30 PM'
p1463
aI16
aI30
aI19
aI20
aNaNaNaNaNaNaNag14
aa(lp1464
S'CHM237'
p1465
aI78005
aI1
aI20
ag67
aS' 1:30 PM'
p1466
aI13
aI30
aI16
aI20
aNaNaNaNaNaNaNag14
aa(lp1467
S'CHM237'
p1468
aI78875
aI11
aI20
ag67
aS' 4:30 PM'
p1469
aI16
aI30
aI19
aI20
aNaNaNaNaNaNaNag14
aa(lp1470
S'CHM237'
p1471
aI80535
aI16
aI20
ag21
aS' 7:30 AM'
p1472
aI7
aI30
aI10
aI20
aNaNaNaNaNaNaNag14
aa(lp1473
S'CHM238'
p1474
aI70727
aI0
aI48
aS'Th'
p1475
aS'10:30 AM'
p1476
aI10
aI30
aI11
aI20
aNaNaNaNaNaNaNag5
aa(lp1477
S'CHM238'
p1478
aI76195
aI24
aI48
aS'Th'
p1479
aS'11:30 AM'
p1480
aI11
aI30
aI12
aI20
aNaNaNaNaNaNaNag14
aa(lp1481
S'CHM238'
p1482
aI76198
aI9
aI48
aS'Th'
p1483
aS'12:30 PM'
p1484
aI12
aI30
aI13
aI20
aNaNaNaNaNaNaNag14
aa(lp1485
S'CHM238'
p1486
aI76201
aI10
aI48
aS'Th'
p1487
aS' 1:30 PM'
p1488
aI13
aI30
aI14
aI20
aNaNaNaNaNaNaNag14
aa(lp1489
S'CHM238'
p1490
aI76204
aI39
aI48
aS'Th'
p1491
aS' 2:30 PM'
p1492
aI14
aI30
aI15
aI20
aNaNaNaNaNaNaNag14
aa(lp1493
S'CHM238'
p1494
aI76207
aI27
aI48
aS'Th'
p1495
aS' 3:30 PM'
p1496
aI15
aI30
aI16
aI20
aNaNaNaNaNaNaNag14
aa(lp1497
S'CHM238'
p1498
aI76190
aI0
aI24
ag67
aS' 8:30 AM'
p1499
aI8
aI30
aI11
aI20
aNaNaNaNaNaNaNag5
aa(lp1500
S'CHM238'
p1501
aI76191
aI0
aI24
ag67
aS'12:00 PM'
p1502
aI12
aI0
aI14
aI50
aNaNaNaNaNaNaNag5
aa(lp1503
S'CHM238'
p1504
aI76196
aI0
aI24
ag67
aS' 3:30 PM'
p1505
aI15
aI30
aI18
aI20
aNaNaNaNaNaNaNag5
aa(lp1506
S'CHM238'
p1507
aI76197
aI14
aI24
ag67
aS' 8:30 AM'
p1508
aI8
aI30
aI11
aI20
aNaNaNaNaNaNaNag14
aa(lp1509
S'CHM238'
p1510
aI76199
aI0
aI24
ag67
aS'12:00 PM'
p1511
aI12
aI0
aI14
aI50
aNaNaNaNaNaNaNag5
aa(lp1512
S'CHM238'
p1513
aI76200
aI12
aI24
ag67
aS' 3:30 PM'
p1514
aI15
aI30
aI18
aI20
aNaNaNaNaNaNaNag14
aa(lp1515
S'CHM238'
p1516
aI76203
aI0
aI24
ag67
aS'12:00 PM'
p1517
aI12
aI0
aI14
aI50
aNaNaNaNaNaNaNag5
aa(lp1518
S'CHM238'
p1519
aI76205
aI12
aI24
ag67
aS' 3:30 PM'
p1520
aI15
aI30
aI18
aI20
aNaNaNaNaNaNaNag14
aa(lp1521
S'CHM238'
p1522
aI76206
aI13
aI24
ag67
aS' 8:30 AM'
p1523
aI8
aI30
aI11
aI20
aNaNaNaNaNaNaNag14
aa(lp1524
S'CHM238'
p1525
aI76209
aI15
aI24
ag67
aS'12:00 PM'
p1526
aI12
aI0
aI14
aI50
aNaNaNaNaNaNaNag14
aa(lp1527
S'CHM238'
p1528
aI76210
aI20
aI24
ag67
aS' 3:30 PM'
p1529
aI15
aI30
aI18
aI20
aNaNaNaNaNaNaNag14
aa(lp1530
S'CHM238'
p1531
aI76427
aI23
aI24
ag67
aS' 8:30 AM'
p1532
aI8
aI30
aI11
aI20
aNaNaNaNaNaNaNag14
aa(lp1533
S'CHM238'
p1534
aI73936
aI4
aI24
ag100
aS'10:30 AM'
p1535
aI10
aI30
aI14
aI0
aNaNaNaNaNaNaNag14
aa(lp1536
S'CHM238'
p1537
aI89186
aI24
aI60
aS'Th'
p1538
aS' 9:00 AM'
p1539
aI9
aI0
aI9
aI50
aNaNaNaNaNaNaNag14
aa(lp1540
S'CHM238'
p1541
aI81502
aI0
aI20
ag21
aS' 9:00 AM'
p1542
aI9
aI0
aI11
aI20
aNaNaNaNaNaNaNag5
aa(lp1543
S'CHM238'
p1544
aI83553
aI15
aI20
ag21
aS' 1:30 PM'
p1545
aI13
aI30
aI16
aI0
aNaNaNaNaNaNaNag14
aa(lp1546
S'CHM238'
p1547
aI84683
aI9
aI20
ag100
aS'12:00 PM'
p1548
aI12
aI0
aI14
aI30
aNaNaNaNaNaNaNag14
aa(lp1549
S'CHM238'
p1550
aI77019
aI38
aI80
ag96
aS'10:30 AM'
p1551
aI10
aI30
aI11
aI45
aNaNaNaNaNaNaNag5
aa(lp1552
S'CHM238'
p1553
aI77020
aI8
aI20
ag67
aS' 7:30 AM'
p1554
aI7
aI30
aI10
aI20
aNaNaNaNaNaNaNag14
aa(lp1555
S'CHM238'
p1556
aI77021
aI5
aI20
ag67
aS'10:30 AM'
p1557
aI10
aI30
aI13
aI20
aNaNaNaNaNaNaNag14
aa(lp1558
S'CHM238'
p1559
aI80375
aI9
aI20
aS'Th'
p1560
aS' 1:30 PM'
p1561
aI13
aI30
aI16
aI20
aNaNaNaNaNaNaNag14
aa(lp1562
S'CHM238'
p1563
aI87120
aI16
aI20
aS'Th'
p1564
aS' 4:30 PM'
p1565
aI16
aI30
aI19
aI20
aNaNaNaNaNaNaNag14
aa(lp1566
S'CHM302'
p1567
aI70728
aI0
aI175
aS'M W F'
p1568
aS' 9:00 AM'
p1569
aI9
aI0
aI9
aI50
aNaNaNaNaNaNaNag5
aa(lp1570
S'CHM325'
p1571
aI70729
aI57
aI180
aS'M W F'
p1572
aS'10:30 AM'
p1573
aI10
aI30
aI11
aI20
aNaNaNaNaNaNaNag14
aa(lp1574
S'CHM326'
p1575
aI72734
aI7
aI48
aS'Th'
p1576
aS'12:00 PM'
p1577
aI12
aI0
aI12
aI50
aNaNaNaNaNaNaNag14
aa(lp1578
S'CHM326'
p1579
aI72869
aI13
aI16
ag67
aS' 8:40 AM'
p1580
aI8
aI40
aI11
aI10
aNaNaNaNaNaNaNag14
aa(lp1581
S'CHM326'
p1582
aI72870
aI6
aI16
ag67
aS' 1:40 PM'
p1583
aI13
aI40
aI16
aI10
aNaNaNaNaNaNaNag14
aa(lp1584
S'CHM326'
p1585
aI72871
aI4
aI16
aS'Th'
p1586
aS' 8:40 AM'
p1587
aI8
aI40
aI11
aI10
aNaNaNaNaNaNaNag14
aa(lp1588
S'CHM326'
p1589
aI78021
aI0
aI16
aS'Th'
p1590
aS' 1:40 PM'
p1591
aI13
aI40
aI16
aI10
aNaNaNaNaNaNaNag5
aa(lp1592
S'CHM341'
p1593
aI70730
aI96
aI350
aS'T Th'
p1594
aS' 4:30 PM'
p1595
aI16
aI30
aI17
aI45
aNaNaNaNaNaNaNag14
aa(lp1596
S'CHM343'
p1597
aI70731
aI25
aI96
ag100
aS' 7:30 AM'
p1598
aI7
aI30
aI8
aI20
aNaNaNaNaNaNaNag14
aa(lp1599
S'CHM343'
p1600
aI70732
aI6
aI16
aS'Th'
p1601
aS' 8:30 AM'
p1602
aI8
aI30
aI11
aI30
aNaNaNaNaNaNaNag14
aa(lp1603
S'CHM343'
p1604
aI72875
aI0
aI16
ag67
aS' 6:00 PM'
p1605
aI18
aI0
aI21
aI0
aNaNaNaNaNaNaNag5
aa(lp1606
S'CHM343'
p1607
aI72876
aI2
aI16
ag21
aS' 2:30 PM'
p1608
aI14
aI30
aI17
aI30
aNaNaNaNaNaNaNag14
aa(lp1609
S'CHM343'
p1610
aI72935
aI0
aI16
ag21
aS' 8:30 AM'
p1611
aI8
aI30
aI11
aI30
aNaNaNaNaNaNaNag5
aa(lp1612
S'CHM343'
p1613
aI74179
aI11
aI16
ag67
aS' 8:30 AM'
p1614
aI8
aI30
aI11
aI30
aNaNaNaNaNaNaNag14
aa(lp1615
S'CHM343'
p1616
aI77995
aI6
aI16
aS'Th'
p1617
aS' 6:00 PM'
p1618
aI18
aI0
aI21
aI0
aNaNaNaNaNaNaNag14
aa(lp1619
S'CHM345'
p1620
aI70733
aI24
aI70
aS'M W F'
p1621
aS' 9:00 AM'
p1622
aI9
aI0
aI9
aI50
aNaNaNaNaNaNaNag14
aa(lp1623
S'CHM348'
p1624
aI77704
aI14
aI40
ag100
aS'12:00 PM'
p1625
aI12
aI0
aI12
aI50
aNaNaNaNaNaNaNag14
aa(lp1626
S'CHM348'
p1627
aI77705
aI0
aI12
ag67
aS'12:40 PM'
p1628
aI12
aI40
aI15
aI30
aNaNaNaNaNaNaNag5
aa(lp1629
S'CHM348'
p1630
aI78092
aI1
aI12
ag96
aS'12:00 PM'
p1631
aI12
aI0
aI14
aI50
aNaNaNaNaNaNaNag14
aa(lp1632
S'CHM348'
p1633
aI78093
aI9
aI12
aS'Th'
p1634
aS'12:40 PM'
p1635
aI12
aI40
aI15
aI30
aNaNaNaNaNaNaNag14
aa(lp1636
S'CHM385'
p1637
aI82083
aI0
aI6
aS'M W'
p1638
aS' 4:30 PM'
p1639
aI16
aI30
aI17
aI45
aNaNaNaNaNaNaNag5
aa(lp1640
S'CHM392'
p1641
aI70734
aI40
aI40
ag62
aNaNaNaNaNaNaNaNaNaNaNaNag14
aa(lp1642
S'CHM394'
p1643
aI80356
aI9
aI16
ag62
aNaNaNaNaNag96
aNaNaNaNaNaNag14
aa(lp1644
S'CHM433'
p1645
aI70735
aI29
aI71
aS'M W F'
p1646
aS'10:30 AM'
p1647
aI10
aI30
aI11
aI20
aNaNaNaNaNaNaNag14
aa(lp1648
S'CHM453'
p1649
aI70736
aI33
aI75
aS'M W F'
p1650
aS' 1:30 PM'
p1651
aI13
aI30
aI14
aI20
aNaNaNaNaNaNaNag14
aa(lp1652
S'CHM492'
p1653
aI70737
aI15
aI15
ag62
aNaNaNaNaNaNaNaNaNaNaNaNag14
aa(lp1654
S'CHM493'
p1655
aI80212
aI14
aI15
ag62
aNaNaNaNaNaNaNaNaNaNaNaNag14
aa(lp1656
S'CHM494'
p1657
aI90287
aI4
aI10
aS'M W'
p1658
aS'6:00PM'
p1659
aI18
aI0
aI21
aI0
ag100
aS'7:30AM'
p1660
aI7
aI30
aS'8:20AM'
p1661
aI8
aI20
ag14
aa(lp1662
S'CHM494'
p1663
aI90288
aI9
aI10
aS'M W'
p1664
aS'3:00PM'
p1665
aI15
aI0
aI18
aI0
ag100
aS'7:30AM'
p1666
aI7
aI30
aS'8:20AM'
p1667
aI8
aI20
ag14
aa(lp1668
S'CHM494'
p1669
aI76410
aI2
aI6
aS'T Th'
p1670
aS' 3:00 PM'
p1671
aI15
aI0
aI16
aI15
aNaNaNaNaNaNaNag14
aa(lp1672
S'CHM494'
p1673
aI84766
aI5
aI5
aS'W F'
p1674
aS'12:00PM'
p1675
aI12
aI0
aI13
aI15
ag21
aS'2:00PM'
p1676
aI14
aI0
aS'4:30PM'
p1677
aI16
aI30
ag14
aa(lp1678
S'CHM494'
p1679
aI91474
aI12
aI12
ag21
aS' 1:30 PM'
p1680
aI13
aI30
aI14
aI20
aNaNaNaNaNaNaNag14
aa(lp1681
S'CHM501'
p1682
aI70738
aI26
aI30
aS'M W'
p1683
aS' 4:30 PM'
p1684
aI16
aI30
aI17
aI45
aNaNaNaNaNaNaNag14
aa(lp1685
S'CHM501'
p1686
aI70739
aI22
aI24
ag21
aS' 1:30 PM'
p1687
aI13
aI30
aI14
aI45
aNaNaNaNaNaNaNag14
aa(lp1688
S'CHM501'
p1689
aI70740
aI6
aI24
aS'Th'
p1690
aS'10:30 AM'
p1691
aI10
aI30
aI11
aI45
aNaNaNaNaNaNaNag14
aa(lp1692
S'CHM501'
p1693
aI79998
aI20
aI24
ag67
aS'10:30 AM'
p1694
aI10
aI30
aI11
aI45
aNaNaNaNaNaNaNag14
aa(lp1695
S'CHM501'
p1696
aI80424
aI21
aI24
ag96
aS' 1:30 PM'
p1697
aI13
aI30
aI14
aI45
aNaNaNaNaNaNaNag14
aa(lp1698
S'CHM531'
p1699
aI70742
aI3
aI7
aS'M W F'
p1700
aS'10:30 AM'
p1701
aI10
aI30
aI11
aI20
aNaNaNaNaNaNaNag14
aa(lp1702
S'CHM541'
p1703
aI70743
aI20
aI21
aS'M W'
p1704
aS' 3:00 PM'
p1705
aI15
aI0
aI16
aI15
aNaNaNaNaNaNaNag14
aa(lp1706
S'CHM545'
p1707
aI79770
aI23
aI24
aS'M W'
p1708
aS' 1:00 PM'
p1709
aI13
aI0
aI14
aI15
aNaNaNaNaNaNaNag14
aa(lp1710
S'CHM584'
p1711
aI80507
aI1
aI1
ag62
aNaNaNaNaNaNaNaNaNaNaNaNag14
aa(lp1712
S'CHM592'
p1713
aI70744
aI25
aI25
ag62
aNaNaNaNaNaNaNaNaNaNaNaNag14
aa(lp1714
S'CHM593'
p1715
aI70745
aI12
aI12
ag62
aNaNaNaNaNaNaNaNaNaNaNaNag14
aa(lp1716
S'CHM598'
p1717
aI90285
aI7
aI10
aS'M W'
p1718
aS'6:00PM'
p1719
aI18
aI0
aI21
aI0
ag100
aS'7:30AM'
p1720
aI7
aI30
aS'8:20AM'
p1721
aI8
aI20
ag14
aa(lp1722
S'CHM598'
p1723
aI90286
aI10
aI10
aS'M W'
p1724
aS'3:00PM'
p1725
aI15
aI0
aI18
aI0
ag100
aS'7:30AM'
p1726
aI7
aI30
aS'8:20AM'
p1727
aI8
aI20
ag14
aa(lp1728
S'CHM598'
p1729
aI91817
aI11
aI12
aS'M W'
p1730
aS' 1:30 PM'
p1731
aI13
aI30
aI14
aI45
aNaNaNaNaNaNaNag14
aa(lp1732
S'CHM598'
p1733
aI77653
aI2
aI10
aS'W F'
p1734
aS'12:00PM'
p1735
aI12
aI0
aI13
aI15
ag21
aS'2:00PM'
p1736
aI14
aI0
aS'4:30PM'
p1737
aI16
aI30
ag14
aa(lp1738
S'CHM598'
p1739
aI77772
aI14
aI18
aS'T Th'
p1740
aS' 3:00 PM'
p1741
aI15
aI0
aI16
aI15
aNaNaNaNaNaNaNag14
aa(lp1742
S'CHM598'
p1743
aI78997
aI8
aI8
aS'T Th'
p1744
aS' 9:00 AM'
p1745
aI9
aI0
aI10
aI15
aNaNaNaNaNaNaNag14
aa(lp1746
S'CHM598'
p1747
aI83557
aI22
aI24
aS'T Th'
p1748
aS' 3:00 PM'
p1749
aI15
aI0
aI16
aI15
aNaNaNaNaNaNaNag14
aa(lp1750
S'CHM599'
p1751
aI70746
aI24
aI24
ag62
aNaNaNaNaNaNaNaNaNaNaNaNag14
aa(lp1752
S'CHM784'
p1753
aI80508
aI5
aI5
ag62
aNaNaNaNaNaNaNaNaNaNaNaNag14
aa(lp1754
S'CHM792'
p1755
aI70747
aI105
aI125
ag62
aNaNaNaNaNaNaNaNaNaNaNaNag14
aa(lp1756
S'CHM795'
p1757
aI70748
aI19
aI20
ag62
aNaNaNaNaNaNaNaNaNaNaNaNag14
aa(lp1758
S'CHM799'
p1759
aI70749
aI39
aI40
ag62
aNaNaNaNaNaNaNaNaNaNaNaNag14
aa.