(lp0
(lp1
S'CMN505'
p2
aI72637
aI29
aI35
aS'W'
p3
aS' 6:00 PM'
p4
aI18
aI0
aI20
aI45
aNaNaNaNaNaNaNaS'Not Reserved'
p5
aa(lp6
S'CMN531'
p7
aI91015
aI1
aI20
aS'T'
p8
aS' 6:00 PM'
p9
aI18
aI0
aI20
aI45
aNaNaNaNaNaNaNag5
aa(lp10
S'CMN570'
p11
aI86495
aI4
aI20
aS'Th'
p12
aS' 4:30 PM'
p13
aI16
aI30
aI19
aI15
aNaNaNaNaNaNaNag5
aa(lp14
S'CMN580'
p15
aI72636
aI4
aI5
aS'ONLINE'
p16
aNaNaNaNaNaNaNaNaNaNaNaNag5
aa(lp17
S'CMN580'
p18
aI91431
aI3
aI5
ag16
aNaNaNaNaNaNaNaNaNaNaNaNag5
aa(lp19
S'CMN580'
p20
aI91730
aI4
aI5
ag16
aNaNaNaNaNaNaNaNaNaNaNaNag5
aa(lp21
S'CMN580'
p22
aI91753
aI4
aI5
ag16
aNaNaNaNaNaNaNaNaNaNaNaNag5
aa(lp23
S'CMN584'
p24
aI78887
aI5
aI5
ag16
aNaNaNaNaNaNaNaNaNaNaNaNaS'Reserved'
p25
aa(lp26
S'CMN590'
p27
aI72635
aI5
aI5
ag16
aNaNaNaNaNaNaNaNaNaNaNaNag25
aa(lp28
S'CMN590'
p29
aI84051
aI5
aI5
ag16
aNaNaNaNaNaNaNaNaNaNaNaNag5
aa(lp30
S'CMN591'
p31
aI91013
aI1
aI10
aS'T Th'
p32
aS'10:30 AM'
p33
aI10
aI30
aI11
aI45
aNaNaNaNaNaNaNag5
aa(lp34
S'CMN592'
p35
aI75460
aI4
aI5
ag16
aNaNaNaNaNaNaNaNaNaNaNaNag25
aa(lp36
S'CMN593'
p37
aI72634
aI4
aI5
ag16
aNaNaNaNaNaNaNaNaNaNaNaNag25
aa(lp38
S'CMN593'
p39
aI85499
aI4
aI5
ag16
aNaNaNaNaNaNaNaNaNaNaNaNag5
aa(lp40
S'CMN595'
p41
aI72632
aI10
aI10
ag16
aNaNaNaNaNaNaNaNaNaNaNaNag25
aa(lp42
S'CMN598'
p43
aI76761
aI6
aI10
aS'T Th'
p44
aS'12:00 PM'
p45
aI12
aI0
aI13
aI15
aNaNaNaNaNaNaNag5
aa(lp46
S'CMN598'
p47
aI80412
aI9
aI10
aS'M W'
p48
aS' 3:00 PM'
p49
aI15
aI0
aI16
aI15
aNaNaNaNaNaNaNag25
aa(lp50
S'CMN598'
p51
aI80672
aI3
aI10
aS'T Th'
p52
aS' 9:00 AM'
p53
aI9
aI0
aI10
aI15
aNaNaNaNaNaNaNag25
aa(lp54
S'CMN599'
p55
aI72638
aI5
aI5
ag16
aNaNaNaNaNaNaNaNaNaNaNaNag5
aa(lp56
S'CMN599'
p57
aI80411
aI5
aI5
ag16
aNaNaNaNaNaNaNaNaNaNaNaNag5
aa(lp58
S'CMN599'
p59
aI80950
aI4
aI5
ag16
aNaNaNaNaNaNaNaNaNaNaNaNag5
aa(lp60
S'CMN599'
p61
aI84340
aI5
aI5
ag16
aNaNaNaNaNaNaNaNaNaNaNaNag5
aa.