(lp0
(lp1
S'COE501'
p2
aI78178
aI59
aI60
aS'ONLINE'
p3
aNaNaNaNaNaNaNaNaNaNaNaNaS'Reserved'
p4
aa(lp5
S'COE501'
p6
aI87375
aI25
aI25
ag3
aNaNaNaNaNaNaNaNaNaNaNaNag4
aa(lp7
S'COE502'
p8
aI75844
aI12
aI20
aS'Th'
p9
aS' 4:30 PM'
p10
aI16
aI30
aI19
aI15
aNaNaNaNaNaNaNaS'Not Reserved'
p11
aa(lp12
S'COE503'
p13
aI76501
aI19
aI20
aS'Th'
p14
aS' 4:30 PM'
p15
aI16
aI30
aI19
aI15
aNaNaNaNaNaNaNag11
aa(lp16
S'COE503'
p17
aI91352
aI17
aI20
aS'W'
p18
aS' 4:30 PM'
p19
aI16
aI30
aI19
aI15
aNaNaNaNaNaNaNag11
aa.