(lp0
(lp1
S'COM100'
p2
aI70285
aI287
aI438
aS'T Th'
p3
aS'10:30 AM'
p4
aI10
aI30
aI11
aI45
aNaNaNaNaNaNaNaS'Not Reserved'
p5
aa(lp6
S'COM100'
p7
aI70286
aI319
aI438
aS'T Th'
p8
aS'12:00 PM'
p9
aI12
aI0
aI13
aI15
aNaNaNaNaNaNaNag5
aa(lp10
S'COM100'
p11
aI70287
aI0
aI40
aS'ONLINE'
p12
aNaNaNaNaNaNaNaNaNaNaNaNaS'Reserved'
p13
aa(lp14
S'COM100'
p15
aI70288
aI35
aI100
aS'T Th'
p16
aS'12:00 PM'
p17
aI12
aI0
aI13
aI15
aNaNaNaNaNaNaNag5
aa(lp18
S'COM100'
p19
aI70289
aI53
aI100
aS'M W'
p20
aS' 4:30 PM'
p21
aI16
aI30
aI17
aI45
aNaNaNaNaNaNaNag5
aa(lp22
S'COM100'
p23
aI72835
aI123
aI150
aS'M W F'
p24
aS' 1:30 PM'
p25
aI13
aI30
aI14
aI20
aNaNaNaNaNaNaNag5
aa(lp26
S'COM100'
p27
aI79069
aI2
aI40
aS'M W'
p28
aS' 3:00 PM'
p29
aI15
aI0
aI16
aI15
aNaNaNaNaNaNaNag5
aa(lp30
S'COM100'
p31
aI75319
aI62
aI100
aS'T Th'
p32
aS'10:30 AM'
p33
aI10
aI30
aI11
aI45
aNaNaNaNaNaNaNag5
aa(lp34
S'COM100'
p35
aI79957
aI149
aI160
aS'T Th'
p36
aS' 1:30 PM'
p37
aI13
aI30
aI14
aI45
aNaNaNaNaNaNaNag13
aa(lp38
S'COM100'
p39
aI80686
aI98
aI150
aS'M W'
p40
aS' 3:00 PM'
p41
aI15
aI0
aI16
aI15
aNaNaNaNaNaNaNag5
aa(lp42
S'COM100'
p43
aI80831
aI24
aI39
aS'W'
p44
aS' 6:00 PM'
p45
aI18
aI0
aI20
aI45
aNaNaNaNaNaNaNag5
aa(lp46
S'COM100'
p47
aI91834
aI40
aI40
aS'M W'
p48
aS' 1:30 PM'
p49
aI13
aI30
aI14
aI45
aNaNaNaNaNaNaNag13
aa(lp50
S'COM100'
p51
aI74440
aI100
aI120
aS'T Th'
p52
aS'10:30 AM'
p53
aI10
aI30
aI11
aI45
aNaNaNaNaNaNaNag5
aa(lp54
S'COM100'
p55
aI89132
aI50
aI50
aS'M W F'
p56
aS'10:30 AM'
p57
aI10
aI30
aI11
aI20
aNaNaNaNaNaNaNag13
aa(lp58
S'COM100'
p59
aI89641
aI30
aI30
aS'T Th'
p60
aS' 9:00 AM'
p61
aI9
aI0
aI10
aI15
aNaNaNaNaNaNaNag5
aa(lp62
S'COM100'
p63
aI77891
aI5
aI30
ag44
aS' 4:30 PM'
p64
aI16
aI30
aI19
aI15
aNaNaNaNaNaNaNag13
aa(lp65
S'COM100'
p66
aI84872
aI24
aI30
aS'T Th'
p67
aS' 3:00 PM'
p68
aI15
aI0
aI16
aI15
aNaNaNaNaNaNaNag5
aa(lp69
S'COM100'
p70
aI91640
aI46
aI50
aS'M W F'
p71
aS'12:00 PM'
p72
aI12
aI0
aI12
aI50
aNaNaNaNaNaNaNag5
aa(lp73
S'COM100'
p74
aI86606
aI98
aI108
aS'T Th'
p75
aS'10:30 AM'
p76
aI10
aI30
aI11
aI45
aNaNaNaNaNaNaNag5
aa(lp77
S'COM110'
p78
aI70290
aI32
aI35
aS'M W F'
p79
aS'12:00 PM'
p80
aI12
aI0
aI12
aI50
aNaNaNaNaNaNaNag5
aa(lp81
S'COM110'
p82
aI70291
aI30
aI35
aS'T Th'
p83
aS' 9:00 AM'
p84
aI9
aI0
aI10
aI15
aNaNaNaNaNaNaNag5
aa(lp85
S'COM110'
p86
aI70292
aI26
aI35
aS'T Th'
p87
aS' 1:30 PM'
p88
aI13
aI30
aI14
aI45
aNaNaNaNaNaNaNag5
aa(lp89
S'COM110'
p90
aI70293
aI27
aI35
aS'T Th'
p91
aS' 3:00 PM'
p92
aI15
aI0
aI16
aI15
aNaNaNaNaNaNaNag5
aa(lp93
S'COM110'
p94
aI77192
aI29
aI50
ag12
aNaNaNaNaNaNaNaNaNaNaNaNag13
aa(lp95
S'COM124'
p96
aI82024
aI13
aI60
ag12
aNaNaNaNaNaNaNaNaNaNaNaNag13
aa(lp97
S'COM194'
p98
aI70778
aI35
aI40
aS'T Th'
p99
aS' 9:00 AM'
p100
aI9
aI0
aI10
aI15
aNaNaNaNaNaNaNag5
aa(lp101
S'COM207'
p102
aI70780
aI88
aI105
aS'M W'
p103
aS' 1:30 PM'
p104
aI13
aI30
aI14
aI20
aNaNaNaNaNaNaNag5
aa(lp105
S'COM207'
p106
aI89360
aI27
aI35
aS'F'
p107
aS' 1:30 PM'
p108
aI13
aI30
aI14
aI20
aNaNaNaNaNaNaNag5
aa(lp109
S'COM207'
p110
aI89362
aI27
aI35
ag107
aS'10:30 AM'
p111
aI10
aI30
aI11
aI20
aNaNaNaNaNaNaNag5
aa(lp112
S'COM207'
p113
aI89363
aI34
aI35
ag107
aS' 1:30 PM'
p114
aI13
aI30
aI14
aI20
aNaNaNaNaNaNaNag5
aa(lp115
S'COM207'
p116
aI70779
aI28
aI35
ag44
aS' 6:00 PM'
p117
aI18
aI0
aI20
aI45
aNaNaNaNaNaNaNag5
aa(lp118
S'COM207'
p119
aI73910
aI28
aI35
aS'T'
p120
aS' 6:00 PM'
p121
aI18
aI0
aI20
aI45
aNaNaNaNaNaNaNag5
aa(lp122
S'COM207'
p123
aI74763
aI0
aI35
aS'T Th'
p124
aS' 1:30 PM'
p125
aI13
aI30
aI14
aI45
aNaNaNaNaNaNaNag13
aa(lp126
S'COM207'
p127
aI77451
aI19
aI35
aS'M W'
p128
aS' 3:00 PM'
p129
aI15
aI0
aI16
aI15
aNaNaNaNaNaNaNag5
aa(lp130
S'COM207'
p131
aI75585
aI17
aI40
aS'T Th'
p132
aS' 9:00 AM'
p133
aI9
aI0
aI10
aI15
aNaNaNaNaNaNaNag5
aa(lp134
S'COM207'
p135
aI76795
aI21
aI21
aS'T Th'
p136
aS' 1:30 PM'
p137
aI13
aI30
aI14
aI45
aNaNaNaNaNaNaNag5
aa(lp138
S'COM207'
p139
aI90073
aI21
aI24
aS'T Th'
p140
aS' 9:00 AM'
p141
aI9
aI0
aI10
aI15
aNaNaNaNaNaNaNag13
aa(lp142
S'COM222'
p143
aI70294
aI0
aI25
aS'T Th'
p144
aS' 9:00 AM'
p145
aI9
aI0
aI10
aI15
aNaNaNaNaNaNaNag13
aa(lp146
S'COM222'
p147
aI91331
aI15
aI25
aS'M W'
p148
aS' 4:30 PM'
p149
aI16
aI30
aI17
aI45
aNaNaNaNaNaNaNag5
aa(lp150
S'COM222'
p151
aI76812
aI0
aI30
ag12
aNaNaNaNaNaNaNaNaNaNaNaNag13
aa(lp152
S'COM222'
p153
aI78152
aI11
aI30
ag12
aNaNaNaNaNaNaNaNaNaNaNaNag13
aa(lp154
S'COM225'
p155
aI70295
aI18
aI25
aS'M W F'
p156
aS' 7:30 AM'
p157
aI7
aI30
aI8
aI20
aNaNaNaNaNaNaNag5
aa(lp158
S'COM225'
p159
aI70296
aI8
aI25
aS'M W F'
p160
aS' 9:00 AM'
p161
aI9
aI0
aI9
aI50
aNaNaNaNaNaNaNag5
aa(lp162
S'COM225'
p163
aI70297
aI0
aI25
aS'M W F'
p164
aS'10:30 AM'
p165
aI10
aI30
aI11
aI20
aNaNaNaNaNaNaNag13
aa(lp166
S'COM225'
p167
aI70299
aI0
aI25
aS'M W F'
p168
aS'12:00 PM'
p169
aI12
aI0
aI12
aI50
aNaNaNaNaNaNaNag13
aa(lp170
S'COM225'
p171
aI70300
aI0
aI25
aS'M W F'
p172
aS' 1:30 PM'
p173
aI13
aI30
aI14
aI20
aNaNaNaNaNaNaNag13
aa(lp174
S'COM225'
p175
aI70301
aI16
aI25
aS'M W F'
p176
aS' 3:00 PM'
p177
aI15
aI0
aI15
aI50
aNaNaNaNaNaNaNag5
aa(lp178
S'COM225'
p179
aI70302
aI25
aI25
aS'M W F'
p180
aS' 7:30 AM'
p181
aI7
aI30
aI8
aI20
aNaNaNaNaNaNaNag5
aa(lp182
S'COM225'
p183
aI70303
aI22
aI25
aS'M W F'
p184
aS' 9:00 AM'
p185
aI9
aI0
aI9
aI50
aNaNaNaNaNaNaNag5
aa(lp186
S'COM225'
p187
aI70304
aI0
aI25
aS'M W'
p188
aS' 3:00 PM'
p189
aI15
aI0
aI16
aI15
aNaNaNaNaNaNaNag13
aa(lp190
S'COM225'
p191
aI70305
aI1
aI25
aS'M W'
p192
aS' 4:30 PM'
p193
aI16
aI30
aI17
aI45
aNaNaNaNaNaNaNag5
aa(lp194
S'COM225'
p195
aI70306
aI12
aI25
aS'M W'
p196
aS' 6:00 PM'
p197
aI18
aI0
aI19
aI15
aNaNaNaNaNaNaNag5
aa(lp198
S'COM225'
p199
aI70307
aI9
aI25
aS'T Th'
p200
aS' 7:30 AM'
p201
aI7
aI30
aI8
aI45
aNaNaNaNaNaNaNag5
aa(lp202
S'COM225'
p203
aI70308
aI0
aI25
aS'T Th'
p204
aS' 9:00 AM'
p205
aI9
aI0
aI10
aI15
aNaNaNaNaNaNaNag13
aa(lp206
S'COM225'
p207
aI70309
aI0
aI25
aS'T Th'
p208
aS' 9:00 AM'
p209
aI9
aI0
aI10
aI15
aNaNaNaNaNaNaNag13
aa(lp210
S'COM225'
p211
aI70310
aI0
aI25
aS'T Th'
p212
aS'10:30 AM'
p213
aI10
aI30
aI11
aI45
aNaNaNaNaNaNaNag13
aa(lp214
S'COM225'
p215
aI70311
aI0
aI25
aS'T Th'
p216
aS'10:30 AM'
p217
aI10
aI30
aI11
aI45
aNaNaNaNaNaNaNag13
aa(lp218
S'COM225'
p219
aI70298
aI0
aI25
aS'T Th'
p220
aS'12:00 PM'
p221
aI12
aI0
aI13
aI15
aNaNaNaNaNaNaNag13
aa(lp222
S'COM225'
p223
aI70312
aI0
aI25
aS'T Th'
p224
aS' 9:00 AM'
p225
aI9
aI0
aI10
aI15
aNaNaNaNaNaNaNag13
aa(lp226
S'COM225'
p227
aI70313
aI0
aI25
aS'T Th'
p228
aS' 3:00 PM'
p229
aI15
aI0
aI16
aI15
aNaNaNaNaNaNaNag13
aa(lp230
S'COM225'
p231
aI70314
aI0
aI25
aS'T Th'
p232
aS' 4:30 PM'
p233
aI16
aI30
aI17
aI45
aNaNaNaNaNaNaNag13
aa(lp234
S'COM225'
p235
aI70315
aI7
aI25
aS'M'
p236
aS' 6:00 PM'
p237
aI18
aI0
aI20
aI45
aNaNaNaNaNaNaNag5
aa(lp238
S'COM225'
p239
aI70316
aI7
aI25
ag120
aS' 6:00 PM'
p240
aI18
aI0
aI20
aI45
aNaNaNaNaNaNaNag5
aa(lp241
S'COM225'
p242
aI70317
aI5
aI25
ag44
aS' 6:00 PM'
p243
aI18
aI0
aI20
aI45
aNaNaNaNaNaNaNag5
aa(lp244
S'COM225'
p245
aI70318
aI15
aI25
aS'Th'
p246
aS' 6:00 PM'
p247
aI18
aI0
aI20
aI45
aNaNaNaNaNaNaNag5
aa(lp248
S'COM225'
p249
aI70319
aI25
aI25
aS'M W F'
p250
aS' 9:00 AM'
p251
aI9
aI0
aI9
aI50
aNaNaNaNaNaNaNag5
aa(lp252
S'COM225'
p253
aI70320
aI21
aI25
aS'T Th'
p254
aS' 7:30 AM'
p255
aI7
aI30
aI8
aI45
aNaNaNaNaNaNaNag5
aa(lp256
S'COM225'
p257
aI70321
aI11
aI25
aS'T Th'
p258
aS' 4:30 PM'
p259
aI16
aI30
aI17
aI45
aNaNaNaNaNaNaNag5
aa(lp260
S'COM225'
p261
aI70322
aI0
aI25
aS'T Th'
p262
aS' 3:00 PM'
p263
aI15
aI0
aI16
aI15
aNaNaNaNaNaNaNag13
aa(lp264
S'COM225'
p265
aI72841
aI13
aI25
aS'M W F'
p266
aS'10:30 AM'
p267
aI10
aI30
aI11
aI20
aNaNaNaNaNaNaNag5
aa(lp268
S'COM225'
p269
aI72842
aI12
aI25
aS'M W F'
p270
aS'12:00 PM'
p271
aI12
aI0
aI12
aI50
aNaNaNaNaNaNaNag5
aa(lp272
S'COM225'
p273
aI73920
aI0
aI25
aS'T Th'
p274
aS'10:30 AM'
p275
aI10
aI30
aI11
aI45
aNaNaNaNaNaNaNag13
aa(lp276
S'COM225'
p277
aI73921
aI0
aI25
aS'T Th'
p278
aS'12:00 PM'
p279
aI12
aI0
aI13
aI15
aNaNaNaNaNaNaNag13
aa(lp280
S'COM225'
p281
aI74308
aI25
aI25
aS'T Th'
p282
aS' 7:30 AM'
p283
aI7
aI30
aI8
aI45
aNaNaNaNaNaNaNag5
aa(lp284
S'COM225'
p285
aI77468
aI1
aI25
aS'T Th'
p286
aS' 1:30 PM'
p287
aI13
aI30
aI14
aI45
aNaNaNaNaNaNaNag5
aa(lp288
S'COM225'
p289
aI77469
aI16
aI25
aS'T Th'
p290
aS' 4:30 PM'
p291
aI16
aI30
aI17
aI45
aNaNaNaNaNaNaNag5
aa(lp292
S'COM225'
p293
aI77470
aI22
aI25
aS'T Th'
p294
aS' 4:30 PM'
p295
aI16
aI30
aI17
aI45
aNaNaNaNaNaNaNag5
aa(lp296
S'COM225'
p297
aI77471
aI0
aI25
aS'M W'
p298
aS' 3:00 PM'
p299
aI15
aI0
aI16
aI15
aNaNaNaNaNaNaNag13
aa(lp300
S'COM225'
p301
aI77472
aI1
aI25
aS'M W'
p302
aS' 4:30 PM'
p303
aI16
aI30
aI17
aI45
aNaNaNaNaNaNaNag5
aa(lp304
S'COM225'
p305
aI82641
aI0
aI25
aS'T Th'
p306
aS'12:00 PM'
p307
aI12
aI0
aI13
aI15
aNaNaNaNaNaNaNag13
aa(lp308
S'COM225'
p309
aI74441
aI24
aI25
aS'M W'
p310
aS' 3:00 PM'
p311
aI15
aI0
aI16
aI15
aNaNaNaNaNaNaNag5
aa(lp312
S'COM225'
p313
aI74442
aI20
aI25
ag236
aS' 6:00 PM'
p314
aI18
aI0
aI20
aI45
aNaNaNaNaNaNaNag5
aa(lp315
S'COM225'
p316
aI76608
aI0
aI25
aS'T Th'
p317
aS'12:00 PM'
p318
aI12
aI0
aI13
aI15
aNaNaNaNaNaNaNag13
aa(lp319
S'COM225'
p320
aI82023
aI3
aI25
aS'T Th'
p321
aS' 1:30 PM'
p322
aI13
aI30
aI14
aI45
aNaNaNaNaNaNaNag5
aa(lp323
S'COM225'
p324
aI85579
aI18
aI25
aS'T Th'
p325
aS' 3:00 PM'
p326
aI15
aI0
aI16
aI15
aNaNaNaNaNaNaNag5
aa(lp327
S'COM225'
p328
aI90258
aI11
aI25
aS'T Th'
p329
aS' 9:00 AM'
p330
aI9
aI0
aI10
aI15
aNaNaNaNaNaNaNag5
aa(lp331
S'COM225'
p332
aI73133
aI8
aI24
aS'T Th'
p333
aS'10:30 AM'
p334
aI10
aI30
aI13
aI15
aNaNaNaNaNaNaNag5
aa(lp335
S'COM225'
p336
aI73236
aI19
aI24
aS'T Th'
p337
aS'10:30 AM'
p338
aI10
aI30
aI13
aI15
aNaNaNaNaNaNaNag5
aa(lp339
S'COM225'
p340
aI74728
aI18
aI24
aS'T Th'
p341
aS' 9:00 AM'
p342
aI9
aI0
aI10
aI15
aNaNaNaNaNaNaNag5
aa(lp343
S'COM225'
p344
aI74733
aI12
aI24
aS'T Th'
p345
aS'10:30 AM'
p346
aI10
aI30
aI11
aI45
aNaNaNaNaNaNaNag5
aa(lp347
S'COM225'
p348
aI75320
aI18
aI24
aS'T Th'
p349
aS' 3:00 PM'
p350
aI15
aI0
aI16
aI15
aNaNaNaNaNaNaNag5
aa(lp351
S'COM225'
p352
aI72970
aI5
aI24
ag44
aS' 6:00 PM'
p353
aI18
aI0
aI20
aI45
aNaNaNaNaNaNaNag13
aa(lp354
S'COM225'
p355
aI73132
aI1
aI24
ag236
aS' 6:00 PM'
p356
aI18
aI0
aI20
aI45
aNaNaNaNaNaNaNag13
aa(lp357
S'COM225'
p358
aI73237
aI0
aI24
aS'T Th'
p359
aS' 9:00 AM'
p360
aI9
aI0
aI10
aI15
aNaNaNaNaNaNaNag13
aa(lp361
S'COM225'
p362
aI76522
aI0
aI24
aS'T Th'
p363
aS'12:00 PM'
p364
aI12
aI0
aI13
aI15
aNaNaNaNaNaNaNag13
aa(lp365
S'COM225'
p366
aI76523
aI19
aI24
aS'T Th'
p367
aS' 4:30 PM'
p368
aI16
aI30
aI17
aI45
aNaNaNaNaNaNaNag13
aa(lp369
S'COM225'
p370
aI80809
aI13
aI24
aS'M W F'
p371
aS'12:00 PM'
p372
aI12
aI0
aI12
aI50
aNaNaNaNaNaNaNag5
aa(lp373
S'COM225'
p374
aI82906
aI1
aI24
aS'M W'
p375
aS' 4:30 PM'
p376
aI16
aI30
aI17
aI45
aNaNaNaNaNaNaNag5
aa(lp377
S'COM225'
p378
aI84343
aI4
aI24
aS'Th'
p379
aS' 6:00 PM'
p380
aI18
aI0
aI20
aI45
aNaNaNaNaNaNaNag13
aa(lp381
S'COM230'
p382
aI70323
aI0
aI30
aS'T Th'
p383
aS' 1:30 PM'
p384
aI13
aI30
aI14
aI45
aNaNaNaNaNaNaNag13
aa(lp385
S'COM230'
p386
aI89395
aI19
aI30
aS'M W F'
p387
aS'12:00 PM'
p388
aI12
aI0
aI12
aI50
aNaNaNaNaNaNaNag13
aa(lp389
S'COM230'
p390
aI89396
aI0
aI30
aS'T Th'
p391
aS' 3:00 PM'
p392
aI15
aI0
aI16
aI15
aNaNaNaNaNaNaNag13
aa(lp393
S'COM230'
p394
aI89397
aI7
aI30
aS'T Th'
p395
aS' 7:30 AM'
p396
aI7
aI30
aI8
aI45
aNaNaNaNaNaNaNag5
aa(lp397
S'COM230'
p398
aI89398
aI0
aI30
aS'M W'
p399
aS' 3:00 PM'
p400
aI15
aI0
aI16
aI15
aNaNaNaNaNaNaNag13
aa(lp401
S'COM230'
p402
aI89399
aI20
aI30
aS'M W F'
p403
aS' 7:30 AM'
p404
aI7
aI30
aI8
aI20
aNaNaNaNaNaNaNag5
aa(lp405
S'COM230'
p406
aI89400
aI19
aI30
aS'M W'
p407
aS' 3:00 PM'
p408
aI15
aI0
aI16
aI15
aNaNaNaNaNaNaNag13
aa(lp409
S'COM230'
p410
aI89401
aI0
aI30
aS'T Th'
p411
aS'10:30 AM'
p412
aI10
aI30
aI11
aI45
aNaNaNaNaNaNaNag13
aa(lp413
S'COM230'
p414
aI89402
aI16
aI30
aS'T Th'
p415
aS'10:30 AM'
p416
aI10
aI30
aI11
aI45
aNaNaNaNaNaNaNag13
aa(lp417
S'COM230'
p418
aI79192
aI15
aI30
aS'T Th'
p419
aS' 9:00 AM'
p420
aI9
aI0
aI10
aI15
aNaNaNaNaNaNaNag13
aa(lp421
S'COM230'
p422
aI89405
aI24
aI30
aS'T Th'
p423
aS' 9:00 AM'
p424
aI9
aI0
aI10
aI15
aNaNaNaNaNaNaNag13
aa(lp425
S'COM230'
p426
aI89407
aI19
aI30
aS'T Th'
p427
aS' 9:00 AM'
p428
aI9
aI0
aI10
aI15
aNaNaNaNaNaNaNag13
aa(lp429
S'COM230'
p430
aI89408
aI0
aI30
aS'T Th'
p431
aS' 4:30 PM'
p432
aI16
aI30
aI17
aI45
aNaNaNaNaNaNaNag13
aa(lp433
S'COM230'
p434
aI89409
aI0
aI30
aS'T Th'
p435
aS'12:00 PM'
p436
aI12
aI0
aI13
aI15
aNaNaNaNaNaNaNag13
aa(lp437
S'COM230'
p438
aI89411
aI17
aI30
aS'M W'
p439
aS' 4:30 PM'
p440
aI16
aI30
aI17
aI45
aNaNaNaNaNaNaNag13
aa(lp441
S'COM230'
p442
aI89414
aI10
aI30
ag236
aS' 6:00 PM'
p443
aI18
aI0
aI20
aI45
aNaNaNaNaNaNaNag5
aa(lp444
S'COM230'
p445
aI89415
aI4
aI30
ag120
aS' 6:00 PM'
p446
aI18
aI0
aI20
aI45
aNaNaNaNaNaNaNag5
aa(lp447
S'COM230'
p448
aI89417
aI7
aI30
ag44
aS' 6:00 PM'
p449
aI18
aI0
aI20
aI45
aNaNaNaNaNaNaNag5
aa(lp450
S'COM230'
p451
aI79222
aI20
aI30
ag120
aS' 6:00 PM'
p452
aI18
aI0
aI20
aI45
aNaNaNaNaNaNaNag5
aa(lp453
S'COM230'
p454
aI79223
aI13
aI30
aS'Th'
p455
aS' 6:00 PM'
p456
aI18
aI0
aI20
aI45
aNaNaNaNaNaNaNag5
aa(lp457
S'COM230'
p458
aI85927
aI0
aI30
aS'T Th'
p459
aS'12:00 PM'
p460
aI12
aI0
aI13
aI15
aNaNaNaNaNaNaNag13
aa(lp461
S'COM230'
p462
aI75586
aI11
aI30
aS'T Th'
p463
aS'10:30 AM'
p464
aI10
aI30
aI11
aI45
aNaNaNaNaNaNaNag5
aa(lp465
S'COM230'
p466
aI74734
aI25
aI30
aS'T Th'
p467
aS' 1:30 PM'
p468
aI13
aI30
aI14
aI45
aNaNaNaNaNaNaNag5
aa(lp469
S'COM230'
p470
aI73379
aI16
aI24
aS'M W'
p471
aS' 4:30 PM'
p472
aI16
aI30
aI17
aI45
aNaNaNaNaNaNaNag5
aa(lp473
S'COM241'
p474
aI70776
aI17
aI25
aS'T Th'
p475
aS'12:00 PM'
p476
aI12
aI0
aI13
aI15
aNaNaNaNaNaNaNag5
aa(lp477
S'COM241'
p478
aI70777
aI19
aI25
aS'T Th'
p479
aS'10:30 AM'
p480
aI10
aI30
aI11
aI45
aNaNaNaNaNaNaNag5
aa(lp481
S'COM250'
p482
aI74460
aI0
aI5
ag12
aNaNaNaNaNaNaNaNaNaNaNaNag13
aa(lp483
S'COM259'
p484
aI70324
aI77
aI240
ag12
aNaNaNaNaNaNaNaNaNaNaNaNag13
aa(lp485
S'COM259'
p486
aI89430
aI0
aI30
ag120
aS' 9:00 AM'
p487
aI9
aI0
aI10
aI15
aNaNaNaNaNaNaNag13
aa(lp488
S'COM259'
p489
aI89431
aI0
aI30
ag120
aS' 3:00 PM'
p490
aI15
aI0
aI16
aI15
aNaNaNaNaNaNaNag13
aa(lp491
S'COM259'
p492
aI89432
aI0
aI30
ag120
aS'12:00 PM'
p493
aI12
aI0
aI13
aI15
aNaNaNaNaNaNaNag13
aa(lp494
S'COM259'
p495
aI89433
aI0
aI30
ag120
aS' 1:30 PM'
p496
aI13
aI30
aI14
aI45
aNaNaNaNaNaNaNag13
aa(lp497
S'COM259'
p498
aI89434
aI17
aI30
aS'Th'
p499
aS' 9:00 AM'
p500
aI9
aI0
aI10
aI15
aNaNaNaNaNaNaNag5
aa(lp501
S'COM259'
p502
aI89435
aI20
aI30
aS'Th'
p503
aS' 3:00 PM'
p504
aI15
aI0
aI16
aI15
aNaNaNaNaNaNaNag5
aa(lp505
S'COM259'
p506
aI89436
aI15
aI30
aS'Th'
p507
aS'12:00 PM'
p508
aI12
aI0
aI13
aI15
aNaNaNaNaNaNaNag5
aa(lp509
S'COM259'
p510
aI89438
aI25
aI30
aS'Th'
p511
aS' 1:30 PM'
p512
aI13
aI30
aI14
aI45
aNaNaNaNaNaNaNag5
aa(lp513
S'COM259'
p514
aI74443
aI21
aI30
aS'M W F'
p515
aS' 9:00 AM'
p516
aI9
aI0
aI9
aI50
aNaNaNaNaNaNaNag5
aa(lp517
S'COM259'
p518
aI75334
aI0
aI40
ag12
aNaNaNaNaNaNaNaNaNaNaNaNag13
aa(lp519
S'COM263'
p520
aI70325
aI22
aI30
aS'M W F'
p521
aS' 9:00 AM'
p522
aI9
aI0
aI9
aI50
aNaNaNaNaNaNaNag5
aa(lp523
S'COM263'
p524
aI70326
aI16
aI30
aS'M W F'
p525
aS'10:30 AM'
p526
aI10
aI30
aI11
aI20
aNaNaNaNaNaNaNag5
aa(lp527
S'COM263'
p528
aI77806
aI0
aI30
ag12
aNaNaNaNaNaNaNaNaNaNaNaNag13
aa(lp529
S'COM263'
p530
aI70327
aI25
aI30
aS'T Th'
p531
aS' 7:30 AM'
p532
aI7
aI30
aI8
aI45
aNaNaNaNaNaNaNag5
aa(lp533
S'COM263'
p534
aI70328
aI5
aI30
aS'T Th'
p535
aS' 9:00 AM'
p536
aI9
aI0
aI10
aI15
aNaNaNaNaNaNaNag5
aa(lp537
S'COM263'
p538
aI70329
aI0
aI27
aS'T Th'
p539
aS' 3:00 PM'
p540
aI15
aI0
aI16
aI15
aNaNaNaNaNaNaNag13
aa(lp541
S'COM263'
p542
aI75880
aI14
aI30
aS'M W F'
p543
aS'12:00 PM'
p544
aI12
aI0
aI12
aI50
aNaNaNaNaNaNaNag5
aa(lp545
S'COM263'
p546
aI83786
aI0
aI30
aS'M W'
p547
aS' 3:00 PM'
p548
aI15
aI0
aI16
aI15
aNaNaNaNaNaNaNag13
aa(lp549
S'COM263'
p550
aI86427
aI17
aI30
aS'M W F'
p551
aS'10:30 AM'
p552
aI10
aI30
aI11
aI20
aNaNaNaNaNaNaNag5
aa(lp553
S'COM263'
p554
aI74464
aI0
aI30
ag12
aNaNaNaNaNaNaNaNaNaNaNaNag13
aa(lp555
S'COM263'
p556
aI76393
aI19
aI30
aS'T Th'
p557
aS'10:30 AM'
p558
aI10
aI30
aI11
aI45
aNaNaNaNaNaNaNag5
aa(lp559
S'COM263'
p560
aI78890
aI17
aI24
aS'M W'
p561
aS' 4:30 PM'
p562
aI16
aI30
aI17
aI45
aNaNaNaNaNaNaNag5
aa(lp563
S'COM294'
p564
aI86428
aI10
aI10
ag236
aS' 1:30 PM'
p565
aI13
aI30
aI16
aI15
aNaNaNaNaNaNaNag5
aa(lp566
S'COM308'
p567
aI70785
aI25
aI30
aS'M W F'
p568
aS'10:30 AM'
p569
aI10
aI30
aI11
aI20
aNaNaNaNaNaNaNag5
aa(lp570
S'COM308'
p571
aI70786
aI2
aI30
aS'T Th'
p572
aS' 9:00 AM'
p573
aI9
aI0
aI10
aI15
aNaNaNaNaNaNaNag5
aa(lp574
S'COM308'
p575
aI70787
aI0
aI30
aS'T Th'
p576
aS'12:00 PM'
p577
aI12
aI0
aI13
aI15
aNaNaNaNaNaNaNag13
aa(lp578
S'COM308'
p579
aI70788
aI26
aI30
ag44
aS' 6:00 PM'
p580
aI18
aI0
aI20
aI45
aNaNaNaNaNaNaNag5
aa(lp581
S'COM308'
p582
aI74294
aI22
aI30
aS'M W'
p583
aS' 4:30 PM'
p584
aI16
aI30
aI17
aI45
aNaNaNaNaNaNaNag5
aa(lp585
S'COM308'
p586
aI74307
aI29
aI30
ag120
aS' 6:00 PM'
p587
aI18
aI0
aI20
aI45
aNaNaNaNaNaNaNag5
aa(lp588
S'COM308'
p589
aI75153
aI24
aI30
ag236
aS' 6:00 PM'
p590
aI18
aI0
aI20
aI45
aNaNaNaNaNaNaNag5
aa(lp591
S'COM308'
p592
aI75218
aI7
aI30
aS'M W'
p593
aS' 3:00 PM'
p594
aI15
aI0
aI16
aI15
aNaNaNaNaNaNaNag5
aa(lp595
S'COM308'
p596
aI79261
aI8
aI30
aS'T Th'
p597
aS' 3:00 PM'
p598
aI15
aI0
aI16
aI15
aNaNaNaNaNaNaNag5
aa(lp599
S'COM308'
p600
aI82643
aI0
aI30
aS'T Th'
p601
aS'10:30 AM'
p602
aI10
aI30
aI11
aI45
aNaNaNaNaNaNaNag13
aa(lp603
S'COM308'
p604
aI74444
aI36
aI60
aS'T Th'
p605
aS' 3:00 PM'
p606
aI15
aI0
aI16
aI15
aNaNaNaNaNaNaNag5
aa(lp607
S'COM308'
p608
aI83440
aI22
aI24
aS'T Th'
p609
aS'12:00 PM'
p610
aI12
aI0
aI13
aI15
aNaNaNaNaNaNaNag5
aa(lp611
S'COM308'
p612
aI77336
aI14
aI24
aS'T Th'
p613
aS'10:30 AM'
p614
aI10
aI30
aI11
aI45
aNaNaNaNaNaNaNag5
aa(lp615
S'COM309'
p616
aI74445
aI15
aI30
aS'T Th'
p617
aS' 4:30 PM'
p618
aI16
aI30
aI17
aI45
aNaNaNaNaNaNaNag5
aa(lp619
S'COM309'
p620
aI74446
aI17
aI30
aS'T Th'
p621
aS' 9:00 AM'
p622
aI9
aI0
aI10
aI15
aNaNaNaNaNaNaNag5
aa(lp623
S'COM310'
p624
aI70330
aI53
aI70
aS'T Th'
p625
aS' 9:00 AM'
p626
aI9
aI0
aI10
aI15
aNaNaNaNaNaNaNag5
aa(lp627
S'COM310'
p628
aI70331
aI30
aI35
ag236
aS' 6:00 PM'
p629
aI18
aI0
aI20
aI45
aNaNaNaNaNaNaNag5
aa(lp630
S'COM310'
p631
aI70332
aI2
aI35
aS'T Th'
p632
aS' 1:30 PM'
p633
aI13
aI30
aI14
aI45
aNaNaNaNaNaNaNag5
aa(lp634
S'COM310'
p635
aI70333
aI26
aI35
aS'M W F'
p636
aS'12:00 PM'
p637
aI12
aI0
aI12
aI50
aNaNaNaNaNaNaNag5
aa(lp638
S'COM310'
p639
aI82645
aI15
aI35
aS'T Th'
p640
aS' 3:00 PM'
p641
aI15
aI0
aI16
aI15
aNaNaNaNaNaNaNag5
aa(lp642
S'COM310'
p643
aI77194
aI1
aI40
ag12
aNaNaNaNaNaNaNaNaNaNaNaNag13
aa(lp644
S'COM312'
p645
aI70334
aI85
aI100
ag236
aS' 6:00 PM'
p646
aI18
aI0
aI20
aI45
aNaNaNaNaNaNaNag5
aa(lp647
S'COM312'
p648
aI70335
aI5
aI35
aS'T Th'
p649
aS' 3:00 PM'
p650
aI15
aI0
aI16
aI15
aNaNaNaNaNaNaNag5
aa(lp651
S'COM312'
p652
aI75748
aI0
aI35
aS'T Th'
p653
aS' 1:30 PM'
p654
aI13
aI30
aI14
aI45
aNaNaNaNaNaNaNag13
aa(lp655
S'COM312'
p656
aI82647
aI24
aI35
aS'M W F'
p657
aS' 1:30 PM'
p658
aI13
aI30
aI14
aI20
aNaNaNaNaNaNaNag5
aa(lp659
S'COM312'
p660
aI75035
aI24
aI30
ag12
aNaNaNaNaNaNaNaNaNaNaNaNag13
aa(lp661
S'COM312'
p662
aI84635
aI29
aI30
ag12
aNaNaNaNaNaNaNaNaNaNaNaNag13
aa(lp663
S'COM312'
p664
aI83232
aI66
aI100
ag12
aNaNaNaNaNaNaNaNaNaNaNaNag13
aa(lp665
S'COM312'
p666
aI83233
aI87
aI100
ag12
aNaNaNaNaNaNaNaNaNaNaNaNag13
aa(lp667
S'COM312'
p668
aI82326
aI0
aI40
ag12
aNaNaNaNaNaNaNaNaNaNaNaNag13
aa(lp669
S'COM312'
p670
aI82327
aI27
aI50
ag12
aNaNaNaNaNaNaNaNaNaNaNaNag13
aa(lp671
S'COM314'
p672
aI78980
aI36
aI40
aS'T Th'
p673
aS' 1:30 PM'
p674
aI13
aI30
aI14
aI45
aNaNaNaNaNaNaNag5
aa(lp675
S'COM316'
p676
aI70336
aI0
aI69
aS'T Th'
p677
aS'12:00 PM'
p678
aI12
aI0
aI13
aI15
aNaNaNaNaNaNaNag13
aa(lp679
S'COM316'
p680
aI70337
aI27
aI35
aS'T Th'
p681
aS' 7:30 AM'
p682
aI7
aI30
aI8
aI45
aNaNaNaNaNaNaNag5
aa(lp683
S'COM316'
p684
aI70338
aI0
aI35
aS'T Th'
p685
aS' 3:00 PM'
p686
aI15
aI0
aI16
aI15
aNaNaNaNaNaNaNag13
aa(lp687
S'COM316'
p688
aI89445
aI34
aI35
ag44
aS' 6:00 PM'
p689
aI18
aI0
aI20
aI45
aNaNaNaNaNaNaNag5
aa(lp690
S'COM316'
p691
aI70339
aI0
aI35
aS'T Th'
p692
aS'10:30 AM'
p693
aI10
aI30
aI11
aI45
aNaNaNaNaNaNaNag13
aa(lp694
S'COM316'
p695
aI82648
aI19
aI35
aS'T Th'
p696
aS' 9:00 AM'
p697
aI9
aI0
aI10
aI15
aNaNaNaNaNaNaNag5
aa(lp698
S'COM316'
p699
aI74447
aI26
aI60
aS'T Th'
p700
aS'10:30 AM'
p701
aI10
aI30
aI11
aI45
aNaNaNaNaNaNaNag5
aa(lp702
S'COM316'
p703
aI77421
aI47
aI60
aS'Th'
p704
aS' 6:00 PM'
p705
aI18
aI0
aI20
aI45
aNaNaNaNaNaNaNag5
aa(lp706
S'COM316'
p707
aI73383
aI19
aI24
aS'T Th'
p708
aS' 1:30 PM'
p709
aI13
aI30
aI16
aI15
aNaNaNaNaNaNaNag5
aa(lp710
S'COM316'
p711
aI76384
aI24
aI24
aS'T Th'
p712
aS' 1:30 PM'
p713
aI13
aI30
aI16
aI15
aNaNaNaNaNaNaNag5
aa(lp714
S'COM316'
p715
aI75335
aI0
aI40
ag12
aNaNaNaNaNaNaNaNaNaNaNaNag13
aa(lp716
S'COM316'
p717
aI80648
aI7
aI40
ag12
aNaNaNaNaNaNaNaNaNaNaNaNag13
aa(lp718
S'COM317'
p719
aI70789
aI75
aI100
aS'T Th'
p720
aS' 9:00 AM'
p721
aI9
aI0
aI10
aI15
aNaNaNaNaNaNaNag5
aa(lp722
S'COM317'
p723
aI76890
aI55
aI60
ag120
aS' 6:00 PM'
p724
aI18
aI0
aI20
aI45
aNaNaNaNaNaNaNag5
aa(lp725
S'COM317'
p726
aI86610
aI8
aI50
ag12
aNaNaNaNaNaNaNaNaNaNaNaNag13
aa(lp727
S'COM319'
p728
aI70790
aI15
aI35
aS'T Th'
p729
aS' 3:00 PM'
p730
aI15
aI0
aI16
aI15
aNaNaNaNaNaNaNag5
aa(lp731
S'COM319'
p732
aI74448
aI53
aI60
ag44
aS' 6:00 PM'
p733
aI18
aI0
aI20
aI45
aNaNaNaNaNaNaNag5
aa(lp734
S'COM320'
p735
aI70791
aI6
aI30
aS'M W'
p736
aS' 4:30 PM'
p737
aI16
aI30
aI17
aI45
aNaNaNaNaNaNaNag5
aa(lp738
S'COM320'
p739
aI82828
aI5
aI35
ag236
aS' 6:00 PM'
p740
aI18
aI0
aI20
aI45
aNaNaNaNaNaNaNag5
aa(lp741
S'COM321'
p742
aI82628
aI14
aI24
aS'T Th'
p743
aS' 3:00 PM'
p744
aI15
aI0
aI16
aI15
aNaNaNaNaNaNaNag5
aa(lp745
S'COM321'
p746
aI90077
aI24
aI24
aS'T Th'
p747
aS'10:30 AM'
p748
aI10
aI30
aI11
aI45
aNaNaNaNaNaNaNag5
aa(lp749
S'COM323'
p750
aI70792
aI19
aI35
aS'T Th'
p751
aS' 3:00 PM'
p752
aI15
aI0
aI16
aI15
aNaNaNaNaNaNaNag5
aa(lp753
S'COM323'
p754
aI70793
aI4
aI35
aS'T Th'
p755
aS' 1:30 PM'
p756
aI13
aI30
aI14
aI45
aNaNaNaNaNaNaNag5
aa(lp757
S'COM323'
p758
aI70794
aI31
aI35
aS'Th'
p759
aS' 6:00 PM'
p760
aI18
aI0
aI20
aI45
aNaNaNaNaNaNaNag5
aa(lp761
S'COM323'
p762
aI77892
aI0
aI30
ag12
aNaNaNaNaNaNaNaNaNaNaNaNag13
aa(lp763
S'COM323'
p764
aI76977
aI21
aI24
aS'M W'
p765
aS' 3:00 PM'
p766
aI15
aI0
aI16
aI15
aNaNaNaNaNaNaNag5
aa(lp767
S'COM325'
p768
aI70795
aI18
aI30
aS'T Th'
p769
aS' 3:00 PM'
p770
aI15
aI0
aI16
aI15
aNaNaNaNaNaNaNag5
aa(lp771
S'COM326'
p772
aI70796
aI0
aI30
aS'T Th'
p773
aS'10:30 AM'
p774
aI10
aI30
aI11
aI45
aNaNaNaNaNaNaNag13
aa(lp775
S'COM342'
p776
aI76759
aI18
aI30
aS'T Th'
p777
aS' 1:30 PM'
p778
aI13
aI30
aI14
aI45
aNaNaNaNaNaNaNag5
aa(lp779
S'COM353'
p780
aI82829
aI4
aI30
ag120
aS' 6:00 PM'
p781
aI18
aI0
aI20
aI30
aNaNaNaNaNaNaNag5
aa(lp782
S'COM382'
p783
aI70798
aI30
aI30
ag12
aNaNaNaNaNaNaNaNaNaNaNaNag5
aa(lp784
S'COM382'
p785
aI75154
aI2
aI3
ag12
aNaNaNaNaNaNaNaNaNaNaNaNag5
aa(lp786
S'COM382'
p787
aI77305
aI2
aI3
ag12
aNaNaNaNaNaNaNaNaNaNaNaNag5
aa(lp788
S'COM382'
p789
aI77691
aI2
aI3
ag12
aNaNaNaNaNaNaNaNaNaNaNaNag5
aa(lp790
S'COM382'
p791
aI91647
aI3
aI3
ag12
aNaNaNaNaNaNaNaNaNaNaNaNag5
aa(lp792
S'COM382'
p793
aI91649
aI2
aI3
ag12
aNaNaNaNaNaNaNaNaNaNaNaNag5
aa(lp794
S'COM382'
p795
aI91677
aI2
aI3
ag12
aNaNaNaNaNaNaNaNaNaNaNaNag5
aa(lp796
S'COM383'
p797
aI82021
aI10
aI10
ag236
aS' 1:30 PM'
p798
aI13
aI30
aI16
aI15
aNaNaNaNaNaNaNag5
aa(lp799
S'COM394'
p800
aI70799
aI2
aI30
ag12
aNaNaNaNaNaNaNaNaNaNaNaNag13
aa(lp801
S'COM394'
p802
aI70800
aI19
aI30
ag12
aNaNaNaNaNaNaNaNaNaNaNaNag13
aa(lp803
S'COM394'
p804
aI70801
aI28
aI30
ag12
aNaNaNaNaNaNaNaNaNaNaNaNag13
aa(lp805
S'COM394'
p806
aI72907
aI17
aI24
ag44
aS' 6:00 PM'
p807
aI18
aI0
aI20
aI45
aNaNaNaNaNaNaNag5
aa(lp808
S'COM394'
p809
aI91225
aI22
aI25
ag120
aS' 6:00 PM'
p810
aI18
aI0
aI20
aI45
aNaNaNaNaNaNaNag5
aa(lp811
S'COM394'
p812
aI77685
aI11
aI15
aS'T Th'
p813
aS'12:00 PM'
p814
aI12
aI0
aI13
aI15
aNaNaNaNaNaNaNag5
aa(lp815
S'COM394'
p816
aI79072
aI17
aI20
ag120
aS' 6:00 PM'
p817
aI18
aI0
aI20
aI45
aNaNaNaNaNaNaNag5
aa(lp818
S'COM394'
p819
aI84402
aI20
aI25
ag12
aNaNaNaNaNaNaNaNaNaNaNaNag13
aa(lp820
S'COM394'
p821
aI83449
aI11
aI15
ag12
aNaNaNaNaNaNaNaNaNaNaNaNag13
aa(lp822
S'COM400'
p823
aI79001
aI9
aI80
ag12
aNaNaNaNaNaNaNaNaNaNaNaNag13
aa(lp824
S'COM404'
p825
aI70805
aI17
aI19
ag120
aS'12:00 PM'
p826
aI12
aI0
aI13
aI15
aNaNaNaNaNaNaNag5
aa(lp827
S'COM407'
p828
aI70806
aI23
aI30
ag236
aS' 6:00 PM'
p829
aI18
aI0
aI20
aI45
aNaNaNaNaNaNaNag5
aa(lp830
S'COM407'
p831
aI70807
aI0
aI30
aS'T Th'
p832
aS' 1:30 PM'
p833
aI13
aI30
aI14
aI45
aNaNaNaNaNaNaNag13
aa(lp834
S'COM407'
p835
aI75754
aI16
aI30
aS'M W'
p836
aS' 3:00 PM'
p837
aI15
aI0
aI16
aI15
aNaNaNaNaNaNaNag5
aa(lp838
S'COM408'
p839
aI70808
aI0
aI25
aS'T Th'
p840
aS' 3:00 PM'
p841
aI15
aI0
aI16
aI15
aNaNaNaNaNaNaNag13
aa(lp842
S'COM408'
p843
aI73909
aI13
aI30
ag236
aS' 6:00 PM'
p844
aI18
aI0
aI20
aI45
aNaNaNaNaNaNaNag5
aa(lp845
S'COM408'
p846
aI75136
aI19
aI30
aS'M W'
p847
aS' 3:00 PM'
p848
aI15
aI0
aI16
aI15
aNaNaNaNaNaNaNag5
aa(lp849
S'COM408'
p850
aI75219
aI5
aI30
aS'T Th'
p851
aS' 9:00 AM'
p852
aI9
aI0
aI10
aI15
aNaNaNaNaNaNaNag5
aa(lp853
S'COM408'
p854
aI75763
aI25
aI30
aS'M W'
p855
aS' 4:30 PM'
p856
aI16
aI30
aI17
aI45
aNaNaNaNaNaNaNag5
aa(lp857
S'COM408'
p858
aI89470
aI0
aI30
aS'T Th'
p859
aS'12:00 PM'
p860
aI12
aI0
aI13
aI15
aNaNaNaNaNaNaNag13
aa(lp861
S'COM410'
p862
aI70340
aI26
aI30
aS'T Th'
p863
aS' 9:00 AM'
p864
aI9
aI0
aI10
aI15
aNaNaNaNaNaNaNag5
aa(lp865
S'COM410'
p866
aI83396
aI26
aI30
ag12
aNaNaNaNaNaNaNaNaNaNaNaNag13
aa(lp867
S'COM411'
p868
aI75184
aI8
aI30
aS'T Th'
p869
aS' 3:00 PM'
p870
aI15
aI0
aI16
aI15
aNaNaNaNaNaNaNag5
aa(lp871
S'COM411'
p872
aI74451
aI7
aI50
aS'T Th'
p873
aS'12:00 PM'
p874
aI12
aI0
aI13
aI15
aNaNaNaNaNaNaNag5
aa(lp875
S'COM414'
p876
aI80208
aI0
aI35
aS'T Th'
p877
aS' 1:30 PM'
p878
aI13
aI30
aI14
aI45
aNaNaNaNaNaNaNag13
aa(lp879
S'COM417'
p880
aI76760
aI24
aI60
ag12
aNaNaNaNaNaNaNaNaNaNaNaNag13
aa(lp881
S'COM417'
p882
aI90732
aI34
aI60
ag12
aNaNaNaNaNaNaNaNaNaNaNaNag13
aa(lp883
S'COM421'
p884
aI70809
aI21
aI30
aS'T Th'
p885
aS'10:30 AM'
p886
aI10
aI30
aI11
aI45
aNaNaNaNaNaNaNag5
aa(lp887
S'COM422'
p888
aI86472
aI45
aI60
aS'T Th'
p889
aS'12:00 PM'
p890
aI12
aI0
aI13
aI15
aNaNaNaNaNaNaNag5
aa(lp891
S'COM424'
p892
aI86474
aI0
aI60
ag12
aNaNaNaNaNaNaNaNaNaNaNaNag13
aa(lp893
S'COM426'
p894
aI75065
aI13
aI30
aS'T Th'
p895
aS' 1:30 PM'
p896
aI13
aI30
aI14
aI45
aNaNaNaNaNaNaNag5
aa(lp897
S'COM430'
p898
aI75843
aI10
aI30
ag12
aNaNaNaNaNaNaNaNaNaNaNaNag13
aa(lp899
S'COM430'
p900
aI80501
aI28
aI30
ag12
aNaNaNaNaNaNaNaNaNaNaNaNag13
aa(lp901
S'COM430'
p902
aI79024
aI44
aI100
ag12
aNaNaNaNaNaNaNaNaNaNaNaNag13
aa(lp903
S'COM430'
p904
aI75275
aI0
aI60
ag12
aNaNaNaNaNaNaNaNaNaNaNaNag13
aa(lp905
S'COM442'
p906
aI70810
aI8
aI25
aS'T Th'
p907
aS' 9:00 AM'
p908
aI9
aI0
aI10
aI15
aNaNaNaNaNaNaNag5
aa(lp909
S'COM442'
p910
aI75352
aI16
aI25
aS'T Th'
p911
aS' 3:00 PM'
p912
aI15
aI0
aI16
aI15
aNaNaNaNaNaNaNag5
aa(lp913
S'COM442'
p914
aI75764
aI14
aI25
aS'T Th'
p915
aS' 1:30 PM'
p916
aI13
aI30
aI14
aI45
aNaNaNaNaNaNaNag5
aa(lp917
S'COM445'
p918
aI77858
aI22
aI24
aS'T Th'
p919
aS'10:30 AM'
p920
aI10
aI30
aI11
aI45
aNaNaNaNaNaNaNag5
aa(lp921
S'COM451'
p922
aI77419
aI41
aI50
aS'M W'
p923
aS' 3:00 PM'
p924
aI15
aI0
aI16
aI15
aNaNaNaNaNaNaNag5
aa(lp925
S'COM451'
p926
aI82838
aI30
aI100
ag12
aNaNaNaNaNaNaNaNaNaNaNaNag13
aa(lp927
S'COM452'
p928
aI83869
aI1
aI30
aS'T Th'
p929
aS'12:00 PM'
p930
aI12
aI0
aI13
aI15
aNaNaNaNaNaNaNag5
aa(lp931
S'COM453'
p932
aI75041
aI18
aI40
ag12
aNaNaNaNaNaNaNaNaNaNaNaNag13
aa(lp933
S'COM453'
p934
aI80502
aI35
aI40
ag12
aNaNaNaNaNaNaNaNaNaNaNaNag13
aa(lp935
S'COM453'
p936
aI84641
aI38
aI40
ag12
aNaNaNaNaNaNaNaNaNaNaNaNag13
aa(lp937
S'COM453'
p938
aI84645
aI38
aI40
ag12
aNaNaNaNaNaNaNaNaNaNaNaNag13
aa(lp939
S'COM453'
p940
aI76936
aI26
aI100
ag12
aNaNaNaNaNaNaNaNaNaNaNaNag13
aa(lp941
S'COM457'
p942
aI82156
aI28
aI50
aS'T Th'
p943
aS'10:30 AM'
p944
aI10
aI30
aI11
aI45
aNaNaNaNaNaNaNag5
aa(lp945
S'COM463'
p946
aI70811
aI23
aI30
aS'T Th'
p947
aS'12:00 PM'
p948
aI12
aI0
aI13
aI15
aNaNaNaNaNaNaNag5
aa(lp949
S'COM477'
p950
aI86488
aI33
aI50
aS'T Th'
p951
aS' 9:00 AM'
p952
aI9
aI0
aI10
aI15
aNaNaNaNaNaNaNag5
aa(lp953
S'COM483'
p954
aI82152
aI25
aI25
ag236
aS' 1:30 PM'
p955
aI13
aI30
aI14
aI45
aNaNaNaNaNaNaNag5
aa(lp956
S'COM484'
p957
aI70812
aI40
aI40
ag12
aNaNaNaNaNaNaNaNaNaNaNaNag5
aa(lp958
S'COM484'
p959
aI70813
aI40
aI40
ag12
aNaNaNaNaNaNaNaNaNaNaNaNag5
aa(lp960
S'COM484'
p961
aI70814
aI80
aI80
ag12
aNaNaNaNaNaNaNaNaNaNaNaNag5
aa(lp962
S'COM484'
p963
aI74454
aI11
aI11
ag12
aNaNaNaNaNaNaNaNaNaNaNaNag5
aa(lp964
S'COM484'
p965
aI91810
aI10
aI10
ag12
aNaNaNaNaNaNaNaNaNaNaNaNag13
aa(lp966
S'COM492'
p967
aI70815
aI30
aI30
ag12
aNaNaNaNaNaNaNaNaNaNaNaNag5
aa(lp968
S'COM492'
p969
aI82153
aI4
aI5
ag12
aNaNaNaNaNaNaNaNaNaNaNaNag5
aa(lp970
S'COM492'
p971
aI84281
aI5
aI5
ag12
aNaNaNaNaNaNaNaNaNaNaNaNag5
aa(lp972
S'COM492'
p973
aI85866
aI3
aI3
ag12
aNaNaNaNaNaNaNaNaNaNaNaNag5
aa(lp974
S'COM492'
p975
aI91245
aI2
aI3
ag12
aNaNaNaNaNaNaNaNaNaNaNaNag13
aa(lp976
S'COM492'
p977
aI83271
aI5
aI5
ag12
aNaNaNaNaNaNaNaNaNaNaNaNag5
aa(lp978
S'COM493'
p979
aI70816
aI30
aI30
ag12
aNaNaNaNaNaNaNaNaNaNaNaNag5
aa(lp980
S'COM493'
p981
aI82154
aI5
aI5
ag12
aNaNaNaNaNaNaNaNaNaNaNaNag5
aa(lp982
S'COM493'
p983
aI83272
aI5
aI5
ag12
aNaNaNaNaNaNaNaNaNaNaNaNag5
aa(lp984
S'COM494'
p985
aI72936
aI24
aI30
ag236
aS' 6:00 PM'
p986
aI18
aI0
aI20
aI45
aNaNaNaNaNaNaNag5
aa(lp987
S'COM494'
p988
aI79225
aI0
aI30
aS'T Th'
p989
aS'10:30 AM'
p990
aI10
aI30
aI11
aI45
aNaNaNaNaNaNaNag13
aa(lp991
S'COM494'
p992
aI75846
aI15
aI30
aS'M W'
p993
aS' 4:30 PM'
p994
aI16
aI30
aI17
aI45
aNaNaNaNaNaNaNag5
aa(lp995
S'COM494'
p996
aI75847
aI19
aI30
ag120
aS' 6:00 PM'
p997
aI18
aI0
aI20
aI45
aNaNaNaNaNaNaNag5
aa(lp998
S'COM494'
p999
aI77804
aI9
aI30
ag12
aNaNaNaNaNaNaNaNaNaNaNaNag13
aa(lp1000
S'COM494'
p1001
aI79227
aI0
aI30
ag12
aNaNaNaNaNaNaNaNaNaNaNaNag13
aa(lp1002
S'COM494'
p1003
aI74871
aI21
aI24
aS'T Th'
p1004
aS' 1:30 PM'
p1005
aI13
aI30
aI14
aI45
aNaNaNaNaNaNaNag5
aa(lp1006
S'COM494'
p1007
aI90080
aI22
aI24
aS'T Th'
p1008
aS' 9:00 AM'
p1009
aI9
aI0
aI10
aI15
aNaNaNaNaNaNaNag5
aa(lp1010
S'COM498'
p1011
aI74458
aI21
aI25
ag12
aNaNaNaNaNaNaNaNaNaNaNaNag5
aa(lp1012
S'COM499'
p1013
aI70817
aI30
aI30
ag12
aNaNaNaNaNaNaNaNaNaNaNaNag5
aa(lp1014
S'COM499'
p1015
aI76535
aI4
aI5
ag12
aNaNaNaNaNaNaNaNaNaNaNaNag5
aa(lp1016
S'COM507'
p1017
aI77923
aI9
aI15
aS'Th'
p1018
aS' 3:00 PM'
p1019
aI15
aI0
aI17
aI45
aNaNaNaNaNaNaNag5
aa(lp1020
S'COM508'
p1021
aI78000
aI8
aI10
aS'T Th'
p1022
aS' 3:00 PM'
p1023
aI15
aI0
aI16
aI15
aNaNaNaNaNaNaNag5
aa(lp1024
S'COM584'
p1025
aI70818
aI5
aI5
ag12
aNaNaNaNaNaNaNaNaNaNaNaNag5
aa(lp1026
S'COM598'
p1027
aI76354
aI11
aI15
ag44
aS' 6:00 PM'
p1028
aI18
aI0
aI20
aI45
aNaNaNaNaNaNaNag5
aa(lp1029
S'COM604'
p1030
aI70819
aI12
aI15
ag44
aS' 3:00 PM'
p1031
aI15
aI0
aI17
aI45
aNaNaNaNaNaNaNag5
aa(lp1032
S'COM608'
p1033
aI91152
aI12
aI15
aS'Th'
p1034
aS' 6:00 PM'
p1035
aI18
aI0
aI20
aI45
aNaNaNaNaNaNaNag5
aa(lp1036
S'COM690'
p1037
aI70820
aI30
aI30
ag12
aNaNaNaNaNaNaNaNaNaNaNaNag5
aa(lp1038
S'COM691'
p1039
aI77099
aI3
aI15
ag236
aS' 3:00 PM'
p1040
aI15
aI0
aI17
aI45
aNaNaNaNaNaNaNag5
aa(lp1041
S'COM691'
p1042
aI77100
aI9
aI15
aS'Th'
p1043
aS' 3:00 PM'
p1044
aI15
aI0
aI17
aI45
aNaNaNaNaNaNaNag5
aa(lp1045
S'COM691'
p1046
aI82585
aI3
aI15
ag44
aS' 6:00 PM'
p1047
aI18
aI0
aI20
aI45
aNaNaNaNaNaNaNag5
aa(lp1048
S'COM691'
p1049
aI89502
aI14
aI15
ag120
aS' 6:00 PM'
p1050
aI18
aI0
aI20
aI45
aNaNaNaNaNaNaNag5
aa(lp1051
S'COM692'
p1052
aI70822
aI15
aI15
ag12
aNaNaNaNaNaNaNaNaNaNaNaNag5
aa(lp1053
S'COM790'
p1054
aI70823
aI10
aI10
ag12
aNaNaNaNaNaNaNaNaNaNaNaNag5
aa(lp1055
S'COM792'
p1056
aI70824
aI29
aI30
ag12
aNaNaNaNaNaNaNaNaNaNaNaNag5
aa(lp1057
S'COM792'
p1058
aI70825
aI30
aI30
ag12
aNaNaNaNaNaNaNaNaNaNaNaNag5
aa(lp1059
S'COM792'
p1060
aI70826
aI14
aI15
ag12
aNaNaNaNaNaNaNaNaNaNaNaNag5
aa(lp1061
S'COM792'
p1062
aI70827
aI30
aI30
ag12
aNaNaNaNaNaNaNaNaNaNaNaNag5
aa(lp1063
S'COM792'
p1064
aI85747
aI30
aI30
ag12
aNaNaNaNaNaNaNaNaNaNaNaNag5
aa(lp1065
S'COM799'
p1066
aI75332
aI29
aI30
ag12
aNaNaNaNaNaNaNaNaNaNaNaNag5
aa.