(lp0
(lp1
S'CON100'
p2
aI73809
aI16
aI40
aS'M'
p3
aS' 9:00 AM'
p4
aI9
aI0
aI10
aI15
aNaNaNaNaNaNaNaS'Not Reserved'
p5
aa(lp6
S'CON100'
p7
aI76288
aI16
aI40
aS'W'
p8
aS' 9:00 AM'
p9
aI9
aI0
aI11
aI30
aNaNaNaNaNaNaNag5
aa(lp10
S'CON101'
p11
aI70828
aI198
aI450
aS'T Th'
p12
aS' 9:00 AM'
p13
aI9
aI0
aI10
aI15
aNaNaNaNaNaNaNag5
aa(lp14
S'CON101'
p15
aI83277
aI40
aI85
aS'T Th'
p16
aS'10:30 AM'
p17
aI10
aI30
aI11
aI45
aNaNaNaNaNaNaNag5
aa(lp18
S'CON106'
p19
aI88332
aI21
aI30
aS'T Th'
p20
aS' 9:00 AM'
p21
aI9
aI0
aI10
aI15
aNaNaNaNaNaNaNag5
aa(lp22
S'CON106'
p23
aI89954
aI21
aI30
ag8
aS'11:00 AM'
p24
aI11
aI0
aI13
aI15
aNaNaNaNaNaNaNag5
aa(lp25
S'CON221'
p26
aI70829
aI0
aI40
aS'F'
p27
aS' 9:00 AM'
p28
aI9
aI0
aI10
aI45
aNaNaNaNaNaNaNaS'Reserved'
p29
aa(lp30
S'CON223'
p31
aI70830
aI14
aI40
ag8
aS' 9:00 AM'
p32
aI9
aI0
aI10
aI45
aNaNaNaNaNaNaNag5
aa(lp33
S'CON241'
p34
aI73347
aI1
aI18
aS'T Th'
p35
aS' 7:30 AM'
p36
aI7
aI30
aI8
aI45
aNaNaNaNaNaNaNag5
aa(lp37
S'CON241'
p38
aI73348
aI1
aI18
aS'Sa'
p39
aS' 7:00 AM'
p40
aI7
aI0
aI13
aI0
aNaNaNaNaNaNaNag5
aa(lp41
S'CON241'
p42
aI73349
aI0
aI19
aS'T Th'
p43
aS' 9:00 AM'
p44
aI9
aI0
aI10
aI15
aNaNaNaNaNaNaNag29
aa(lp45
S'CON241'
p46
aI73350
aI0
aI19
aS'Sa'
p47
aS' 7:00 AM'
p48
aI7
aI0
aI13
aI0
aNaNaNaNaNaNaNag29
aa(lp49
S'CON243'
p50
aI79567
aI33
aI85
aS'M W F'
p51
aS' 7:30 AM'
p52
aI7
aI30
aI8
aI20
aNaNaNaNaNaNaNag5
aa(lp53
S'CON244'
p54
aI75741
aI0
aI39
aS'T'
p55
aS'10:30 AM'
p56
aI10
aI30
aI12
aI10
aNaNaNaNaNaNaNag29
aa(lp57
S'CON244'
p58
aI75742
aI0
aI39
aS'Th'
p59
aS'10:30 AM'
p60
aI10
aI30
aI12
aI10
aNaNaNaNaNaNaNag29
aa(lp61
S'CON244'
p62
aI88317
aI17
aI40
ag3
aS'12:00 PM'
p63
aI12
aI0
aI13
aI40
aNaNaNaNaNaNaNag5
aa(lp64
S'CON244'
p65
aI88318
aI17
aI40
ag8
aS'12:00 PM'
p66
aI12
aI0
aI13
aI40
aNaNaNaNaNaNaNag5
aa(lp67
S'CON251'
p68
aI70831
aI3
aI39
aS'M W'
p69
aS' 9:00 AM'
p70
aI9
aI0
aI10
aI15
aNaNaNaNaNaNaNag5
aa(lp71
S'CON251'
p72
aI70832
aI0
aI39
aS'M W'
p73
aS' 3:00 PM'
p74
aI15
aI0
aI16
aI15
aNaNaNaNaNaNaNag29
aa(lp75
S'CON252'
p76
aI70833
aI21
aI72
aS'T Th'
p77
aS' 4:30 PM'
p78
aI16
aI30
aI17
aI45
aNaNaNaNaNaNaNag5
aa(lp79
S'CON271'
p80
aI79568
aI0
aI30
aS'M W'
p81
aS' 1:30 PM'
p82
aI13
aI30
aI14
aI45
aNaNaNaNaNaNaNag29
aa(lp83
S'CON273'
p84
aI70834
aI0
aI34
aS'T Th'
p85
aS'10:30 AM'
p86
aI10
aI30
aI11
aI45
aNaNaNaNaNaNaNag29
aa(lp87
S'CON294'
p88
aI73793
aI1
aI10
aS'M W'
p89
aS'12:00 PM'
p90
aI12
aI0
aI13
aI15
aNaNaNaNaNaNaNag5
aa(lp91
S'CON294'
p92
aI77515
aI0
aI3
aS'M W'
p93
aS' 1:30 PM'
p94
aI13
aI30
aI14
aI45
aNaNaNaNaNaNaNag29
aa(lp95
S'CON310'
p96
aI70835
aI4
aI40
ag55
aS'3:00PM'
p97
aI15
aI0
aI16
aI15
aS'Th'
p98
aS'3:00PM'
p99
aI15
aI0
aS'5:05PM'
p100
aI17
aI5
ag5
aa(lp101
S'CON345'
p102
aI70836
aI0
aI36
aS'M W'
p103
aS' 6:00 PM'
p104
aI18
aI0
aI19
aI45
aNaNaNaNaNaNaNag29
aa(lp105
S'CON383'
p106
aI79569
aI0
aI35
aS'M W F'
p107
aS' 9:00 AM'
p108
aI9
aI0
aI10
aI50
aNaNaNaNaNaNaNag29
aa(lp109
S'CON394'
p110
aI73189
aI23
aI30
aS'M W'
p111
aS' 3:00 PM'
p112
aI15
aI0
aI16
aI15
aNaNaNaNaNaNaNag5
aa(lp113
S'CON424'
p114
aI70837
aI12
aI40
aS'M W'
p115
aS' 3:00 PM'
p116
aI15
aI0
aI16
aI15
aNaNaNaNaNaNaNag5
aa(lp117
S'CON446'
p118
aI80290
aI17
aI20
ag3
aS' 6:00 PM'
p119
aI18
aI0
aI20
aI45
aNaNaNaNaNaNaNag5
aa(lp120
S'CON450'
p121
aI74793
aI12
aI40
aS'T Th'
p122
aS'10:30 AM'
p123
aI10
aI30
aI11
aI45
aNaNaNaNaNaNaNag5
aa(lp124
S'CON453'
p125
aI79570
aI6
aI38
aS'M W'
p126
aS' 1:30 PM'
p127
aI13
aI30
aI14
aI45
aNaNaNaNaNaNaNag5
aa(lp128
S'CON453'
p129
aI79571
aI0
aI19
ag3
aS' 4:30 PM'
p130
aI16
aI30
aI18
aI30
aNaNaNaNaNaNaNag29
aa(lp131
S'CON453'
p132
aI79572
aI6
aI19
ag8
aS' 4:30 PM'
p133
aI16
aI30
aI18
aI30
aNaNaNaNaNaNaNag5
aa(lp134
S'CON454'
p135
aI83162
aI2
aI5
ag55
aS'12:00 PM'
p136
aI12
aI0
aI14
aI45
aNaNaNaNaNaNaNag5
aa(lp137
S'CON455'
p138
aI79573
aI11
aI36
ag55
aS' 4:30 PM'
p139
aI16
aI30
aI19
aI15
aNaNaNaNaNaNaNag5
aa(lp140
S'CON457'
p141
aI83731
aI10
aI20
aS'T Th'
p142
aS' 3:00 PM'
p143
aI15
aI0
aI16
aI15
aNaNaNaNaNaNaNag5
aa(lp144
S'CON465'
p145
aI90486
aI8
aI9
ag27
aS' 2:15 PM'
p146
aI14
aI15
aI17
aI5
aNaNaNaNaNaNaNag5
aa(lp147
S'CON483'
p148
aI70838
aI20
aI40
ag8
aS' 4:30 PM'
p149
aI16
aI30
aI19
aI15
aNaNaNaNaNaNaNag5
aa(lp150
S'CON486'
p151
aI70839
aI17
aI25
aS'T Th'
p152
aS' 9:00 AM'
p153
aI9
aI0
aI10
aI15
aNaNaNaNaNaNaNag5
aa(lp154
S'CON492'
p155
aI86083
aI30
aI30
aS'ONLINE'
p156
aNaNaNaNaNaNaNaNaNaNaNaNag5
aa(lp157
S'CON492'
p158
aI77893
aI12
aI12
ag156
aNaNaNaNaNaNaNaNaNaNaNaNag5
aa(lp159
S'CON493'
p160
aI77886
aI9
aI10
ag156
aNaNaNaNaNaNaNaNaNaNaNaNag5
aa(lp161
S'CON494'
p162
aI74966
aI7
aI8
ag55
aS' 4:30 PM'
p163
aI16
aI30
aI19
aI15
aNaNaNaNaNaNaNag5
aa(lp164
S'CON494'
p165
aI83991
aI30
aI30
aS'Th'
p166
aS'12:00 PM'
p167
aI12
aI0
aI14
aI45
aNaNaNaNaNaNaNag5
aa(lp168
S'CON495'
p169
aI79574
aI1
aI37
aS'T Th'
p170
aS' 7:30 AM'
p171
aI7
aI30
aI8
aI45
aNaNaNaNaNaNaNag5
aa(lp172
S'CON496'
p173
aI79575
aI10
aI35
ag3
aS' 6:00 PM'
p174
aI18
aI0
aI20
aI45
aNaNaNaNaNaNaNag5
aa(lp175
S'CON499'
p176
aI75382
aI10
aI11
ag156
aNaNaNaNaNaNaNaNaNaNaNaNag5
aa(lp177
S'CON540'
p178
aI70842
aI7
aI38
aS'Th'
p179
aS' 4:30 PM'
p180
aI16
aI30
aI19
aI15
aNaNaNaNaNaNaNag5
aa(lp181
S'CON554'
p182
aI73924
aI1
aI25
ag55
aS'12:00 PM'
p183
aI12
aI0
aI14
aI45
aNaNaNaNaNaNaNag5
aa(lp184
S'CON557'
p185
aI83732
aI4
aI20
aS'T Th'
p186
aS' 3:00 PM'
p187
aI15
aI0
aI16
aI15
aNaNaNaNaNaNaNag5
aa(lp188
S'CON565'
p189
aI83839
aI0
aI14
ag3
aS' 4:30 PM'
p190
aI16
aI30
aI19
aI15
aNaNaNaNaNaNaNag29
aa(lp191
S'CON567'
p192
aI91720
aI12
aI15
ag27
aS' 2:15 PM'
p193
aI14
aI15
aI17
aI5
aNaNaNaNaNaNaNag5
aa(lp194
S'CON584'
p195
aI91842
aI30
aI30
ag156
aNaNaNaNaNaNaNaNaNaNaNaNag5
aa(lp196
S'CON589'
p197
aI91239
aI5
aI15
ag3
aS' 6:00 PM'
p198
aI18
aI0
aI21
aI0
aNaNaNaNaNaNaNag5
aa(lp199
S'CON590'
p200
aI74799
aI29
aI30
ag156
aNaNaNaNaNaNaNaNaNaNaNaNag5
aa(lp201
S'CON591'
p202
aI80874
aI0
aI4
ag8
aS'12:00 PM'
p203
aI12
aI0
aI12
aI50
aNaNaNaNaNaNaNag29
aa(lp204
S'CON592'
p205
aI86069
aI30
aI30
ag156
aNaNaNaNaNaNaNaNaNaNaNaNag5
aa(lp206
S'CON592'
p207
aI74802
aI30
aI30
ag156
aNaNaNaNaNaNaNaNaNaNaNaNag5
aa(lp208
S'CON593'
p209
aI74804
aI29
aI30
ag156
aNaNaNaNaNaNaNaNaNaNaNaNag5
aa(lp210
S'CON595'
p211
aI80981
aI30
aI30
ag156
aNaNaNaNaNaNaNaNaNaNaNaNag5
aa(lp212
S'CON595'
p213
aI74800
aI30
aI30
ag156
aNaNaNaNaNaNaNaNaNaNaNaNag5
aa(lp214
S'CON598'
p215
aI91148
aI26
aI30
ag156
aNaNaNaNaNaNaNaNaNaNaNaNag5
aa(lp216
S'CON598'
p217
aI80291
aI9
aI20
ag3
aS' 6:00 PM'
p218
aI18
aI0
aI20
aI45
aNaNaNaNaNaNaNag5
aa(lp219
S'CON598'
p220
aI77957
aI15
aI15
ag55
aS'7:30AM'
p221
aI7
aI30
aI8
aI20
aS''
p222
aS'12:00AM'
p223
aNaNaS'12:00AM'
p224
aNaNag29
aa(lp225
S'CON598'
p226
aI83876
aI8
aI10
aS'M W'
p227
aS'10:30 AM'
p228
aI10
aI30
aI11
aI45
aNaNaNaNaNaNaNag5
aa(lp229
S'CON598'
p230
aI84036
aI0
aI12
aS'M W'
p231
aS' 1:30 PM'
p232
aI13
aI30
aI14
aI45
aNaNaNaNaNaNaNag29
aa(lp233
S'CON598'
p234
aI84037
aI18
aI30
ag27
aS' 9:00 AM'
p235
aI9
aI0
aI15
aI0
aNaNaNaNaNaNaNag5
aa(lp236
S'CON598'
p237
aI91454
aI24
aI30
ag8
aS' 6:00 PM'
p238
aI18
aI0
aI20
aI45
aNaNaNaNaNaNaNag5
aa(lp239
S'CON598'
p240
aI91648
aI12
aI15
aS'T Th'
p241
aS' 1:30 PM'
p242
aI13
aI30
aI14
aI45
aNaNaNaNaNaNaNag5
aa(lp243
S'CON598'
p244
aI91847
aI28
aI30
ag3
aS' 6:00 PM'
p245
aI18
aI0
aI20
aI45
aNaNaNaNaNaNaNag5
aa(lp246
S'CON599'
p247
aI74801
aI30
aI30
ag156
aNaNaNaNaNaNaNaNaNaNaNaNag5
aa(lp248
S'CON680'
p249
aI74220
aI30
aI30
ag156
aNaNaNaNaNaNaNaNaNaNaNaNag5
aa(lp250
S'CON790'
p251
aI75282
aI30
aI30
ag156
aNaNaNaNaNaNaNaNaNaNaNaNag5
aa(lp252
S'CON792'
p253
aI73384
aI18
aI20
ag156
aNaNaNaNaNaNaNaNaNaNaNaNag5
aa(lp254
S'CON799'
p255
aI74803
aI30
aI30
ag156
aNaNaNaNaNaNaNaNaNaNaNaNag5
aa.