(lp0
(lp1
S'CPP194'
p2
aI91105
aI40
aI40
aS'Th'
p3
aS'6:00PM'
p4
aI18
aI0
aI19
aI0
aS'Th'
p5
aS'6:00PM'
p6
aI18
aI0
aS'7:00PM'
p7
aI19
aI0
aS'Not Reserved'
p8
aa(lp9
S'CPP194'
p10
aI91253
aI40
aI40
aS'W'
p11
aS'6:00PM'
p12
aI18
aI0
aI19
aI0
ag11
aS'6:00PM'
p13
aI18
aI0
aS'7:00PM'
p14
aI19
aI0
ag8
aa(lp15
S'CPP194'
p16
aI91254
aI40
aI40
aS'T'
p17
aS'6:00PM'
p18
aI18
aI0
aI19
aI0
ag17
aS'6:00PM'
p19
aI18
aI0
aS'7:00PM'
p20
aI19
aI0
ag8
aa(lp21
S'CPP294'
p22
aI80775
aI15
aI15
aS'M'
p23
aS'6:00PM'
p24
aI18
aI0
aI20
aI45
aS''
p25
ag25
aNaNag25
aNaNag8
aa(lp26
S'CPP394'
p27
aI91106
aI40
aI40
aS'Th'
p28
aS'6:00PM'
p29
aI18
aI0
aI19
aI0
aS'Th'
p30
aS'6:00PM'
p31
aI18
aI0
aS'7:00PM'
p32
aI19
aI0
ag8
aa(lp33
S'CPP394'
p34
aI85857
aI30
aI30
aS'ONLINE'
p35
aNaNaNaNaNaNaNaNaNaNaNaNaS'Reserved'
p36
aa(lp37
S'CPP494'
p38
aI77949
aI25
aI25
ag35
aNaNaNaNaNaNaNaNaNaNaNaNag36
aa(lp39
S'CPP591'
p40
aI79240
aI30
aI30
aS'Sa'
p41
aS' 9:00 AM'
p42
aI9
aI0
aI17
aI0
aNaNaNaNaNaNaNag8
aa.