(lp0
(lp1
S'CPY599'
p2
aI76432
aI26
aI30
aS'ONLINE'
p3
aNaNaNaNaNaNaNaNaNaNaNaNaS'Reserved'
p4
aa(lp5
S'CPY651'
p6
aI78312
aI21
aI30
aS'M'
p7
aS' 9:00 AM'
p8
aI9
aI0
aI11
aI45
aNaNaNaNaNaNaNag4
aa(lp9
S'CPY660'
p10
aI80437
aI2
aI2
aS'Th'
p11
aS' 9:00 AM'
p12
aI9
aI0
aI11
aI45
aNaNaNaNaNaNaNag4
aa(lp13
S'CPY670'
p14
aI86095
aI13
aI25
aS'Th'
p15
aS' 8:30 AM'
p16
aI8
aI30
aI11
aI15
aNaNaNaNaNaNaNag4
aa(lp17
S'CPY671'
p18
aI75479
aI0
aI20
aS'Th'
p19
aS' 1:30 PM'
p20
aI13
aI30
aI16
aI15
aNaNaNaNaNaNaNag4
aa(lp21
S'CPY678'
p22
aI75480
aI22
aI30
aS'W'
p23
aS' 1:30 PM'
p24
aI13
aI30
aI16
aI15
aNaNaNaNaNaNaNag4
aa(lp25
S'CPY691'
p26
aI75481
aI15
aI25
ag23
aS'12:00 PM'
p27
aI12
aI0
aI13
aI15
aNaNaNaNaNaNaNag4
aa(lp28
S'CPY691'
p29
aI78316
aI27
aI30
aS'F'
p30
aS'12:00 PM'
p31
aI12
aI0
aI13
aI30
aNaNaNaNaNaNaNag4
aa(lp32
S'CPY691'
p33
aI82899
aI11
aI15
aS'T'
p34
aS' 5:30 PM'
p35
aI17
aI30
aI20
aI15
aNaNaNaNaNaNaNag4
aa(lp36
S'CPY691'
p37
aI86094
aI21
aI25
aS'Th'
p38
aS' 4:30 PM'
p39
aI16
aI30
aI19
aI15
aNaNaNaNaNaNaNag4
aa(lp40
S'CPY691'
p41
aI89839
aI25
aI25
ag34
aS' 1:30 PM'
p42
aI13
aI30
aI16
aI15
aNaNaNaNaNaNaNag4
aa(lp43
S'CPY691'
p44
aI91565
aI28
aI30
ag23
aS' 4:30 PM'
p45
aI16
aI30
aI19
aI15
aNaNaNaNaNaNaNaS'Not Reserved'
p46
aa(lp47
S'CPY694'
p48
aI75482
aI5
aI30
ag7
aS' 1:30 PM'
p49
aI13
aI30
aI16
aI15
aNaNaNaNaNaNaNag4
aa(lp50
S'CPY702'
p51
aI75483
aI3
aI7
ag34
aS' 9:00 AM'
p52
aI9
aI0
aI11
aI45
aNaNaNaNaNaNaNag46
aa(lp53
S'CPY780'
p54
aI78315
aI5
aI6
ag23
aS' 1:30 PM'
p55
aI13
aI30
aI16
aI15
aNaNaNaNaNaNaNag4
aa(lp56
S'CPY783'
p57
aI75484
aI11
aI20
ag30
aS' 9:00 AM'
p58
aI9
aI0
aI11
aI45
aNaNaNaNaNaNaNag4
aa(lp59
S'CPY784'
p60
aI75485
aI29
aI30
ag3
aNaNaNaNaNaNaNaNaNaNaNaNag4
aa(lp61
S'CPY791'
p62
aI75486
aI10
aI10
aS'Th'
p63
aS' 1:30 PM'
p64
aI13
aI30
aI16
aI15
aNaNaNaNaNaNaNag4
aa(lp65
S'CPY792'
p66
aI75487
aI30
aI30
ag3
aNaNaNaNaNaNaNaNaNaNaNaNag4
aa(lp67
S'CPY795'
p68
aI76395
aI30
aI30
ag3
aNaNaNaNaNaNaNaNaNaNaNaNag4
aa(lp69
S'CPY799'
p70
aI75488
aI28
aI30
ag3
aNaNaNaNaNaNaNaNaNaNaNaNag4
aa.