(lp0
(lp1
S'CRD210'
p2
aI79320
aI72
aI108
aS'M W F'
p3
aS' 1:30 PM'
p4
aI13
aI30
aI14
aI20
aNaNaNaNaNaNaNaS'Not Reserved'
p5
aa(lp6
S'CRD210'
p7
aI89187
aI16
aI40
aS'M W F'
p8
aS' 9:00 AM'
p9
aI9
aI0
aI9
aI50
aNaNaNaNaNaNaNag5
aa(lp10
S'CRD301'
p11
aI82381
aI17
aI40
aS'M W F'
p12
aS'10:30 AM'
p13
aI10
aI30
aI11
aI20
aNaNaNaNaNaNaNag5
aa(lp14
S'CRD301'
p15
aI89230
aI36
aI110
aS'M W'
p16
aS' 3:00 PM'
p17
aI15
aI0
aI16
aI15
aNaNaNaNaNaNaNag5
aa(lp18
S'CRD302'
p19
aI82385
aI14
aI80
aS'M W F'
p20
aS'10:30 AM'
p21
aI10
aI30
aI11
aI20
aNaNaNaNaNaNaNag5
aa(lp22
S'CRD302'
p23
aI89233
aI17
aI40
aS'M W F'
p24
aS'12:00 PM'
p25
aI12
aI0
aI12
aI50
aNaNaNaNaNaNaNag5
aa(lp26
S'CRD403'
p27
aI82386
aI47
aI108
aS'M W F'
p28
aS'12:00 PM'
p29
aI12
aI0
aI12
aI50
aNaNaNaNaNaNaNag5
aa(lp30
S'CRD494'
p31
aI79323
aI10
aI10
aS'ONLINE'
p32
aNaNaNaNaNaNaNaNaNaNaNaNaS'Reserved'
p33
aa(lp34
S'CRD500'
p35
aI72328
aI21
aI24
aS'T'
p36
aS' 1:30 PM'
p37
aI13
aI30
aI16
aI15
aNaNaNaNaNaNaNag5
aa(lp38
S'CRD502'
p39
aI75044
aI12
aI20
aS'T Th'
p40
aS' 4:30 PM'
p41
aI16
aI30
aI17
aI45
aNaNaNaNaNaNaNag5
aa(lp42
S'CRD552'
p43
aI79331
aI32
aI35
aS'W'
p44
aS' 4:30 PM'
p45
aI16
aI30
aI19
aI15
aNaNaNaNaNaNaNag5
aa(lp46
S'CRD569'
p47
aI75960
aI8
aI10
ag32
aNaNaNaNaNaNaNaNaNaNaNaNag33
aa(lp48
S'CRD572'
p49
aI84540
aI6
aI6
ag32
aNaNaNaNaNaNaNaNaNaNaNaNag33
aa(lp50
S'CRD580'
p51
aI76344
aI3
aI3
ag32
aNaNaNaNaNaNaNaNaNaNaNaNag5
aa(lp52
S'CRD591'
p53
aI73937
aI5
aI5
aS'T Th'
p54
aS' 9:00 AM'
p55
aI9
aI0
aI10
aI15
aNaNaNaNaNaNaNag5
aa(lp56
S'CRD591'
p57
aI73938
aI5
aI5
ag44
aS' 6:00 PM'
p58
aI18
aI0
aI20
aI45
aNaNaNaNaNaNaNag5
aa(lp59
S'CRD592'
p60
aI75963
aI5
aI5
ag32
aNaNaNaNaNaNaNaNaNaNaNaNag5
aa(lp61
S'CRD595'
p62
aI72329
aI5
aI5
ag32
aNaNaNaNaNaNaNaNaNaNaNaNag5
aa(lp63
S'CRD598'
p64
aI77679
aI4
aI10
ag32
aNaNaNaNaNaNaNaNaNaNaNaNag33
aa(lp65
S'CRD598'
p66
aI84357
aI0
aI1
ag32
aNaNaNaNaNaNaNaNaNaNaNaNag33
aa(lp67
S'CRD598'
p68
aI91439
aI1
aI2
ag32
aNaNaNaNaNaNaNaNaNaNaNaNag5
aa(lp69
S'CRD599'
p70
aI74165
aI3
aI4
ag32
aNaNaNaNaNaNaNaNaNaNaNaNag5
aa(lp71
S'CRD610'
p72
aI73594
aI13
aI15
aS'Th'
p73
aS' 1:30 PM'
p74
aI13
aI30
aI16
aI15
aNaNaNaNaNaNaNag5
aa(lp75
S'CRD620'
p76
aI74776
aI13
aI15
ag36
aS' 1:30 PM'
p77
aI13
aI30
aI16
aI15
aNaNaNaNaNaNaNag5
aa(lp78
S'CRD640'
p79
aI79333
aI12
aI15
ag44
aS' 3:00 PM'
p80
aI15
aI0
aI18
aI15
aNaNaNaNaNaNaNag5
aa(lp81
S'CRD690'
p82
aI78170
aI5
aI5
ag32
aNaNaNaNaNaNaNaNaNaNaNaNag5
aa(lp83
S'CRD792'
p84
aI75222
aI10
aI10
ag32
aNaNaNaNaNaNaNaNaNaNaNaNag5
aa(lp85
S'CRD792'
p86
aI85645
aI3
aI3
ag32
aNaNaNaNaNaNaNaNaNaNaNaNag5
aa(lp87
S'CRD795'
p88
aI80923
aI5
aI5
ag32
aNaNaNaNaNaNaNaNaNaNaNaNag5
aa(lp89
S'CRD799'
p90
aI84539
aI4
aI6
ag32
aNaNaNaNaNaNaNaNaNaNaNaNag5
aa.