(lp0
(lp1
S'CRJ100'
p2
aI74105
aI33
aI100
aS'ONLINE'
p3
aNaNaNaNaNaNaNaNaNaNaNaNaS'Reserved'
p4
aa(lp5
S'CRJ100'
p6
aI74107
aI51
aI59
aS'M W'
p7
aS' 4:30 PM'
p8
aI16
aI30
aI17
aI45
aNaNaNaNaNaNaNaS'Not Reserved'
p9
aa(lp10
S'CRJ100'
p11
aI74108
aI19
aI59
aS'T Th'
p12
aS' 1:30 PM'
p13
aI13
aI30
aI14
aI45
aNaNaNaNaNaNaNag9
aa(lp14
S'CRJ100'
p15
aI75187
aI98
aI125
aS'W'
p16
aS' 6:00 PM'
p17
aI18
aI0
aI20
aI45
aNaNaNaNaNaNaNag9
aa(lp18
S'CRJ100'
p19
aI75257
aI55
aI59
aS'M'
p20
aS' 6:00 PM'
p21
aI18
aI0
aI20
aI45
aNaNaNaNaNaNaNag9
aa(lp22
S'CRJ100'
p23
aI78103
aI44
aI59
aS'T Th'
p24
aS' 6:00 PM'
p25
aI18
aI0
aI19
aI15
aNaNaNaNaNaNaNag9
aa(lp26
S'CRJ100'
p27
aI85505
aI48
aI59
aS'T Th'
p28
aS' 9:00 AM'
p29
aI9
aI0
aI10
aI15
aNaNaNaNaNaNaNag9
aa(lp30
S'CRJ201'
p31
aI75681
aI15
aI80
ag3
aNaNaNaNaNaNaNaNaNaNaNaNag4
aa(lp32
S'CRJ201'
p33
aI75682
aI53
aI80
aS'T Th'
p34
aS' 3:00 PM'
p35
aI15
aI0
aI16
aI15
aNaNaNaNaNaNaNag9
aa(lp36
S'CRJ201'
p37
aI75684
aI66
aI80
aS'M W'
p38
aS' 4:30 PM'
p39
aI16
aI30
aI17
aI45
aNaNaNaNaNaNaNag9
aa(lp40
S'CRJ201'
p41
aI75929
aI67
aI80
aS'M W'
p42
aS' 3:00 PM'
p43
aI15
aI0
aI16
aI15
aNaNaNaNaNaNaNag9
aa(lp44
S'CRJ201'
p45
aI79719
aI13
aI80
aS'T Th'
p46
aS'12:00 PM'
p47
aI12
aI0
aI13
aI15
aNaNaNaNaNaNaNag9
aa(lp48
S'CRJ203'
p49
aI90326
aI36
aI80
aS'M W'
p50
aS' 3:00 PM'
p51
aI15
aI0
aI16
aI15
aNaNaNaNaNaNaNag9
aa(lp52
S'CRJ204'
p53
aI74075
aI16
aI80
aS'T'
p54
aS' 6:00 PM'
p55
aI18
aI0
aI20
aI45
aNaNaNaNaNaNaNag9
aa(lp56
S'CRJ225'
p57
aI76244
aI0
aI80
ag3
aNaNaNaNaNaNaNaNaNaNaNaNag4
aa(lp58
S'CRJ225'
p59
aI76245
aI62
aI80
aS'T Th'
p60
aS' 3:00 PM'
p61
aI15
aI0
aI16
aI15
aNaNaNaNaNaNaNag9
aa(lp62
S'CRJ225'
p63
aI76246
aI50
aI80
aS'T Th'
p64
aS' 4:30 PM'
p65
aI16
aI30
aI17
aI45
aNaNaNaNaNaNaNag9
aa(lp66
S'CRJ225'
p67
aI76247
aI74
aI80
aS'M W'
p68
aS' 6:00 PM'
p69
aI18
aI0
aI19
aI15
aNaNaNaNaNaNaNag9
aa(lp70
S'CRJ225'
p71
aI78793
aI52
aI80
ag16
aS' 6:00 PM'
p72
aI18
aI0
aI20
aI45
aNaNaNaNaNaNaNag9
aa(lp73
S'CRJ230'
p74
aI74084
aI1
aI80
aS'T Th'
p75
aS' 3:00 PM'
p76
aI15
aI0
aI16
aI15
aNaNaNaNaNaNaNag9
aa(lp77
S'CRJ240'
p78
aI74079
aI15
aI80
aS'T Th'
p79
aS' 1:30 PM'
p80
aI13
aI30
aI14
aI45
aNaNaNaNaNaNaNag9
aa(lp81
S'CRJ260'
p82
aI74074
aI60
aI80
aS'Th'
p83
aS' 6:00 PM'
p84
aI18
aI0
aI20
aI45
aNaNaNaNaNaNaNag9
aa(lp85
S'CRJ284'
p86
aI82843
aI72
aI100
ag3
aNaNaNaNaNaNaNaNaNaNaNaNag4
aa(lp87
S'CRJ302'
p88
aI74078
aI0
aI40
ag3
aNaNaNaNaNaNaNaNaNaNaNaNag4
aa(lp89
S'CRJ302'
p90
aI74086
aI26
aI40
ag20
aS' 6:00 PM'
p91
aI18
aI0
aI20
aI45
aNaNaNaNaNaNaNag9
aa(lp92
S'CRJ302'
p93
aI74187
aI0
aI40
aS'T Th'
p94
aS'10:30 AM'
p95
aI10
aI30
aI11
aI45
aNaNaNaNaNaNaNag4
aa(lp96
S'CRJ302'
p97
aI75685
aI0
aI40
aS'M W'
p98
aS'10:30 AM'
p99
aI10
aI30
aI11
aI45
aNaNaNaNaNaNaNag4
aa(lp100
S'CRJ302'
p101
aI90953
aI0
aI40
ag3
aNaNaNaNaNaNaNaNaNaNaNaNag4
aa(lp102
S'CRJ303'
p103
aI74077
aI0
aI60
ag3
aNaNaNaNaNaNaNaNaNaNaNaNag4
aa(lp104
S'CRJ303'
p105
aI74087
aI15
aI59
aS'T Th'
p106
aS'10:30 AM'
p107
aI10
aI30
aI11
aI45
aNaNaNaNaNaNaNag9
aa(lp108
S'CRJ303'
p109
aI79619
aI11
aI59
aS'M W'
p110
aS' 3:00 PM'
p111
aI15
aI0
aI16
aI15
aNaNaNaNaNaNaNag9
aa(lp112
S'CRJ303'
p113
aI79626
aI19
aI59
ag16
aS' 6:00 PM'
p114
aI18
aI0
aI20
aI45
aNaNaNaNaNaNaNag9
aa(lp115
S'CRJ305'
p116
aI74076
aI0
aI60
ag3
aNaNaNaNaNaNaNaNaNaNaNaNag4
aa(lp117
S'CRJ305'
p118
aI75075
aI38
aI59
aS'T Th'
p119
aS' 7:30 AM'
p120
aI7
aI30
aI8
aI45
aNaNaNaNaNaNaNag9
aa(lp121
S'CRJ305'
p122
aI76280
aI45
aI59
aS'M W'
p123
aS' 6:00 PM'
p124
aI18
aI0
aI19
aI15
aNaNaNaNaNaNaNag9
aa(lp125
S'CRJ305'
p126
aI78870
aI51
aI59
aS'T Th'
p127
aS' 6:00 PM'
p128
aI18
aI0
aI19
aI15
aNaNaNaNaNaNaNag9
aa(lp129
S'CRJ306'
p130
aI74090
aI0
aI60
ag3
aNaNaNaNaNaNaNaNaNaNaNaNag4
aa(lp131
S'CRJ306'
p132
aI74109
aI30
aI59
aS'T Th'
p133
aS' 4:30 PM'
p134
aI16
aI30
aI17
aI45
aNaNaNaNaNaNaNag9
aa(lp135
S'CRJ306'
p136
aI77075
aI22
aI59
ag54
aS' 6:00 PM'
p137
aI18
aI0
aI20
aI45
aNaNaNaNaNaNaNag9
aa(lp138
S'CRJ306'
p139
aI78881
aI0
aI59
aS'T Th'
p140
aS' 9:00 AM'
p141
aI9
aI0
aI10
aI15
aNaNaNaNaNaNaNag4
aa(lp142
S'CRJ308'
p143
aI76248
aI6
aI60
ag3
aNaNaNaNaNaNaNaNaNaNaNaNag4
aa(lp144
S'CRJ308'
p145
aI76249
aI17
aI59
aS'T Th'
p146
aS'10:30 AM'
p147
aI10
aI30
aI11
aI45
aNaNaNaNaNaNaNag9
aa(lp148
S'CRJ308'
p149
aI76250
aI7
aI60
aS'M W'
p150
aS' 3:00 PM'
p151
aI15
aI0
aI16
aI15
aNaNaNaNaNaNaNag9
aa(lp152
S'CRJ308'
p153
aI78894
aI18
aI59
aS'T Th'
p154
aS' 1:30 PM'
p155
aI13
aI30
aI14
aI45
aNaNaNaNaNaNaNag9
aa(lp156
S'CRJ315'
p157
aI89107
aI49
aI59
aS'Th'
p158
aS' 6:00 PM'
p159
aI18
aI0
aI20
aI45
aNaNaNaNaNaNaNag9
aa(lp160
S'CRJ321'
p161
aI74083
aI11
aI60
ag3
aNaNaNaNaNaNaNaNaNaNaNaNag4
aa(lp162
S'CRJ321'
p163
aI89137
aI28
aI59
ag54
aS' 6:00 PM'
p164
aI18
aI0
aI20
aI45
aNaNaNaNaNaNaNag9
aa(lp165
S'CRJ350'
p166
aI74114
aI0
aI60
ag3
aNaNaNaNaNaNaNaNaNaNaNaNag4
aa(lp167
S'CRJ350'
p168
aI75737
aI30
aI59
aS'T Th'
p169
aS' 7:30 AM'
p170
aI7
aI30
aI8
aI45
aNaNaNaNaNaNaNag9
aa(lp171
S'CRJ404'
p172
aI81916
aI23
aI59
aS'T Th'
p173
aS' 7:30 AM'
p174
aI7
aI30
aI8
aI45
aNaNaNaNaNaNaNag9
aa(lp175
S'CRJ405'
p176
aI81917
aI0
aI60
ag3
aNaNaNaNaNaNaNaNaNaNaNaNag4
aa(lp177
S'CRJ406'
p178
aI78011
aI0
aI60
ag3
aNaNaNaNaNaNaNaNaNaNaNaNag4
aa(lp179
S'CRJ406'
p180
aI81920
aI0
aI59
aS'M W'
p181
aS' 9:00 AM'
p182
aI9
aI0
aI10
aI15
aNaNaNaNaNaNaNag4
aa(lp183
S'CRJ408'
p184
aI89225
aI0
aI60
ag3
aNaNaNaNaNaNaNaNaNaNaNaNag4
aa(lp185
S'CRJ409'
p186
aI81928
aI30
aI59
aS'F'
p187
aS' 9:00 AM'
p188
aI9
aI0
aI11
aI45
aNaNaNaNaNaNaNag9
aa(lp189
S'CRJ410'
p190
aI91146
aI0
aI30
ag3
aNaNaNaNaNaNaNaNaNaNaNaNag4
aa(lp191
S'CRJ410'
p192
aI74073
aI20
aI59
aS'Th'
p193
aS' 6:00 PM'
p194
aI18
aI0
aI20
aI45
aNaNaNaNaNaNaNag9
aa(lp195
S'CRJ412'
p196
aI89820
aI0
aI30
ag3
aNaNaNaNaNaNaNaNaNaNaNaNag4
aa(lp197
S'CRJ413'
p198
aI90939
aI0
aI59
ag54
aS' 6:00 PM'
p199
aI18
aI0
aI20
aI45
aNaNaNaNaNaNaNag4
aa(lp200
S'CRJ417'
p201
aI84689
aI0
aI30
ag3
aNaNaNaNaNaNaNaNaNaNaNaNag4
aa(lp202
S'CRJ419'
p203
aI79915
aI0
aI30
ag3
aNaNaNaNaNaNaNaNaNaNaNaNag4
aa(lp204
S'CRJ443'
p205
aI74110
aI13
aI60
ag3
aNaNaNaNaNaNaNaNaNaNaNaNag4
aa(lp206
S'CRJ461'
p207
aI74610
aI0
aI60
ag3
aNaNaNaNaNaNaNaNaNaNaNaNag4
aa(lp208
S'CRJ461'
p209
aI74260
aI1
aI59
aS'T Th'
p210
aS'12:00 PM'
p211
aI12
aI0
aI13
aI15
aNaNaNaNaNaNaNag9
aa(lp212
S'CRJ462'
p213
aI89821
aI0
aI30
ag3
aNaNaNaNaNaNaNaNaNaNaNaNag4
aa(lp214
S'CRJ462'
p215
aI75200
aI0
aI59
ag20
aS' 6:00 PM'
p216
aI18
aI0
aI20
aI45
aNaNaNaNaNaNaNag4
aa(lp217
S'CRJ463'
p218
aI89822
aI0
aI30
ag3
aNaNaNaNaNaNaNaNaNaNaNaNag4
aa(lp219
S'CRJ464'
p220
aI89819
aI0
aI59
aS'Th'
p221
aS' 6:00 PM'
p222
aI18
aI0
aI20
aI45
aNaNaNaNaNaNaNag4
aa(lp223
S'CRJ470'
p224
aI91143
aI3
aI40
ag3
aNaNaNaNaNaNaNaNaNaNaNaNag4
aa(lp225
S'CRJ470'
p226
aI74111
aI7
aI40
ag16
aS' 6:00 PM'
p227
aI18
aI0
aI20
aI45
aNaNaNaNaNaNaNag9
aa(lp228
S'CRJ484'
p229
aI76513
aI100
aI100
ag3
aNaNaNaNaNaNaNaNaNaNaNaNag9
aa(lp230
S'CRJ492'
p231
aI74089
aI10
aI10
ag3
aNaNaNaNaNaNaNaNaNaNaNaNag9
aa(lp232
S'CRJ493'
p233
aI77026
aI8
aI10
ag3
aNaNaNaNaNaNaNaNaNaNaNaNag9
aa(lp234
S'CRJ494'
p235
aI74081
aI18
aI59
aS'T Th'
p236
aS' 9:00 AM'
p237
aI9
aI0
aI10
aI15
aNaNaNaNaNaNaNag9
aa(lp238
S'CRJ494'
p239
aI75043
aI6
aI100
aS'T Th'
p240
aS' 4:30 PM'
p241
aI16
aI30
aI17
aI45
aNaNaNaNaNaNaNag9
aa(lp242
S'CRJ499'
p243
aI75415
aI10
aI10
ag3
aNaNaNaNaNaNaNaNaNaNaNaNag9
aa(lp244
S'CRJ501'
p245
aI77865
aI8
aI20
ag54
aS' 1:30 PM'
p246
aI13
aI30
aI16
aI15
aNaNaNaNaNaNaNag9
aa(lp247
S'CRJ503'
p248
aI74088
aI8
aI20
aS'Th'
p249
aS' 1:30 PM'
p250
aI13
aI30
aI16
aI15
aNaNaNaNaNaNaNag9
aa(lp251
S'CRJ512'
p252
aI90329
aI14
aI20
ag20
aS' 4:30 PM'
p253
aI16
aI30
aI19
aI15
aNaNaNaNaNaNaNag9
aa(lp254
S'CRJ513'
p255
aI87976
aI5
aI20
aS'Th'
p256
aS' 1:30 PM'
p257
aI13
aI30
aI16
aI15
aNaNaNaNaNaNaNag9
aa(lp258
S'CRJ584'
p259
aI74119
aI25
aI25
ag3
aNaNaNaNaNaNaNaNaNaNaNaNag9
aa(lp260
S'CRJ595'
p261
aI76455
aI10
aI10
ag3
aNaNaNaNaNaNaNaNaNaNaNaNag9
aa(lp262
S'CRJ599'
p263
aI74112
aI7
aI10
ag3
aNaNaNaNaNaNaNaNaNaNaNaNag9
aa(lp264
S'CRJ602'
p265
aI87989
aI10
aI20
ag16
aS' 3:00 PM'
p266
aI15
aI0
aI17
aI45
aNaNaNaNaNaNaNag9
aa(lp267
S'CRJ604'
p268
aI74505
aI7
aI20
ag54
aS' 1:30 PM'
p269
aI13
aI30
aI16
aI15
aNaNaNaNaNaNaNag9
aa(lp270
S'CRJ609'
p271
aI87991
aI9
aI20
ag20
aS' 3:00 PM'
p272
aI15
aI0
aI17
aI45
aNaNaNaNaNaNaNag9
aa(lp273
S'CRJ792'
p274
aI74509
aI10
aI10
ag3
aNaNaNaNaNaNaNaNaNaNaNaNag9
aa(lp275
S'CRJ795'
p276
aI76593
aI4
aI10
ag3
aNaNaNaNaNaNaNaNaNaNaNaNag9
aa(lp277
S'CRJ799'
p278
aI74226
aI16
aI20
ag3
aNaNaNaNaNaNaNaNaNaNaNaNag9
aa.