(lp0
(lp1
S'CSE100'
p2
aI81575
aI333
aI435
aS'M W F'
p3
aS' 1:30 PM'
p4
aI13
aI30
aI14
aI20
aNaNaNaNaNaNaNaS'Not Reserved'
p5
aa(lp6
S'CSE100'
p7
aI81576
aI10
aI25
aS'M'
p8
aS'10:30 AM'
p9
aI10
aI30
aI11
aI20
aNaNaNaNaNaNaNag5
aa(lp10
S'CSE100'
p11
aI81577
aI22
aI27
aS'W'
p12
aS'10:30 AM'
p13
aI10
aI30
aI11
aI20
aNaNaNaNaNaNaNag5
aa(lp14
S'CSE100'
p15
aI81579
aI14
aI27
aS'F'
p16
aS'10:30 AM'
p17
aI10
aI30
aI11
aI20
aNaNaNaNaNaNaNag5
aa(lp18
S'CSE100'
p19
aI81580
aI19
aI27
aS'T'
p20
aS'10:30 AM'
p21
aI10
aI30
aI11
aI20
aNaNaNaNaNaNaNag5
aa(lp22
S'CSE100'
p23
aI81581
aI15
aI27
aS'Th'
p24
aS'10:30 AM'
p25
aI10
aI30
aI11
aI20
aNaNaNaNaNaNaNag5
aa(lp26
S'CSE100'
p27
aI81582
aI21
aI25
ag8
aS' 9:00 AM'
p28
aI9
aI0
aI9
aI50
aNaNaNaNaNaNaNag5
aa(lp29
S'CSE100'
p30
aI81583
aI20
aI25
ag12
aS' 9:00 AM'
p31
aI9
aI0
aI9
aI50
aNaNaNaNaNaNaNag5
aa(lp32
S'CSE100'
p33
aI81584
aI20
aI25
ag16
aS' 9:00 AM'
p34
aI9
aI0
aI9
aI50
aNaNaNaNaNaNaNag5
aa(lp35
S'CSE100'
p36
aI81585
aI25
aI26
ag20
aS' 9:00 AM'
p37
aI9
aI0
aI9
aI50
aNaNaNaNaNaNaNag5
aa(lp38
S'CSE100'
p39
aI81586
aI26
aI26
aS'Th'
p40
aS' 9:00 AM'
p41
aI9
aI0
aI9
aI50
aNaNaNaNaNaNaNag5
aa(lp42
S'CSE100'
p43
aI81587
aI17
aI26
ag8
aS' 3:00 PM'
p44
aI15
aI0
aI15
aI50
aNaNaNaNaNaNaNag5
aa(lp45
S'CSE100'
p46
aI81588
aI21
aI25
ag12
aS' 3:00 PM'
p47
aI15
aI0
aI15
aI50
aNaNaNaNaNaNaNag5
aa(lp48
S'CSE100'
p49
aI81593
aI28
aI29
ag16
aS' 3:00 PM'
p50
aI15
aI0
aI17
aI30
aNaNaNaNaNaNaNag5
aa(lp51
S'CSE100'
p52
aI81594
aI26
aI29
ag16
aS' 3:00 PM'
p53
aI15
aI0
aI15
aI50
aNaNaNaNaNaNaNag5
aa(lp54
S'CSE100'
p55
aI81595
aI26
aI29
ag20
aS' 1:30 PM'
p56
aI13
aI30
aI14
aI20
aNaNaNaNaNaNaNag5
aa(lp57
S'CSE100'
p58
aI81596
aI21
aI29
aS'Th'
p59
aS' 1:30 PM'
p60
aI13
aI30
aI14
aI20
aNaNaNaNaNaNaNag5
aa(lp61
S'CSE100'
p62
aI81597
aI25
aI29
ag20
aS' 3:00 PM'
p63
aI15
aI0
aI15
aI50
aNaNaNaNaNaNaNag5
aa(lp64
S'CSE100'
p65
aI86301
aI23
aI25
aS'Th'
p66
aS' 3:00 PM'
p67
aI15
aI0
aI15
aI50
aNaNaNaNaNaNaNag5
aa(lp68
S'CSE110'
p69
aI81600
aI351
aI400
aS'M W F'
p70
aS'10:30 AM'
p71
aI10
aI30
aI11
aI20
aNaNaNaNaNaNaNag5
aa(lp72
S'CSE110'
p73
aI81601
aI17
aI27
ag8
aS' 1:30 PM'
p74
aI13
aI30
aI14
aI20
aNaNaNaNaNaNaNaS'Reserved'
p75
aa(lp76
S'CSE110'
p77
aI81602
aI20
aI27
ag12
aS' 1:30 PM'
p78
aI13
aI30
aI14
aI20
aNaNaNaNaNaNaNag5
aa(lp79
S'CSE110'
p80
aI81603
aI24
aI27
ag16
aS' 1:30 PM'
p81
aI13
aI30
aI14
aI20
aNaNaNaNaNaNaNag5
aa(lp82
S'CSE110'
p83
aI81605
aI21
aI27
aS'Th'
p84
aS'12:00 PM'
p85
aI12
aI0
aI12
aI50
aNaNaNaNaNaNaNag5
aa(lp86
S'CSE110'
p87
aI81606
aI22
aI25
ag12
aS' 7:30 AM'
p88
aI7
aI30
aI8
aI20
aNaNaNaNaNaNaNag5
aa(lp89
S'CSE110'
p90
aI81607
aI25
aI27
ag20
aS'10:30 AM'
p91
aI10
aI30
aI11
aI20
aNaNaNaNaNaNaNag5
aa(lp92
S'CSE110'
p93
aI81608
aI22
aI27
aS'Th'
p94
aS'10:30 AM'
p95
aI10
aI30
aI11
aI20
aNaNaNaNaNaNaNag5
aa(lp96
S'CSE110'
p97
aI81609
aI25
aI27
ag8
aS'12:00 PM'
p98
aI12
aI0
aI12
aI50
aNaNaNaNaNaNaNag5
aa(lp99
S'CSE110'
p100
aI81610
aI26
aI27
ag12
aS'12:00 PM'
p101
aI12
aI0
aI12
aI50
aNaNaNaNaNaNaNag5
aa(lp102
S'CSE110'
p103
aI81611
aI25
aI27
ag16
aS'12:00 PM'
p104
aI12
aI0
aI12
aI50
aNaNaNaNaNaNaNag5
aa(lp105
S'CSE110'
p106
aI81612
aI25
aI25
ag8
aS' 9:00 AM'
p107
aI9
aI0
aI9
aI50
aNaNaNaNaNaNaNag5
aa(lp108
S'CSE110'
p109
aI81613
aI25
aI27
ag12
aS' 9:00 AM'
p110
aI9
aI0
aI9
aI50
aNaNaNaNaNaNaNag5
aa(lp111
S'CSE110'
p112
aI81614
aI27
aI27
ag12
aS' 9:00 AM'
p113
aI9
aI0
aI9
aI50
aNaNaNaNaNaNaNag5
aa(lp114
S'CSE110'
p115
aI81615
aI26
aI27
ag16
aS' 9:00 AM'
p116
aI9
aI0
aI9
aI50
aNaNaNaNaNaNaNag5
aa(lp117
S'CSE110'
p118
aI81616
aI26
aI27
aS'Th'
p119
aS' 4:30 PM'
p120
aI16
aI30
aI17
aI20
aNaNaNaNaNaNaNag5
aa(lp121
S'CSE110'
p122
aI81617
aI23
aI27
ag20
aS' 4:30 PM'
p123
aI16
aI30
aI17
aI20
aNaNaNaNaNaNaNag5
aa(lp124
S'CSE110'
p125
aI81618
aI355
aI400
aS'M W F'
p126
aS'12:00 PM'
p127
aI12
aI0
aI12
aI50
aNaNaNaNaNaNaNag5
aa(lp128
S'CSE110'
p129
aI81619
aI18
aI25
ag20
aS'12:00 PM'
p130
aI12
aI0
aI12
aI50
aNaNaNaNaNaNaNag75
aa(lp131
S'CSE110'
p132
aI81621
aI20
aI26
ag8
aS'10:30 AM'
p133
aI10
aI30
aI11
aI20
aNaNaNaNaNaNaNag5
aa(lp134
S'CSE110'
p135
aI81622
aI20
aI26
ag12
aS'10:30 AM'
p136
aI10
aI30
aI11
aI20
aNaNaNaNaNaNaNag5
aa(lp137
S'CSE110'
p138
aI81623
aI19
aI26
ag16
aS'10:30 AM'
p139
aI10
aI30
aI11
aI20
aNaNaNaNaNaNaNag75
aa(lp140
S'CSE110'
p141
aI81624
aI23
aI25
ag20
aS' 7:30 AM'
p142
aI7
aI30
aI8
aI20
aNaNaNaNaNaNaNag5
aa(lp143
S'CSE110'
p144
aI81625
aI25
aI25
aS'Th'
p145
aS' 7:30 AM'
p146
aI7
aI30
aI8
aI20
aNaNaNaNaNaNaNag5
aa(lp147
S'CSE110'
p148
aI81626
aI26
aI26
ag8
aS' 7:30 AM'
p149
aI7
aI30
aI8
aI20
aNaNaNaNaNaNaNag5
aa(lp150
S'CSE110'
p151
aI81627
aI25
aI26
ag12
aS' 7:30 AM'
p152
aI7
aI30
aI8
aI20
aNaNaNaNaNaNaNag5
aa(lp153
S'CSE110'
p154
aI81628
aI26
aI26
ag16
aS' 7:30 AM'
p155
aI7
aI30
aI8
aI20
aNaNaNaNaNaNaNag5
aa(lp156
S'CSE110'
p157
aI81629
aI24
aI26
ag16
aS' 3:00 PM'
p158
aI15
aI0
aI15
aI50
aNaNaNaNaNaNaNag5
aa(lp159
S'CSE110'
p160
aI81634
aI23
aI25
ag8
aS' 3:00 PM'
p161
aI15
aI0
aI15
aI50
aNaNaNaNaNaNaNag5
aa(lp162
S'CSE110'
p163
aI81635
aI20
aI26
ag12
aS' 3:00 PM'
p164
aI15
aI0
aI15
aI50
aNaNaNaNaNaNaNag5
aa(lp165
S'CSE110'
p166
aI81636
aI24
aI26
aS'Th'
p167
aS' 3:00 PM'
p168
aI15
aI0
aI15
aI50
aNaNaNaNaNaNaNag5
aa(lp169
S'CSE110'
p170
aI81637
aI25
aI26
ag20
aS' 3:00 PM'
p171
aI15
aI0
aI15
aI50
aNaNaNaNaNaNaNag5
aa(lp172
S'CSE110'
p173
aI81638
aI24
aI26
ag20
aS'10:30 AM'
p174
aI10
aI30
aI11
aI20
aNaNaNaNaNaNaNag5
aa(lp175
S'CSE110'
p176
aI81639
aI25
aI26
aS'Th'
p177
aS'10:30 AM'
p178
aI10
aI30
aI11
aI20
aNaNaNaNaNaNaNag5
aa(lp179
S'CSE110'
p180
aI89976
aI113
aI120
aS'M W F'
p181
aS' 7:30 AM'
p182
aI7
aI30
aI8
aI20
aNaNaNaNaNaNaNag5
aa(lp183
S'CSE110'
p184
aI86338
aI29
aI30
ag20
aS' 9:00 AM'
p185
aI9
aI0
aI9
aI50
aNaNaNaNaNaNaNag5
aa(lp186
S'CSE110'
p187
aI86339
aI29
aI30
aS'Th'
p188
aS' 9:00 AM'
p189
aI9
aI0
aI9
aI50
aNaNaNaNaNaNaNag5
aa(lp190
S'CSE110'
p191
aI86953
aI26
aI30
ag8
aS'10:30 AM'
p192
aI10
aI30
aI11
aI20
aNaNaNaNaNaNaNag5
aa(lp193
S'CSE110'
p194
aI86964
aI29
aI30
ag8
aS' 4:30 PM'
p195
aI16
aI30
aI17
aI20
aNaNaNaNaNaNaNag5
aa(lp196
S'CSE110'
p197
aI89977
aI106
aI120
aS'M W'
p198
aS' 6:00 PM'
p199
aI18
aI0
aI19
aI15
aNaNaNaNaNaNaNag5
aa(lp200
S'CSE110'
p201
aI86954
aI25
aI30
ag20
aS'10:30 AM'
p202
aI10
aI30
aI11
aI20
aNaNaNaNaNaNaNag5
aa(lp203
S'CSE110'
p204
aI86956
aI30
aI30
aS'Th'
p205
aS'10:30 AM'
p206
aI10
aI30
aI11
aI20
aNaNaNaNaNaNaNag5
aa(lp207
S'CSE110'
p208
aI86959
aI22
aI30
ag20
aS' 3:00 PM'
p209
aI15
aI0
aI15
aI50
aNaNaNaNaNaNaNag5
aa(lp210
S'CSE110'
p211
aI86963
aI29
aI30
ag16
aS' 3:00 PM'
p212
aI15
aI0
aI15
aI50
aNaNaNaNaNaNaNag5
aa(lp213
S'CSE110'
p214
aI89979
aI94
aI120
aS'T Th'
p215
aS'10:30 AM'
p216
aI10
aI30
aI11
aI45
aNaNaNaNaNaNaNag5
aa(lp217
S'CSE110'
p218
aI86950
aI24
aI30
ag12
aS' 7:30 AM'
p219
aI7
aI30
aI8
aI20
aNaNaNaNaNaNaNag5
aa(lp220
S'CSE110'
p221
aI86951
aI28
aI30
ag16
aS' 7:30 AM'
p222
aI7
aI30
aI8
aI20
aNaNaNaNaNaNaNag5
aa(lp223
S'CSE110'
p224
aI86960
aI16
aI30
ag12
aS' 3:00 PM'
p225
aI15
aI0
aI15
aI50
aNaNaNaNaNaNaNag5
aa(lp226
S'CSE110'
p227
aI86966
aI26
aI30
ag16
aS' 4:30 PM'
p228
aI16
aI30
aI17
aI20
aNaNaNaNaNaNaNag5
aa(lp229
S'CSE110'
p230
aI89980
aI76
aI120
aS'T Th'
p231
aS' 1:30 PM'
p232
aI13
aI30
aI14
aI45
aNaNaNaNaNaNaNag5
aa(lp233
S'CSE110'
p234
aI86955
aI13
aI30
ag12
aS'10:30 AM'
p235
aI10
aI30
aI11
aI20
aNaNaNaNaNaNaNag75
aa(lp236
S'CSE110'
p237
aI86957
aI25
aI30
ag16
aS'10:30 AM'
p238
aI10
aI30
aI11
aI20
aNaNaNaNaNaNaNag5
aa(lp239
S'CSE110'
p240
aI86961
aI19
aI30
aS'Th'
p241
aS' 3:00 PM'
p242
aI15
aI0
aI15
aI50
aNaNaNaNaNaNaNag75
aa(lp243
S'CSE110'
p244
aI86965
aI19
aI30
ag12
aS' 4:30 PM'
p245
aI16
aI30
aI17
aI20
aNaNaNaNaNaNaNag75
aa(lp246
S'CSE120'
p247
aI70846
aI0
aI61
aS'T Th'
p248
aS' 9:00 AM'
p249
aI9
aI0
aI10
aI15
aNaNaNaNaNaNaNag75
aa(lp250
S'CSE120'
p251
aI81676
aI0
aI61
aS'ONLINE'
p252
aNaNaNaNaNaNaNaNaNaNaNaNag75
aa(lp253
S'CSE120'
p254
aI70847
aI0
aI46
aS'M W'
p255
aS' 3:00 PM'
p256
aI15
aI0
aI16
aI15
aNaNaNaNaNaNaNag75
aa(lp257
S'CSE120'
p258
aI81677
aI0
aI46
ag252
aNaNaNaNaNaNaNaNaNaNaNaNag75
aa(lp259
S'CSE120'
p260
aI70848
aI0
aI51
aS'T Th'
p261
aS' 1:30 PM'
p262
aI13
aI30
aI14
aI45
aNaNaNaNaNaNaNag75
aa(lp263
S'CSE120'
p264
aI81678
aI0
aI51
ag252
aNaNaNaNaNaNaNaNaNaNaNaNag75
aa(lp265
S'CSE120'
p266
aI70849
aI3
aI41
aS'T Th'
p267
aS'12:00 PM'
p268
aI12
aI0
aI13
aI15
aNaNaNaNaNaNaNag5
aa(lp269
S'CSE120'
p270
aI81679
aI3
aI41
ag252
aNaNaNaNaNaNaNaNaNaNaNaNag5
aa(lp271
S'CSE120'
p272
aI79004
aI7
aI52
aS'T Th'
p273
aS'10:30 AM'
p274
aI10
aI30
aI11
aI45
aNaNaNaNaNaNaNag5
aa(lp275
S'CSE120'
p276
aI81680
aI7
aI52
ag252
aNaNaNaNaNaNaNaNaNaNaNaNag5
aa(lp277
S'CSE120'
p278
aI80673
aI34
aI50
aS'M W'
p279
aS' 9:00 AM'
p280
aI9
aI0
aI10
aI15
aNaNaNaNaNaNaNag5
aa(lp281
S'CSE120'
p282
aI81681
aI34
aI50
ag252
aNaNaNaNaNaNaNaNaNaNaNaNag5
aa(lp283
S'CSE120'
p284
aI82954
aI28
aI50
aS'T Th'
p285
aS' 3:00 PM'
p286
aI15
aI0
aI16
aI15
aNaNaNaNaNaNaNag5
aa(lp287
S'CSE120'
p288
aI82955
aI28
aI50
ag252
aNaNaNaNaNaNaNaNaNaNaNaNag5
aa(lp289
S'CSE120'
p290
aI89807
aI12
aI36
aS'M W'
p291
aS' 1:30 PM'
p292
aI13
aI30
aI14
aI45
aNaNaNaNaNaNaNag5
aa(lp293
S'CSE120'
p294
aI89808
aI12
aI36
ag252
aNaNaNaNaNaNaNaNaNaNaNaNag5
aa(lp295
S'CSE180'
p296
aI70850
aI86
aI150
ag252
aNaNaNaNaNaNaNaNaNaNaNaNag75
aa(lp297
S'CSE205'
p298
aI70851
aI72
aI132
aS'M W F'
p299
aS' 9:00 AM'
p300
aI9
aI0
aI9
aI50
aNaNaNaNaNaNaNag5
aa(lp301
S'CSE205'
p302
aI70852
aI22
aI132
aS'M W F'
p303
aS'10:30 AM'
p304
aI10
aI30
aI11
aI20
aNaNaNaNaNaNaNag5
aa(lp305
S'CSE205'
p306
aI75105
aI94
aI196
aS'T Th'
p307
aS' 4:30 PM'
p308
aI16
aI30
aI17
aI45
aNaNaNaNaNaNaNag5
aa(lp309
S'CSE220'
p310
aI70853
aI55
aI99
aS'M W F'
p311
aS'10:30 AM'
p312
aI10
aI30
aI11
aI20
aNaNaNaNaNaNaNag5
aa(lp313
S'CSE230'
p314
aI70854
aI0
aI77
aS'M W F'
p315
aS'10:30 AM'
p316
aI10
aI30
aI11
aI20
aNaNaNaNaNaNaNag75
aa(lp317
S'CSE230'
p318
aI70856
aI0
aI69
aS'T Th'
p319
aS' 4:30 PM'
p320
aI16
aI30
aI17
aI45
aNaNaNaNaNaNaNag75
aa(lp321
S'CSE230'
p322
aI75814
aI5
aI87
aS'M W F'
p323
aS' 1:30 PM'
p324
aI13
aI30
aI14
aI20
aNaNaNaNaNaNaNag5
aa(lp325
S'CSE240'
p326
aI77513
aI110
aI299
aS'T Th'
p327
aS' 7:30 AM'
p328
aI7
aI30
aI8
aI45
aNaNaNaNaNaNaNag5
aa(lp329
S'CSE310'
p330
aI70859
aI5
aI125
aS'M W F'
p331
aS'12:00 PM'
p332
aI12
aI0
aI12
aI50
aNaNaNaNaNaNaNag5
aa(lp333
S'CSE310'
p334
aI70860
aI51
aI128
aS'M W F'
p335
aS'10:30 AM'
p336
aI10
aI30
aI11
aI20
aNaNaNaNaNaNaNag5
aa(lp337
S'CSE310'
p338
aI83387
aI53
aI135
aS'M W'
p339
aS' 6:00 PM'
p340
aI18
aI0
aI19
aI15
aNaNaNaNaNaNaNag5
aa(lp341
S'CSE320'
p342
aI70861
aI30
aI99
aS'M W'
p343
aS' 6:00 PM'
p344
aI18
aI0
aI19
aI15
aNaNaNaNaNaNaNag5
aa(lp345
S'CSE325'
p346
aI70845
aI35
aI70
aS'M W F'
p347
aS' 9:00 AM'
p348
aI9
aI0
aI9
aI50
aNaNaNaNaNaNaNag5
aa(lp349
S'CSE340'
p350
aI82243
aI46
aI220
aS'M W'
p351
aS' 1:30 PM'
p352
aI13
aI30
aI14
aI45
aNaNaNaNaNaNaNag5
aa(lp353
S'CSE355'
p354
aI70863
aI0
aI132
aS'T Th'
p355
aS'12:00 PM'
p356
aI12
aI0
aI13
aI15
aNaNaNaNaNaNaNag75
aa(lp357
S'CSE355'
p358
aI74189
aI64
aI128
aS'M W F'
p359
aS' 9:00 AM'
p360
aI9
aI0
aI9
aI50
aNaNaNaNaNaNaNag5
aa(lp361
S'CSE360'
p362
aI70864
aI14
aI125
aS'M W'
p363
aS' 4:30 PM'
p364
aI16
aI30
aI17
aI45
aNaNaNaNaNaNaNag5
aa(lp365
S'CSE360'
p366
aI70865
aI109
aI125
aS'M W F'
p367
aS' 1:30 PM'
p368
aI13
aI30
aI14
aI20
aNaNaNaNaNaNaNag5
aa(lp369
S'CSE360'
p370
aI82244
aI0
aI125
aS'T Th'
p371
aS'10:30 AM'
p372
aI10
aI30
aI11
aI45
aNaNaNaNaNaNaNag75
aa(lp373
S'CSE394'
p374
aI85917
aI0
aI51
aS'M W'
p375
aS'12:00 PM'
p376
aI12
aI0
aI13
aI15
aNaNaNaNaNaNaNag75
aa(lp377
S'CSE394'
p378
aI91067
aI52
aI60
aS'T Th'
p379
aS' 7:30 AM'
p380
aI7
aI30
aI8
aI45
aNaNaNaNaNaNaNag5
aa(lp381
S'CSE408'
p382
aI90876
aI78
aI120
aS'T Th'
p383
aS'10:30 AM'
p384
aI10
aI30
aI11
aI45
aNaNaNaNaNaNaNag5
aa(lp385
S'CSE412'
p386
aI70866
aI19
aI125
aS'T Th'
p387
aS' 4:30 PM'
p388
aI16
aI30
aI17
aI45
aNaNaNaNaNaNaNag5
aa(lp389
S'CSE420'
p390
aI82285
aI27
aI70
aS'M W F'
p391
aS' 1:30 PM'
p392
aI13
aI30
aI14
aI20
aNaNaNaNaNaNaNag5
aa(lp393
S'CSE423'
p394
aI70868
aI5
aI50
ag20
aS'9:00AM'
p395
aI9
aI0
aI10
aI15
aS''
p396
ag396
aNaNag396
aNaNag5
aa(lp397
S'CSE423'
p398
aI80220
aI32
aI45
aS'Th'
p399
aS'9:00AM'
p400
aI9
aI0
aI10
aI15
ag396
ag396
aNaNag396
aNaNag5
aa(lp401
S'CSE424'
p402
aI75662
aI21
aI46
aS'Th'
p403
aS'10:30AM'
p404
aI10
aI30
aI11
aI45
ag396
ag396
aNaNag396
aNaNag5
aa(lp405
S'CSE430'
p406
aI70870
aI43
aI260
aS'M W'
p407
aS' 6:00 PM'
p408
aI18
aI0
aI19
aI15
aNaNaNaNaNaNaNag5
aa(lp409
S'CSE434'
p410
aI70871
aI91
aI190
aS'M W'
p411
aS' 4:30 PM'
p412
aI16
aI30
aI17
aI45
aNaNaNaNaNaNaNag5
aa(lp413
S'CSE438'
p414
aI83342
aI3
aI66
aS'T Th'
p415
aS' 4:30 PM'
p416
aI16
aI30
aI17
aI45
aNaNaNaNaNaNaNag5
aa(lp417
S'CSE445'
p418
aI70872
aI41
aI125
aS'T Th'
p419
aS' 3:00 PM'
p420
aI15
aI0
aI16
aI15
aNaNaNaNaNaNaNag5
aa(lp421
S'CSE450'
p422
aI70873
aI50
aI80
aS'T Th'
p423
aS'10:30 AM'
p424
aI10
aI30
aI11
aI45
aNaNaNaNaNaNaNag5
aa(lp425
S'CSE460'
p426
aI70874
aI62
aI100
aS'M W'
p427
aS' 6:00 PM'
p428
aI18
aI0
aI19
aI15
aNaNaNaNaNaNaNag5
aa(lp429
S'CSE464'
p430
aI76967
aI25
aI120
aS'M W'
p431
aS' 4:30 PM'
p432
aI16
aI30
aI17
aI45
aNaNaNaNaNaNaNag5
aa(lp433
S'CSE465'
p434
aI70875
aI78
aI128
aS'M W F'
p435
aS' 9:00 AM'
p436
aI9
aI0
aI9
aI50
aNaNaNaNaNaNaNag5
aa(lp437
S'CSE466'
p438
aI72899
aI32
aI99
aS'M W'
p439
aS' 4:30 PM'
p440
aI16
aI30
aI17
aI45
aNaNaNaNaNaNaNag75
aa(lp441
S'CSE468'
p442
aI73696
aI54
aI125
aS'M W F'
p443
aS'10:30 AM'
p444
aI10
aI30
aI11
aI20
aNaNaNaNaNaNaNag5
aa(lp445
S'CSE470'
p446
aI70876
aI28
aI80
aS'T Th'
p447
aS' 9:00 AM'
p448
aI9
aI0
aI10
aI15
aNaNaNaNaNaNaNag5
aa(lp449
S'CSE471'
p450
aI90873
aI36
aI100
ag16
aS' 1:30 PM'
p451
aI13
aI30
aI16
aI0
aNaNaNaNaNaNaNag5
aa(lp452
S'CSE472'
p453
aI82010
aI60
aI66
aS'M W'
p454
aS' 9:00 AM'
p455
aI9
aI0
aI10
aI15
aNaNaNaNaNaNaNag5
aa(lp456
S'CSE477'
p457
aI91065
aI40
aI69
aS'M W'
p458
aS'10:30 AM'
p459
aI10
aI30
aI11
aI45
aNaNaNaNaNaNaNag5
aa(lp460
S'CSE484'
p461
aI80999
aI30
aI30
ag252
aNaNaNaNaNaNaNaNaNaNaNaNag5
aa(lp462
S'CSE484'
p463
aI74992
aI29
aI30
ag252
aNaNaNaNaNaNaNaNaNaNaNaNag5
aa(lp464
S'CSE485'
p465
aI70877
aI36
aI50
ag16
aS'9:00AM'
p466
aI9
aI0
aI10
aI15
ag396
ag396
aNaNag396
aNaNag5
aa(lp467
S'CSE485'
p468
aI80003
aI14
aI50
ag16
aS'10:30AM'
p469
aI10
aI30
aI11
aI45
ag396
ag396
aNaNag396
aNaNag5
aa(lp470
S'CSE485'
p471
aI80015
aI1
aI50
ag16
aS'12:00PM'
p472
aI12
aI0
aI13
aI15
ag396
ag396
aNaNag396
aNaNag5
aa(lp473
S'CSE485'
p474
aI84065
aI5
aI45
aS'Th'
p475
aS'9:00AM'
p476
aI9
aI0
aI10
aI15
ag396
ag396
aNaNag396
aNaNag5
aa(lp477
S'CSE485'
p478
aI86969
aI6
aI39
ag16
aS'1:30PM'
p479
aI13
aI30
aI14
aI45
ag396
ag396
aNaNag396
aNaNag5
aa(lp480
S'CSE486'
p481
aI75724
aI34
aI55
ag20
aS'10:30AM'
p482
aI10
aI30
aI11
aI45
ag396
ag396
aNaNag396
aNaNag5
aa(lp483
S'CSE486'
p484
aI82467
aI4
aI50
aS'Th'
p485
aS'10:30AM'
p486
aI10
aI30
aI11
aI45
ag396
ag396
aNaNag396
aNaNag5
aa(lp487
S'CSE492'
p488
aI78302
aI30
aI30
ag252
aNaNaNaNaNaNaNaNaNaNaNaNag5
aa(lp489
S'CSE492'
p490
aI73299
aI10
aI10
ag252
aNaNaNaNaNaNaNaNaNaNaNaNag5
aa(lp491
S'CSE493'
p492
aI86025
aI30
aI30
ag252
aNaNaNaNaNaNaNaNaNaNaNaNag5
aa(lp493
S'CSE493'
p494
aI73300
aI7
aI10
ag252
aNaNaNaNaNaNaNaNaNaNaNaNag5
aa(lp495
S'CSE494'
p496
aI86970
aI39
aI40
aS'T Th'
p497
aS' 9:00 AM'
p498
aI9
aI0
aI10
aI15
aNaNaNaNaNaNaNag5
aa(lp499
S'CSE494'
p500
aI89248
aI0
aI36
aS'M W'
p501
aS' 9:00 AM'
p502
aI9
aI0
aI10
aI15
aNaNaNaNaNaNaNag75
aa(lp503
S'CSE499'
p504
aI86024
aI30
aI30
ag252
aNaNaNaNaNaNaNaNaNaNaNaNag5
aa(lp505
S'CSE499'
p506
aI74989
aI29
aI30
ag252
aNaNaNaNaNaNaNaNaNaNaNaNag5
aa(lp507
S'CSE499'
p508
aI84522
aI2
aI2
ag252
aNaNaNaNaNaNaNaNaNaNaNaNag5
aa(lp509
S'CSE509'
p510
aI90879
aI55
aI80
aS'T Th'
p511
aS'10:30 AM'
p512
aI10
aI30
aI11
aI45
aNaNaNaNaNaNaNag5
aa(lp513
S'CSE512'
p514
aI91625
aI6
aI130
aS'M W'
p515
aS' 4:30 PM'
p516
aI16
aI30
aI17
aI45
aNaNaNaNaNaNaNag75
aa(lp517
S'CSE515'
p518
aI77678
aI6
aI100
aS'M W'
p519
aS' 6:00 PM'
p520
aI18
aI0
aI19
aI15
aNaNaNaNaNaNaNag75
aa(lp521
S'CSE520'
p522
aI77960
aI46
aI70
aS'T Th'
p523
aS'12:00 PM'
p524
aI12
aI0
aI13
aI15
aNaNaNaNaNaNaNag5
aa(lp525
S'CSE531'
p526
aI72639
aI7
aI175
aS'T Th'
p527
aS' 4:30 PM'
p528
aI16
aI30
aI17
aI45
aNaNaNaNaNaNaNag75
aa(lp529
S'CSE535'
p530
aI83345
aI0
aI55
aS'T Th'
p531
aS' 3:00 PM'
p532
aI15
aI0
aI16
aI15
aNaNaNaNaNaNaNag75
aa(lp533
S'CSE536'
p534
aI83344
aI26
aI99
aS'M W'
p535
aS' 4:30 PM'
p536
aI16
aI30
aI17
aI45
aNaNaNaNaNaNaNag5
aa(lp537
S'CSE539'
p538
aI85500
aI17
aI96
aS'M W'
p539
aS' 1:30 PM'
p540
aI13
aI30
aI14
aI45
aNaNaNaNaNaNaNag5
aa(lp541
S'CSE556'
p542
aI90882
aI52
aI125
aS'T Th'
p543
aS' 1:30 PM'
p544
aI13
aI30
aI14
aI45
aNaNaNaNaNaNaNag5
aa(lp545
S'CSE561'
p546
aI83364
aI12
aI43
aS'M W'
p547
aS' 3:00 PM'
p548
aI15
aI0
aI16
aI15
aNaNaNaNaNaNaNag75
aa(lp549
S'CSE563'
p550
aI90721
aI37
aI48
aS'M W'
p551
aS' 1:30 PM'
p552
aI13
aI30
aI14
aI45
aNaNaNaNaNaNaNag5
aa(lp553
S'CSE563'
p554
aI90722
aI0
aI30
aS'M W'
p555
aS' 1:30 PM'
p556
aI13
aI30
aI14
aI45
aNaNaNaNaNaNaNag75
aa(lp557
S'CSE564'
p558
aI90304
aI15
aI48
aS'M W'
p559
aS' 3:00 PM'
p560
aI15
aI0
aI16
aI15
aNaNaNaNaNaNaNag75
aa(lp561
S'CSE564'
p562
aI90723
aI0
aI30
aS'M W'
p563
aS' 3:00 PM'
p564
aI15
aI0
aI16
aI15
aNaNaNaNaNaNaNag75
aa(lp565
S'CSE565'
p566
aI83389
aI0
aI57
aS'T Th'
p567
aS' 1:30 PM'
p568
aI13
aI30
aI14
aI45
aNaNaNaNaNaNaNag75
aa(lp569
S'CSE569'
p570
aI85742
aI5
aI99
ag16
aS'10:30 AM'
p571
aI10
aI30
aI13
aI15
aNaNaNaNaNaNaNag5
aa(lp572
S'CSE570'
p573
aI90881
aI62
aI85
aS'T Th'
p574
aS' 9:00 AM'
p575
aI9
aI0
aI10
aI15
aNaNaNaNaNaNaNag5
aa(lp576
S'CSE571'
p577
aI90880
aI6
aI83
aS'T Th'
p578
aS' 4:30 PM'
p579
aI16
aI30
aI17
aI45
aNaNaNaNaNaNaNag75
aa(lp580
S'CSE576'
p581
aI90883
aI0
aI60
aS'M W'
p582
aS' 6:00 PM'
p583
aI18
aI0
aI19
aI15
aNaNaNaNaNaNaNag75
aa(lp584
S'CSE580'
p585
aI78303
aI30
aI30
ag252
aNaNaNaNaNaNaNaNaNaNaNaNag5
aa(lp586
S'CSE580'
p587
aI74991
aI150
aI150
ag252
aNaNaNaNaNaNaNaNaNaNaNaNag5
aa(lp588
S'CSE584'
p589
aI77998
aI30
aI30
ag252
aNaNaNaNaNaNaNaNaNaNaNaNag5
aa(lp590
S'CSE584'
p591
aI74993
aI30
aI30
ag252
aNaNaNaNaNaNaNaNaNaNaNaNag5
aa(lp592
S'CSE590'
p593
aI74990
aI30
aI30
ag252
aNaNaNaNaNaNaNaNaNaNaNaNag5
aa(lp594
S'CSE591'
p595
aI80142
aI14
aI94
ag16
aS' 1:30 PM'
p596
aI13
aI30
aI16
aI15
aNaNaNaNaNaNaNag5
aa(lp597
S'CSE591'
p598
aI83419
aI0
aI120
aS'M W'
p599
aS' 1:30 PM'
p600
aI13
aI30
aI14
aI45
aNaNaNaNaNaNaNag75
aa(lp601
S'CSE591'
p602
aI91754
aI23
aI26
ag16
aS' 9:00 AM'
p603
aI9
aI0
aI11
aI45
aNaNaNaNaNaNaNag5
aa(lp604
S'CSE595'
p605
aI80974
aI30
aI30
ag252
aNaNaNaNaNaNaNaNaNaNaNaNag5
aa(lp606
S'CSE595'
p607
aI73301
aI25
aI25
ag252
aNaNaNaNaNaNaNaNaNaNaNaNag5
aa(lp608
S'CSE599'
p609
aI78297
aI30
aI30
ag252
aNaNaNaNaNaNaNaNaNaNaNaNag5
aa(lp610
S'CSE599'
p611
aI73302
aI29
aI30
ag252
aNaNaNaNaNaNaNaNaNaNaNaNag5
aa(lp612
S'CSE790'
p613
aI75085
aI30
aI30
ag252
aNaNaNaNaNaNaNaNaNaNaNaNag5
aa(lp614
S'CSE792'
p615
aI80975
aI30
aI30
ag252
aNaNaNaNaNaNaNaNaNaNaNaNag5
aa(lp616
S'CSE792'
p617
aI73303
aI50
aI50
ag252
aNaNaNaNaNaNaNaNaNaNaNaNag5
aa(lp618
S'CSE795'
p619
aI85828
aI30
aI30
ag252
aNaNaNaNaNaNaNaNaNaNaNaNag5
aa(lp620
S'CSE795'
p621
aI80995
aI30
aI30
ag252
aNaNaNaNaNaNaNaNaNaNaNaNag5
aa(lp622
S'CSE795'
p623
aI73304
aI49
aI50
ag252
aNaNaNaNaNaNaNaNaNaNaNaNag5
aa(lp624
S'CSE799'
p625
aI73305
aI35
aI35
ag252
aNaNaNaNaNaNaNaNaNaNaNaNag5
aa.