(lp0
(lp1
S'CSM201'
p2
aI72652
aI39
aI60
aS'M'
p3
aS' 6:00 PM'
p4
aI18
aI0
aI20
aI45
aNaNaNaNaNaNaNaS'Not Reserved'
p5
aa(lp6
S'CSM303'
p7
aI88003
aI21
aI30
aS'T Th'
p8
aS' 1:30 PM'
p9
aI13
aI30
aI14
aI45
aNaNaNaNaNaNaNag5
aa(lp10
S'CSM407'
p11
aI89728
aI28
aI40
aS'Th'
p12
aS' 6:00 PM'
p13
aI18
aI0
aI20
aI45
aNaNaNaNaNaNaNag5
aa.