(lp0
(lp1
S'CST100'
p2
aI83526
aI91
aI101
aS'T Th'
p3
aS' 9:00 AM'
p4
aI9
aI0
aI10
aI15
aNaNaNaNaNaNaNaS'Not Reserved'
p5
aa(lp6
S'CST100'
p7
aI88849
aI48
aI60
aS'T Th'
p8
aS'12:00 PM'
p9
aI12
aI0
aI13
aI15
aNaNaNaNaNaNaNag5
aa(lp10
S'CST200'
p11
aI80841
aI54
aI72
aS'T Th'
p12
aS' 9:00 AM'
p13
aI9
aI0
aI10
aI15
aNaNaNaNaNaNaNag5
aa(lp14
S'CST250'
p15
aI86827
aI0
aI54
aS'T Th'
p16
aS' 1:30 PM'
p17
aI13
aI30
aI14
aI45
aNaNaNaNaNaNaNaS'Reserved'
p18
aa(lp19
S'CST315'
p20
aI70879
aI10
aI78
aS'M'
p21
aS' 4:30 PM'
p22
aI16
aI30
aI19
aI15
aNaNaNaNaNaNaNag5
aa(lp23
S'CST415'
p24
aI70880
aI41
aI70
ag21
aS' 4:30 PM'
p25
aI16
aI30
aI19
aI15
aNaNaNaNaNaNaNag5
aa(lp26
S'CST456'
p27
aI77732
aI15
aI40
aS'M W F'
p28
aS'12:00 PM'
p29
aI12
aI0
aI12
aI50
aNaNaNaNaNaNaNag5
aa(lp30
S'CST484'
p31
aI70881
aI15
aI15
aS'ONLINE'
p32
aNaNaNaNaNaNaNaNaNaNaNaNag5
aa(lp33
S'CST492'
p34
aI76451
aI30
aI30
ag32
aNaNaNaNaNaNaNaNaNaNaNaNag5
aa(lp35
S'CST493'
p36
aI76315
aI30
aI30
ag32
aNaNaNaNaNaNaNaNaNaNaNaNag5
aa(lp37
S'CST494'
p38
aI86834
aI56
aI56
aS'T Th'
p39
aS' 9:00 AM'
p40
aI9
aI0
aI10
aI15
aNaNaNaNaNaNaNag5
aa(lp41
S'CST494'
p42
aI86835
aI54
aI54
aS'T Th'
p43
aS'10:30 AM'
p44
aI10
aI30
aI11
aI45
aNaNaNaNaNaNaNag5
aa(lp45
S'CST584'
p46
aI70882
aI15
aI15
ag32
aNaNaNaNaNaNaNaNaNaNaNaNag5
aa(lp47
S'CST590'
p48
aI70878
aI15
aI15
ag32
aNaNaNaNaNaNaNaNaNaNaNaNag5
aa(lp49
S'CST593'
p50
aI70883
aI15
aI15
ag32
aNaNaNaNaNaNaNaNaNaNaNaNag5
aa(lp51
S'CST595'
p52
aI70884
aI15
aI15
ag32
aNaNaNaNaNaNaNaNaNaNaNaNag5
aa(lp53
S'CST599'
p54
aI70885
aI10
aI10
ag32
aNaNaNaNaNaNaNaNaNaNaNaNag5
aa.