(lp0
(lp1
S'DCI590'
p2
aI76552
aI10
aI10
aS'ONLINE'
p3
aNaNaNaNaNaNaNaNaNaNaNaNaS'Not Reserved'
p4
aa(lp5
S'DCI593'
p6
aI75819
aI28
aI30
aS'W'
p7
aS' 4:30 PM'
p8
aI16
aI30
aI19
aI15
aNaNaNaNaNaNaNag4
aa(lp9
S'DCI595'
p10
aI78179
aI45
aI45
ag3
aNaNaNaNaNaNaNaNaNaNaNaNag4
aa(lp11
S'DCI595'
p12
aI76360
aI44
aI45
ag3
aNaNaNaNaNaNaNaNaNaNaNaNag4
aa(lp13
S'DCI598'
p14
aI90534
aI12
aI20
aS'T'
p15
aS'11:00AM'
p16
aI11
aI0
aI13
aI0
ag15
aS'11:00AM'
p17
aI11
aI0
aS'1:00PM'
p18
aI13
aI0
ag4
aa(lp19
S'DCI691'
p20
aI91354
aI20
aI20
ag15
aS' 4:30 PM'
p21
aI16
aI30
aI19
aI15
aNaNaNaNaNaNaNag4
aa(lp22
S'DCI691'
p23
aI91355
aI17
aI20
ag7
aS' 4:30 PM'
p24
aI16
aI30
aI19
aI15
aNaNaNaNaNaNaNag4
aa(lp25
S'DCI691'
p26
aI91356
aI12
aI20
aS'Th'
p27
aS' 4:30 PM'
p28
aI16
aI30
aI19
aI15
aNaNaNaNaNaNaNag4
aa(lp29
S'DCI691'
p30
aI90533
aI14
aI20
aS'T Th'
p31
aS' 3:00 PM'
p32
aI15
aI0
aI16
aI15
aNaNaNaNaNaNaNag4
aa(lp33
S'DCI691'
p34
aI84224
aI10
aI15
ag15
aS' 4:30 PM'
p35
aI16
aI30
aI19
aI15
aNaNaNaNaNaNaNag4
aa(lp36
S'DCI780'
p37
aI78225
aI30
aI30
ag3
aNaNaNaNaNaNaNaNaNaNaNaNag4
aa(lp38
S'DCI784'
p39
aI75820
aI20
aI20
ag3
aNaNaNaNaNaNaNaNaNaNaNaNag4
aa(lp40
S'DCI790'
p41
aI75821
aI19
aI20
ag3
aNaNaNaNaNaNaNaNaNaNaNaNag4
aa(lp42
S'DCI791'
p43
aI78800
aI20
aI20
aS'M'
p44
aS' 4:30 PM'
p45
aI16
aI30
aI19
aI15
aNaNaNaNaNaNaNag4
aa(lp46
S'DCI791'
p47
aI78802
aI20
aI20
ag7
aS' 1:30 PM'
p48
aI13
aI30
aI16
aI15
aNaNaNaNaNaNaNag4
aa(lp49
S'DCI791'
p50
aI90532
aI20
aI20
ag44
aS' 4:30 PM'
p51
aI16
aI30
aI19
aI15
aNaNaNaNaNaNaNag4
aa(lp52
S'DCI792'
p53
aI75604
aI30
aI30
ag3
aNaNaNaNaNaNaNaNaNaNaNaNag4
aa(lp54
S'DCI799'
p55
aI76234
aI28
aI30
ag3
aNaNaNaNaNaNaNaNaNaNaNaNaS'Reserved'
p56
aa.