(lp0
(lp1
S'DNP601'
p2
aI74151
aI0
aI20
aS'Th'
p3
aS'9:00AM'
p4
aI9
aI0
aI11
aI30
aS'Th'
p5
aS'9:00AM'
p6
aI9
aI0
aS'11:30AM'
p7
aI11
aI30
aS'Reserved'
p8
aa(lp9
S'DNP601'
p10
aI74152
aI8
aI20
aS'ONLINE'
p11
aNaNaNaNaNaNaNaNaNaNaNaNaS'Not Reserved'
p12
aa(lp13
S'DNP601'
p14
aI74153
aI18
aI20
ag11
aNaNaNaNaNaNaNaNaNaNaNaNag12
aa(lp15
S'DNP609'
p16
aI74154
aI0
aI15
aS'F'
p17
aS'9:00AM'
p18
aI9
aI0
aI11
aI30
ag17
aS'9:00AM'
p19
aI9
aI0
aS'11:30AM'
p20
aI11
aI30
ag8
aa(lp21
S'DNP609'
p22
aI78024
aI0
aI15
ag11
aNaNaNaNaNaNaNaNaNaNaNaNag8
aa(lp23
S'DNP609'
p24
aI78202
aI13
aI15
ag11
aNaNaNaNaNaNaNaNaNaNaNaNag12
aa(lp25
S'DNP609'
p26
aI85423
aI15
aI15
ag11
aNaNaNaNaNaNaNaNaNaNaNaNag12
aa(lp27
S'DNP610'
p28
aI84321
aI3
aI20
aS'Th'
p29
aS'9:00AM'
p30
aI9
aI0
aI11
aI0
aS''
p31
ag31
aNaNag31
aNaNag12
aa(lp32
S'DNP610'
p33
aI84322
aI17
aI20
ag11
aNaNaNaNaNaNaNaNaNaNaNaNag12
aa(lp34
S'DNP610'
p35
aI84323
aI20
aI20
ag11
aNaNaNaNaNaNaNaNaNaNaNaNag12
aa(lp36
S'DNP615'
p37
aI83597
aI3
aI8
aS'T'
p38
aS'9:00AM'
p39
aI9
aI0
aI17
aI0
ag38
aS'9:00AM'
p40
aI9
aI0
aS'5:00PM'
p41
aI17
aI0
ag12
aa(lp42
S'DNP616'
p43
aI83598
aI3
aI8
ag11
aNaNaNaNaNaNaNaNaNaNaNaNag12
aa(lp44
S'DNP627'
p45
aI77412
aI11
aI20
ag38
aS'9:00AM'
p46
aI9
aI0
aI17
aI0
ag38
aS'9:00AM'
p47
aI9
aI0
aS'5:00PM'
p48
aI17
aI0
ag12
aa(lp49
S'DNP628'
p50
aI89797
aI0
aI7
ag11
aNaNaNaNaNaNaNaNaNaNaNaNag8
aa(lp51
S'DNP628'
p52
aI89798
aI5
aI7
ag11
aNaNaNaNaNaNaNaNaNaNaNaNag12
aa(lp53
S'DNP635'
p54
aI77358
aI10
aI25
ag38
aS'9:00AM'
p55
aI9
aI0
aI17
aI0
ag38
aS'9:00AM'
p56
aI9
aI0
aS'5:00PM'
p57
aI17
aI0
ag12
aa(lp58
S'DNP636'
p59
aI77360
aI0
aI7
ag11
aNaNaNaNaNaNaNaNaNaNaNaNag8
aa(lp60
S'DNP636'
p61
aI77361
aI0
aI7
ag11
aNaNaNaNaNaNaNaNaNaNaNaNag8
aa(lp62
S'DNP636'
p63
aI80840
aI1
aI2
ag11
aNaNaNaNaNaNaNaNaNaNaNaNag12
aa(lp64
S'DNP645'
p65
aI77363
aI0
aI6
ag38
aS'9:00AM'
p66
aI9
aI0
aI17
aI0
ag38
aS'9:00AM'
p67
aI9
aI0
aS'5:00PM'
p68
aI17
aI0
ag8
aa(lp69
S'DNP646'
p70
aI77365
aI0
aI6
ag11
aNaNaNaNaNaNaNaNaNaNaNaNag8
aa(lp71
S'DNP655'
p72
aI88829
aI5
aI8
ag38
aS'9:00AM'
p73
aI9
aI0
aI17
aI0
ag38
aS'9:00AM'
p74
aI9
aI0
aS'5:00PM'
p75
aI17
aI0
ag12
aa(lp76
S'DNP656'
p77
aI91636
aI5
aI8
ag11
aNaNaNaNaNaNaNaNaNaNaNaNag12
aa(lp78
S'DNP671'
p79
aI73602
aI14
aI20
aS'Th'
p80
aS'4:00PM'
p81
aI16
aI0
aI18
aI30
ag31
ag31
aNaNag31
aNaNag12
aa(lp82
S'DNP675'
p83
aI77366
aI14
aI20
ag38
aS'9:00AM'
p84
aI9
aI0
aI17
aI0
ag38
aS'9:00AM'
p85
aI9
aI0
aS'5:00PM'
p86
aI17
aI0
ag12
aa(lp87
S'DNP676'
p88
aI77367
aI2
aI8
ag11
aNaNaNaNaNaNaNaNaNaNaNaNag12
aa(lp89
S'DNP676'
p90
aI77368
aI9
aI9
ag11
aNaNaNaNaNaNaNaNaNaNaNaNag12
aa(lp91
S'DNP679'
p92
aI79879
aI1
aI15
aS'M'
p93
aS'9:00AM'
p94
aI9
aI0
aI16
aI0
aS'Th'
p95
aS'9:00AM'
p96
aI9
aI0
aS'4:00PM'
p97
aI16
aI0
ag12
aa(lp98
S'DNP679'
p99
aI88824
aI0
aI15
ag11
aNaNaNaNaNaNaNaNaNaNaNaNag8
aa(lp100
S'DNP679'
p101
aI88825
aI3
aI15
ag11
aNaNaNaNaNaNaNaNaNaNaNaNag12
aa(lp102
S'DNP679'
p103
aI88826
aI12
aI15
ag11
aNaNaNaNaNaNaNaNaNaNaNaNag12
aa(lp104
S'DNP680'
p105
aI85504
aI0
aI1
ag11
aNaNaNaNaNaNaNaNaNaNaNaNag8
aa(lp106
S'DNP682'
p107
aI85429
aI15
aI15
ag11
aNaNaNaNaNaNaNaNaNaNaNaNag12
aa(lp108
S'DNP691'
p109
aI91080
aI52
aI60
ag11
aNaNaNaNaNaS'Th'
p110
aNaNaNaNaNaNag12
aa(lp111
S'DNP703'
p112
aI82215
aI0
aI15
ag17
aS'12:30PM'
p113
aI12
aI30
aI15
aI30
ag17
aS'12:30PM'
p114
aI12
aI30
aS'3:30PM'
p115
aI15
aI30
ag8
aa(lp116
S'DNP703'
p117
aI82216
aI0
aI15
ag11
aNaNaNaNaNaNaNaNaNaNaNaNag8
aa(lp118
S'DNP703'
p119
aI82217
aI10
aI15
ag11
aNaNaNaNaNaNaNaNaNaNaNaNag12
aa(lp120
S'DNP703'
p121
aI85424
aI15
aI15
ag11
aNaNaNaNaNaNaNaNaNaNaNaNag12
aa(lp122
S'DNP708'
p123
aI76882
aI17
aI20
ag11
aNaNaNaNaNaNaNaNaNaNaNaNag12
aa(lp124
S'DNP708'
p125
aI77370
aI20
aI20
ag11
aNaNaNaNaNaNaNaNaNaNaNaNag12
aa(lp126
S'DNP708'
p127
aI77371
aI20
aI20
ag11
aNaNaNaNaNaNaNaNaNaNaNaNag12
aa(lp128
S'DNP708'
p129
aI80547
aI20
aI20
ag11
aNaNaNaNaNaNaNaNaNaNaNaNag12
aa(lp130
S'DNP709'
p131
aI83511
aI0
aI20
aS'Th'
p132
aS'12:30PM'
p133
aI12
aI30
aI15
aI30
aS'Th'
p134
aS'12:30PM'
p135
aI12
aI30
aS'3:30PM'
p136
aI15
aI30
ag8
aa(lp137
S'DNP709'
p138
aI83512
aI6
aI20
ag11
aNaNaNaNaNaNaNaNaNaNaNaNag12
aa(lp139
S'DNP709'
p140
aI83513
aI20
aI20
ag11
aNaNaNaNaNaNaNaNaNaNaNaNag12
aa(lp141
S'DNP710'
p142
aI75205
aI0
aI15
aS'Th'
p143
aS'12:30PM'
p144
aI12
aI30
aI16
aI30
aS'Th'
p145
aS'12:30PM'
p146
aI12
aI30
aS'4:30PM'
p147
aI16
aI30
ag8
aa(lp148
S'DNP710'
p149
aI77373
aI11
aI15
ag11
aNaNaNaNaNaNaNaNaNaNaNaNag12
aa(lp150
S'DNP710'
p151
aI77374
aI13
aI15
ag11
aNaNaNaNaNaNaNaNaNaNaNaNag12
aa(lp152
S'DNP710'
p153
aI77375
aI15
aI15
ag11
aNaNaNaNaNaNaNaNaNaNaNaNag12
aa(lp154
S'DNP712'
p155
aI75927
aI8
aI10
ag11
aNaNaNaNaNaNaNaNaNaNaNaNag12
aa(lp156
S'DNP712'
p157
aI80380
aI10
aI10
ag11
aNaNaNaNaNaNaNaNaNaNaNaNag12
aa(lp158
S'DNP712'
p159
aI80381
aI6
aI10
ag11
aNaNaNaNaNaNaNaNaNaNaNaNag12
aa(lp160
S'DNP712'
p161
aI80382
aI10
aI10
ag11
aNaNaNaNaNaNaNaNaNaNaNaNag12
aa(lp162
S'DNP712'
p163
aI80383
aI9
aI10
ag11
aNaNaNaNaNaNaNaNaNaNaNaNag12
aa(lp164
S'DNP712'
p165
aI80384
aI10
aI10
ag11
aNaNaNaNaNaNaNaNaNaNaNaNag12
aa(lp166
S'DNP712'
p167
aI80385
aI9
aI10
ag11
aNaNaNaNaNaNaNaNaNaNaNaNag12
aa(lp168
S'DNP712'
p169
aI80386
aI10
aI10
ag11
aNaNaNaNaNaNaNaNaNaNaNaNag12
aa(lp170
S'DNP712'
p171
aI80387
aI9
aI10
ag11
aNaNaNaNaNaNaNaNaNaNaNaNag12
aa(lp172
S'DNP712'
p173
aI80389
aI7
aI10
ag11
aNaNaNaNaNaNaNaNaNaNaNaNag12
aa(lp174
S'DNP712'
p175
aI80390
aI47
aI60
ag11
aNaNaNaNaNaNaNaNaNaNaNaNag12
aa(lp176
S'DNP712'
p177
aI80391
aI10
aI10
ag11
aNaNaNaNaNaNaNaNaNaNaNaNag12
aa(lp178
S'DNP712'
p179
aI80392
aI10
aI10
ag11
aNaNaNaNaNaNaNaNaNaNaNaNag12
aa(lp180
S'DNP712'
p181
aI80393
aI10
aI10
ag11
aNaNaNaNaNaNaNaNaNaNaNaNag12
aa(lp182
S'DNP712'
p183
aI80394
aI8
aI10
ag11
aNaNaNaNaNaNaNaNaNaNaNaNag12
aa(lp184
S'DNP712'
p185
aI80395
aI10
aI10
ag11
aNaNaNaNaNaNaNaNaNaNaNaNag12
aa(lp186
S'DNP712'
p187
aI80396
aI10
aI10
ag11
aNaNaNaNaNaNaNaNaNaNaNaNag12
aa(lp188
S'DNP712'
p189
aI80397
aI9
aI10
ag11
aNaNaNaNaNaNaNaNaNaNaNaNag12
aa(lp190
S'DNP712'
p191
aI80398
aI10
aI10
ag11
aNaNaNaNaNaNaNaNaNaNaNaNag12
aa(lp192
S'DNP712'
p193
aI80399
aI8
aI10
ag11
aNaNaNaNaNaNaNaNaNaNaNaNag12
aa(lp194
S'DNP712'
p195
aI80400
aI9
aI10
ag11
aNaNaNaNaNaNaNaNaNaNaNaNag12
aa(lp196
S'DNP712'
p197
aI80401
aI8
aI10
ag11
aNaNaNaNaNaNaNaNaNaNaNaNag12
aa(lp198
S'DNP712'
p199
aI80467
aI10
aI10
ag11
aNaNaNaNaNaNaNaNaNaNaNaNag12
aa(lp200
S'DNP712'
p201
aI84512
aI1
aI4
ag11
aNaNaNaNaNaNaNaNaNaNaNaNag12
aa(lp202
S'DNP712'
p203
aI84654
aI32
aI60
ag11
aNaNaNaNaNaNaNaNaNaNaNaNag12
aa(lp204
S'DNP712'
p205
aI85395
aI11
aI12
ag11
aNaNaNaNaNaNaNaNaNaNaNaNag12
aa(lp206
S'DNP712'
p207
aI85596
aI2
aI2
ag11
aNaNaNaNaNaNaNaNaNaNaNaNag12
aa(lp208
S'DNP712'
p209
aI85767
aI1
aI1
ag11
aNaNaNaNaNaNaNaNaNaNaNaNag12
aa(lp210
S'DNP712'
p211
aI85774
aI2
aI2
ag11
aNaNaNaNaNaNaNaNaNaNaNaNag12
aa(lp212
S'DNP712'
p213
aI85793
aI2
aI2
ag11
aNaNaNaNaNaNaNaNaNaNaNaNag12
aa(lp214
S'DNP712'
p215
aI85964
aI5
aI5
ag11
aNaNaNaNaNaNaNaNaNaNaNaNag12
aa(lp216
S'DNP712'
p217
aI85985
aI2
aI2
ag11
aNaNaNaNaNaNaNaNaNaNaNaNag12
aa(lp218
S'DNP712'
p219
aI86071
aI1
aI1
ag11
aNaNaNaNaNaNaNaNaNaNaNaNag12
aa(lp220
S'DNP713'
p221
aI80548
aI20
aI20
ag11
aNaNaNaNaNaNaNaNaNaNaNaNag12
aa(lp222
S'DNP714'
p223
aI91168
aI3
aI10
ag11
aNaNaNaNaNaNaNaNaNaNaNaNag12
aa(lp224
S'DNP715'
p225
aI91169
aI5
aI10
ag11
aNaNaNaNaNaNaNaNaNaNaNaNag12
aa.