(lp0
(lp1
S'DSC100'
p2
aI79799
aI14
aI18
aS'M'
p3
aS' 9:00 AM'
p4
aI9
aI0
aI9
aI50
aNaNaNaNaNaNaNaS'Reserved'
p5
aa(lp6
S'DSC100'
p7
aI79800
aI9
aI18
aS'W'
p8
aS' 9:00 AM'
p9
aI9
aI0
aI9
aI50
aNaNaNaNaNaNaNag5
aa(lp10
S'DSC100'
p11
aI79801
aI15
aI18
aS'F'
p12
aS' 9:00 AM'
p13
aI9
aI0
aI9
aI50
aNaNaNaNaNaNaNag5
aa(lp14
S'DSC100'
p15
aI79803
aI12
aI18
ag3
aS'10:30 AM'
p16
aI10
aI30
aI11
aI20
aNaNaNaNaNaNaNag5
aa(lp17
S'DSC100'
p18
aI79804
aI16
aI18
ag8
aS'10:30 AM'
p19
aI10
aI30
aI11
aI20
aNaNaNaNaNaNaNag5
aa(lp20
S'DSC100'
p21
aI79805
aI17
aI18
ag12
aS'10:30 AM'
p22
aI10
aI30
aI11
aI20
aNaNaNaNaNaNaNag5
aa(lp23
S'DSC100'
p24
aI79806
aI14
aI18
ag3
aS' 1:30 PM'
p25
aI13
aI30
aI14
aI20
aNaNaNaNaNaNaNag5
aa(lp26
S'DSC100'
p27
aI79807
aI17
aI18
ag8
aS' 1:30 PM'
p28
aI13
aI30
aI14
aI20
aNaNaNaNaNaNaNag5
aa(lp29
S'DSC100'
p30
aI79808
aI13
aI18
ag12
aS' 1:30 PM'
p31
aI13
aI30
aI14
aI20
aNaNaNaNaNaNaNag5
aa(lp32
S'DSC100'
p33
aI79813
aI17
aI19
aS'T'
p34
aS' 3:00 PM'
p35
aI15
aI0
aI15
aI50
aNaNaNaNaNaNaNag5
aa(lp36
S'DSC100'
p37
aI79814
aI19
aI19
aS'Th'
p38
aS' 3:00 PM'
p39
aI15
aI0
aI15
aI50
aNaNaNaNaNaNaNag5
aa(lp40
S'DSC100'
p41
aI81313
aI18
aI18
ag3
aS'10:30 AM'
p42
aI10
aI30
aI11
aI20
aNaNaNaNaNaNaNag5
aa(lp43
S'DSC100'
p44
aI81314
aI15
aI18
ag8
aS'10:30 AM'
p45
aI10
aI30
aI11
aI20
aNaNaNaNaNaNaNag5
aa(lp46
S'DSC100'
p47
aI81315
aI18
aI18
ag12
aS'10:30 AM'
p48
aI10
aI30
aI11
aI20
aNaNaNaNaNaNaNag5
aa(lp49
S'DSC100'
p50
aI90362
aI18
aI18
ag34
aS'10:30 AM'
p51
aI10
aI30
aI11
aI20
aNaNaNaNaNaNaNag5
aa(lp52
S'DSC100'
p53
aI90363
aI16
aI18
aS'Th'
p54
aS'10:30 AM'
p55
aI10
aI30
aI11
aI20
aNaNaNaNaNaNaNag5
aa(lp56
S'DSC100'
p57
aI79798
aI396
aI438
ag8
aS' 7:30 AM'
p58
aI7
aI30
aI8
aI20
aNaNaNaNaNaNaNaS'Not Reserved'
p59
aa(lp60
S'DSC101'
p61
aI77642
aI122
aI150
aS'ONLINE'
p62
aNaNaNaNaNaNaNaNaNaNaNaNag5
aa(lp63
S'DSC101'
p64
aI75349
aI144
aI150
ag62
aNaNaNaNaNaNaNaNaNaNaNaNag5
aa(lp65
S'DSC101'
p66
aI78332
aI112
aI160
aS'M W'
p67
aS' 4:30 PM'
p68
aI16
aI30
aI17
aI45
aNaNaNaNaNaNaNag59
aa(lp69
S'DSC236'
p70
aI72442
aI40
aI40
ag62
aNaNaNaNaNaNaNaNaNaNaNaNag59
aa(lp71
S'DSC236'
p72
aI91370
aI20
aI20
ag3
aS' 8:30 AM'
p73
aI8
aI30
aI10
aI15
aNaNaNaNaNaNaNag59
aa(lp74
S'DSC236'
p75
aI91371
aI20
aI20
ag8
aS' 8:30 AM'
p76
aI8
aI30
aI10
aI15
aNaNaNaNaNaNaNag59
aa(lp77
S'DSC394'
p78
aI75618
aI8
aI39
aS'T Th'
p79
aS' 6:00 PM'
p80
aI18
aI0
aI19
aI15
aNaNaNaNaNaNaNag5
aa(lp81
S'DSC494'
p82
aI78006
aI8
aI10
aS'Th'
p83
aS' 4:30 PM'
p84
aI16
aI30
aI19
aI15
aNaNaNaNaNaNaNag5
aa(lp85
S'DSC494'
p86
aI85829
aI0
aI6
aS'T Th'
p87
aS' 9:00 AM'
p88
aI9
aI0
aI10
aI15
aNaNaNaNaNaNaNag5
aa(lp89
S'DSC500'
p90
aI70896
aI16
aI16
ag3
aS' 4:30 PM'
p91
aI16
aI30
aI19
aI15
aNaNaNaNaNaNaNag59
aa(lp92
S'DSC593'
p93
aI91808
aI2
aI3
ag62
aNaNaNaNaNaNaNaNaNaNaNaNag59
aa(lp94
S'DSC595'
p95
aI70897
aI20
aI20
ag62
aNaNaNaNaNaNaNaNaNaNaNaNag59
aa(lp96
S'DSC598'
p97
aI80946
aI10
aI10
aS'Th'
p98
aS' 4:30 PM'
p99
aI16
aI30
aI19
aI15
aNaNaNaNaNaNaNag59
aa(lp100
S'DSC598'
p101
aI85853
aI10
aI10
aS'T Th'
p102
aS' 9:00 AM'
p103
aI9
aI0
aI10
aI15
aNaNaNaNaNaNaNag59
aa(lp104
S'DSC598'
p105
aI81286
aI124
aI125
aS'T Th'
p106
aS' 3:00 PM'
p107
aI15
aI0
aI16
aI15
aNaNaNaNaNaNaNag59
aa(lp108
S'DSC598'
p109
aI87004
aI80
aI80
ag12
aS'12:00 PM'
p110
aI12
aI0
aI12
aI50
aNaNaNaNaNaNaNag59
aa(lp111
S'DSC598'
p112
aI90643
aI70
aI70
aS'T Th'
p113
aS' 1:30 PM'
p114
aI13
aI30
aI14
aI45
aNaNaNaNaNaNaNag59
aa(lp115
S'DSC598'
p116
aI90774
aI25
aI25
ag12
aS'12:00 PM'
p117
aI12
aI0
aI12
aI50
aNaNaNaNaNaNaNag59
aa(lp118
S'DSC599'
p119
aI80441
aI9
aI10
ag62
aNaNaNaNaNaNaNaNaNaNaNaNag59
aa.