(lp0
(lp1
S'ECD211'
p2
aI74122
aI108
aI150
aS'ONLINE'
p3
aNaNaNaNaNaNaNaNaNaNaNaNaS'Reserved'
p4
aa(lp5
S'ECD220'
p6
aI88269
aI15
aI35
ag3
aNaNaNaNaNaNaNaNaNaNaNaNag4
aa(lp7
S'ECD220'
p8
aI74123
aI121
aI150
ag3
aNaNaNaNaNaNaNaNaNaNaNaNag4
aa(lp9
S'ECD220'
p10
aI79875
aI8
aI35
aS'M W'
p11
aS' 3:00 PM'
p12
aI15
aI0
aI16
aI15
aNaNaNaNaNaNaNaS'Not Reserved'
p13
aa(lp14
S'ECD520'
p15
aI78645
aI10
aI10
ag3
aNaNaNaNaNaNaNaNaNaNaNaNag4
aa(lp16
S'ECD525'
p17
aI77850
aI15
aI15
ag3
aNaNaNaNaNaNaNaNaNaNaNaNag4
aa(lp18
S'ECD549'
p19
aI77851
aI10
aI10
ag3
aNaNaNaNaNaNaNaNaNaNaNaNag4
aa(lp20
S'ECD565'
p21
aI87373
aI10
aI10
ag3
aNaNaNaNaNaNaNaNaNaNaNaNag4
aa(lp22
S'ECD565'
p23
aI78650
aI5
aI5
ag3
aNaNaNaNaNaNaNaNaNaNaNaNag4
aa.