(lp0
(lp1
S'ECS312'
p2
aI84023
aI5
aI35
aS'ONLINE'
p3
aNaNaNaNaNaNaNaNaNaNaNaNaS'Reserved'
p4
aa(lp5
S'ECS430'
p6
aI88273
aI32
aI35
ag3
aNaNaNaNaNaNaNaNaNaNaNaNag4
aa(lp7
S'ECS431'
p8
aI86994
aI49
aI70
ag3
aNaNaNaNaNaNaNaNaNaNaNaNag4
aa.