(lp0
(lp1
S'EDA501'
p2
aI77505
aI15
aI15
aS'ONLINE'
p3
aNaNaNaNaNaNaNaNaNaNaNaNaS'Reserved'
p4
aa(lp5
S'EDA526'
p6
aI70341
aI25
aI25
aS'Th'
p7
aS'4:30PM'
p8
aI16
aI30
aI19
aI15
aS''
p9
ag9
aNaNag9
aNaNaS'Not Reserved'
p10
aa(lp11
S'EDA548'
p12
aI78735
aI10
aI10
ag3
aNaNaNaNaNaNaNaNaNaNaNaNag4
aa(lp13
S'EDA572'
p14
aI78737
aI12
aI15
ag3
aNaNaNaNaNaNaNaNaNaNaNaNag4
aa(lp15
S'EDA634'
p16
aI76394
aI10
aI10
ag3
aNaNaNaNaNaNaNaNaNaNaNaNag4
aa(lp17
S'EDA634'
p18
aI75214
aI25
aI25
aS'Th'
p19
aS'4:30PM'
p20
aI16
aI30
aI19
aI15
ag9
ag9
aNaNag9
aNaNag10
aa(lp21
S'EDA684'
p22
aI74972
aI22
aI25
ag3
aNaNaNaNaNaNaNaNaNaNaNaNag10
aa(lp23
S'EDA773'
p24
aI91159
aI5
aI5
ag3
aNaNaNaNaNaNaNaNaNaNaNaNag10
aa(lp25
S'EDA784'
p26
aI84142
aI25
aI25
ag3
aNaNaNaNaNaNaNaNaNaNaNaNag10
aa(lp27
S'EDA792'
p28
aI75675
aI45
aI45
ag3
aNaNaNaNaNaNaNaNaNaNaNaNag10
aa(lp29
S'EDA799'
p30
aI75676
aI49
aI50
ag3
aNaNaNaNaNaNaNaNaNaNaNaNag4
aa.