(lp0
(lp1
S'EDP310'
p2
aI76153
aI29
aI105
aS'ONLINE'
p3
aNaNaNaNaNaNaNaNaNaNaNaNaS'Reserved'
p4
aa(lp5
S'EDP310'
p6
aI76154
aI34
aI105
ag3
aNaNaNaNaNaNaNaNaNaNaNaNag4
aa(lp7
S'EDP310'
p8
aI83000
aI90
aI105
ag3
aNaNaNaNaNaNaNaNaNaNaNaNag4
aa(lp9
S'EDP310'
p10
aI76162
aI56
aI105
ag3
aNaNaNaNaNaNaNaNaNaNaNaNag4
aa(lp11
S'EDP310'
p12
aI89865
aI84
aI105
ag3
aNaNaNaNaNaNaNaNaNaNaNaNag4
aa(lp13
S'EDP310'
p14
aI76159
aI70
aI105
ag3
aNaNaNaNaNaNaNaNaNaNaNaNag4
aa(lp15
S'EDP310'
p16
aI76161
aI58
aI105
ag3
aNaNaNaNaNaNaNaNaNaNaNaNag4
aa(lp17
S'EDP310'
p18
aI83002
aI94
aI105
ag3
aNaNaNaNaNaNaNaNaNaNaNaNag4
aa(lp19
S'EDP310'
p20
aI76166
aI87
aI105
ag3
aNaNaNaNaNaNaNaNaNaNaNaNag4
aa(lp21
S'EDP310'
p22
aI89902
aI5
aI35
ag3
aNaNaNaNaNaNaNaNaNaNaNaNag4
aa(lp23
S'EDP310'
p24
aI89992
aI18
aI35
ag3
aNaNaNaNaNaNaNaNaNaNaNaNag4
aa(lp25
S'EDP310'
p26
aI76168
aI22
aI35
aS'W'
p27
aS' 4:30 PM'
p28
aI16
aI30
aI19
aI15
aNaNaNaNaNaNaNaS'Not Reserved'
p29
aa(lp30
S'EDP313'
p31
aI89983
aI10
aI35
ag3
aNaNaNaNaNaNaNaNaNaNaNaNag4
aa(lp32
S'EDP313'
p33
aI77729
aI11
aI35
aS'T Th'
p34
aS' 9:00 AM'
p35
aI9
aI0
aI10
aI15
aNaNaNaNaNaNaNag29
aa(lp36
S'EDP313'
p37
aI77730
aI25
aI35
ag27
aS' 4:30 PM'
p38
aI16
aI30
aI19
aI15
aNaNaNaNaNaNaNag29
aa(lp39
S'EDP502'
p40
aI75822
aI14
aI15
aS'Th'
p41
aS' 4:30 PM'
p42
aI16
aI30
aI19
aI15
aNaNaNaNaNaNaNag29
aa(lp43
S'EDP514'
p44
aI76742
aI20
aI30
aS'M'
p45
aS' 3:00 PM'
p46
aI15
aI0
aI17
aI45
aNaNaNaNaNaNaNag4
aa(lp47
S'EDP540'
p48
aI76366
aI12
aI30
aS'T'
p49
aS' 4:30 PM'
p50
aI16
aI30
aI19
aI15
aNaNaNaNaNaNaNag29
aa(lp51
S'EDP552'
p52
aI80338
aI11
aI40
ag27
aS' 4:30 PM'
p53
aI16
aI30
aI19
aI15
aNaNaNaNaNaNaNag29
aa(lp54
S'EDP554'
p55
aI80337
aI28
aI40
aS'Th'
p56
aS' 4:30 PM'
p57
aI16
aI30
aI19
aI15
aNaNaNaNaNaNaNag29
aa(lp58
S'EDP591'
p59
aI75825
aI21
aI25
aS'T Th'
p60
aS' 1:30 PM'
p61
aI13
aI30
aI14
aI45
aNaNaNaNaNaNaNag29
aa(lp62
S'EDP592'
p63
aI75626
aI10
aI10
ag3
aNaNaNaNaNaNaNaNaNaNaNaNag29
aa(lp64
S'EDP783'
p65
aI75823
aI8
aI8
ag49
aS' 4:40 PM'
p66
aI16
aI40
aI18
aI10
aNaNaNaNaNaNaNag29
aa(lp67
S'EDP792'
p68
aI75628
aI20
aI20
ag3
aNaNaNaNaNaNaNaNaNaNaNaNag29
aa(lp69
S'EDP799'
p70
aI76235
aI29
aI30
ag3
aNaNaNaNaNaNaNaNaNaNaNaNag29
aa.