(lp0
(lp1
S'EDS201'
p2
aI90349
aI5
aI45
aS'M W F'
p3
aS'10:30 AM'
p4
aI10
aI30
aI11
aI20
aNaNaNaNaNaNaNaS'Not Reserved'
p5
aa(lp6
S'EDS301'
p7
aI90350
aI11
aI18
aS'M W F'
p8
aS' 9:00 AM'
p9
aI9
aI0
aI9
aI50
aNaNaNaNaNaNaNag5
aa.