(lp0
(lp1
S'EDT180'
p2
aI88107
aI38
aI70
aS'ONLINE'
p3
aNaNaNaNaNaNaNaNaNaNaNaNaS'Reserved'
p4
aa(lp5
S'EDT180'
p6
aI78714
aI51
aI70
ag3
aNaNaNaNaNaNaNaNaNaNaNaNag4
aa(lp7
S'EDT180'
p8
aI78715
aI57
aI70
ag3
aNaNaNaNaNaNaNaNaNaNaNaNag4
aa(lp9
S'EDT180'
p10
aI78716
aI0
aI35
aS'T Th'
p11
aS' 9:00 AM'
p12
aI9
aI0
aI10
aI15
aNaNaNaNaNaNaNag4
aa(lp13
S'EDT180'
p14
aI78717
aI15
aI35
aS'T Th'
p15
aS' 9:00 AM'
p16
aI9
aI0
aI10
aI15
aNaNaNaNaNaNaNaS'Not Reserved'
p17
aa(lp18
S'EDT180'
p19
aI78718
aI20
aI35
aS'M W F'
p20
aS'10:30 AM'
p21
aI10
aI30
aI11
aI20
aNaNaNaNaNaNaNag17
aa(lp22
S'EDT180'
p23
aI78719
aI12
aI35
aS'M W F'
p24
aS'10:30 AM'
p25
aI10
aI30
aI11
aI20
aNaNaNaNaNaNaNag17
aa(lp26
S'EDT180'
p27
aI78720
aI29
aI35
aS'M W F'
p28
aS'12:00 PM'
p29
aI12
aI0
aI12
aI50
aNaNaNaNaNaNaNag17
aa(lp30
S'EDT180'
p31
aI78721
aI30
aI35
aS'M W F'
p32
aS' 1:30 PM'
p33
aI13
aI30
aI14
aI20
aNaNaNaNaNaNaNag17
aa(lp34
S'EDT180'
p35
aI78723
aI68
aI70
ag3
aNaNaNaNaNaNaNaNaNaNaNaNag4
aa(lp36
S'EDT180'
p37
aI78724
aI70
aI70
ag3
aNaNaNaNaNaNaNaNaNaNaNaNag4
aa(lp38
S'EDT180'
p39
aI78725
aI20
aI35
aS'T'
p40
aS' 4:30 PM'
p41
aI16
aI30
aI19
aI15
aNaNaNaNaNaNaNag17
aa(lp42
S'EDT180'
p43
aI82078
aI30
aI35
aS'T Th'
p44
aS'12:00 PM'
p45
aI12
aI0
aI13
aI15
aNaNaNaNaNaNaNag17
aa(lp46
S'EDT180'
p47
aI82894
aI29
aI35
aS'T Th'
p48
aS'10:30 AM'
p49
aI10
aI30
aI11
aI45
aNaNaNaNaNaNaNag17
aa(lp50
S'EDT180'
p51
aI84726
aI7
aI30
aS'M W F'
p52
aS' 1:30 PM'
p53
aI13
aI30
aI14
aI20
aNaNaNaNaNaNaNag17
aa(lp54
S'EDT180'
p55
aI78722
aI19
aI35
aS'T Th'
p56
aS' 1:30 PM'
p57
aI13
aI30
aI14
aI45
aNaNaNaNaNaNaNag4
aa(lp58
S'EDT180'
p59
aI85506
aI23
aI30
aS'T Th'
p60
aS'10:30 AM'
p61
aI10
aI30
aI11
aI45
aNaNaNaNaNaNaNag17
aa(lp62
S'EDT321'
p63
aI87527
aI58
aI70
ag3
aNaNaNaNaNaNaNaNaNaNaNaNag4
aa(lp64
S'EDT321'
p65
aI73891
aI30
aI35
ag40
aS' 6:00 PM'
p66
aI18
aI0
aI20
aI45
aNaNaNaNaNaNaNag17
aa(lp67
S'EDT321'
p68
aI76051
aI67
aI70
ag3
aNaNaNaNaNaNaNaNaNaNaNaNag4
aa(lp69
S'EDT321'
p70
aI76052
aI33
aI35
aS'T Th'
p71
aS' 9:00 AM'
p72
aI9
aI0
aI10
aI15
aNaNaNaNaNaNaNag17
aa(lp73
S'EDT321'
p74
aI76053
aI28
aI35
aS'T Th'
p75
aS'12:00 PM'
p76
aI12
aI0
aI13
aI15
aNaNaNaNaNaNaNag17
aa(lp77
S'EDT321'
p78
aI76054
aI27
aI35
aS'T Th'
p79
aS'10:30 AM'
p80
aI10
aI30
aI11
aI45
aNaNaNaNaNaNaNag17
aa(lp81
S'EDT321'
p82
aI76055
aI28
aI35
aS'T Th'
p83
aS' 1:30 PM'
p84
aI13
aI30
aI14
aI45
aNaNaNaNaNaNaNag17
aa(lp85
S'EDT321'
p86
aI76056
aI23
aI25
aS'M W'
p87
aS' 3:00 PM'
p88
aI15
aI0
aI16
aI15
aNaNaNaNaNaNaNag4
aa(lp89
S'EDT321'
p90
aI76064
aI63
aI70
ag3
aNaNaNaNaNaNaNaNaNaNaNaNag4
aa(lp91
S'EDT321'
p92
aI76065
aI70
aI70
ag3
aNaNaNaNaNaNaNaNaNaNaNaNag4
aa(lp93
S'EDT460'
p94
aI84652
aI10
aI15
ag40
aS' 1:30 PM'
p95
aI13
aI30
aI14
aI45
aNaNaNaNaNaNaNag17
aa(lp96
S'EDT461'
p97
aI87887
aI12
aI15
aS'W'
p98
aS' 4:30 PM'
p99
aI16
aI30
aI19
aI15
aNaNaNaNaNaNaNag17
aa(lp100
S'EDT463'
p101
aI89999
aI19
aI35
ag3
aNaNaNaNaNaNaNaNaNaNaNaNag4
aa(lp102
S'EDT494'
p103
aI91783
aI12
aI12
ag3
aNaNaNaNaNaNaNaNaNaNaNaNag17
aa(lp104
S'EDT494'
p105
aI77530
aI2
aI12
ag98
aS' 4:30 PM'
p106
aI16
aI30
aI19
aI15
aNaNaNaNaNaNaNag17
aa(lp107
S'EDT501'
p108
aI75629
aI21
aI30
ag98
aS' 4:30 PM'
p109
aI16
aI30
aI19
aI15
aNaNaNaNaNaNaNag17
aa(lp110
S'EDT502'
p111
aI76226
aI20
aI25
aS'M'
p112
aS' 4:30 PM'
p113
aI16
aI30
aI19
aI15
aNaNaNaNaNaNaNag17
aa(lp114
S'EDT503'
p115
aI91156
aI28
aI30
ag98
aS' 4:30 PM'
p116
aI16
aI30
aI19
aI15
aNaNaNaNaNaNaNag17
aa(lp117
S'EDT507'
p118
aI80421
aI31
aI32
ag112
aS' 4:30 PM'
p119
aI16
aI30
aI19
aI15
aNaNaNaNaNaNaNag17
aa(lp120
S'EDT523'
p121
aI75809
aI26
aI30
ag3
aNaNaNaNaNaNaNaNaNaNaNaNag4
aa(lp122
S'EDT524'
p123
aI77932
aI27
aI30
ag3
aNaNaNaNaNaNaNaNaNaNaNaNag4
aa(lp124
S'EDT530'
p125
aI75810
aI15
aI24
ag3
aNaNaNaNaNaNaNaNaNaNaNaNag4
aa(lp126
S'EDT540'
p127
aI80420
aI8
aI12
ag98
aS' 4:30 PM'
p128
aI16
aI30
aI19
aI15
aNaNaNaNaNaNaNag17
aa(lp129
S'EDT560'
p130
aI87886
aI13
aI15
ag40
aS' 1:30 PM'
p131
aI13
aI30
aI14
aI45
aNaNaNaNaNaNaNag17
aa(lp132
S'EDT561'
p133
aI87888
aI12
aI15
ag98
aS' 4:30 PM'
p134
aI16
aI30
aI19
aI15
aNaNaNaNaNaNaNag17
aa(lp135
S'EDT580'
p136
aI85590
aI30
aI30
ag3
aNaNaNaNaNaNaNaNaNaNaNaNag17
aa(lp137
S'EDT584'
p138
aI85686
aI30
aI30
ag3
aNaNaNaNaNaNaNaNaNaNaNaNag17
aa(lp139
S'EDT584'
p140
aI87412
aI30
aI30
ag3
aNaNaNaNaNaNaNaNaNaNaNaNag17
aa(lp141
S'EDT590'
p142
aI75630
aI29
aI30
ag3
aNaNaNaNaNaNaNaNaNaNaNaNag17
aa(lp143
S'EDT593'
p144
aI77531
aI17
aI24
ag3
aNaNaNaNaNaNaNaNaNaNaNaNag4
aa(lp145
S'EDT690'
p146
aI85685
aI30
aI30
ag3
aNaNaNaNaNaNaNaNaNaNaNaNag17
aa(lp147
S'EDT780'
p148
aI76621
aI5
aI5
ag3
aNaNaNaNaNaNaNaNaNaNaNaNag17
aa(lp149
S'EDT790'
p150
aI75631
aI29
aI30
ag3
aNaNaNaNaNaNaNaNaNaNaNaNag17
aa(lp151
S'EDT792'
p152
aI75632
aI17
aI20
ag3
aNaNaNaNaNaNaNaNaNaNaNaNag17
aa(lp153
S'EDT799'
p154
aI76236
aI30
aI30
ag3
aNaNaNaNaNaNaNaNaNaNaNaNag4
aa.