(lp0
(lp1
S'EED494'
p2
aI84148
aI21
aI30
aS'F'
p3
aS'4:30PM'
p4
aI16
aI30
aI18
aI30
ag3
aS'4:30PM'
p5
aI16
aI30
aS'6:30PM'
p6
aI18
aI30
aS'Not Reserved'
p7
aa(lp8
S'EED494'
p9
aI84149
aI22
aI30
ag3
aS'4:30PM'
p10
aI16
aI30
aI18
aI30
ag3
aS'4:30PM'
p11
aI16
aI30
aS'6:30PM'
p12
aI18
aI30
ag7
aa(lp13
S'EED521'
p14
aI74482
aI27
aI36
aS'M'
p15
aS' 4:30 PM'
p16
aI16
aI30
aI22
aI0
aNaNaNaNaNaNaNaS'Reserved'
p17
aa(lp18
S'EED521'
p19
aI75161
aI24
aI24
aS'T'
p20
aS'7:30PM'
p21
aI19
aI30
aI21
aI0
aS''
p22
aS'12:00AM'
p23
aNaNaS'12:00AM'
p24
aNaNag17
aa(lp25
S'EED524'
p26
aI76495
aI25
aI30
aS'T F'
p27
aS' 8:00 AM'
p28
aI8
aI0
aI10
aI30
aNaNaNaNaNaNaNag17
aa(lp29
S'EED524'
p30
aI76241
aI17
aI24
ag20
aS'4:30PM'
p31
aI16
aI30
aI19
aI15
ag22
aS'12:00AM'
p32
aNaNaS'12:00AM'
p33
aNaNag17
aa(lp34
S'EED531'
p35
aI74484
aI27
aI36
ag15
aS' 4:30 PM'
p36
aI16
aI30
aI22
aI0
aNaNaNaNaNaNaNag17
aa(lp37
S'EED531'
p38
aI75262
aI17
aI24
ag20
aS'4:30PM'
p39
aI16
aI30
aI19
aI15
ag22
aS'12:00AM'
p40
aNaNaS'12:00AM'
p41
aNaNag17
aa(lp42
S'EED537'
p43
aI74764
aI11
aI24
ag20
aS'4:30PM'
p44
aI16
aI30
aI19
aI15
ag22
aS'12:00AM'
p45
aNaNaS'12:00AM'
p46
aNaNag17
aa(lp47
S'EED537'
p48
aI74439
aI24
aI30
aS'Th'
p49
aS'4:30PM'
p50
aI16
aI30
aI19
aI15
ag22
ag22
aNaNag22
aNaNag17
aa(lp51
S'EED537'
p52
aI81319
aI22
aI30
aS'W'
p53
aS' 4:30 PM'
p54
aI16
aI30
aI19
aI15
aNaNaNaNaNaNaNag17
aa(lp55
S'EED537'
p56
aI74969
aI25
aI30
ag20
aS'11:30AM'
p57
aI11
aI30
aI14
aI0
ag20
aS'10:30AM'
p58
aI10
aI30
aS'1:00PM'
p59
aI13
aI0
ag17
aa(lp60
S'EED576'
p61
aI80811
aI25
aI30
ag20
aS'5:00PM'
p62
aI17
aI0
aI18
aI35
ag20
aS'5:00PM'
p63
aI17
aI0
aS'6:35PM'
p64
aI18
aI35
ag17
aa(lp65
S'EED576'
p66
aI80787
aI32
aI37
ag53
aS'9:00PM'
p67
aI21
aI0
aI22
aI0
ag22
aS'12:00AM'
p68
aNaNaS'12:00AM'
p69
aNaNag17
aa(lp70
S'EED576'
p71
aI74485
aI28
aI36
ag53
aS'9:00PM'
p72
aI21
aI0
aI22
aI0
ag22
aS'12:00AM'
p73
aNaNaS'12:00AM'
p74
aNaNag17
aa(lp75
S'EED577'
p76
aI90791
aI26
aI30
ag20
aS'5:00PM'
p77
aI17
aI0
aI18
aI35
ag20
aS'5:00PM'
p78
aI17
aI0
aS'6:35PM'
p79
aI18
aI35
ag17
aa(lp80
S'EED578'
p81
aI74377
aI21
aI35
aS'M T W Th F'
p82
aS' 8:00 AM'
p83
aI8
aI0
aI16
aI0
aNaNaNaNaNaNaNag17
aa(lp84
S'EED579'
p85
aI76590
aI24
aI24
aS'ONLINE'
p86
aNaNaNaNaNaNaNaNaNaNaNaNag17
aa(lp87
S'EED579'
p88
aI72968
aI24
aI24
ag86
aNaNaNaNaNaNaNaNaNaNaNaNag17
aa(lp89
S'EED579'
p90
aI76289
aI24
aI24
ag86
aNaNaNaNaNaNaNaNaNaNaNaNag17
aa(lp91
S'EED579'
p92
aI90794
aI23
aI24
ag86
aNaNaNaNaNaNaNaNaNaNaNaNag17
aa(lp93
S'EED593'
p94
aI74788
aI12
aI30
ag15
aS' 4:00 PM'
p95
aI16
aI0
aI18
aI0
aNaNaNaNaNaNaNag17
aa(lp96
S'EED593'
p97
aI74437
aI19
aI35
ag15
aS' 4:30 PM'
p98
aI16
aI30
aI19
aI15
aNaNaNaNaNaNaNag17
aa(lp99
S'EED593'
p100
aI75265
aI17
aI24
ag20
aS'7:30PM'
p101
aI19
aI30
aI21
aI0
ag22
aS'12:00AM'
p102
aNaNaS'12:00AM'
p103
aNaNag17
aa.