(lp0
(lp1
S'EEE120'
p2
aI70939
aI0
aI21
aS'T Th'
p3
aS' 1:30 PM'
p4
aI13
aI30
aI14
aI45
aNaNaNaNaNaNaNaS'Reserved'
p5
aa(lp6
S'EEE120'
p7
aI77037
aI0
aI21
aS'ONLINE'
p8
aNaNaNaNaNaNaNaNaNaNaNaNag5
aa(lp9
S'EEE120'
p10
aI70937
aI3
aI11
aS'T Th'
p11
aS' 9:00 AM'
p12
aI9
aI0
aI10
aI15
aNaNaNaNaNaNaNaS'Not Reserved'
p13
aa(lp14
S'EEE120'
p15
aI77038
aI3
aI11
ag8
aNaNaNaNaNaNaNaNaNaNaNaNag13
aa(lp16
S'EEE120'
p17
aI70940
aI0
aI26
aS'M W'
p18
aS' 3:00 PM'
p19
aI15
aI0
aI16
aI15
aNaNaNaNaNaNaNag5
aa(lp20
S'EEE120'
p21
aI77040
aI0
aI26
ag8
aNaNaNaNaNaNaNaNaNaNaNaNag5
aa(lp22
S'EEE120'
p23
aI70938
aI27
aI31
aS'T Th'
p24
aS'12:00 PM'
p25
aI12
aI0
aI13
aI15
aNaNaNaNaNaNaNag13
aa(lp26
S'EEE120'
p27
aI77039
aI27
aI31
ag8
aNaNaNaNaNaNaNaNaNaNaNaNag13
aa(lp28
S'EEE120'
p29
aI79000
aI15
aI20
aS'T Th'
p30
aS'10:30 AM'
p31
aI10
aI30
aI11
aI45
aNaNaNaNaNaNaNag13
aa(lp32
S'EEE120'
p33
aI79193
aI15
aI20
ag8
aNaNaNaNaNaNaNaNaNaNaNaNag13
aa(lp34
S'EEE120'
p35
aI82741
aI18
aI22
aS'T Th'
p36
aS' 3:00 PM'
p37
aI15
aI0
aI16
aI15
aNaNaNaNaNaNaNag13
aa(lp38
S'EEE120'
p39
aI83149
aI18
aI22
ag8
aNaNaNaNaNaNaNaNaNaNaNaNag13
aa(lp40
S'EEE120'
p41
aI89094
aI20
aI22
aS'M W'
p42
aS' 9:00 AM'
p43
aI9
aI0
aI10
aI15
aNaNaNaNaNaNaNag13
aa(lp44
S'EEE120'
p45
aI89095
aI20
aI22
ag8
aNaNaNaNaNaNaNaNaNaNaNaNag13
aa(lp46
S'EEE120'
p47
aI89100
aI32
aI36
aS'M W'
p48
aS' 1:30 PM'
p49
aI13
aI30
aI14
aI45
aNaNaNaNaNaNaNag13
aa(lp50
S'EEE120'
p51
aI89437
aI32
aI36
ag8
aNaNaNaNaNaNaNaNaNaNaNaNag13
aa(lp52
S'EEE202'
p53
aI70124
aI0
aI80
aS'M W'
p54
aS' 3:00 PM'
p55
aI15
aI0
aI16
aI15
aNaNaNaNaNaNaNag5
aa(lp56
S'EEE202'
p57
aI70126
aI0
aI80
aS'M W'
p58
aS'10:30 AM'
p59
aI10
aI30
aI11
aI45
aNaNaNaNaNaNaNag5
aa(lp60
S'EEE202'
p61
aI79006
aI14
aI72
aS'T Th'
p62
aS' 3:00 PM'
p63
aI15
aI0
aI16
aI15
aNaNaNaNaNaNaNag13
aa(lp64
S'EEE202'
p65
aI72882
aI0
aI80
aS'T Th'
p66
aS' 1:30 PM'
p67
aI13
aI30
aI14
aI45
aNaNaNaNaNaNaNag5
aa(lp68
S'EEE202'
p69
aI77372
aI51
aI80
aS'M W'
p70
aS' 3:00 PM'
p71
aI15
aI0
aI16
aI15
aNaNaNaNaNaNaNag13
aa(lp72
S'EEE202'
p73
aI82732
aI65
aI80
aS'T Th'
p74
aS' 7:30 AM'
p75
aI7
aI30
aI8
aI45
aNaNaNaNaNaNaNag13
aa(lp76
S'EEE202'
p77
aI87119
aI0
aI80
aS'M W'
p78
aS' 4:30 PM'
p79
aI16
aI30
aI17
aI45
aNaNaNaNaNaNaNag5
aa(lp80
S'EEE202'
p81
aI70127
aI0
aI30
aS'Th'
p82
aS' 3:00 PM'
p83
aI15
aI0
aI18
aI0
aNaNaNaNaNaNaNag5
aa(lp84
S'EEE202'
p85
aI70128
aI10
aI30
aS'M'
p86
aS' 6:00 PM'
p87
aI18
aI0
aI21
aI0
aNaNaNaNaNaNaNag13
aa(lp88
S'EEE202'
p89
aI70129
aI17
aI30
ag86
aS' 9:00 AM'
p90
aI9
aI0
aI12
aI0
aNaNaNaNaNaNaNag13
aa(lp91
S'EEE202'
p92
aI70130
aI0
aI30
aS'W'
p93
aS' 9:00 AM'
p94
aI9
aI0
aI12
aI0
aNaNaNaNaNaNaNag5
aa(lp95
S'EEE202'
p96
aI70131
aI0
aI30
aS'Th'
p97
aS' 9:00 AM'
p98
aI9
aI0
aI12
aI0
aNaNaNaNaNaNaNag5
aa(lp99
S'EEE202'
p100
aI70132
aI0
aI30
ag86
aS'12:00 PM'
p101
aI12
aI0
aI15
aI0
aNaNaNaNaNaNaNag5
aa(lp102
S'EEE202'
p103
aI70133
aI0
aI30
aS'T'
p104
aS'12:00 PM'
p105
aI12
aI0
aI15
aI0
aNaNaNaNaNaNaNag5
aa(lp106
S'EEE202'
p107
aI70941
aI0
aI30
ag93
aS'12:00 PM'
p108
aI12
aI0
aI15
aI0
aNaNaNaNaNaNaNag5
aa(lp109
S'EEE202'
p110
aI70942
aI10
aI30
ag86
aS' 3:00 PM'
p111
aI15
aI0
aI18
aI0
aNaNaNaNaNaNaNag13
aa(lp112
S'EEE202'
p113
aI72993
aI0
aI30
ag104
aS' 3:00 PM'
p114
aI15
aI0
aI18
aI0
aNaNaNaNaNaNaNag5
aa(lp115
S'EEE202'
p116
aI72994
aI17
aI30
ag93
aS' 3:00 PM'
p117
aI15
aI0
aI18
aI0
aNaNaNaNaNaNaNag13
aa(lp118
S'EEE202'
p119
aI76537
aI3
aI30
ag104
aS' 9:00 AM'
p120
aI9
aI0
aI12
aI0
aNaNaNaNaNaNaNag13
aa(lp121
S'EEE202'
p122
aI77610
aI15
aI30
ag104
aS' 6:00 PM'
p123
aI18
aI0
aI21
aI0
aNaNaNaNaNaNaNag13
aa(lp124
S'EEE202'
p125
aI77611
aI12
aI30
ag93
aS' 6:00 PM'
p126
aI18
aI0
aI21
aI0
aNaNaNaNaNaNaNag13
aa(lp127
S'EEE202'
p128
aI77612
aI22
aI30
aS'Th'
p129
aS' 6:00 PM'
p130
aI18
aI0
aI21
aI0
aNaNaNaNaNaNaNag13
aa(lp131
S'EEE202'
p132
aI77613
aI0
aI30
aS'Th'
p133
aS'12:00 PM'
p134
aI12
aI0
aI15
aI0
aNaNaNaNaNaNaNag5
aa(lp135
S'EEE202'
p136
aI81131
aI14
aI30
aS'F'
p137
aS' 9:00 AM'
p138
aI9
aI0
aI12
aI0
aNaNaNaNaNaNaNag13
aa(lp139
S'EEE202'
p140
aI81132
aI16
aI30
ag137
aS'12:00 PM'
p141
aI12
aI0
aI15
aI0
aNaNaNaNaNaNaNag13
aa(lp142
S'EEE202'
p143
aI81133
aI15
aI30
ag137
aS' 3:00 PM'
p144
aI15
aI0
aI18
aI0
aNaNaNaNaNaNaNag13
aa(lp145
S'EEE202'
p146
aI84587
aI27
aI30
ag137
aS' 6:00 PM'
p147
aI18
aI0
aI21
aI0
aNaNaNaNaNaNaNag13
aa(lp148
S'EEE203'
p149
aI70943
aI0
aI60
aS'T Th'
p150
aS'12:00 PM'
p151
aI12
aI0
aI13
aI15
aNaNaNaNaNaNaNag5
aa(lp152
S'EEE203'
p153
aI76494
aI66
aI95
aS'M W'
p154
aS' 9:00 AM'
p155
aI9
aI0
aI10
aI15
aNaNaNaNaNaNaNag13
aa(lp156
S'EEE230'
p157
aI70944
aI8
aI33
aS'M W F'
p158
aS'10:30 AM'
p159
aI10
aI30
aI11
aI20
aNaNaNaNaNaNaNag13
aa(lp160
S'EEE230'
p161
aI70945
aI18
aI41
aS'M W F'
p162
aS'12:00 PM'
p163
aI12
aI0
aI12
aI50
aNaNaNaNaNaNaNag13
aa(lp164
S'EEE230'
p165
aI70946
aI1
aI40
aS'T Th'
p166
aS' 4:30 PM'
p167
aI16
aI30
aI17
aI45
aNaNaNaNaNaNaNag13
aa(lp168
S'EEE230'
p169
aI75917
aI7
aI33
aS'M W F'
p170
aS' 1:30 PM'
p171
aI13
aI30
aI14
aI20
aNaNaNaNaNaNaNag13
aa(lp172
S'EEE241'
p173
aI70947
aI47
aI92
ag8
aNaNaNaNaNag104
aNaNaNaNaNaNag13
aa(lp174
S'EEE241'
p175
aI90355
aI28
aI70
aS'M W'
p176
aS' 4:30 PM'
p177
aI16
aI30
aI17
aI45
aNaNaNaNaNaNaNag13
aa(lp178
S'EEE304'
p179
aI87227
aI54
aI72
aS'M W'
p180
aS' 9:00 AM'
p181
aI9
aI0
aI10
aI15
aNaNaNaNaNaNaNag13
aa(lp182
S'EEE304'
p183
aI87274
aI54
aI72
ag8
aNaNaNaNaNaNaNaNaNaNaNaNag13
aa(lp184
S'EEE304'
p185
aI90733
aI0
aI60
aS'M W'
p186
aS' 1:30 PM'
p187
aI13
aI30
aI14
aI45
aNaNaNaNaNaNaNag5
aa(lp188
S'EEE304'
p189
aI90737
aI0
aI60
ag8
aNaNaNaNaNaNaNaNaNaNaNaNag5
aa(lp190
S'EEE333'
p191
aI70949
aI1
aI72
aS'T Th'
p192
aS'10:30 AM'
p193
aI10
aI30
aI11
aI45
aNaNaNaNaNaNaNag13
aa(lp194
S'EEE333'
p195
aI77035
aI1
aI72
ag8
aNaNaNaNaNaNaNaNaNaNaNaNag13
aa(lp196
S'EEE333'
p197
aI89212
aI56
aI72
aS'T Th'
p198
aS' 7:30 AM'
p199
aI7
aI30
aI8
aI45
aNaNaNaNaNaNaNag13
aa(lp200
S'EEE333'
p201
aI89215
aI56
aI72
ag8
aNaNaNaNaNaNaNaNaNaNaNaNag13
aa(lp202
S'EEE334'
p203
aI70950
aI0
aI80
aS'T Th'
p204
aS' 9:00 AM'
p205
aI9
aI0
aI10
aI15
aNaNaNaNaNaNaNag5
aa(lp206
S'EEE334'
p207
aI77034
aI0
aI80
ag8
aNaNaNaNaNaNaNaNaNaNaNaNag5
aa(lp208
S'EEE334'
p209
aI78794
aI22
aI100
aS'T Th'
p210
aS' 3:00 PM'
p211
aI15
aI0
aI16
aI15
aNaNaNaNaNaNaNag13
aa(lp212
S'EEE334'
p213
aI78797
aI22
aI100
ag8
aNaNaNaNaNaNaNaNaNaNaNaNag13
aa(lp214
S'EEE335'
p215
aI72664
aI41
aI70
aS'T Th'
p216
aS' 9:00 AM'
p217
aI9
aI0
aI10
aI15
aNaNaNaNaNaNaNag13
aa(lp218
S'EEE335'
p219
aI77041
aI41
aI70
ag8
aNaNaNaNaNaNaNaNaNaNaNaNag13
aa(lp220
S'EEE335'
p221
aI80430
aI18
aI70
aS'T Th'
p222
aS' 3:00 PM'
p223
aI15
aI0
aI16
aI15
aNaNaNaNaNaNaNag13
aa(lp224
S'EEE335'
p225
aI80431
aI18
aI70
ag8
aNaNaNaNaNaNaNaNaNaNaNaNag13
aa(lp226
S'EEE341'
p227
aI72667
aI66
aI115
aS'M W'
p228
aS'12:00 PM'
p229
aI12
aI0
aI13
aI15
aNaNaNaNaNaNaNag13
aa(lp230
S'EEE341'
p231
aI77627
aI66
aI115
ag8
aNaNaNaNaNaNaNaNaNaNaNaNag13
aa(lp232
S'EEE350'
p233
aI70951
aI0
aI70
aS'M W'
p234
aS' 3:00 PM'
p235
aI15
aI0
aI16
aI15
aNaNaNaNaNaNaNag5
aa(lp236
S'EEE350'
p237
aI70952
aI16
aI70
aS'T Th'
p238
aS' 1:30 PM'
p239
aI13
aI30
aI14
aI45
aNaNaNaNaNaNaNag13
aa(lp240
S'EEE352'
p241
aI70953
aI51
aI115
aS'M W F'
p242
aS'10:30 AM'
p243
aI10
aI30
aI11
aI45
aNaNaNaNaNaNaNag13
aa(lp244
S'EEE360'
p245
aI70134
aI30
aI96
aS'T Th'
p246
aS'12:00 PM'
p247
aI12
aI0
aI13
aI15
aNaNaNaNaNaNaNag13
aa(lp248
S'EEE360'
p249
aI70135
aI1
aI12
ag93
aS' 1:30 PM'
p250
aI13
aI30
aI16
aI20
aNaNaNaNaNaNaNag13
aa(lp251
S'EEE360'
p252
aI70136
aI4
aI12
ag104
aS' 9:00 AM'
p253
aI9
aI0
aI11
aI50
aNaNaNaNaNaNaNag13
aa(lp254
S'EEE360'
p255
aI70137
aI2
aI12
ag104
aS' 4:30 PM'
p256
aI16
aI30
aI19
aI20
aNaNaNaNaNaNaNag13
aa(lp257
S'EEE360'
p258
aI70954
aI7
aI12
aS'Th'
p259
aS' 9:00 AM'
p260
aI9
aI0
aI11
aI50
aNaNaNaNaNaNaNag13
aa(lp261
S'EEE360'
p262
aI73026
aI5
aI12
ag93
aS' 6:30 PM'
p263
aI18
aI30
aI21
aI20
aNaNaNaNaNaNaNag13
aa(lp264
S'EEE360'
p265
aI82280
aI6
aI12
aS'Th'
p266
aS' 6:30 PM'
p267
aI18
aI30
aI21
aI20
aNaNaNaNaNaNaNag13
aa(lp268
S'EEE360'
p269
aI89466
aI1
aI12
ag93
aS' 4:30 PM'
p270
aI16
aI30
aI19
aI30
aNaNaNaNaNaNaNag13
aa(lp271
S'EEE360'
p272
aI89469
aI4
aI12
aS'Th'
p273
aS' 4:30 PM'
p274
aI16
aI30
aI19
aI30
aNaNaNaNaNaNaNag13
aa(lp275
S'EEE407'
p276
aI70955
aI28
aI55
aS'M W'
p277
aS' 3:00 PM'
p278
aI15
aI0
aI16
aI15
aNaNaNaNaNaNaNag13
aa(lp279
S'EEE407'
p280
aI77053
aI28
aI55
ag8
aNaNaNaNaNaNaNaNaNaNaNaNag13
aa(lp281
S'EEE425'
p282
aI70138
aI3
aI36
aS'M W'
p283
aS'10:30 AM'
p284
aI10
aI30
aI11
aI45
aNaNaNaNaNaNaNag13
aa(lp285
S'EEE425'
p286
aI70139
aI1
aI12
ag104
aS' 1:40 PM'
p287
aI13
aI40
aI16
aI10
aNaNaNaNaNaNaNag13
aa(lp288
S'EEE425'
p289
aI70140
aI1
aI12
ag93
aS' 7:00 PM'
p290
aI19
aI0
aI22
aI0
aNaNaNaNaNaNaNag13
aa(lp291
S'EEE425'
p292
aI70956
aI1
aI12
aS'Th'
p293
aS' 1:40 PM'
p294
aI13
aI40
aI16
aI10
aNaNaNaNaNaNaNag13
aa(lp295
S'EEE425'
p296
aI79127
aI40
aI45
aS'M W'
p297
aS' 1:30 PM'
p298
aI13
aI30
aI14
aI45
aNaNaNaNaNaNaNag13
aa(lp299
S'EEE425'
p300
aI79137
aI14
aI15
ag104
aS' 1:40 PM'
p301
aI13
aI40
aI16
aI10
aNaNaNaNaNaNaNag13
aa(lp302
S'EEE425'
p303
aI79138
aI12
aI15
ag93
aS' 7:00 PM'
p304
aI19
aI0
aI22
aI0
aNaNaNaNaNaNaNag13
aa(lp305
S'EEE425'
p306
aI79140
aI14
aI15
aS'Th'
p307
aS' 1:40 PM'
p308
aI13
aI40
aI16
aI10
aNaNaNaNaNaNaNag13
aa(lp309
S'EEE433'
p310
aI87035
aI30
aI35
aS'T Th'
p311
aS' 1:30 PM'
p312
aI13
aI30
aI14
aI45
aNaNaNaNaNaNaNag13
aa(lp313
S'EEE433'
p314
aI87065
aI13
aI15
ag104
aS' 7:00 PM'
p315
aI19
aI0
aI22
aI0
aNaNaNaNaNaNaNag13
aa(lp316
S'EEE433'
p317
aI87068
aI13
aI15
ag93
aS' 1:30 PM'
p318
aI13
aI30
aI16
aI30
aNaNaNaNaNaNaNag13
aa(lp319
S'EEE433'
p320
aI87074
aI14
aI15
ag137
aS' 1:30 PM'
p321
aI13
aI30
aI16
aI30
aNaNaNaNaNaNaNag13
aa(lp322
S'EEE433'
p323
aI88515
aI35
aI45
aS'M W'
p324
aS'12:00 PM'
p325
aI12
aI0
aI13
aI15
aNaNaNaNaNaNaNag13
aa(lp326
S'EEE433'
p327
aI89453
aI12
aI15
ag104
aS' 7:00 PM'
p328
aI19
aI0
aI22
aI0
aNaNaNaNaNaNaNag13
aa(lp329
S'EEE433'
p330
aI89454
aI14
aI15
ag93
aS' 1:30 PM'
p331
aI13
aI30
aI16
aI30
aNaNaNaNaNaNaNag13
aa(lp332
S'EEE433'
p333
aI89456
aI9
aI15
ag137
aS' 1:30 PM'
p334
aI13
aI30
aI16
aI30
aNaNaNaNaNaNaNag13
aa(lp335
S'EEE433'
p336
aI90298
aI0
aI39
aS'M W'
p337
aS' 9:00 AM'
p338
aI9
aI0
aI10
aI15
aNaNaNaNaNaNaNag5
aa(lp339
S'EEE433'
p340
aI90750
aI0
aI13
ag104
aS' 7:00 PM'
p341
aI19
aI0
aI22
aI0
aNaNaNaNaNaNaNag5
aa(lp342
S'EEE433'
p343
aI90751
aI0
aI13
ag93
aS' 1:30 PM'
p344
aI13
aI30
aI16
aI30
aNaNaNaNaNaNaNag5
aa(lp345
S'EEE433'
p346
aI90752
aI0
aI13
ag137
aS' 1:30 PM'
p347
aI13
aI30
aI16
aI30
aNaNaNaNaNaNaNag5
aa(lp348
S'EEE434'
p349
aI70957
aI18
aI31
aS'T Th'
p350
aS' 3:00 PM'
p351
aI15
aI0
aI16
aI15
aNaNaNaNaNaNaNag13
aa(lp352
S'EEE435'
p353
aI73744
aI4
aI18
aS'T Th'
p354
aS'10:30 AM'
p355
aI10
aI30
aI11
aI45
aNaNaNaNaNaNaNag13
aa(lp356
S'EEE435'
p357
aI75368
aI4
aI18
ag8
aNaNaNaNaNaNaNaNaNaNaNaNag13
aa(lp358
S'EEE436'
p359
aI70958
aI23
aI33
aS'T Th'
p360
aS'12:00 PM'
p361
aI12
aI0
aI13
aI15
aNaNaNaNaNaNaNag13
aa(lp362
S'EEE439'
p363
aI75490
aI13
aI31
aS'M W'
p364
aS'12:00 PM'
p365
aI12
aI0
aI13
aI15
aNaNaNaNaNaNaNag13
aa(lp366
S'EEE445'
p367
aI70141
aI15
aI30
aS'M W'
p368
aS' 9:00 AM'
p369
aI9
aI0
aI10
aI15
aNaNaNaNaNaNaNag13
aa(lp370
S'EEE445'
p371
aI70142
aI8
aI10
ag137
aS' 8:40 AM'
p372
aI8
aI40
aI11
aI10
aNaNaNaNaNaNaNag13
aa(lp373
S'EEE445'
p374
aI70143
aI7
aI10
ag104
aS' 6:40 PM'
p375
aI18
aI40
aI21
aI10
aNaNaNaNaNaNaNag13
aa(lp376
S'EEE445'
p377
aI70144
aI0
aI10
aS'Th'
p378
aS' 4:40 PM'
p379
aI16
aI40
aI19
aI10
aNaNaNaNaNaNaNag5
aa(lp380
S'EEE448'
p381
aI88851
aI12
aI33
aS'T Th'
p382
aS' 9:00 AM'
p383
aI9
aI0
aI10
aI15
aNaNaNaNaNaNaNag13
aa(lp384
S'EEE455'
p385
aI70960
aI1
aI36
aS'T Th'
p386
aS' 9:00 AM'
p387
aI9
aI0
aI10
aI15
aNaNaNaNaNaNaNag13
aa(lp388
S'EEE455'
p389
aI70145
aI0
aI9
aS'Th'
p390
aS' 6:30 PM'
p391
aI18
aI30
aI21
aI30
aNaNaNaNaNaNaNag5
aa(lp392
S'EEE455'
p393
aI70146
aI0
aI9
ag93
aS' 6:30 PM'
p394
aI18
aI30
aI21
aI30
aNaNaNaNaNaNaNag5
aa(lp395
S'EEE455'
p396
aI70147
aI1
aI9
ag86
aS' 1:30 PM'
p397
aI13
aI30
aI16
aI30
aNaNaNaNaNaNaNag13
aa(lp398
S'EEE455'
p399
aI75374
aI0
aI9
ag137
aS' 2:30 PM'
p400
aI14
aI30
aI17
aI30
aNaNaNaNaNaNaNag5
aa(lp401
S'EEE459'
p402
aI83182
aI0
aI60
aS'T Th'
p403
aS'12:00 PM'
p404
aI12
aI0
aI13
aI15
aNaNaNaNaNaNaNag5
aa(lp405
S'EEE463'
p406
aI90888
aI3
aI84
ag8
aNaNaNaNaNag86
aNaNaNaNaNaNag13
aa(lp407
S'EEE470'
p408
aI70962
aI17
aI60
aS'T Th'
p409
aS' 4:30 PM'
p410
aI16
aI30
aI17
aI45
aNaNaNaNaNaNaNag13
aa(lp411
S'EEE472'
p412
aI86918
aI8
aI60
aS'M W'
p413
aS' 3:00 PM'
p414
aI15
aI0
aI16
aI15
aNaNaNaNaNaNaNag13
aa(lp415
S'EEE480'
p416
aI70963
aI31
aI44
aS'T Th'
p417
aS' 3:00 PM'
p418
aI15
aI0
aI16
aI15
aNaNaNaNaNaNaNag13
aa(lp419
S'EEE480'
p420
aI70148
aI9
aI11
aS'Th'
p421
aS' 4:30 PM'
p422
aI16
aI30
aI19
aI30
aNaNaNaNaNaNaNag13
aa(lp423
S'EEE480'
p424
aI70149
aI7
aI11
aS'Sa'
p425
aS' 9:00 AM'
p426
aI9
aI0
aI12
aI0
aNaNaNaNaNaNaNag13
aa(lp427
S'EEE480'
p428
aI70151
aI4
aI11
ag104
aS' 4:30 PM'
p429
aI16
aI30
aI19
aI30
aNaNaNaNaNaNaNag13
aa(lp430
S'EEE481'
p431
aI90571
aI18
aI36
aS'M W'
p432
aS' 1:30 PM'
p433
aI13
aI30
aI14
aI45
aNaNaNaNaNaNaNag13
aa(lp434
S'EEE481'
p435
aI90578
aI5
aI9
ag86
aS'10:30 AM'
p436
aI10
aI30
aI13
aI20
aNaNaNaNaNaNaNag13
aa(lp437
S'EEE481'
p438
aI90662
aI8
aI9
ag93
aS' 9:00 AM'
p439
aI9
aI0
aI11
aI50
aNaNaNaNaNaNaNag13
aa(lp440
S'EEE481'
p441
aI90663
aI1
aI9
ag93
aS' 3:00 PM'
p442
aI15
aI0
aI17
aI50
aNaNaNaNaNaNaNag13
aa(lp443
S'EEE481'
p444
aI90664
aI4
aI9
aS'Th'
p445
aS'10:30 AM'
p446
aI10
aI30
aI13
aI20
aNaNaNaNaNaNaNag13
aa(lp447
S'EEE488'
p448
aI73077
aI14
aI132
ag137
aS'12:00 PM'
p449
aI12
aI0
aI13
aI15
aNaNaNaNaNaNaNag13
aa(lp450
S'EEE489'
p451
aI73078
aI53
aI115
ag137
aS' 9:00 AM'
p452
aI9
aI0
aI10
aI15
aNaNaNaNaNaNaNag13
aa(lp453
S'EEE492'
p454
aI70964
aI10
aI10
ag8
aNaNaNaNaNaNaNaNaNaNaNaNag13
aa(lp455
S'EEE493'
p456
aI70965
aI10
aI10
ag8
aNaNaNaNaNaNaNaNaNaNaNaNag13
aa(lp457
S'EEE498'
p458
aI80170
aI4
aI47
aS'M W'
p459
aS' 4:30 PM'
p460
aI16
aI30
aI19
aI15
aNaNaNaNaNaNaNag13
aa(lp461
S'EEE499'
p462
aI70966
aI10
aI10
ag8
aNaNaNaNaNaNaNaNaNaNaNaNag13
aa(lp463
S'EEE507'
p464
aI73505
aI22
aI40
aS'T Th'
p465
aS' 3:00 PM'
p466
aI15
aI0
aI16
aI15
aNaNaNaNaNaNaNag13
aa(lp467
S'EEE511'
p468
aI73834
aI4
aI40
aS'T Th'
p469
aS' 3:00 PM'
p470
aI15
aI0
aI16
aI15
aNaNaNaNaNaNaNag13
aa(lp471
S'EEE523'
p472
aI70967
aI0
aI60
aS'T Th'
p473
aS'10:30 AM'
p474
aI10
aI30
aI11
aI45
aNaNaNaNaNaNaNag5
aa(lp475
S'EEE525'
p476
aI80524
aI18
aI70
aS'T Th'
p477
aS'12:00 PM'
p478
aI12
aI0
aI13
aI15
aNaNaNaNaNaNaNag13
aa(lp479
S'EEE531'
p480
aI70968
aI14
aI62
aS'M W'
p481
aS'10:30 AM'
p482
aI10
aI30
aI11
aI45
aNaNaNaNaNaNaNag13
aa(lp483
S'EEE533'
p484
aI78773
aI51
aI62
aS'M W'
p485
aS'12:00 PM'
p486
aI12
aI0
aI13
aI15
aNaNaNaNaNaNaNag13
aa(lp487
S'EEE537'
p488
aI70969
aI29
aI40
aS'T Th'
p489
aS' 3:00 PM'
p490
aI15
aI0
aI16
aI15
aNaNaNaNaNaNaNag13
aa(lp491
S'EEE539'
p492
aI86991
aI41
aI48
aS'T Th'
p493
aS'12:00 PM'
p494
aI12
aI0
aI13
aI15
aNaNaNaNaNaNaNag13
aa(lp495
S'EEE541'
p496
aI70970
aI47
aI55
aS'T Th'
p497
aS'10:30 AM'
p498
aI10
aI30
aI11
aI45
aNaNaNaNaNaNaNag13
aa(lp499
S'EEE543'
p500
aI86901
aI39
aI55
aS'T Th'
p501
aS' 3:00 PM'
p502
aI15
aI0
aI16
aI15
aNaNaNaNaNaNaNag13
aa(lp503
S'EEE547'
p504
aI87211
aI9
aI30
aS'M W F'
p505
aS' 1:30 PM'
p506
aI13
aI30
aI15
aI20
aNaNaNaNaNaNaNag13
aa(lp507
S'EEE551'
p508
aI87468
aI36
aI45
aS'T Th'
p509
aS'10:30 AM'
p510
aI10
aI30
aI11
aI45
aNaNaNaNaNaNaNag13
aa(lp511
S'EEE554'
p512
aI70971
aI37
aI66
aS'T Th'
p513
aS' 1:30 PM'
p514
aI13
aI30
aI14
aI45
aNaNaNaNaNaNaNag13
aa(lp515
S'EEE557'
p516
aI75356
aI26
aI62
aS'M W'
p517
aS'10:30 AM'
p518
aI10
aI30
aI11
aI45
aNaNaNaNaNaNaNag13
aa(lp519
S'EEE558'
p520
aI70972
aI22
aI40
aS'M W'
p521
aS' 3:00 PM'
p522
aI15
aI0
aI16
aI15
aNaNaNaNaNaNaNag13
aa(lp523
S'EEE562'
p524
aI73743
aI42
aI44
aS'T Th'
p525
aS'12:00 PM'
p526
aI12
aI0
aI13
aI15
aNaNaNaNaNaNaNag13
aa(lp527
S'EEE565'
p528
aI80150
aI22
aI55
aS'T Th'
p529
aS' 9:00 AM'
p530
aI9
aI0
aI10
aI15
aNaNaNaNaNaNaNag13
aa(lp531
S'EEE575'
p532
aI87270
aI69
aI115
aS'T Th'
p533
aS' 1:30 PM'
p534
aI13
aI30
aI14
aI45
aNaNaNaNaNaNaNag13
aa(lp535
S'EEE577'
p536
aI70973
aI42
aI62
aS'M W'
p537
aS'12:00 PM'
p538
aI12
aI0
aI13
aI15
aNaNaNaNaNaNaNag13
aa(lp539
S'EEE582'
p540
aI82132
aI32
aI55
aS'T Th'
p541
aS'12:00 PM'
p542
aI12
aI0
aI13
aI15
aNaNaNaNaNaNaNag13
aa(lp543
S'EEE584'
p544
aI84443
aI30
aI30
ag8
aNaNaNaNaNaNaNaNaNaNaNaNag13
aa(lp545
S'EEE587'
p546
aI90665
aI22
aI39
aS'T Th'
p547
aS' 9:00 AM'
p548
aI9
aI0
aI10
aI15
aNaNaNaNaNaNaNag13
aa(lp549
S'EEE590'
p550
aI70974
aI100
aI100
ag8
aNaNaNaNaNaNaNaNaNaNaNaNag13
aa(lp551
S'EEE591'
p552
aI80171
aI1
aI23
aS'M W'
p553
aS' 4:30 PM'
p554
aI16
aI30
aI19
aI15
aNaNaNaNaNaNaNag13
aa(lp555
S'EEE591'
p556
aI90890
aI8
aI16
ag8
aNaNaNaNaNag86
aNaNaNaNaNaNag13
aa(lp557
S'EEE591'
p558
aI70980
aI44
aI60
aS'M W'
p559
aS' 3:00 PM'
p560
aI15
aI0
aI16
aI15
aNaNaNaNaNaNaNag13
aa(lp561
S'EEE591'
p562
aI74500
aI8
aI26
aS'M W'
p563
aS'10:30 AM'
p564
aI10
aI30
aI11
aI45
aNaNaNaNaNaNaNag13
aa(lp565
S'EEE591'
p566
aI77122
aI55
aI60
aS'T Th'
p567
aS' 4:30 PM'
p568
aI16
aI30
aI17
aI45
aNaNaNaNaNaNaNag13
aa(lp569
S'EEE591'
p570
aI70978
aI24
aI24
aS'T Th'
p571
aS' 3:00 PM'
p572
aI15
aI0
aI16
aI15
aNaNaNaNaNaNaNag13
aa(lp573
S'EEE591'
p574
aI73745
aI7
aI18
aS'T Th'
p575
aS'10:30 AM'
p576
aI10
aI30
aI11
aI45
aNaNaNaNaNaNaNag13
aa(lp577
S'EEE591'
p578
aI70975
aI7
aI18
ag8
aNaNaNaNaNaNaNaNaNaNaNaNag13
aa(lp579
S'EEE591'
p580
aI86919
aI17
aI40
aS'M W'
p581
aS' 3:00 PM'
p582
aI15
aI0
aI16
aI15
aNaNaNaNaNaNaNag13
aa(lp583
S'EEE591'
p584
aI70976
aI20
aI33
aS'T Th'
p585
aS'12:00 PM'
p586
aI12
aI0
aI13
aI15
aNaNaNaNaNaNaNag13
aa(lp587
S'EEE591'
p588
aI77958
aI33
aI35
aS'T Th'
p589
aS' 1:30 PM'
p590
aI13
aI30
aI14
aI45
aNaNaNaNaNaNaNag13
aa(lp591
S'EEE591'
p592
aI75491
aI22
aI31
aS'M W'
p593
aS'12:00 PM'
p594
aI12
aI0
aI13
aI15
aNaNaNaNaNaNaNag13
aa(lp595
S'EEE591'
p596
aI72893
aI29
aI32
aS'M W'
p597
aS' 9:00 AM'
p598
aI9
aI0
aI10
aI15
aNaNaNaNaNaNaNag13
aa(lp599
S'EEE591'
p600
aI72895
aI0
aI12
aS'T Th'
p601
aS' 9:00 AM'
p602
aI9
aI0
aI10
aI15
aNaNaNaNaNaNaNag5
aa(lp603
S'EEE591'
p604
aI79133
aI57
aI70
aS'M W'
p605
aS' 1:30 PM'
p606
aI13
aI30
aI14
aI45
aNaNaNaNaNaNaNag13
aa(lp607
S'EEE591'
p608
aI70979
aI31
aI41
aS'T Th'
p609
aS' 3:00 PM'
p610
aI15
aI0
aI16
aI15
aNaNaNaNaNaNaNag13
aa(lp611
S'EEE591'
p612
aI88855
aI28
aI33
aS'T Th'
p613
aS' 9:00 AM'
p614
aI9
aI0
aI10
aI15
aNaNaNaNaNaNaNag13
aa(lp615
S'EEE591'
p616
aI83223
aI6
aI40
aS'T Th'
p617
aS'12:00 PM'
p618
aI12
aI0
aI13
aI15
aNaNaNaNaNaNaNag13
aa(lp619
S'EEE591'
p620
aI88516
aI13
aI17
aS'M W'
p621
aS'12:00 PM'
p622
aI12
aI0
aI13
aI15
aNaNaNaNaNaNaNag13
aa(lp623
S'EEE591'
p624
aI89444
aI14
aI30
aS'M W'
p625
aS' 9:00 AM'
p626
aI9
aI0
aI10
aI15
aNaNaNaNaNaNaNag13
aa(lp627
S'EEE591'
p628
aI90575
aI26
aI30
aS'M W'
p629
aS' 1:30 PM'
p630
aI13
aI30
aI14
aI45
aNaNaNaNaNaNaNag13
aa(lp631
S'EEE592'
p632
aI78292
aI30
aI30
ag8
aNaNaNaNaNaNaNaNaNaNaNaNag13
aa(lp633
S'EEE592'
p634
aI74268
aI200
aI200
ag8
aNaNaNaNaNaNaNaNaNaNaNaNag13
aa(lp635
S'EEE595'
p636
aI85977
aI30
aI30
ag8
aNaNaNaNaNaNaNaNaNaNaNaNag13
aa(lp637
S'EEE595'
p638
aI78294
aI30
aI30
ag8
aNaNaNaNaNaNaNaNaNaNaNaNag13
aa(lp639
S'EEE595'
p640
aI70982
aI115
aI120
ag8
aNaNaNaNaNaNaNaNaNaNaNaNag13
aa(lp641
S'EEE598'
p642
aI74183
aI59
aI115
ag104
aS' 6:00 PM'
p643
aI18
aI0
aI20
aI45
aNaNaNaNaNaNaNag13
aa(lp644
S'EEE598'
p645
aI77271
aI28
aI36
aS'T Th'
p646
aS'10:30 AM'
p647
aI10
aI30
aI11
aI45
aNaNaNaNaNaNaNag13
aa(lp648
S'EEE598'
p649
aI74341
aI21
aI48
aS'T Th'
p650
aS' 9:00 AM'
p651
aI9
aI0
aI10
aI15
aNaNaNaNaNaNaNag13
aa(lp652
S'EEE598'
p653
aI78772
aI19
aI40
aS'T Th'
p654
aS' 1:30 PM'
p655
aI13
aI30
aI14
aI45
aNaNaNaNaNaNaNag13
aa(lp656
S'EEE598'
p657
aI78761
aI43
aI49
aS'M W'
p658
aS' 1:30 PM'
p659
aI13
aI30
aI14
aI45
aNaNaNaNaNaNaNag13
aa(lp660
S'EEE598'
p661
aI79118
aI46
aI62
aS'M W'
p662
aS'12:00 PM'
p663
aI12
aI0
aI13
aI15
aNaNaNaNaNaNaNag13
aa(lp664
S'EEE598'
p665
aI79827
aI21
aI36
aS'M W'
p666
aS' 3:00 PM'
p667
aI15
aI0
aI16
aI15
aNaNaNaNaNaNaNag13
aa(lp668
S'EEE598'
p669
aI82750
aI22
aI25
ag137
aS' 1:30 PM'
p670
aI13
aI30
aI14
aI45
aNaNaNaNaNaNaNag13
aa(lp671
S'EEE598'
p672
aI86929
aI30
aI62
aS'M W'
p673
aS'10:30 AM'
p674
aI10
aI30
aI11
aI45
aNaNaNaNaNaNaNag13
aa(lp675
S'EEE598'
p676
aI87873
aI0
aI40
aS'T Th'
p677
aS' 1:30 PM'
p678
aI13
aI30
aI14
aI45
aNaNaNaNaNaNaNag5
aa(lp679
S'EEE598'
p680
aI88562
aI5
aI30
aS'M W'
p681
aS' 6:00 PM'
p682
aI18
aI0
aI19
aI15
aNaNaNaNaNaNaNag13
aa(lp683
S'EEE598'
p684
aI91003
aI49
aI55
aS'M W'
p685
aS' 4:30 PM'
p686
aI16
aI30
aI17
aI45
aNaNaNaNaNaNaNag13
aa(lp687
S'EEE598'
p688
aI91445
aI0
aI77
aS'M W'
p689
aS' 1:30 PM'
p690
aI13
aI30
aI14
aI45
aNaNaNaNaNaNaNag5
aa(lp691
S'EEE599'
p692
aI78293
aI30
aI30
ag8
aNaNaNaNaNaNaNaNaNaNaNaNag13
aa(lp693
S'EEE599'
p694
aI70983
aI192
aI200
ag8
aNaNaNaNaNaNaNaNaNaNaNaNag13
aa(lp695
S'EEE625'
p696
aI77343
aI22
aI70
aS'M W'
p697
aS' 4:30 PM'
p698
aI16
aI30
aI17
aI45
aNaNaNaNaNaNaNag13
aa(lp699
S'EEE627'
p700
aI77344
aI23
aI65
aS'T Th'
p701
aS' 4:30 PM'
p702
aI16
aI30
aI17
aI45
aNaNaNaNaNaNaNag13
aa(lp703
S'EEE680'
p704
aI81001
aI30
aI30
ag8
aNaNaNaNaNaNaNaNaNaNaNaNag13
aa(lp705
S'EEE680'
p706
aI70984
aI98
aI100
ag8
aNaNaNaNaNaNaNaNaNaNaNaNag13
aa(lp707
S'EEE684'
p708
aI80955
aI30
aI30
ag8
aNaNaNaNaNaNaNaNaNaNaNaNag13
aa(lp709
S'EEE684'
p710
aI70985
aI57
aI60
ag8
aNaNaNaNaNaNaNaNaNaNaNaNag13
aa(lp711
S'EEE690'
p712
aI70986
aI50
aI50
ag8
aNaNaNaNaNaNaNaNaNaNaNaNag13
aa(lp713
S'EEE731'
p714
aI89961
aI25
aI40
aS'M W'
p715
aS' 4:30 PM'
p716
aI16
aI30
aI17
aI45
aNaNaNaNaNaNaNag13
aa(lp717
S'EEE790'
p718
aI70987
aI36
aI40
ag8
aNaNaNaNaNaNaNaNaNaNaNaNag13
aa(lp719
S'EEE792'
p720
aI78291
aI30
aI30
ag8
aNaNaNaNaNaNaNaNaNaNaNaNag13
aa(lp721
S'EEE792'
p722
aI70988
aI192
aI250
ag8
aNaNaNaNaNaNaNaNaNaNaNaNag13
aa(lp723
S'EEE795'
p724
aI78310
aI30
aI30
ag8
aNaNaNaNaNaNaNaNaNaNaNaNag13
aa(lp725
S'EEE795'
p726
aI70989
aI79
aI80
ag8
aNaNaNaNaNaNaNaNaNaNaNaNag13
aa(lp727
S'EEE799'
p728
aI70990
aI189
aI200
ag8
aNaNaNaNaNaNaNaNaNaNaNaNag13
aa.