(lp0
(lp1
S'ELL515'
p2
aI77837
aI24
aI24
aS'T'
p3
aS'4:30PM'
p4
aI16
aI30
aI19
aI15
aS''
p5
aS'12:00AM'
p6
aNaNaS'12:00AM'
p7
aNaNaS'Reserved'
p8
aa(lp9
S'ELL515'
p10
aI74677
aI28
aI36
aS'W'
p11
aS'4:30PM'
p12
aI16
aI30
aI20
aI45
ag5
aS'12:00AM'
p13
aNaNaS'12:00AM'
p14
aNaNag8
aa(lp15
S'ELL515'
p16
aI87117
aI32
aI32
aS'M'
p17
aS' 4:30 PM'
p18
aI16
aI30
aI20
aI45
aNaNaNaNaNaNaNag8
aa(lp19
S'ELL515'
p20
aI74678
aI35
aI40
ag3
aS'4:30PM'
p21
aI16
aI30
aI20
aI45
ag5
aS'12:00AM'
p22
aNaNaS'12:00AM'
p23
aNaNag8
aa(lp24
S'ELL515'
p25
aI74710
aI29
aI30
ag11
aS'4:30PM'
p26
aI16
aI30
aI20
aI45
ag5
aS'12:00AM'
p27
aNaNaS'12:00AM'
p28
aNaNag8
aa(lp29
S'ELL515'
p30
aI78763
aI16
aI24
ag17
aS'4:30PM'
p31
aI16
aI30
aI19
aI15
ag5
aS'12:00AM'
p32
aNaNaS'12:00AM'
p33
aNaNag8
aa(lp34
S'ELL515'
p35
aI78764
aI21
aI24
aS'Th'
p36
aS'4:30PM'
p37
aI16
aI30
aI19
aI15
ag5
aS'12:00AM'
p38
aNaNaS'12:00AM'
p39
aNaNag8
aa(lp40
S'ELL515'
p41
aI78765
aI18
aI24
ag3
aS'4:30PM'
p42
aI16
aI30
aI19
aI15
ag5
aS'12:00AM'
p43
aNaNaS'12:00AM'
p44
aNaNag8
aa(lp45
S'ELL515'
p46
aI74679
aI32
aI37
ag17
aS' 7:30 PM'
p47
aI19
aI30
aI22
aI15
aNaNaNaNaNaNaNag8
aa(lp48
S'ELL516'
p49
aI74676
aI23
aI35
aS'Th'
p50
aS' 4:30 PM'
p51
aI16
aI30
aI20
aI45
aNaNaNaNaNaNaNag8
aa(lp52
S'ELL516'
p53
aI74768
aI25
aI30
aS'T F'
p54
aS' 2:00 PM'
p55
aI14
aI0
aI16
aI40
aNaNaNaNaNaNaNag8
aa(lp56
S'ELL516'
p57
aI80575
aI9
aI20
aS'ONLINE'
p58
aNaNaNaNaNaNaNaNaNaNaNaNaS'Not Reserved'
p59
aa.