(lp0
(lp1
S'ELS591'
p2
aI90523
aI4
aI4
aS'M W'
p3
aS' 9:00 AM'
p4
aI9
aI0
aI10
aI15
aNaNaNaNaNaNaNaS'Not Reserved'
p5
aa(lp6
S'ELS790'
p7
aI73907
aI50
aI50
aS'ONLINE'
p8
aNaNaNaNaNaNaNaNaNaNaNaNag5
aa(lp9
S'ELS792'
p10
aI73908
aI47
aI50
ag8
aNaNaNaNaNaNaNaNaNaNaNaNag5
aa(lp11
S'ELS795'
p12
aI75392
aI50
aI50
ag8
aNaNaNaNaNaNaNaNaNaNaNaNag5
aa(lp13
S'ELS799'
p14
aI75393
aI50
aI50
ag8
aNaNaNaNaNaNaNaNaNaNaNaNag5
aa.