(lp0
(lp1
S'EMS511'
p2
aI83984
aI30
aI30
aS'ONLINE'
p3
aNaNaNaNaNaNaNaNaNaNaNaNaS'Not Reserved'
p4
aa(lp5
S'EMS512'
p6
aI83985
aI30
aI30
ag3
aNaNaNaNaNaNaNaNaNaNaNaNag4
aa(lp7
S'EMS513'
p8
aI83986
aI30
aI30
ag3
aNaNaNaNaNaNaNaNaNaNaNaNag4
aa(lp9
S'EMS514'
p10
aI83987
aI30
aI30
ag3
aNaNaNaNaNaNaNaNaNaNaNaNag4
aa(lp11
S'EMS515'
p12
aI83988
aI30
aI30
ag3
aNaNaNaNaNaNaNaNaNaNaNaNag4
aa.