(lp0
(lp1
S'EPA532'
p2
aI83078
aI26
aI30
aS'T'
p3
aS'4:30PM'
p4
aI16
aI30
aI19
aI15
aS''
p5
aS'12:00AM'
p6
aNaNaS'12:00AM'
p7
aNaNaS'Not Reserved'
p8
aa(lp9
S'EPA556'
p10
aI83069
aI23
aI30
ag3
aS'4:30PM'
p11
aI16
aI30
aI19
aI15
ag5
aS'12:00AM'
p12
aNaNaS'12:00AM'
p13
aNaNag8
aa(lp14
S'EPA559'
p15
aI83077
aI26
aI30
ag3
aS'7:30PM'
p16
aI19
aI30
aI22
aI0
ag5
aS'12:00AM'
p17
aNaNaS'12:00AM'
p18
aNaNag8
aa(lp19
S'EPA691'
p20
aI80260
aI29
aI30
aS'M'
p21
aS' 4:30 PM'
p22
aI16
aI30
aI19
aI15
aNaNaNaNaNaNaNag8
aa(lp23
S'EPA691'
p24
aI80354
aI19
aI24
ag21
aS' 4:30 PM'
p25
aI16
aI30
aI19
aI15
aNaNaNaNaNaNaNag8
aa(lp26
S'EPA691'
p27
aI80262
aI16
aI21
ag3
aS' 4:30 PM'
p28
aI16
aI30
aI19
aI15
aNaNaNaNaNaNaNag8
aa(lp29
S'EPA691'
p30
aI75705
aI18
aI21
aS'W'
p31
aS' 4:30 PM'
p32
aI16
aI30
aI19
aI15
aNaNaNaNaNaNaNag8
aa(lp33
S'EPA691'
p34
aI83350
aI2
aI10
ag3
aS' 1:40 PM'
p35
aI13
aI40
aI16
aI15
aNaNaNaNaNaNaNag8
aa(lp36
S'EPA792'
p37
aI75633
aI19
aI20
aS'ONLINE'
p38
aNaNaNaNaNaNaNaNaNaNaNaNag8
aa(lp39
S'EPA799'
p40
aI76237
aI29
aI30
ag38
aNaNaNaNaNaNaNaNaNaNaNaNaS'Reserved'
p41
aa.