(lp0
(lp1
S'EPD690'
p2
aI71186
aI10
aI10
aS'ONLINE'
p3
aNaNaNaNaNaNaNaNaNaNaNaNaS'Not Reserved'
p4
aa(lp5
S'EPD710'
p6
aI73140
aI16
aI16
aS'M W'
p7
aS' 3:00 PM'
p8
aI15
aI0
aI16
aI15
aNaNaNaNaNaNaNag4
aa(lp9
S'EPD792'
p10
aI71187
aI10
aI10
ag3
aNaNaNaNaNaNaNaNaNaNaNaNag4
aa(lp11
S'EPD795'
p12
aI71188
aI10
aI10
ag3
aNaNaNaNaNaNaNaNaNaNaNaNag4
aa(lp13
S'EPD799'
p14
aI71189
aI10
aI10
ag3
aNaNaNaNaNaNaNaNaNaNaNaNag4
aa.