(lp0
(lp1
S'ERM301'
p2
aI71191
aI25
aI40
aS'M'
p3
aS' 4:30 PM'
p4
aI16
aI30
aI19
aI15
aNaNaNaNaNaNaNaS'Not Reserved'
p5
aa(lp6
S'ERM402'
p7
aI77692
aI7
aI20
aS'Th'
p8
aS' 4:30 PM'
p9
aI16
aI30
aI19
aI15
aNaNaNaNaNaNaNag5
aa(lp10
S'ERM407'
p11
aI90039
aI27
aI30
aS'T Th'
p12
aS' 9:00 AM'
p13
aI9
aI0
aI10
aI15
aNaNaNaNaNaNaNag5
aa(lp14
S'ERM407'
p15
aI77095
aI22
aI30
aS'ONLINE'
p16
aNaNaNaNaNaNaNaNaNaNaNaNaS'Reserved'
p17
aa(lp18
S'ERM480'
p19
aI90705
aI26
aI30
ag3
aS' 4:30 PM'
p20
aI16
aI30
aI19
aI15
aNaNaNaNaNaNaNag5
aa(lp21
S'ERM484'
p22
aI86073
aI5
aI5
ag16
aNaNaNaNaNaNaNaNaNaNaNaNag5
aa(lp23
S'ERM494'
p24
aI89828
aI10
aI10
ag16
aNaNaNaNaNaNaNaNaNaNaNaNag5
aa(lp25
S'ERM494'
p26
aI79819
aI16
aI20
aS'T'
p27
aS' 4:30 PM'
p28
aI16
aI30
aI19
aI15
aNaNaNaNaNaNaNag5
aa(lp29
S'ERM494'
p30
aI79820
aI14
aI20
aS'W'
p31
aS' 4:30 PM'
p32
aI16
aI30
aI19
aI15
aNaNaNaNaNaNaNag5
aa(lp33
S'ERM494'
p34
aI86003
aI19
aI20
aS'Th'
p35
aS' 4:30 PM'
p36
aI16
aI30
aI19
aI15
aNaNaNaNaNaNaNag5
aa(lp37
S'ERM499'
p38
aI77097
aI10
aI10
ag16
aNaNaNaNaNaNaNaNaNaNaNaNag5
aa(lp39
S'ERM506'
p40
aI73343
aI27
aI30
ag16
aNaNaNaNaNaNaNaNaNaNaNaNag17
aa(lp41
S'ERM506'
p42
aI90790
aI16
aI20
aS'T Th'
p43
aS'10:30 AM'
p44
aI10
aI30
aI11
aI45
aNaNaNaNaNaNaNag5
aa(lp45
S'ERM527'
p46
aI86679
aI17
aI20
aS'Th'
p47
aS' 4:30 PM'
p48
aI16
aI30
aI19
aI15
aNaNaNaNaNaNaNag5
aa(lp49
S'ERM527'
p50
aI86680
aI27
aI30
ag16
aNaNaNaNaNaNaNaNaNaNaNaNag17
aa(lp51
S'ERM540'
p52
aI86681
aI25
aI30
ag16
aNaNaNaNaNaNaNaNaNaNaNaNag17
aa(lp53
S'ERM592'
p54
aI75211
aI5
aI5
ag16
aNaNaNaNaNaNaNaNaNaNaNaNag5
aa(lp55
S'ERM593'
p56
aI78182
aI30
aI30
ag16
aNaNaNaNaNaNaNaNaNaNaNaNag5
aa(lp57
S'ERM595'
p58
aI76339
aI20
aI20
ag16
aNaNaNaNaNaNaNaNaNaNaNaNag5
aa(lp59
S'ERM598'
p60
aI86298
aI19
aI20
ag16
aNaNaNaNaNaNaNaNaNaNaNaNag17
aa(lp61
S'ERM598'
p62
aI86683
aI19
aI20
ag31
aS' 4:30 PM'
p63
aI16
aI30
aI19
aI15
aNaNaNaNaNaNaNag5
aa(lp64
S'ERM598'
p65
aI86684
aI28
aI30
ag16
aNaNaNaNaNaNaNaNaNaNaNaNag17
aa(lp66
S'ERM598'
p67
aI90215
aI8
aI10
ag27
aS' 4:30 PM'
p68
aI16
aI30
aI19
aI15
aNaNaNaNaNaNaNag5
aa(lp69
S'ERM599'
p70
aI74193
aI6
aI6
ag16
aNaNaNaNaNaNaNaNaNaNaNaNag5
aa.