(lp0
(lp1
S'ESS502'
p2
aI90896
aI9
aI10
aS'T'
p3
aS' 3:00 PM'
p4
aI15
aI0
aI17
aI45
aNaNaNaNaNaNaNaS'Not Reserved'
p5
aa(lp6
S'ESS591'
p7
aI90520
aI2
aI4
aS'M W'
p8
aS' 9:00 AM'
p9
aI9
aI0
aI10
aI15
aNaNaNaNaNaNaNag5
aa(lp10
S'ESS598'
p11
aI81465
aI3
aI3
aS'W'
p12
aS' 6:00 PM'
p13
aI18
aI0
aI21
aI0
aNaNaNaNaNaNaNag5
aa(lp14
S'ESS598'
p15
aI83330
aI0
aI1
ag12
aS' 4:30 PM'
p16
aI16
aI30
aI19
aI15
aNaNaNaNaNaNaNaS'Reserved'
p17
aa(lp18
S'ESS790'
p19
aI75226
aI28
aI30
aS'ONLINE'
p20
aNaNaNaNaNaNaNaNaNaNaNaNag5
aa(lp21
S'ESS792'
p22
aI75227
aI27
aI30
ag20
aNaNaNaNaNaNaNaNaNaNaNaNag5
aa(lp23
S'ESS799'
p24
aI77650
aI28
aI30
ag20
aNaNaNaNaNaNaNaNaNaNaNaNag17
aa.