(lp0
(lp1
S'EVO590'
p2
aI75508
aI30
aI30
aS'ONLINE'
p3
aNaNaNaNaNaNaNaNaNaNaNaNaS'Not Reserved'
p4
aa(lp5
S'EVO598'
p6
aI82001
aI17
aI23
aS'T Th'
p7
aS' 1:30 PM'
p8
aI13
aI30
aI14
aI45
aNaNaNaNaNaNaNag4
aa(lp9
S'EVO598'
p10
aI83688
aI5
aI5
aS'F'
p11
aS' 1:30 PM'
p12
aI13
aI30
aI14
aI20
aNaNaNaNaNaNaNag4
aa(lp13
S'EVO610'
p14
aI90004
aI10
aI10
aS'M'
p15
aS' 4:30 PM'
p16
aI16
aI30
aI17
aI30
aNaNaNaNaNaNaNag4
aa(lp17
S'EVO790'
p18
aI75394
aI30
aI30
ag3
aNaNaNaNaNaNaNaNaNaNaNaNag4
aa(lp19
S'EVO792'
p20
aI75395
aI29
aI30
ag3
aNaNaNaNaNaNaNaNaNaNaNaNag4
aa(lp21
S'EVO795'
p22
aI75396
aI30
aI30
ag3
aNaNaNaNaNaNaNaNaNaNaNaNag4
aa(lp23
S'EVO799'
p24
aI75397
aI29
aI30
ag3
aNaNaNaNaNaNaNaNaNaNaNaNag4
aa.