(lp0
(lp1
S'EXW100'
p2
aI74394
aI45
aI75
aS'F'
p3
aS'9:00AM'
p4
aI9
aI0
aI10
aI15
aS''
p5
ag5
aNaNag5
aNaNaS'Not Reserved'
p6
aa(lp7
S'EXW100'
p8
aI91715
aI21
aI24
aS'T Th'
p9
aS'9:00AM'
p10
aI9
aI0
aI10
aI15
ag5
ag5
aNaNag5
aNaNag6
aa(lp11
S'EXW100'
p12
aI75453
aI65
aI84
ag3
aS'1:30PM'
p13
aI13
aI30
aI14
aI45
ag5
ag5
aNaNag5
aNaNag6
aa(lp14
S'EXW100'
p15
aI75454
aI43
aI75
ag3
aS'10:30AM'
p16
aI10
aI30
aI11
aI45
ag5
ag5
aNaNag5
aNaNag6
aa(lp17
S'EXW100'
p18
aI86482
aI55
aI60
ag3
aS'3:00PM'
p19
aI15
aI0
aI16
aI15
ag5
ag5
aNaNag5
aNaNag6
aa(lp20
S'EXW100'
p21
aI86484
aI46
aI50
ag3
aS'10:30AM'
p22
aI10
aI30
aI11
aI45
ag5
ag5
aNaNag5
aNaNag6
aa(lp23
S'EXW100'
p24
aI86486
aI60
aI60
ag3
aS'9:00AM'
p25
aI9
aI0
aI10
aI15
ag5
ag5
aNaNag5
aNaNag6
aa(lp26
S'EXW100'
p27
aI86487
aI50
aI60
ag3
aS'12:00PM'
p28
aI12
aI0
aI13
aI15
ag5
ag5
aNaNag5
aNaNag6
aa(lp29
S'EXW101'
p30
aI86476
aI5
aI24
aS'M W'
p31
aS' 9:00 AM'
p32
aI9
aI0
aI10
aI15
aNaNaNaNaNaNaNaS'Reserved'
p33
aa(lp34
S'EXW101'
p35
aI86477
aI0
aI24
aS'M W'
p36
aS'10:30 AM'
p37
aI10
aI30
aI11
aI45
aNaNaNaNaNaNaNag33
aa(lp38
S'EXW101'
p39
aI86478
aI0
aI24
aS'M W'
p40
aS' 1:30 PM'
p41
aI13
aI30
aI14
aI45
aNaNaNaNaNaNaNag33
aa(lp42
S'EXW101'
p43
aI86479
aI9
aI24
aS'T Th'
p44
aS' 9:00 AM'
p45
aI9
aI0
aI10
aI15
aNaNaNaNaNaNaNag33
aa(lp46
S'EXW101'
p47
aI86480
aI0
aI24
aS'T Th'
p48
aS'10:30 AM'
p49
aI10
aI30
aI11
aI45
aNaNaNaNaNaNaNag33
aa(lp50
S'EXW101'
p51
aI86481
aI15
aI24
aS'T Th'
p52
aS' 3:00 PM'
p53
aI15
aI0
aI16
aI15
aNaNaNaNaNaNaNag33
aa(lp54
S'EXW102'
p55
aI90485
aI45
aI60
aS'M W'
p56
aS'12:00 PM'
p57
aI12
aI0
aI13
aI15
aNaNaNaNaNaNaNag33
aa(lp58
S'EXW102'
p59
aI91716
aI24
aI24
aS'T Th'
p60
aS'10:30 AM'
p61
aI10
aI30
aI11
aI45
aNaNaNaNaNaNaNag33
aa(lp62
S'EXW214'
p63
aI76844
aI0
aI24
aS'M W'
p64
aS' 3:00 PM'
p65
aI15
aI0
aI15
aI50
aNaNaNaNaNaNaNag33
aa(lp66
S'EXW214'
p67
aI76845
aI1
aI24
aS'M W'
p68
aS'12:00 PM'
p69
aI12
aI0
aI12
aI50
aNaNaNaNaNaNaNag6
aa(lp70
S'EXW214'
p71
aI76846
aI0
aI24
aS'M W'
p72
aS' 1:30 PM'
p73
aI13
aI30
aI14
aI20
aNaNaNaNaNaNaNag33
aa(lp74
S'EXW214'
p75
aI76847
aI0
aI24
aS'T Th'
p76
aS'12:00 PM'
p77
aI12
aI0
aI12
aI50
aNaNaNaNaNaNaNag33
aa(lp78
S'EXW214'
p79
aI77918
aI0
aI24
aS'T Th'
p80
aS' 9:00 AM'
p81
aI9
aI0
aI9
aI50
aNaNaNaNaNaNaNag33
aa(lp82
S'EXW214'
p83
aI78039
aI0
aI24
aS'T Th'
p84
aS'10:30 AM'
p85
aI10
aI30
aI11
aI20
aNaNaNaNaNaNaNag33
aa(lp86
S'EXW216'
p87
aI76851
aI2
aI24
aS'M W'
p88
aS' 3:00 PM'
p89
aI15
aI0
aI15
aI50
aNaNaNaNaNaNaNag6
aa(lp90
S'EXW216'
p91
aI76852
aI16
aI24
aS'M W'
p92
aS' 4:30 PM'
p93
aI16
aI30
aI17
aI20
aNaNaNaNaNaNaNag6
aa(lp94
S'EXW216'
p95
aI76853
aI0
aI24
aS'M W'
p96
aS' 1:30 PM'
p97
aI13
aI30
aI14
aI20
aNaNaNaNaNaNaNag33
aa(lp98
S'EXW216'
p99
aI76854
aI0
aI24
aS'T Th'
p100
aS'10:30 AM'
p101
aI10
aI30
aI11
aI20
aNaNaNaNaNaNaNag33
aa(lp102
S'EXW216'
p103
aI77919
aI0
aI24
aS'T Th'
p104
aS' 1:30 PM'
p105
aI13
aI30
aI14
aI20
aNaNaNaNaNaNaNag33
aa(lp106
S'EXW216'
p107
aI78040
aI0
aI24
aS'T Th'
p108
aS' 3:00 PM'
p109
aI15
aI0
aI15
aI50
aNaNaNaNaNaNaNag33
aa(lp110
S'EXW216'
p111
aI91719
aI17
aI24
aS'M W'
p112
aS'12:00 PM'
p113
aI12
aI0
aI12
aI50
aNaNaNaNaNaNaNag6
aa(lp114
S'EXW218'
p115
aI76855
aI0
aI24
aS'M W'
p116
aS'12:00 PM'
p117
aI12
aI0
aI12
aI50
aNaNaNaNaNaNaNag33
aa(lp118
S'EXW218'
p119
aI76856
aI6
aI24
aS'M W'
p120
aS' 9:00 AM'
p121
aI9
aI0
aI9
aI50
aNaNaNaNaNaNaNag6
aa(lp122
S'EXW218'
p123
aI76857
aI0
aI24
aS'M W'
p124
aS'10:30 AM'
p125
aI10
aI30
aI11
aI20
aNaNaNaNaNaNaNag33
aa(lp126
S'EXW218'
p127
aI76863
aI20
aI24
aS'T Th'
p128
aS' 3:00 PM'
p129
aI15
aI0
aI15
aI50
aNaNaNaNaNaNaNag6
aa(lp130
S'EXW218'
p131
aI77920
aI0
aI24
aS'T Th'
p132
aS'12:00 PM'
p133
aI12
aI0
aI12
aI50
aNaNaNaNaNaNaNag33
aa(lp134
S'EXW218'
p135
aI78042
aI0
aI24
aS'T Th'
p136
aS' 1:30 PM'
p137
aI13
aI30
aI14
aI20
aNaNaNaNaNaNaNag33
aa(lp138
S'EXW284'
p139
aI86104
aI26
aI40
ag3
aS'10:30 AM'
p140
aI10
aI30
aI11
aI20
aNaNaNaNaNaNaNag33
aa(lp141
S'EXW284'
p142
aI86105
aI29
aI40
ag3
aS'12:00 PM'
p143
aI12
aI0
aI12
aI50
aNaNaNaNaNaNaNag33
aa(lp144
S'EXW302'
p145
aI76572
aI5
aI10
aS'ONLINE'
p146
aNaNaNaNaNaNaNaNaNaNaNaNag33
aa(lp147
S'EXW302'
p148
aI86447
aI10
aI10
ag146
aNaNaNaNaNaNaNaNaNaNaNaNag33
aa(lp149
S'EXW302'
p150
aI76875
aI9
aI10
ag146
aNaNaNaNaNaNaNaNaNaNaNaNag33
aa(lp151
S'EXW302'
p152
aI91722
aI20
aI20
ag146
aNaNaNaNaNaNaNaNaNaNaNaNag33
aa(lp153
S'EXW315'
p154
aI74401
aI0
aI101
aS'T Th'
p155
aS'12:00 PM'
p156
aI12
aI0
aI13
aI15
aNaNaNaNaNaNaNag33
aa(lp157
S'EXW315'
p158
aI81017
aI55
aI101
aS'M W'
p159
aS' 4:30 PM'
p160
aI16
aI30
aI17
aI45
aNaNaNaNaNaNaNag6
aa(lp161
S'EXW316'
p162
aI83246
aI0
aI22
aS'W'
p163
aS' 9:00 AM'
p164
aI9
aI0
aI10
aI15
aNaNaNaNaNaNaNag33
aa(lp165
S'EXW316'
p166
aI83247
aI8
aI22
ag3
aS' 9:00 AM'
p167
aI9
aI0
aI10
aI15
aNaNaNaNaNaNaNag33
aa(lp168
S'EXW316'
p169
aI83248
aI11
aI22
ag3
aS'10:30 AM'
p170
aI10
aI30
aI11
aI45
aNaNaNaNaNaNaNag33
aa(lp171
S'EXW316'
p172
aI83249
aI13
aI22
ag3
aS'12:00 PM'
p173
aI12
aI0
aI13
aI15
aNaNaNaNaNaNaNag33
aa(lp174
S'EXW316'
p175
aI83250
aI0
aI22
aS'T'
p176
aS' 9:00 AM'
p177
aI9
aI0
aI10
aI15
aNaNaNaNaNaNaNag33
aa(lp178
S'EXW316'
p179
aI83251
aI21
aI22
ag3
aS' 1:30 PM'
p180
aI13
aI30
aI14
aI45
aNaNaNaNaNaNaNag33
aa(lp181
S'EXW316'
p182
aI83245
aI0
aI22
aS'M'
p183
aS'10:30 AM'
p184
aI10
aI30
aI11
aI45
aNaNaNaNaNaNaNag33
aa(lp185
S'EXW320'
p186
aI74396
aI17
aI90
aS'M W'
p187
aS' 9:00 AM'
p188
aI9
aI0
aI10
aI15
aNaNaNaNaNaNaNag6
aa(lp189
S'EXW320'
p190
aI75995
aI0
aI90
aS'M W'
p191
aS'10:30 AM'
p192
aI10
aI30
aI11
aI45
aNaNaNaNaNaNaNag33
aa(lp193
S'EXW325'
p194
aI86450
aI0
aI20
ag146
aNaNaNaNaNaNaNaNaNaNaNaNag33
aa(lp195
S'EXW325'
p196
aI82821
aI0
aI20
ag146
aNaNaNaNaNaNaNaNaNaNaNaNag33
aa(lp197
S'EXW325'
p198
aI81108
aI5
aI20
ag146
aNaNaNaNaNaNaNaNaNaNaNaNag33
aa(lp199
S'EXW325'
p200
aI81109
aI14
aI20
ag146
aNaNaNaNaNaNaNaNaNaNaNaNag33
aa(lp201
S'EXW325'
p202
aI77914
aI0
aI40
ag146
aNaNaNaNaNaNaNaNaNaNaNaNag33
aa(lp203
S'EXW325'
p204
aI77947
aI32
aI40
ag146
aNaNaNaNaNaNaNaNaNaNaNaNag33
aa(lp205
S'EXW330'
p206
aI74402
aI47
aI88
aS'M W'
p207
aS' 4:30 PM'
p208
aI16
aI30
aI17
aI45
aNaNaNaNaNaNaNag6
aa(lp209
S'EXW330'
p210
aI81018
aI0
aI80
aS'M W'
p211
aS' 3:00 PM'
p212
aI15
aI0
aI16
aI15
aNaNaNaNaNaNaNag33
aa(lp213
S'EXW330'
p214
aI74403
aI0
aI24
ag183
aS' 9:00 AM'
p215
aI9
aI0
aI10
aI15
aNaNaNaNaNaNaNag33
aa(lp216
S'EXW330'
p217
aI74404
aI0
aI24
ag3
aS' 9:00 AM'
p218
aI9
aI0
aI10
aI15
aNaNaNaNaNaNaNag33
aa(lp219
S'EXW330'
p220
aI76542
aI0
aI24
ag3
aS'10:30 AM'
p221
aI10
aI30
aI11
aI45
aNaNaNaNaNaNaNag33
aa(lp222
S'EXW330'
p223
aI78009
aI4
aI24
ag3
aS'12:00 PM'
p224
aI12
aI0
aI13
aI15
aNaNaNaNaNaNaNag6
aa(lp225
S'EXW330'
p226
aI81019
aI0
aI24
ag163
aS' 9:00 AM'
p227
aI9
aI0
aI10
aI15
aNaNaNaNaNaNaNag33
aa(lp228
S'EXW330'
p229
aI81020
aI19
aI24
ag3
aS' 1:30 PM'
p230
aI13
aI30
aI14
aI45
aNaNaNaNaNaNaNag6
aa(lp231
S'EXW342'
p232
aI74399
aI0
aI60
aS'T Th'
p233
aS'10:30 AM'
p234
aI10
aI30
aI11
aI45
aNaNaNaNaNaNaNag33
aa(lp235
S'EXW342'
p236
aI74794
aI0
aI60
aS'T Th'
p237
aS'12:00 PM'
p238
aI12
aI0
aI13
aI15
aNaNaNaNaNaNaNag33
aa(lp239
S'EXW342'
p240
aI75235
aI0
aI60
aS'T Th'
p241
aS' 1:30 PM'
p242
aI13
aI30
aI14
aI45
aNaNaNaNaNaNaNag33
aa(lp243
S'EXW344'
p244
aI78445
aI0
aI60
aS'M W'
p245
aS' 9:00 AM'
p246
aI9
aI0
aI10
aI15
aNaNaNaNaNaNaNag33
aa(lp247
S'EXW348'
p248
aI82377
aI25
aI40
aS'M W F'
p249
aS'10:30 AM'
p250
aI10
aI30
aI12
aI20
aNaNaNaNaNaNaNag6
aa(lp251
S'EXW350'
p252
aI74400
aI4
aI60
aS'M W F'
p253
aS' 1:30 PM'
p254
aI13
aI30
aI14
aI20
aNaNaNaNaNaNaNag6
aa(lp255
S'EXW380'
p256
aI80254
aI0
aI40
ag146
aNaNaNaNaNaNaNaNaNaNaNaNag33
aa(lp257
S'EXW380'
p258
aI86462
aI0
aI40
ag146
aNaNaNaNaNaNaNaNaNaNaNaNag33
aa(lp259
S'EXW394'
p260
aI87028
aI60
aI60
aS'T Th'
p261
aS' 3:00 PM'
p262
aI15
aI0
aI16
aI15
aNaNaNaNaNaNaNag6
aa(lp263
S'EXW400'
p264
aI86452
aI0
aI20
ag146
aNaNaNaNaNaNaNaNaNaNaNaNag33
aa(lp265
S'EXW400'
p266
aI80029
aI0
aI20
ag146
aNaNaNaNaNaNaNaNaNaNaNaNag33
aa(lp267
S'EXW400'
p268
aI86454
aI0
aI20
ag146
aNaNaNaNaNaNaNaNaNaNaNaNag33
aa(lp269
S'EXW400'
p270
aI88644
aI18
aI40
ag146
aNaNaNaNaNaNaNaNaNaNaNaNag33
aa(lp271
S'EXW400'
p272
aI80025
aI1
aI20
ag146
aNaNaNaNaNaNaNaNaNaNaNaNag33
aa(lp273
S'EXW400'
p274
aI86469
aI0
aI20
ag146
aNaNaNaNaNaNaNaNaNaNaNaNag33
aa(lp275
S'EXW400'
p276
aI86470
aI31
aI40
ag146
aNaNaNaNaNaNaNaNaNaNaNaNag33
aa(lp277
S'EXW400'
p278
aI86471
aI18
aI40
aS'M W F'
p279
aS'10:30 AM'
p280
aI10
aI30
aI12
aI20
aNaNaNaNaNaNaNag6
aa(lp281
S'EXW410'
p282
aI86494
aI29
aI40
aS'M W'
p283
aS'10:30 AM'
p284
aI10
aI30
aI11
aI45
aNaNaNaNaNaNaNag6
aa(lp285
S'EXW420'
p286
aI74406
aI13
aI144
aS'M W'
p287
aS' 1:30 PM'
p288
aI13
aI30
aI14
aI45
aNaNaNaNaNaNaNag6
aa(lp289
S'EXW420'
p290
aI74407
aI0
aI24
ag176
aS' 9:00 AM'
p291
aI9
aI0
aI10
aI15
aNaNaNaNaNaNaNag33
aa(lp292
S'EXW420'
p293
aI74408
aI0
aI24
ag176
aS'10:30 AM'
p294
aI10
aI30
aI11
aI45
aNaNaNaNaNaNaNag33
aa(lp295
S'EXW420'
p296
aI74409
aI0
aI24
ag3
aS' 1:30 PM'
p297
aI13
aI30
aI14
aI45
aNaNaNaNaNaNaNag33
aa(lp298
S'EXW420'
p299
aI76874
aI0
aI24
aS'Th'
p300
aS' 9:00 AM'
p301
aI9
aI0
aI10
aI15
aNaNaNaNaNaNaNag33
aa(lp302
S'EXW420'
p303
aI78440
aI3
aI24
ag3
aS' 9:00 AM'
p304
aI9
aI0
aI10
aI15
aNaNaNaNaNaNaNag6
aa(lp305
S'EXW420'
p306
aI82393
aI10
aI24
ag3
aS'10:30 AM'
p307
aI10
aI30
aI11
aI45
aNaNaNaNaNaNaNag6
aa(lp308
S'EXW425'
p309
aI76424
aI0
aI35
aS'T Th'
p310
aS' 1:30 PM'
p311
aI13
aI30
aI14
aI20
aNaNaNaNaNaNaNag33
aa(lp312
S'EXW425'
p313
aI77950
aI13
aI35
aS'T Th'
p314
aS' 3:00 PM'
p315
aI15
aI0
aI15
aI50
aNaNaNaNaNaNaNag6
aa(lp316
S'EXW425'
p317
aI88669
aI0
aI35
aS'M W'
p318
aS'12:00 PM'
p319
aI12
aI0
aI13
aI15
aNaNaNaNaNaNaNag33
aa(lp320
S'EXW425'
p321
aI88670
aI0
aI35
aS'M W'
p322
aS'12:00 PM'
p323
aI12
aI0
aI13
aI15
aNaNaNaNaNaNaNag33
aa(lp324
S'EXW425'
p325
aI78622
aI1
aI20
ag3
aS'12:00 PM'
p326
aI12
aI0
aI13
aI15
aNaNaNaNaNaNaNag6
aa(lp327
S'EXW425'
p328
aI78623
aI8
aI20
ag183
aS' 9:00 AM'
p329
aI9
aI0
aI10
aI15
aNaNaNaNaNaNaNag6
aa(lp330
S'EXW425'
p331
aI78624
aI0
aI20
ag183
aS'10:30 AM'
p332
aI10
aI30
aI11
aI45
aNaNaNaNaNaNaNag33
aa(lp333
S'EXW425'
p334
aI78625
aI0
aI20
ag163
aS'12:00 PM'
p335
aI12
aI0
aI13
aI15
aNaNaNaNaNaNaNag33
aa(lp336
S'EXW425'
p337
aI78626
aI2
aI20
ag163
aS' 9:00 AM'
p338
aI9
aI0
aI10
aI15
aNaNaNaNaNaNaNag6
aa(lp339
S'EXW425'
p340
aI78627
aI2
aI20
ag163
aS'10:30 AM'
p341
aI10
aI30
aI11
aI45
aNaNaNaNaNaNaNag6
aa(lp342
S'EXW425'
p343
aI88701
aI0
aI20
aS'Th'
p344
aS'10:30 AM'
p345
aI10
aI30
aI11
aI45
aNaNaNaNaNaNaNag33
aa(lp346
S'EXW436'
p347
aI81021
aI14
aI24
aS'M W'
p348
aS' 1:30 PM'
p349
aI13
aI30
aI14
aI45
aNaNaNaNaNaNaNag6
aa(lp350
S'EXW444'
p351
aI74410
aI21
aI50
aS'M W'
p352
aS'10:30 AM'
p353
aI10
aI30
aI11
aI45
aNaNaNaNaNaNaNag6
aa(lp354
S'EXW446'
p355
aI75455
aI33
aI50
aS'T Th'
p356
aS' 9:00 AM'
p357
aI9
aI0
aI10
aI15
aNaNaNaNaNaNaNag6
aa(lp358
S'EXW450'
p359
aI74411
aI21
aI60
aS'T Th'
p360
aS' 4:30 PM'
p361
aI16
aI30
aI19
aI15
aNaNaNaNaNaNaNag6
aa(lp362
S'EXW450'
p363
aI90474
aI0
aI40
ag146
aNaNaNaNaNaNaNaNaNaNaNaNag33
aa(lp364
S'EXW450'
p365
aI74795
aI32
aI60
aS'T Th'
p366
aS' 4:30 PM'
p367
aI16
aI30
aI19
aI15
aNaNaNaNaNaNaNag6
aa(lp368
S'EXW450'
p369
aI90475
aI0
aI40
ag146
aNaNaNaNaNaNaNaNaNaNaNaNag33
aa(lp370
S'EXW454'
p371
aI82410
aI14
aI30
aS'T Th'
p372
aS'10:30 AM'
p373
aI10
aI30
aI11
aI45
aNaNaNaNaNaNaNag6
aa(lp374
S'EXW456'
p375
aI86110
aI16
aI30
aS'T Th'
p376
aS'12:00 PM'
p377
aI12
aI0
aI13
aI15
aNaNaNaNaNaNaNag6
aa(lp378
S'EXW460'
p379
aI75090
aI0
aI16
aS'T Th'
p380
aS'12:00 PM'
p381
aI12
aI0
aI13
aI15
aNaNaNaNaNaNaNag33
aa(lp382
S'EXW484'
p383
aI74412
aI50
aI100
ag146
aNaNaNaNaNaNaNaNaNaNaNaNag33
aa(lp384
S'EXW492'
p385
aI74413
aI9
aI10
ag146
aNaNaNaNaNaNaNaNaNaNaNaNag33
aa(lp386
S'EXW493'
p387
aI75069
aI10
aI10
ag146
aNaNaNaNaNaNaNaNaNaNaNaNag33
aa(lp388
S'EXW494'
p389
aI91713
aI15
aI15
ag146
aNaNaNaNaNaNaNaNaNaNaNaNag6
aa(lp390
S'EXW494'
p391
aI86111
aI0
aI20
aS'T Th'
p392
aS' 9:00 AM'
p393
aI9
aI0
aI10
aI15
aNaNaNaNaNaNaNag33
aa(lp394
S'EXW499'
p395
aI74385
aI25
aI25
ag146
aNaNaNaNaNaNaNaNaNaNaNaNag6
aa(lp396
S'EXW499'
p397
aI78025
aI25
aI25
ag146
aNaNaNaNaNaNaNaNaNaNaNaNag6
aa(lp398
S'EXW499'
p399
aI85640
aI25
aI25
ag146
aNaNaNaNaNaNaNaNaNaNaNaNag6
aa(lp400
S'EXW499'
p401
aI85688
aI25
aI25
ag146
aNaNaNaNaNaNaNaNaNaNaNaNag6
aa(lp402
S'EXW499'
p403
aI85733
aI25
aI25
ag146
aNaNaNaNaNaNaNaNaNaNaNaNag6
aa(lp404
S'EXW499'
p405
aI85957
aI1
aI1
ag146
aNaNaNaNaNaNaNaNaNaNaNaNag6
aa(lp406
S'EXW499'
p407
aI91045
aI5
aI6
ag146
aNaNaNaNaNaNaNaNaNaNaNaNag6
aa(lp408
S'EXW500'
p409
aI88668
aI14
aI16
ag176
aS' 4:30 PM'
p410
aI16
aI30
aI19
aI15
aNaNaNaNaNaNaNag6
aa(lp411
S'EXW501'
p412
aI86492
aI6
aI16
aS'Th'
p413
aS' 4:30 PM'
p414
aI16
aI30
aI19
aI15
aNaNaNaNaNaNaNag6
aa(lp415
S'EXW534'
p416
aI86491
aI0
aI4
aS'T Th'
p417
aS' 9:00 AM'
p418
aI9
aI0
aI10
aI15
aNaNaNaNaNaNaNag33
aa(lp419
S'EXW536'
p420
aI74414
aI21
aI30
ag163
aS' 4:30 PM'
p421
aI16
aI30
aI19
aI15
aNaNaNaNaNaNaNag6
aa(lp422
S'EXW542'
p423
aI74415
aI24
aI30
aS'Th'
p424
aS' 4:30 PM'
p425
aI16
aI30
aI19
aI15
aNaNaNaNaNaNaNag6
aa(lp426
S'EXW560'
p427
aI86493
aI21
aI24
aS'M W'
p428
aS' 4:30 PM'
p429
aI16
aI30
aI17
aI45
aNaNaNaNaNaNaNag6
aa(lp430
S'EXW568'
p431
aI88657
aI12
aI12
aS'T Th'
p432
aS'12:00 PM'
p433
aI12
aI0
aI13
aI15
aNaNaNaNaNaNaNag6
aa(lp434
S'EXW584'
p435
aI74386
aI25
aI25
ag146
aNaNaNaNaNaNaNaNaNaNaNaNag6
aa(lp436
S'EXW590'
p437
aI74387
aI24
aI25
ag146
aNaNaNaNaNaNaNaNaNaNaNaNag6
aa(lp438
S'EXW591'
p439
aI75318
aI20
aI24
ag183
aS' 3:00 PM'
p440
aI15
aI0
aI15
aI50
aNaNaNaNaNaNaNag6
aa(lp441
S'EXW592'
p442
aI74388
aI22
aI25
ag146
aNaNaNaNaNaNaNaNaNaNaNaNag6
aa(lp443
S'EXW595'
p444
aI74389
aI25
aI25
ag146
aNaNaNaNaNaNaNaNaNaNaNaNag6
aa(lp445
S'EXW598'
p446
aI75091
aI3
aI8
aS'T Th'
p447
aS'12:00 PM'
p448
aI12
aI0
aI13
aI15
aNaNaNaNaNaNaNag6
aa(lp449
S'EXW598'
p450
aI81145
aI5
aI10
aS'M W'
p451
aS'10:30 AM'
p452
aI10
aI30
aI11
aI45
aNaNaNaNaNaNaNag6
aa(lp453
S'EXW599'
p454
aI74390
aI21
aI25
ag146
aNaNaNaNaNaNaNaNaNaNaNaNag6
aa(lp455
S'EXW640'
p456
aI74417
aI14
aI16
ag176
aS' 4:30 PM'
p457
aI16
aI30
aI19
aI15
aNaNaNaNaNaNaNag6
aa(lp458
S'EXW645'
p459
aI88643
aI27
aI30
ag176
aS' 4:30 PM'
p460
aI16
aI30
aI19
aI15
aNaNaNaNaNaNaNag6
aa(lp461
S'EXW691'
p462
aI74418
aI11
aI18
ag183
aS' 3:00 PM'
p463
aI15
aI0
aI15
aI50
aNaNaNaNaNaNaNag33
aa(lp464
S'EXW692'
p465
aI74391
aI28
aI30
ag146
aNaNaNaNaNaNaNaNaNaNaNaNag6
aa(lp466
S'EXW700'
p467
aI74416
aI21
aI24
ag183
aS' 4:30 PM'
p468
aI16
aI30
aI19
aI15
aNaNaNaNaNaNaNag6
aa(lp469
S'EXW792'
p470
aI74392
aI22
aI25
ag146
aNaNaNaNaNaNaNaNaNaNaNaNag6
aa(lp471
S'EXW799'
p472
aI74393
aI23
aI25
ag146
aNaNaNaNaNaNaNaNaNaNaNaNag6
aa.