(lp0
(lp1
S'FAS101'
p2
aI78661
aI177
aI300
aS'ONLINE'
p3
aNaNaNaNaNaNaNaNaNaNaNaNaS'Reserved'
p4
aa(lp5
S'FAS101'
p6
aI91739
aI100
aI100
ag3
aNaNaNaNaNaNaNaNaNaNaNaNag4
aa(lp7
S'FAS101'
p8
aI71193
aI173
aI190
aS'M W F'
p9
aS'11:00 AM'
p10
aI11
aI0
aI11
aI50
aNaNaNaNaNaNaNaS'Not Reserved'
p11
aa(lp12
S'FAS101'
p13
aI76879
aI35
aI100
aS'M W'
p14
aS' 1:30 PM'
p15
aI13
aI30
aI14
aI45
aNaNaNaNaNaNaNag11
aa(lp16
S'FAS101'
p17
aI88784
aI143
aI145
aS'M W F'
p18
aS' 7:30 AM'
p19
aI7
aI30
aI8
aI45
aNaNaNaNaNaNaNag11
aa(lp20
S'FAS191'
p21
aI79412
aI19
aI19
aS'M'
p22
aS'10:30 AM'
p23
aI10
aI30
aI11
aI20
aNaNaNaNaNaNaNag4
aa(lp24
S'FAS191'
p25
aI89864
aI19
aI19
aS'W'
p26
aS'10:30 AM'
p27
aI10
aI30
aI11
aI20
aNaNaNaNaNaNaNag4
aa(lp28
S'FAS191'
p29
aI79413
aI19
aI19
aS'F'
p30
aS'10:30 AM'
p31
aI10
aI30
aI11
aI20
aNaNaNaNaNaNaNag4
aa(lp32
S'FAS264'
p33
aI91743
aI99
aI100
ag3
aNaNaNaNaNaNaNaNaNaNaNaNag4
aa(lp34
S'FAS264'
p35
aI80202
aI31
aI55
aS'M W'
p36
aS' 3:00 PM'
p37
aI15
aI0
aI16
aI15
aNaNaNaNaNaNaNag11
aa(lp38
S'FAS301'
p39
aI82266
aI250
aI300
ag3
aNaNaNaNaNaNaNaNaNaNaNaNag4
aa(lp40
S'FAS301'
p41
aI78662
aI278
aI300
ag3
aNaNaNaNaNaNaNaNaNaNaNaNag4
aa(lp42
S'FAS301'
p43
aI90394
aI185
aI300
ag3
aNaNaNaNaNaNaNaNaNaNaNaNag4
aa(lp44
S'FAS301'
p45
aI88830
aI438
aI465
aS'M W F'
p46
aS' 9:00 AM'
p47
aI9
aI0
aI9
aI50
aNaNaNaNaNaNaNag11
aa(lp48
S'FAS324'
p49
aI91749
aI148
aI150
ag3
aNaNaNaNaNaNaNaNaNaNaNaNag4
aa(lp50
S'FAS331'
p51
aI78663
aI257
aI300
ag3
aNaNaNaNaNaNaNaNaNaNaNaNag11
aa(lp52
S'FAS331'
p53
aI78664
aI284
aI300
ag3
aNaNaNaNaNaNaNaNaNaNaNaNag4
aa(lp54
S'FAS331'
p55
aI76652
aI51
aI150
ag3
aNaNaNaNaNaNaNaNaNaNaNaNag4
aa(lp56
S'FAS331'
p57
aI76653
aI6
aI75
aS'T Th'
p58
aS'10:30 AM'
p59
aI10
aI30
aI11
aI45
aNaNaNaNaNaNaNag11
aa(lp60
S'FAS331'
p61
aI80415
aI49
aI110
aS'T Th'
p62
aS' 9:00 AM'
p63
aI9
aI0
aI10
aI15
aNaNaNaNaNaNaNag11
aa(lp64
S'FAS332'
p65
aI78665
aI239
aI300
ag3
aNaNaNaNaNaNaNaNaNaNaNaNag4
aa(lp66
S'FAS332'
p67
aI78666
aI281
aI300
ag3
aNaNaNaNaNaNaNaNaNaNaNaNag4
aa(lp68
S'FAS332'
p69
aI71194
aI204
aI250
aS'M W F'
p70
aS'10:30 AM'
p71
aI10
aI30
aI11
aI20
aNaNaNaNaNaNaNag11
aa(lp72
S'FAS332'
p73
aI73361
aI170
aI175
aS'M W F'
p74
aS' 7:30 AM'
p75
aI7
aI30
aI8
aI20
aNaNaNaNaNaNaNag11
aa(lp76
S'FAS332'
p77
aI88843
aI156
aI175
aS'M W F'
p78
aS' 9:00 AM'
p79
aI9
aI0
aI9
aI50
aNaNaNaNaNaNaNag11
aa(lp80
S'FAS332'
p81
aI88846
aI211
aI300
ag3
aNaNaNaNaNaNaNaNaNaNaNaNag4
aa(lp82
S'FAS332'
p83
aI73464
aI43
aI60
aS'T Th'
p84
aS' 9:00 AM'
p85
aI9
aI0
aI10
aI15
aNaNaNaNaNaNaNag11
aa(lp86
S'FAS361'
p87
aI80830
aI0
aI25
ag3
aNaNaNaNaNaNaNaNaNaNaNaNag4
aa(lp88
S'FAS361'
p89
aI78679
aI12
aI20
aS'T Th'
p90
aS' 3:00 PM'
p91
aI15
aI0
aI16
aI15
aNaNaNaNaNaNaNag11
aa(lp92
S'FAS361'
p93
aI71195
aI4
aI20
aS'T Th'
p94
aS' 1:30 PM'
p95
aI13
aI30
aI14
aI45
aNaNaNaNaNaNaNag11
aa(lp96
S'FAS361'
p97
aI73163
aI6
aI20
aS'T Th'
p98
aS' 9:00 AM'
p99
aI9
aI0
aI10
aI15
aNaNaNaNaNaNaNag11
aa(lp100
S'FAS361'
p101
aI78678
aI2
aI20
aS'T Th'
p102
aS'12:00 PM'
p103
aI12
aI0
aI13
aI15
aNaNaNaNaNaNaNag11
aa(lp104
S'FAS370'
p105
aI89968
aI257
aI300
ag3
aNaNaNaNaNaNaNaNaNaNaNaNag4
aa(lp106
S'FAS370'
p107
aI78677
aI281
aI300
ag3
aNaNaNaNaNaNaNaNaNaNaNaNag4
aa(lp108
S'FAS370'
p109
aI70368
aI264
aI300
ag3
aNaNaNaNaNaNaNaNaNaNaNaNag4
aa(lp110
S'FAS370'
p111
aI88850
aI102
aI150
aS'T Th'
p112
aS' 9:00 AM'
p113
aI9
aI0
aI10
aI15
aNaNaNaNaNaNaNag11
aa(lp114
S'FAS370'
p115
aI89563
aI28
aI45
aS'M W F'
p116
aS'10:30 AM'
p117
aI10
aI30
aI11
aI20
aNaNaNaNaNaNaNag11
aa(lp118
S'FAS370'
p119
aI91298
aI0
aI10
aS'T Th'
p120
aS'12:00 PM'
p121
aI12
aI0
aI13
aI15
aNaNaNaNaNaNaNag4
aa(lp122
S'FAS370'
p123
aI74688
aI32
aI45
aS'M W'
p124
aS' 3:00 PM'
p125
aI15
aI0
aI16
aI15
aNaNaNaNaNaNaNag11
aa(lp126
S'FAS390'
p127
aI84027
aI30
aI30
ag3
aNaNaNaNaNaNaNaNaNaNaNaNag11
aa(lp128
S'FAS390'
p129
aI84197
aI29
aI30
ag3
aNaNaNaNaNaNaNaNaNaNaNaNag11
aa(lp130
S'FAS390'
p131
aI84309
aI30
aI30
ag3
aNaNaNaNaNaNaNaNaNaNaNaNag11
aa(lp132
S'FAS390'
p133
aI84324
aI30
aI30
ag3
aNaNaNaNaNaNaNaNaNaNaNaNag11
aa(lp134
S'FAS390'
p135
aI84367
aI30
aI30
ag3
aNaNaNaNaNaNaNaNaNaNaNaNag11
aa(lp136
S'FAS390'
p137
aI85719
aI30
aI30
ag3
aNaNaNaNaNaNaNaNaNaNaNaNag11
aa(lp138
S'FAS390'
p139
aI91766
aI30
aI30
ag3
aNaNaNaNaNaNaNaNaNaNaNaNag11
aa(lp140
S'FAS435'
p141
aI78674
aI115
aI150
ag3
aNaNaNaNaNaNaNaNaNaNaNaNag4
aa(lp142
S'FAS435'
p143
aI78669
aI16
aI22
aS'M W'
p144
aS' 3:00 PM'
p145
aI15
aI0
aI16
aI15
aNaNaNaNaNaNaNag11
aa(lp146
S'FAS435'
p147
aI78670
aI18
aI22
aS'T'
p148
aS' 4:30 PM'
p149
aI16
aI30
aI19
aI15
aNaNaNaNaNaNaNag11
aa(lp150
S'FAS440'
p151
aI88896
aI263
aI300
ag3
aNaNaNaNaNaNaNaNaNaNaNaNag4
aa(lp152
S'FAS460'
p153
aI89678
aI19
aI21
aS'M W'
p154
aS'10:30 AM'
p155
aI10
aI30
aI11
aI45
aNaNaNaNaNaNaNag11
aa(lp156
S'FAS484'
p157
aI71196
aI18
aI24
ag148
aS' 4:30 PM'
p158
aI16
aI30
aI19
aI15
aNaNaNaNaNaNaNag11
aa(lp159
S'FAS492'
p160
aI85660
aI30
aI30
ag3
aNaNaNaNaNaNaNaNaNaNaNaNag4
aa(lp161
S'FAS499'
p162
aI84184
aI30
aI30
ag3
aNaNaNaNaNaNaNaNaNaNaNaNag11
aa(lp163
S'FAS499'
p164
aI84389
aI30
aI30
ag3
aNaNaNaNaNaNaNaNaNaNaNaNag11
aa(lp165
S'FAS499'
p166
aI84271
aI30
aI30
ag3
aNaNaNaNaNaNaNaNaNaNaNaNag4
aa(lp167
S'FAS499'
p168
aI84390
aI30
aI30
ag3
aNaNaNaNaNaNaNaNaNaNaNaNag11
aa(lp169
S'FAS499'
p170
aI83503
aI25
aI30
ag3
aNaNaNaNaNaNaNaNaNaNaNaNag11
aa(lp171
S'FAS499'
p172
aI83980
aI29
aI30
ag3
aNaNaNaNaNaNaNaNaNaNaNaNag11
aa(lp173
S'FAS499'
p174
aI84028
aI30
aI30
ag3
aNaNaNaNaNaNaNaNaNaNaNaNag11
aa(lp175
S'FAS499'
p176
aI84198
aI30
aI30
ag3
aNaNaNaNaNaNaNaNaNaNaNaNag11
aa(lp177
S'FAS499'
p178
aI84311
aI29
aI30
ag3
aNaNaNaNaNaNaNaNaNaNaNaNag11
aa(lp179
S'FAS499'
p180
aI84394
aI28
aI30
ag3
aNaNaNaNaNaNaNaNaNaNaNaNag11
aa(lp181
S'FAS503'
p182
aI75057
aI11
aI15
ag26
aS'10:30 AM'
p183
aI10
aI30
aI11
aI45
aNaNaNaNaNaNaNag4
aa(lp184
S'FAS505'
p185
aI89870
aI14
aI24
ag148
aS' 4:30 PM'
p186
aI16
aI30
aI19
aI15
aNaNaNaNaNaNaNag11
aa(lp187
S'FAS570'
p188
aI73589
aI22
aI22
aS'T Th'
p189
aS' 1:30 PM'
p190
aI13
aI30
aI16
aI15
aNaNaNaNaNaNaNag11
aa(lp191
S'FAS571'
p192
aI73590
aI22
aI22
aS'T Th'
p193
aS' 1:30 PM'
p194
aI13
aI30
aI16
aI15
aNaNaNaNaNaNaNag11
aa(lp195
S'FAS574'
p196
aI73591
aI0
aI15
aS'T Th'
p197
aS' 9:00 AM'
p198
aI9
aI0
aI11
aI45
aNaNaNaNaNaNaNag4
aa(lp199
S'FAS576'
p200
aI73608
aI22
aI22
aS'T Th'
p201
aS' 9:00 AM'
p202
aI9
aI0
aI11
aI45
aNaNaNaNaNaNaNag11
aa(lp203
S'FAS579'
p204
aI73592
aI0
aI15
aS'T Th'
p205
aS' 9:00 AM'
p206
aI9
aI0
aI11
aI45
aNaNaNaNaNaNaNag4
aa(lp207
S'FAS580'
p208
aI73593
aI15
aI22
ag3
aNaNaNaNaNaNaNaNaNaNaNaNag11
aa(lp209
S'FAS580'
p210
aI75150
aI14
aI22
ag3
aNaNaNaNaNaNaNaNaNaNaNaNag11
aa(lp211
S'FAS581'
p212
aI73607
aI22
aI22
aS'T Th'
p213
aS' 9:00 AM'
p214
aI9
aI0
aI11
aI45
aNaNaNaNaNaNaNag11
aa(lp215
S'FAS584'
p216
aI71197
aI20
aI20
ag3
aNaNaNaNaNaNaNaNaNaNaNaNag11
aa(lp217
S'FAS590'
p218
aI71198
aI20
aI20
ag3
aNaNaNaNaNaNaNaNaNaNaNaNag11
aa(lp219
S'FAS591'
p220
aI90114
aI17
aI20
aS'T Th'
p221
aS' 9:00 AM'
p222
aI9
aI0
aI10
aI15
aNaNaNaNaNaNaNag11
aa(lp223
S'FAS592'
p224
aI76927
aI20
aI20
ag3
aNaNaNaNaNaNaNaNaNaNaNaNag11
aa(lp225
S'FAS595'
p226
aI80361
aI20
aI20
ag3
aNaNaNaNaNaNaNaNaNaNaNaNag11
aa(lp227
S'FAS598'
p228
aI91440
aI4
aI5
aS'M W'
p229
aS'10:30 AM'
p230
aI10
aI30
aI11
aI45
aNaNaNaNaNaNaNag11
aa(lp231
S'FAS599'
p232
aI71199
aI19
aI20
ag3
aNaNaNaNaNaNaNaNaNaNaNaNag11
aa(lp233
S'FAS680'
p234
aI71200
aI20
aI20
ag3
aNaNaNaNaNaNaNaNaNaNaNaNag11
aa(lp235
S'FAS780'
p236
aI71201
aI20
aI20
ag3
aNaNaNaNaNaNaNaNaNaNaNaNag11
aa(lp237
S'FAS780'
p238
aI77083
aI9
aI10
aS'T Th'
p239
aS'10:30 AM'
p240
aI10
aI30
aI11
aI45
aNaNaNaNaNaNaNag11
aa(lp241
S'FAS784'
p242
aI71202
aI20
aI20
ag3
aNaNaNaNaNaNaNaNaNaNaNaNag11
aa(lp243
S'FAS792'
p244
aI71203
aI19
aI20
ag3
aNaNaNaNaNaNaNaNaNaNaNaNag11
aa(lp245
S'FAS795'
p246
aI77098
aI20
aI20
ag3
aNaNaNaNaNaNaNaNaNaNaNaNag11
aa(lp247
S'FAS799'
p248
aI71204
aI18
aI20
ag3
aNaNaNaNaNaNaNaNaNaNaNaNag11
aa.