(lp0
(lp1
S'FIN123'
p2
aI80172
aI459
aI500
aS'ONLINE'
p3
aNaNaNaNaNaNaNaNaNaNaNaNaS'Reserved'
p4
aa(lp5
S'FIN123'
p6
aI80173
aI492
aI500
ag3
aNaNaNaNaNaNaNaNaNaNaNaNag4
aa(lp7
S'FIN300'
p8
aI75058
aI97
aI285
ag3
aNaNaNaNaNaNaNaNaNaNaNaNag4
aa(lp9
S'FIN300'
p10
aI70370
aI0
aI265
aS'T Th'
p11
aS' 1:30 PM'
p12
aI13
aI30
aI14
aI45
aNaNaNaNaNaNaNag4
aa(lp13
S'FIN300'
p14
aI70369
aI0
aI265
aS'M W F'
p15
aS' 1:30 PM'
p16
aI13
aI30
aI14
aI20
aNaNaNaNaNaNaNag4
aa(lp17
S'FIN300'
p18
aI70371
aI56
aI265
aS'T'
p19
aS' 6:00 PM'
p20
aI18
aI0
aI20
aI45
aNaNaNaNaNaNaNaS'Not Reserved'
p21
aa(lp22
S'FIN300'
p23
aI74525
aI38
aI60
aS'T Th'
p24
aS' 9:00 AM'
p25
aI9
aI0
aI10
aI15
aNaNaNaNaNaNaNag21
aa(lp26
S'FIN300'
p27
aI84308
aI38
aI80
ag19
aS' 6:00 PM'
p28
aI18
aI0
aI20
aI45
aNaNaNaNaNaNaNag21
aa(lp29
S'FIN302'
p30
aI73677
aI0
aI50
aS'T Th'
p31
aS' 4:30 PM'
p32
aI16
aI30
aI17
aI45
aNaNaNaNaNaNaNag4
aa(lp33
S'FIN302'
p34
aI75119
aI26
aI50
ag19
aS' 6:00 PM'
p35
aI18
aI0
aI20
aI45
aNaNaNaNaNaNaNag21
aa(lp36
S'FIN302'
p37
aI84058
aI0
aI35
aS'T Th'
p38
aS'12:00 PM'
p39
aI12
aI0
aI13
aI15
aNaNaNaNaNaNaNag4
aa(lp40
S'FIN303'
p41
aI72620
aI6
aI35
aS'M W'
p42
aS' 3:00 PM'
p43
aI15
aI0
aI16
aI15
aNaNaNaNaNaNaNag21
aa(lp44
S'FIN303'
p45
aI75120
aI24
aI35
aS'M W'
p46
aS' 4:30 PM'
p47
aI16
aI30
aI17
aI45
aNaNaNaNaNaNaNag21
aa(lp48
S'FIN331'
p49
aI78613
aI0
aI60
aS'M W'
p50
aS' 1:30 PM'
p51
aI13
aI30
aI14
aI45
aNaNaNaNaNaNaNag4
aa(lp52
S'FIN331'
p53
aI71209
aI0
aI60
aS'M W'
p54
aS' 3:00 PM'
p55
aI15
aI0
aI16
aI15
aNaNaNaNaNaNaNag4
aa(lp56
S'FIN331'
p57
aI78612
aI0
aI60
aS'W'
p58
aS' 6:00 PM'
p59
aI18
aI0
aI20
aI45
aNaNaNaNaNaNaNag4
aa(lp60
S'FIN361'
p61
aI73291
aI0
aI49
aS'T Th'
p62
aS' 4:30 PM'
p63
aI16
aI30
aI17
aI45
aNaNaNaNaNaNaNag4
aa(lp64
S'FIN361'
p65
aI71210
aI0
aI40
ag19
aS' 6:00 PM'
p66
aI18
aI0
aI20
aI45
aNaNaNaNaNaNaNag4
aa(lp67
S'FIN361'
p68
aI71211
aI0
aI49
aS'M W'
p69
aS' 3:00 PM'
p70
aI15
aI0
aI16
aI15
aNaNaNaNaNaNaNag4
aa(lp71
S'FIN380'
p72
aI78060
aI145
aI285
ag3
aNaNaNaNaNaNaNaNaNaNaNaNag4
aa(lp73
S'FIN380'
p74
aI70372
aI6
aI100
aS'M W'
p75
aS' 3:00 PM'
p76
aI15
aI0
aI16
aI15
aNaNaNaNaNaNaNag21
aa(lp77
S'FIN380'
p78
aI91366
aI42
aI48
aS'M W F'
p79
aS' 1:30 PM'
p80
aI13
aI30
aI14
aI45
aNaNaNaNaNaNaNag21
aa(lp81
S'FIN421'
p82
aI71212
aI0
aI40
aS'M W'
p83
aS' 3:00 PM'
p84
aI15
aI0
aI16
aI15
aNaNaNaNaNaNaNag4
aa(lp85
S'FIN421'
p86
aI71213
aI0
aI40
aS'M'
p87
aS' 6:00 PM'
p88
aI18
aI0
aI20
aI45
aNaNaNaNaNaNaNag4
aa(lp89
S'FIN421'
p90
aI71214
aI0
aI40
aS'T Th'
p91
aS' 1:30 PM'
p92
aI13
aI30
aI14
aI45
aNaNaNaNaNaNaNag4
aa(lp93
S'FIN421'
p94
aI74214
aI4
aI49
aS'Th'
p95
aS' 6:00 PM'
p96
aI18
aI0
aI20
aI45
aNaNaNaNaNaNaNag21
aa(lp97
S'FIN421'
p98
aI78822
aI0
aI40
aS'T Th'
p99
aS' 4:30 PM'
p100
aI16
aI30
aI17
aI45
aNaNaNaNaNaNaNag4
aa(lp101
S'FIN427'
p102
aI71215
aI23
aI35
ag19
aS' 6:00 PM'
p103
aI18
aI0
aI20
aI45
aNaNaNaNaNaNaNag21
aa(lp104
S'FIN431'
p105
aI84307
aI0
aI50
aS'Th'
p106
aS' 6:00 PM'
p107
aI18
aI0
aI20
aI45
aNaNaNaNaNaNaNag4
aa(lp108
S'FIN456'
p109
aI71216
aI11
aI60
ag87
aS' 6:00 PM'
p110
aI18
aI0
aI20
aI45
aNaNaNaNaNaNaNag21
aa(lp111
S'FIN461'
p112
aI71205
aI0
aI35
aS'T Th'
p113
aS' 3:00 PM'
p114
aI15
aI0
aI16
aI15
aNaNaNaNaNaNaNag4
aa(lp115
S'FIN461'
p116
aI71206
aI15
aI35
aS'M W'
p117
aS' 3:00 PM'
p118
aI15
aI0
aI16
aI15
aNaNaNaNaNaNaNag21
aa(lp119
S'FIN461'
p120
aI71207
aI10
aI35
aS'M W'
p121
aS' 1:30 PM'
p122
aI13
aI30
aI14
aI45
aNaNaNaNaNaNaNag21
aa(lp123
S'FIN461'
p124
aI71208
aI0
aI35
ag58
aS' 6:00 PM'
p125
aI18
aI0
aI20
aI45
aNaNaNaNaNaNaNag4
aa(lp126
S'FIN461'
p127
aI84059
aI0
aI35
aS'Th'
p128
aS' 6:00 PM'
p129
aI18
aI0
aI20
aI45
aNaNaNaNaNaNaNag4
aa(lp130
S'FIN471'
p131
aI82091
aI18
aI20
aS'F'
p132
aS' 1:30 PM'
p133
aI13
aI30
aI15
aI20
aNaNaNaNaNaNaNag21
aa(lp134
S'FIN472'
p135
aI86489
aI35
aI35
aS'Th'
p136
aS' 7:30 PM'
p137
aI19
aI30
aI21
aI20
aNaNaNaNaNaNaNag21
aa(lp138
S'FIN484'
p139
aI71217
aI49
aI50
ag3
aNaNaNaNaNaNaNaNaNaNaNaNag21
aa(lp140
S'FIN493'
p141
aI71218
aI39
aI40
ag3
aNaNaNaNaNaNaNaNaNaNaNaNag21
aa(lp142
S'FIN494'
p143
aI82582
aI1
aI35
aS'T Th'
p144
aS' 1:25 PM'
p145
aI13
aI25
aI15
aI30
aNaNaNaNaNaNaNag21
aa(lp146
S'FIN494'
p147
aI82788
aI0
aI40
aS'T Th'
p148
aS'12:00 PM'
p149
aI12
aI0
aI13
aI15
aNaNaNaNaNaNaNag4
aa(lp150
S'FIN502'
p151
aI84103
aI33
aI35
aS'M W'
p152
aS'10:00 AM'
p153
aI10
aI0
aI12
aI30
aNaNaNaNaNaNaNag21
aa(lp154
S'FIN502'
p155
aI71220
aI52
aI52
aS'M W'
p156
aS' 8:00 AM'
p157
aI8
aI0
aI10
aI5
aNaNaNaNaNaNaNag4
aa(lp158
S'FIN502'
p159
aI71222
aI52
aI52
aS'M W'
p160
aS'10:20 AM'
p161
aI10
aI20
aI12
aI25
aNaNaNaNaNaNaNag4
aa(lp162
S'FIN502'
p163
aI71221
aI70
aI70
ag3
aNaNaNaNaNaNaNaNaNaNaNaNag4
aa(lp164
S'FIN525'
p165
aI84106
aI33
aI35
aS'M W'
p166
aS'10:20 AM'
p167
aI10
aI20
aI12
aI25
aNaNaNaNaNaNaNag21
aa(lp168
S'FIN530'
p169
aI83583
aI43
aI45
aS'T Th'
p170
aS'10:20 AM'
p171
aI10
aI20
aI12
aI25
aNaNaNaNaNaNaNag4
aa(lp172
S'FIN540'
p173
aI83582
aI43
aI45
aS'T Th'
p174
aS'10:20 AM'
p175
aI10
aI20
aI12
aI25
aNaNaNaNaNaNaNag4
aa(lp176
S'FIN540'
p177
aI83581
aI22
aI55
aS'F Sa'
p178
aS' 8:00 AM'
p179
aI8
aI0
aI17
aI0
aNaNaNaNaNaNaNag4
aa(lp180
S'FIN540'
p181
aI83590
aI48
aI48
ag3
aNaNaNaNaNaNaNaNaNaNaNaNag4
aa(lp182
S'FIN540'
p183
aI84107
aI63
aI63
ag3
aNaNaNaNaNaNaNaNaNaNaNaNag4
aa(lp184
S'FIN560'
p185
aI84108
aI63
aI63
ag3
aNaNaNaNaNaNaNaNaNaNaNaNag4
aa(lp186
S'FIN580'
p187
aI77853
aI42
aI45
ag132
aS' 3:30 PM'
p188
aI15
aI30
aI16
aI35
aNaNaNaNaNaNaNag4
aa(lp189
S'FIN591'
p190
aI73748
aI26
aI30
aS'T Th'
p191
aS' 1:25 PM'
p192
aI13
aI25
aI15
aI30
aNaNaNaNaNaNaNag4
aa(lp193
S'FIN591'
p194
aI72929
aI100
aI100
aS'M T W Th F Sa Su'
p195
aS' 8:00 AM'
p196
aI8
aI0
aI17
aI0
aNaNaNaNaNaNaNag4
aa(lp197
S'FIN591'
p198
aI72930
aI100
aI100
aS'M T W Th F Sa Su'
p199
aS' 8:00 AM'
p200
aI8
aI0
aI17
aI0
aNaNaNaNaNaNaNag4
aa(lp201
S'FIN700'
p202
aI89093
aI12
aI12
aS'Sa'
p203
aS'9:00AM'
p204
aI9
aI0
aI13
aI0
aS'Sa'
p205
aS'9:00AM'
p206
aI9
aI0
aS'12:00PM'
p207
aI12
aI0
ag21
aa(lp208
S'FIN781'
p209
aI82801
aI25
aI25
ag87
aS' 4:30 PM'
p210
aI16
aI30
aI19
aI15
aNaNaNaNaNaNaNag21
aa(lp211
S'FIN783'
p212
aI77497
aI24
aI25
ag87
aS' 9:00 AM'
p213
aI9
aI0
aI11
aI45
aNaNaNaNaNaNaNag21
aa(lp214
S'FIN790'
p215
aI71223
aI10
aI10
ag3
aNaNaNaNaNaNaNaNaNaNaNaNag21
aa(lp216
S'FIN791'
p217
aI75180
aI19
aI20
ag132
aS' 1:30 PM'
p218
aI13
aI30
aI16
aI30
aNaNaNaNaNaNaNag21
aa(lp219
S'FIN792'
p220
aI71224
aI10
aI10
ag3
aNaNaNaNaNaNaNaNaNaNaNaNag21
aa(lp221
S'FIN799'
p222
aI71225
aI10
aI10
ag3
aNaNaNaNaNaNaNaNaNaNaNaNag21
aa.