(lp0
(lp1
S'FMP201'
p2
aI72452
aI102
aI155
aS'ONLINE'
p3
aNaNaNaNaNaNaNaNaNaNaNaNaS'Not Reserved'
p4
aa(lp5
S'FMP201'
p6
aI72451
aI81
aI142
aS'T'
p7
aS' 4:30 PM'
p8
aI16
aI30
aI19
aI15
aNaNaNaNaNaNaNag4
aa(lp9
S'FMP220'
p10
aI75746
aI23
aI24
aS'M'
p11
aS'12:55 PM'
p12
aI12
aI55
aI15
aI50
aNaNaNaNaNaNaNaS'Reserved'
p13
aa(lp14
S'FMP222'
p15
aI79659
aI27
aI40
ag3
aNaNaNaNaNaNaNaNaNaNaNaNag13
aa(lp16
S'FMP250'
p17
aI72496
aI67
aI120
aS'Th'
p18
aS' 4:30 PM'
p19
aI16
aI30
aI19
aI15
aNaNaNaNaNaNaNag13
aa(lp20
S'FMP255'
p21
aI83543
aI38
aI60
ag3
aNaNaNaNaNaNaNaNaNaNaNaNag13
aa(lp22
S'FMP255'
p23
aI83544
aI35
aI45
ag3
aNaNaNaNaNaNaNaNaNaNaNaNag13
aa(lp24
S'FMP255'
p25
aI91243
aI40
aI40
aS'T Th'
p26
aS' 9:00 AM'
p27
aI9
aI0
aI10
aI15
aNaNaNaNaNaNaNag4
aa(lp28
S'FMP261'
p29
aI77282
aI72
aI88
aS'Th'
p30
aS'12:00 PM'
p31
aI12
aI0
aI13
aI15
aNaNaNaNaNaNaNag13
aa(lp32
S'FMP261'
p33
aI77283
aI19
aI22
ag7
aS' 1:30 PM'
p34
aI13
aI30
aI14
aI45
aNaNaNaNaNaNaNag4
aa(lp35
S'FMP261'
p36
aI77284
aI19
aI22
ag7
aS' 1:30 PM'
p37
aI13
aI30
aI14
aI45
aNaNaNaNaNaNaNag4
aa(lp38
S'FMP261'
p39
aI77285
aI20
aI22
aS'Th'
p40
aS' 1:30 PM'
p41
aI13
aI30
aI14
aI45
aNaNaNaNaNaNaNag4
aa(lp42
S'FMP261'
p43
aI77286
aI14
aI22
aS'Th'
p44
aS' 1:30 PM'
p45
aI13
aI30
aI14
aI45
aNaNaNaNaNaNaNag4
aa(lp46
S'FMP261'
p47
aI77287
aI9
aI24
ag7
aS'12:00 PM'
p48
aI12
aI0
aI13
aI15
aNaNaNaNaNaNaNag13
aa(lp49
S'FMP261'
p50
aI77288
aI9
aI24
aS'Th'
p51
aS'12:00 PM'
p52
aI12
aI0
aI13
aI15
aNaNaNaNaNaNaNag4
aa(lp53
S'FMP261'
p54
aI80857
aI2
aI22
ag11
aS' 3:00 PM'
p55
aI15
aI0
aI16
aI15
aNaNaNaNaNaNaNag4
aa(lp56
S'FMP261'
p57
aI80858
aI2
aI22
aS'W'
p58
aS' 3:00 PM'
p59
aI15
aI0
aI16
aI15
aNaNaNaNaNaNaNag4
aa(lp60
S'FMP294'
p61
aI77292
aI39
aI60
ag3
aNaNaNaNaNaNaNaNaNaNaNaNag13
aa(lp62
S'FMP300'
p63
aI73639
aI19
aI20
ag58
aS' 1:00 PM'
p64
aI13
aI0
aI17
aI0
aNaNaNaNaNaNaNag13
aa(lp65
S'FMP300'
p66
aI74924
aI2
aI20
ag11
aS' 1:00 PM'
p67
aI13
aI0
aI15
aI45
aNaNaNaNaNaNaNag13
aa(lp68
S'FMP300'
p69
aI74170
aI4
aI20
ag11
aS' 4:15 PM'
p70
aI16
aI15
aI19
aI15
aNaNaNaNaNaNaNag13
aa(lp71
S'FMP300'
p72
aI75757
aI7
aI20
aS'Th'
p73
aS' 4:30 PM'
p74
aI16
aI30
aI19
aI15
aNaNaNaNaNaNaNag4
aa(lp75
S'FMP300'
p76
aI77291
aI13
aI20
aS'Th'
p77
aS' 1:00 PM'
p78
aI13
aI0
aI16
aI0
aNaNaNaNaNaNaNag13
aa(lp79
S'FMP318'
p80
aI74419
aI6
aI20
ag7
aS' 1:00 PM'
p81
aI13
aI0
aI15
aI45
aNaNaNaNaNaNaNag13
aa(lp82
S'FMP320'
p83
aI74420
aI16
aI25
aS'Th'
p84
aS' 1:30 PM'
p85
aI13
aI30
aI19
aI30
aNaNaNaNaNaNaNag13
aa(lp86
S'FMP345'
p87
aI80022
aI20
aI20
ag7
aS' 4:00 PM'
p88
aI16
aI0
aI18
aI45
aNaNaNaNaNaNaNag13
aa(lp89
S'FMP365'
p90
aI87475
aI32
aI50
ag7
aS' 4:30 PM'
p91
aI16
aI30
aI19
aI15
aNaNaNaNaNaNaNag4
aa(lp92
S'FMP380'
p93
aI79997
aI36
aI46
ag3
aNaNaNaNaNaNaNaNaNaNaNaNag4
aa(lp94
S'FMP394'
p95
aI82618
aI7
aI10
ag58
aS' 5:00 PM'
p96
aI17
aI0
aI19
aI45
aNaNaNaNaNaNaNag4
aa(lp97
S'FMP394'
p98
aI76332
aI27
aI50
aS'T Th'
p99
aS'12:00 PM'
p100
aI12
aI0
aI13
aI15
aNaNaNaNaNaNaNag4
aa(lp101
S'FMP394'
p102
aI78023
aI0
aI22
aS'M W'
p103
aS'10:30 AM'
p104
aI10
aI30
aI11
aI45
aNaNaNaNaNaNaNag13
aa(lp105
S'FMP394'
p106
aI83996
aI9
aI20
aS'M W'
p107
aS' 6:00 PM'
p108
aI18
aI0
aI19
aI15
aNaNaNaNaNaNaNag4
aa(lp109
S'FMP480'
p110
aI74421
aI6
aI20
ag58
aS' 1:15 PM'
p111
aI13
aI15
aI16
aI0
aNaNaNaNaNaNaNag13
aa(lp112
S'FMP480'
p113
aI78582
aI6
aI20
ag3
aNaNaNaNaNaNaNaNaNaNaNaNag4
aa(lp114
S'FMP481'
p115
aI74422
aI6
aI20
ag7
aS' 1:30 PM'
p116
aI13
aI30
aI17
aI30
aNaNaNaNaNaNaNag13
aa(lp117
S'FMP481'
p118
aI78583
aI6
aI20
ag3
aNaNaNaNaNaNaNaNaNaNaNaNag4
aa(lp119
S'FMP484'
p120
aI77359
aI20
aI20
ag3
aNaNaNaNaNaNaNaNaNaNaNaNag4
aa(lp121
S'FMP484'
p122
aI77362
aI5
aI5
ag3
aNaNaNaNaNaNaNaNaNaNaNaNag4
aa(lp123
S'FMP484'
p124
aI73362
aI20
aI20
ag3
aNaNaNaNaNaNaNaNaNaNaNaNag13
aa(lp125
S'FMP484'
p126
aI76634
aI20
aI20
ag3
aNaNaNaNaNaNaNaNaNaNaNaNag4
aa(lp127
S'FMP484'
p128
aI78150
aI20
aI20
ag3
aNaNaNaNaNaNaNaNaNaNaNaNag4
aa(lp129
S'FMP492'
p130
aI73082
aI5
aI6
ag3
aNaNaNaNaNaNaNaNaNaNaNaNag4
aa(lp131
S'FMP493'
p132
aI73083
aI5
aI6
ag3
aNaNaNaNaNaNaNaNaNaNaNaNag4
aa(lp133
S'FMP494'
p134
aI75745
aI26
aI35
aS'Th'
p135
aS' 2:00 PM'
p136
aI14
aI0
aI16
aI45
aNaNaNaNaNaNaNag4
aa(lp137
S'FMP494'
p138
aI75907
aI0
aI11
aS'M W'
p139
aS'10:30 AM'
p140
aI10
aI30
aI11
aI45
aNaNaNaNaNaNaNag13
aa(lp141
S'FMP494'
p142
aI78144
aI22
aI35
aS'T Th'
p143
aS'10:30 AM'
p144
aI10
aI30
aI11
aI45
aNaNaNaNaNaNaNag4
aa(lp145
S'FMP494'
p146
aI85428
aI8
aI15
ag11
aS' 7:30 PM'
p147
aI19
aI30
aI22
aI15
aNaNaNaNaNaNaNag4
aa(lp148
S'FMP494'
p149
aI85485
aI0
aI14
aS'T Th'
p150
aS'10:30 AM'
p151
aI10
aI30
aI11
aI45
aNaNaNaNaNaNaNag13
aa(lp152
S'FMP498'
p153
aI80990
aI20
aI20
ag3
aNaNaNaNaNaNaNaNaNaNaNaNag4
aa(lp154
S'FMP498'
p155
aI80777
aI20
aI20
ag3
aNaNaNaNaNaNaNaNaNaNaNaNag4
aa(lp156
S'FMP499'
p157
aI78252
aI5
aI5
ag3
aNaNaNaNaNaNaNaNaNaNaNaNag4
aa(lp158
S'FMP499'
p159
aI82486
aI5
aI5
ag3
aNaNaNaNaNaNaNaNaNaNaNaNag4
aa(lp160
S'FMP499'
p161
aI82489
aI5
aI5
ag3
aNaNaNaNaNaNaNaNaNaNaNaNag4
aa(lp162
S'FMP499'
p163
aI82490
aI5
aI5
ag3
aNaNaNaNaNaNaNaNaNaNaNaNag4
aa(lp164
S'FMP499'
p165
aI82492
aI5
aI5
ag3
aNaNaNaNaNaNaNaNaNaNaNaNag4
aa(lp166
S'FMP499'
p167
aI83420
aI5
aI5
ag3
aNaNaNaNaNaNaNaNaNaNaNaNag4
aa(lp168
S'FMP499'
p169
aI75342
aI5
aI5
ag3
aNaNaNaNaNaNaNaNaNaNaNaNag4
aa(lp170
S'FMP499'
p171
aI82599
aI4
aI5
ag3
aNaNaNaNaNaNaNaNaNaNaNaNag4
aa(lp172
S'FMP499'
p173
aI80610
aI5
aI5
ag3
aNaNaNaNaNaNaNaNaNaNaNaNag4
aa(lp174
S'FMP499'
p175
aI82600
aI5
aI5
ag3
aNaNaNaNaNaNaNaNaNaNaNaNag4
aa(lp176
S'FMP499'
p177
aI82601
aI5
aI5
ag3
aNaNaNaNaNaNaNaNaNaNaNaNag4
aa(lp178
S'FMP499'
p179
aI83421
aI5
aI5
ag3
aNaNaNaNaNaNaNaNaNaNaNaNag4
aa(lp180
S'FMP499'
p181
aI85553
aI3
aI3
ag3
aNaNaNaNaNaNaNaNaNaNaNaNag4
aa(lp182
S'FMP499'
p183
aI85943
aI5
aI5
ag3
aNaNaNaNaNaNaNaNaNaNaNaNag4
aa(lp184
S'FMP499'
p185
aI91353
aI5
aI8
ag3
aNaNaNaNaNaNaNaNaNaNaNaNag4
aa(lp186
S'FMP598'
p187
aI78145
aI5
aI5
aS'T Th'
p188
aS'10:30 AM'
p189
aI10
aI30
aI11
aI45
aNaNaNaNaNaNaNag4
aa.