(lp0
(lp1
S'FMS100'
p2
aI74807
aI47
aI118
aS'T Th'
p3
aS' 1:30 PM'
p4
aI13
aI30
aI14
aI45
aNaNaNaNaNaNaNaS'Not Reserved'
p5
aa(lp6
S'FMS100'
p7
aI86588
aI117
aI142
aS'M W'
p8
aS'3:00PM'
p9
aI15
aI0
aI16
aI15
aS'M'
p10
aS'6:30PM'
p11
aI18
aI30
aS'8:30PM'
p12
aI20
aI30
ag5
aa(lp13
S'FMS110'
p14
aI76473
aI0
aI45
aS'T Th'
p15
aS' 4:30 PM'
p16
aI16
aI30
aI17
aI45
aNaNaNaNaNaNaNaS'Reserved'
p17
aa(lp18
S'FMS191'
p19
aI79147
aI19
aI19
aS'T'
p20
aS' 3:00 PM'
p21
aI15
aI0
aI15
aI50
aNaNaNaNaNaNaNag17
aa(lp22
S'FMS191'
p23
aI86641
aI19
aI19
aS'Th'
p24
aS' 3:00 PM'
p25
aI15
aI0
aI15
aI50
aNaNaNaNaNaNaNag17
aa(lp26
S'FMS200'
p27
aI74809
aI149
aI200
aS'T Th'
p28
aS'3:00PM'
p29
aI15
aI0
aI16
aI15
aS'Th'
p30
aS'4:30PM'
p31
aI16
aI30
aS'7:15PM'
p32
aI19
aI15
ag5
aa(lp33
S'FMS209'
p34
aI79508
aI1
aI22
aS'M W'
p35
aS' 4:30 PM'
p36
aI16
aI30
aI17
aI45
aNaNaNaNaNaNaNag5
aa(lp37
S'FMS300'
p38
aI76729
aI14
aI38
aS'T Th'
p39
aS'1:30PM'
p40
aI13
aI30
aI14
aI45
ag20
aS'4:30PM'
p41
aI16
aI30
aS'7:15PM'
p42
aI19
aI15
ag5
aa(lp43
S'FMS309'
p44
aI83291
aI2
aI18
aS'T Th'
p45
aS'12:00 PM'
p46
aI12
aI0
aI13
aI15
aNaNaNaNaNaNaNag5
aa(lp47
S'FMS345'
p48
aI91365
aI0
aI10
aS'ONLINE'
p49
aNaNaNaNaNaNaNaNaNaNaNaNag17
aa(lp50
S'FMS351'
p51
aI80308
aI1
aI45
aS'T Th'
p52
aS' 1:30 PM'
p53
aI13
aI30
aI14
aI45
aNaNaNaNaNaNaNag5
aa(lp54
S'FMS394'
p55
aI86729
aI17
aI45
aS'M W'
p56
aS' 3:00 PM'
p57
aI15
aI0
aI16
aI15
aNaNaNaNaNaNaNag5
aa(lp58
S'FMS394'
p59
aI86730
aI11
aI45
aS'M W'
p60
aS' 6:00 PM'
p61
aI18
aI0
aI19
aI15
aNaNaNaNaNaNaNag5
aa(lp62
S'FMS394'
p63
aI89872
aI22
aI38
ag20
aS' 4:30 PM'
p64
aI16
aI30
aI19
aI15
aNaNaNaNaNaNaNag5
aa(lp65
S'FMS409'
p66
aI83292
aI3
aI18
aS'T Th'
p67
aS'10:30 AM'
p68
aI10
aI30
aI11
aI45
aNaNaNaNaNaNaNag5
aa(lp69
S'FMS442'
p70
aI86669
aI1
aI10
aS'Th'
p71
aS' 6:00 PM'
p72
aI18
aI0
aI20
aI45
aNaNaNaNaNaNaNag5
aa(lp73
S'FMS461'
p74
aI79650
aI35
aI45
aS'W'
p75
aS' 6:00 PM'
p76
aI18
aI0
aI20
aI45
aNaNaNaNaNaNaNag5
aa(lp77
S'FMS484'
p78
aI76811
aI4
aI5
ag49
aNaNaNaNaNaNaNaNaNaNaNaNag17
aa(lp79
S'FMS484'
p80
aI76214
aI10
aI10
ag49
aNaNaNaNaNaNaNaNaNaNaNaNag17
aa(lp81
S'FMS492'
p82
aI76585
aI4
aI4
ag49
aNaNaNaNaNaNaNaNaNaNaNaNag5
aa(lp83
S'FMS493'
p84
aI81287
aI5
aI5
ag49
aNaNaNaNaNaNaNaNaNaNaNaNag5
aa(lp85
S'FMS494'
p86
aI90501
aI0
aI10
aS'Th'
p87
aS' 4:30 PM'
p88
aI16
aI30
aI19
aI15
aNaNaNaNaNaNaNag17
aa(lp89
S'FMS499'
p90
aI77739
aI4
aI5
ag49
aNaNaNaNaNaNaNaNaNaNaNaNag5
aa(lp91
S'FMS502'
p92
aI86597
aI5
aI5
ag49
aNaNaNaNaNaNaNaNaNaNaNaNag17
aa(lp93
S'FMS503'
p94
aI90548
aI4
aI5
ag49
aNaNaNaNaNaNaNaNaNaNaNaNag17
aa(lp95
S'FMS511'
p96
aI86599
aI5
aI5
ag49
aNaNaNaNaNaNaNaNaNaNaNaNag17
aa(lp97
S'FMS523'
p98
aI90577
aI5
aI5
ag49
aNaNaNaNaNaNaNaNaNaNaNaNag17
aa(lp99
S'FMS590'
p100
aI78256
aI5
aI5
ag49
aNaNaNaNaNaNaNaNaNaNaNaNag5
aa(lp101
S'FMS593'
p102
aI76454
aI5
aI5
ag49
aNaNaNaNaNaNaNaNaNaNaNaNag17
aa(lp103
S'FMS598'
p104
aI86601
aI5
aI5
ag49
aNaNaNaNaNaNaNaNaNaNaNaNag17
aa(lp105
S'FMS598'
p106
aI86605
aI4
aI5
ag49
aNaNaNaNaNaNaNaNaNaNaNaNag17
aa.