(lp0
(lp1
S'FOR191'
p2
aI91087
aI0
aI4
aS'T'
p3
aS'10:30 AM'
p4
aI10
aI30
aI11
aI45
aNaNaNaNaNaNaNaS'Reserved'
p5
aa(lp6
S'FOR191'
p7
aI91088
aI3
aI4
aS'Th'
p8
aS'10:30 AM'
p9
aI10
aI30
aI11
aI45
aNaNaNaNaNaNaNaS'Not Reserved'
p10
aa(lp11
S'FOR191'
p12
aI91089
aI3
aI4
ag3
aS'10:30 AM'
p13
aI10
aI30
aI11
aI45
aNaNaNaNaNaNaNag10
aa(lp14
S'FOR191'
p15
aI91090
aI4
aI4
aS'Th'
p16
aS'10:30 AM'
p17
aI10
aI30
aI11
aI45
aNaNaNaNaNaNaNag10
aa(lp18
S'FOR191'
p19
aI91092
aI3
aI4
aS'M'
p20
aS'10:30 AM'
p21
aI10
aI30
aI11
aI20
aNaNaNaNaNaNaNag10
aa(lp22
S'FOR191'
p23
aI91093
aI4
aI4
aS'W'
p24
aS'10:30 AM'
p25
aI10
aI30
aI11
aI20
aNaNaNaNaNaNaNag10
aa(lp26
S'FOR191'
p27
aI91094
aI4
aI4
aS'F'
p28
aS'10:30 AM'
p29
aI10
aI30
aI11
aI20
aNaNaNaNaNaNaNag10
aa(lp30
S'FOR191'
p31
aI91095
aI4
aI4
ag20
aS'10:30 AM'
p32
aI10
aI30
aI11
aI20
aNaNaNaNaNaNaNag10
aa(lp33
S'FOR191'
p34
aI91096
aI4
aI4
ag24
aS'10:30 AM'
p35
aI10
aI30
aI11
aI20
aNaNaNaNaNaNaNag10
aa(lp36
S'FOR191'
p37
aI91097
aI3
aI4
ag28
aS'10:30 AM'
p38
aI10
aI30
aI11
aI20
aNaNaNaNaNaNaNag10
aa(lp39
S'FOR286'
p40
aI88785
aI36
aI48
aS'T Th'
p41
aS' 3:00 PM'
p42
aI15
aI0
aI16
aI15
aNaNaNaNaNaNaNag10
aa(lp43
S'FOR286'
p44
aI88786
aI12
aI24
aS'Th'
p45
aS'12:00 PM'
p46
aI12
aI0
aI14
aI45
aNaNaNaNaNaNaNag10
aa(lp47
S'FOR375'
p48
aI81457
aI9
aI38
aS'M W F'
p49
aS'12:00 PM'
p50
aI12
aI0
aI12
aI50
aNaNaNaNaNaNaNag10
aa(lp51
S'FOR376'
p52
aI81458
aI3
aI24
aS'Th'
p53
aS'10:30 AM'
p54
aI10
aI30
aI14
aI15
aNaNaNaNaNaNaNag10
aa(lp55
S'FOR376'
p56
aI89042
aI10
aI14
aS'Th'
p57
aS' 3:30 PM'
p58
aI15
aI30
aI19
aI15
aNaNaNaNaNaNaNag10
aa(lp59
S'FOR394'
p60
aI81459
aI22
aI40
aS'T Th'
p61
aS'10:30 AM'
p62
aI10
aI30
aI11
aI45
aNaNaNaNaNaNaNag10
aa(lp63
S'FOR410'
p64
aI89862
aI40
aI50
aS'M W F'
p65
aS'10:30 AM'
p66
aI10
aI30
aI11
aI20
aNaNaNaNaNaNaNag10
aa(lp67
S'FOR494'
p68
aI86287
aI43
aI50
aS'T Th'
p69
aS' 3:00 PM'
p70
aI15
aI0
aI16
aI15
aNaNaNaNaNaNaNag10
aa(lp71
S'FOR494'
p72
aI86352
aI7
aI10
aS'M W F'
p73
aS'10:30 AM'
p74
aI10
aI30
aI11
aI20
aNaNaNaNaNaNaNag10
aa(lp75
S'FOR499'
p76
aI91217
aI8
aI10
aS'ONLINE'
p77
aNaNaNaNaNaNaNaNaNaNaNaNag10
aa.