(lp0
(lp1
S'FRE101'
p2
aI71231
aI23
aI28
aS'M W'
p3
aS'6:00PM'
p4
aI18
aI0
aI19
aI15
aS''
p5
ag5
aNaNag5
aNaNaS'Not Reserved'
p6
aa(lp7
S'FRE101'
p8
aI71232
aI9
aI28
aS'M W'
p9
aS'10:30AM'
p10
aI10
aI30
aI11
aI45
ag5
ag5
aNaNag5
aNaNag6
aa(lp11
S'FRE101'
p12
aI71233
aI17
aI28
aS'M W'
p13
aS'12:00PM'
p14
aI12
aI0
aI13
aI15
ag5
ag5
aNaNag5
aNaNag6
aa(lp15
S'FRE101'
p16
aI71234
aI8
aI28
aS'M W'
p17
aS'1:30PM'
p18
aI13
aI30
aI14
aI45
ag5
ag5
aNaNag5
aNaNag6
aa(lp19
S'FRE101'
p20
aI71235
aI8
aI28
aS'T Th'
p21
aS'12:00PM'
p22
aI12
aI0
aI13
aI15
ag5
ag5
aNaNag5
aNaNag6
aa(lp23
S'FRE101'
p24
aI71236
aI20
aI28
aS'T Th'
p25
aS'9:00AM'
p26
aI9
aI0
aI10
aI15
ag5
ag5
aNaNag5
aNaNag6
aa(lp27
S'FRE101'
p28
aI71230
aI24
aI28
aS'T Th'
p29
aS'6:00PM'
p30
aI18
aI0
aI19
aI15
ag5
ag5
aNaNag5
aNaNag6
aa(lp31
S'FRE101'
p32
aI73896
aI21
aI28
aS'T Th'
p33
aS'10:30AM'
p34
aI10
aI30
aI11
aI45
ag5
ag5
aNaNag5
aNaNag6
aa(lp35
S'FRE101'
p36
aI73897
aI0
aI22
aS'ONLINE'
p37
aNaNaNaNaNaNaNaNaNaNaNaNaS'Reserved'
p38
aa(lp39
S'FRE101'
p40
aI84624
aI20
aI25
aS'M W'
p41
aS'10:30AM'
p42
aI10
aI30
aI11
aI45
ag5
ag5
aNaNag5
aNaNag6
aa(lp43
S'FRE101'
p44
aI89623
aI17
aI24
aS'T Th'
p45
aS'10:30 AM'
p46
aI10
aI30
aI11
aI45
aNaNaNaNaNaNaNag6
aa(lp47
S'FRE102'
p48
aI71237
aI7
aI28
aS'T Th'
p49
aS'6:00PM'
p50
aI18
aI0
aI19
aI15
ag5
ag5
aNaNag5
aNaNag6
aa(lp51
S'FRE102'
p52
aI73900
aI2
aI28
aS'T Th'
p53
aS'12:00PM'
p54
aI12
aI0
aI13
aI15
ag5
ag5
aNaNag5
aNaNag6
aa(lp55
S'FRE102'
p56
aI73898
aI0
aI28
aS'M W'
p57
aS'10:30AM'
p58
aI10
aI30
aI11
aI45
ag5
ag5
aNaNag5
aNaNag38
aa(lp59
S'FRE102'
p60
aI73310
aI22
aI28
aS'T Th'
p61
aS'9:00AM'
p62
aI9
aI0
aI10
aI15
ag5
ag5
aNaNag5
aNaNag6
aa(lp63
S'FRE102'
p64
aI73899
aI4
aI22
ag37
aNaNaNaNaNaNaNaNaNaNaNaNag38
aa(lp65
S'FRE110'
p66
aI90826
aI20
aI28
aS'M T W Th'
p67
aS'12:00 PM'
p68
aI12
aI0
aI13
aI15
aNaNaNaNaNaNaNag6
aa(lp69
S'FRE201'
p70
aI73902
aI17
aI22
ag37
aNaNaNaNaNaNaNaNaNaNaNaNag38
aa(lp71
S'FRE201'
p72
aI71238
aI0
aI28
aS'T Th'
p73
aS'12:00PM'
p74
aI12
aI0
aI13
aI15
ag5
ag5
aNaNag5
aNaNag38
aa(lp75
S'FRE201'
p76
aI71239
aI3
aI28
aS'M W'
p77
aS'12:00PM'
p78
aI12
aI0
aI13
aI15
ag5
ag5
aNaNag5
aNaNag6
aa(lp79
S'FRE201'
p80
aI71240
aI8
aI28
aS'T Th'
p81
aS'9:00AM'
p82
aI9
aI0
aI10
aI15
ag5
ag5
aNaNag5
aNaNag6
aa(lp83
S'FRE201'
p84
aI73901
aI15
aI28
aS'T Th'
p85
aS'10:30AM'
p86
aI10
aI30
aI11
aI45
ag5
ag5
aNaNag5
aNaNag6
aa(lp87
S'FRE201'
p88
aI73504
aI6
aI25
aS'M W'
p89
aS'12:00PM'
p90
aI12
aI0
aI13
aI15
ag5
ag5
aNaNag5
aNaNag6
aa(lp91
S'FRE202'
p92
aI73904
aI5
aI22
ag37
aNaNaNaNaNaNaNaNaNaNaNaNag38
aa(lp93
S'FRE202'
p94
aI73903
aI17
aI28
aS'T Th'
p95
aS'9:00AM'
p96
aI9
aI0
aI10
aI15
ag5
ag5
aNaNag5
aNaNag6
aa(lp97
S'FRE202'
p98
aI71241
aI11
aI28
aS'M W'
p99
aS'12:00PM'
p100
aI12
aI0
aI13
aI15
ag5
ag5
aNaNag5
aNaNag6
aa(lp101
S'FRE202'
p102
aI71242
aI10
aI28
aS'T Th'
p103
aS'12:00PM'
p104
aI12
aI0
aI13
aI15
ag5
ag5
aNaNag5
aNaNag6
aa(lp105
S'FRE305'
p106
aI73905
aI9
aI28
aS'T Th'
p107
aS' 1:30 PM'
p108
aI13
aI30
aI14
aI45
aNaNaNaNaNaNaNag6
aa(lp109
S'FRE311'
p110
aI71244
aI3
aI25
aS'T Th'
p111
aS'10:30 AM'
p112
aI10
aI30
aI11
aI45
aNaNaNaNaNaNaNag6
aa(lp113
S'FRE312'
p114
aI89642
aI23
aI28
ag37
aNaNaNaNaNaNaNaNaNaNaNaNag38
aa(lp115
S'FRE312'
p116
aI71245
aI16
aI28
aS'M W'
p117
aS'12:00 PM'
p118
aI12
aI0
aI13
aI15
aNaNaNaNaNaNaNag6
aa(lp119
S'FRE319'
p120
aI90148
aI26
aI28
aS'T Th'
p121
aS'12:00 PM'
p122
aI12
aI0
aI13
aI15
aNaNaNaNaNaNaNag6
aa(lp123
S'FRE321'
p124
aI91682
aI24
aI28
aS'T Th'
p125
aS' 1:30 PM'
p126
aI13
aI30
aI14
aI45
aNaNaNaNaNaNaNag6
aa(lp127
S'FRE322'
p128
aI74961
aI16
aI28
aS'M W'
p129
aS'10:30 AM'
p130
aI10
aI30
aI11
aI45
aNaNaNaNaNaNaNag6
aa(lp131
S'FRE325'
p132
aI89647
aI19
aI28
aS'M W'
p133
aS' 1:30 PM'
p134
aI13
aI30
aI14
aI45
aNaNaNaNaNaNaNag6
aa(lp135
S'FRE394'
p136
aI89644
aI21
aI28
aS'M W'
p137
aS' 3:00 PM'
p138
aI15
aI0
aI16
aI15
aNaNaNaNaNaNaNag6
aa(lp139
S'FRE411'
p140
aI82925
aI15
aI25
aS'T Th'
p141
aS'12:00 PM'
p142
aI12
aI0
aI13
aI15
aNaNaNaNaNaNaNag6
aa(lp143
S'FRE416'
p144
aI82347
aI12
aI20
aS'W'
p145
aS' 4:30 PM'
p146
aI16
aI30
aI19
aI15
aNaNaNaNaNaNaNag6
aa(lp147
S'FRE421'
p148
aI89645
aI13
aI20
aS'T Th'
p149
aS' 4:30 PM'
p150
aI16
aI30
aI17
aI45
aNaNaNaNaNaNaNag6
aa(lp151
S'FRE453'
p152
aI89660
aI16
aI20
aS'M W'
p153
aS' 1:30 PM'
p154
aI13
aI30
aI14
aI45
aNaNaNaNaNaNaNag6
aa(lp155
S'FRE484'
p156
aI71229
aI2
aI2
ag37
aNaNaNaNaNaNaNaNaNaNaNaNag6
aa(lp157
S'FRE492'
p158
aI71247
aI1
aI1
ag37
aNaNaNaNaNaNaNaNaNaNaNaNag6
aa(lp159
S'FRE493'
p160
aI71248
aI2
aI2
ag37
aNaNaNaNaNaNaNaNaNaNaNaNag6
aa(lp161
S'FRE494'
p162
aI82300
aI14
aI15
aS'T Th'
p163
aS' 3:00 PM'
p164
aI15
aI0
aI16
aI15
aNaNaNaNaNaNaNag6
aa(lp165
S'FRE494'
p166
aI91252
aI10
aI10
aS'M W'
p167
aS'12:00 PM'
p168
aI12
aI0
aI13
aI15
aNaNaNaNaNaNaNag6
aa(lp169
S'FRE499'
p170
aI71249
aI3
aI3
ag37
aNaNaNaNaNaNaNaNaNaNaNaNag6
aa(lp171
S'FRE500'
p172
aI91251
aI12
aI15
aS'M W'
p173
aS'12:00 PM'
p174
aI12
aI0
aI13
aI15
aNaNaNaNaNaNaNag6
aa(lp175
S'FRE590'
p176
aI71250
aI3
aI5
ag37
aNaNaNaNaNaNaNaNaNaNaNaNag6
aa(lp177
S'FRE592'
p178
aI71251
aI5
aI5
ag37
aNaNaNaNaNaNaNaNaNaNaNaNag6
aa(lp179
S'FRE593'
p180
aI71252
aI5
aI5
ag37
aNaNaNaNaNaNaNaNaNaNaNaNag6
aa(lp181
S'FRE595'
p182
aI71253
aI5
aI5
ag37
aNaNaNaNaNaNaNaNaNaNaNaNag6
aa(lp183
S'FRE598'
p184
aI82312
aI2
aI5
aS'T Th'
p185
aS' 3:00 PM'
p186
aI15
aI0
aI16
aI15
aNaNaNaNaNaNaNag6
aa(lp187
S'FRE598'
p188
aI77333
aI6
aI7
ag145
aS' 4:30 PM'
p189
aI16
aI30
aI19
aI15
aNaNaNaNaNaNaNag6
aa(lp190
S'FRE598'
p191
aI77334
aI6
aI10
aS'T Th'
p192
aS' 4:30 PM'
p193
aI16
aI30
aI17
aI45
aNaNaNaNaNaNaNag6
aa(lp194
S'FRE598'
p195
aI90241
aI5
aI5
aS'M W'
p196
aS' 1:30 PM'
p197
aI13
aI30
aI14
aI45
aNaNaNaNaNaNaNag6
aa(lp198
S'FRE599'
p199
aI71254
aI5
aI5
ag37
aNaNaNaNaNaNaNaNaNaNaNaNag6
aa.