(lp0
(lp1
S'FSE100'
p2
aI75869
aI29
aI40
aS'M'
p3
aS'10:30 AM'
p4
aI10
aI30
aI11
aI20
aNaNaNaNaNaNaNaS'Reserved'
p5
aa(lp6
S'FSE100'
p7
aI75870
aI29
aI40
aS'W'
p8
aS' 9:00 AM'
p9
aI9
aI0
aI11
aI50
aNaNaNaNaNaNaNaS'Not Reserved'
p10
aa(lp11
S'FSE100'
p12
aI75871
aI25
aI40
ag3
aS' 1:30 PM'
p13
aI13
aI30
aI14
aI20
aNaNaNaNaNaNaNag5
aa(lp14
S'FSE100'
p15
aI75872
aI25
aI40
ag8
aS' 1:30 PM'
p16
aI13
aI30
aI16
aI20
aNaNaNaNaNaNaNag10
aa(lp17
S'FSE100'
p18
aI75947
aI37
aI40
aS'Th'
p19
aS'10:30 AM'
p20
aI10
aI30
aI11
aI20
aNaNaNaNaNaNaNag5
aa(lp21
S'FSE100'
p22
aI75949
aI37
aI40
aS'T'
p23
aS' 9:00 AM'
p24
aI9
aI0
aI11
aI50
aNaNaNaNaNaNaNag10
aa(lp25
S'FSE100'
p26
aI75972
aI35
aI40
ag23
aS' 1:30 PM'
p27
aI13
aI30
aI14
aI20
aNaNaNaNaNaNaNag5
aa(lp28
S'FSE100'
p29
aI75950
aI35
aI40
aS'Th'
p30
aS' 1:30 PM'
p31
aI13
aI30
aI16
aI20
aNaNaNaNaNaNaNag10
aa(lp32
S'FSE100'
p33
aI75973
aI37
aI40
aS'Th'
p34
aS' 1:30 PM'
p35
aI13
aI30
aI14
aI20
aNaNaNaNaNaNaNag5
aa(lp36
S'FSE100'
p37
aI75974
aI37
aI40
ag23
aS' 1:30 PM'
p38
aI13
aI30
aI16
aI20
aNaNaNaNaNaNaNag10
aa(lp39
S'FSE100'
p40
aI85507
aI37
aI40
aS'ONLINE'
p41
aNaNaNaNaNaNaNaNaNaNaNaNag5
aa(lp42
S'FSE100'
p43
aI85508
aI37
aI40
aS'F'
p44
aS' 1:10 PM'
p45
aI13
aI10
aI16
aI0
aNaNaNaNaNaNaNag10
aa(lp46
S'FSE100'
p47
aI75976
aI33
aI40
ag3
aS' 9:00 AM'
p48
aI9
aI0
aI9
aI50
aNaNaNaNaNaNaNag5
aa(lp49
S'FSE100'
p50
aI75977
aI33
aI40
ag8
aS' 9:00 AM'
p51
aI9
aI0
aI11
aI50
aNaNaNaNaNaNaNag10
aa(lp52
S'FSE100'
p53
aI75979
aI32
aI40
ag44
aS' 9:00 AM'
p54
aI9
aI0
aI9
aI50
aNaNaNaNaNaNaNag5
aa(lp55
S'FSE100'
p56
aI75953
aI32
aI40
ag3
aS' 9:00 AM'
p57
aI9
aI0
aI11
aI50
aNaNaNaNaNaNaNag10
aa(lp58
S'FSE100'
p59
aI75980
aI18
aI40
ag23
aS' 9:00 AM'
p60
aI9
aI0
aI9
aI50
aNaNaNaNaNaNaNag5
aa(lp61
S'FSE100'
p62
aI75954
aI18
aI40
aS'Th'
p63
aS' 9:00 AM'
p64
aI9
aI0
aI11
aI50
aNaNaNaNaNaNaNag10
aa(lp65
S'FSE100'
p66
aI75981
aI38
aI40
aS'Th'
p67
aS' 9:00 AM'
p68
aI9
aI0
aI9
aI50
aNaNaNaNaNaNaNag5
aa(lp69
S'FSE100'
p70
aI75955
aI38
aI40
ag23
aS' 9:00 AM'
p71
aI9
aI0
aI11
aI50
aNaNaNaNaNaNaNag10
aa(lp72
S'FSE100'
p73
aI75982
aI34
aI40
ag3
aS' 1:30 PM'
p74
aI13
aI30
aI14
aI20
aNaNaNaNaNaNaNag5
aa(lp75
S'FSE100'
p76
aI75956
aI34
aI40
ag8
aS' 1:30 PM'
p77
aI13
aI30
aI16
aI20
aNaNaNaNaNaNaNag10
aa(lp78
S'FSE100'
p79
aI75984
aI32
aI40
ag44
aS' 1:30 PM'
p80
aI13
aI30
aI14
aI20
aNaNaNaNaNaNaNag5
aa(lp81
S'FSE100'
p82
aI75958
aI32
aI40
ag3
aS' 1:30 PM'
p83
aI13
aI30
aI16
aI20
aNaNaNaNaNaNaNag10
aa(lp84
S'FSE100'
p85
aI75987
aI40
aI40
ag44
aS'10:30 AM'
p86
aI10
aI30
aI11
aI20
aNaNaNaNaNaNaNag5
aa(lp87
S'FSE100'
p88
aI75988
aI40
aI40
ag3
aS' 9:00 AM'
p89
aI9
aI0
aI11
aI50
aNaNaNaNaNaNaNag10
aa(lp90
S'FSE100'
p91
aI75989
aI36
aI40
ag23
aS'10:30 AM'
p92
aI10
aI30
aI11
aI20
aNaNaNaNaNaNaNag5
aa(lp93
S'FSE100'
p94
aI75990
aI36
aI40
aS'Th'
p95
aS' 9:00 AM'
p96
aI9
aI0
aI11
aI50
aNaNaNaNaNaNaNag10
aa(lp97
S'FSE100'
p98
aI75992
aI35
aI40
ag3
aS' 3:00 PM'
p99
aI15
aI0
aI15
aI50
aNaNaNaNaNaNaNag5
aa(lp100
S'FSE100'
p101
aI75996
aI35
aI40
ag8
aS' 1:30 PM'
p102
aI13
aI30
aI16
aI20
aNaNaNaNaNaNaNag10
aa(lp103
S'FSE100'
p104
aI75997
aI37
aI40
ag8
aS' 3:00 PM'
p105
aI15
aI0
aI15
aI50
aNaNaNaNaNaNaNag5
aa(lp106
S'FSE100'
p107
aI75998
aI37
aI40
ag44
aS' 1:30 PM'
p108
aI13
aI30
aI16
aI20
aNaNaNaNaNaNaNag10
aa(lp109
S'FSE100'
p110
aI77077
aI33
aI40
aS'Th'
p111
aS' 1:30 PM'
p112
aI13
aI30
aI14
aI20
aNaNaNaNaNaNaNag5
aa(lp113
S'FSE100'
p114
aI77078
aI33
aI40
ag23
aS' 1:30 PM'
p115
aI13
aI30
aI16
aI20
aNaNaNaNaNaNaNag10
aa(lp116
S'FSE100'
p117
aI76003
aI33
aI40
ag23
aS' 3:00 PM'
p118
aI15
aI0
aI15
aI50
aNaNaNaNaNaNaNag5
aa(lp119
S'FSE100'
p120
aI76004
aI33
aI40
aS'Th'
p121
aS' 1:30 PM'
p122
aI13
aI30
aI16
aI20
aNaNaNaNaNaNaNag10
aa(lp123
S'FSE100'
p124
aI86127
aI40
aI40
aS'Th'
p125
aS' 3:00 PM'
p126
aI15
aI0
aI15
aI50
aNaNaNaNaNaNaNag5
aa(lp127
S'FSE100'
p128
aI86128
aI40
aI40
ag23
aS' 1:30 PM'
p129
aI13
aI30
aI16
aI20
aNaNaNaNaNaNaNag10
aa(lp130
S'FSE100'
p131
aI81478
aI38
aI40
ag23
aS' 9:00 AM'
p132
aI9
aI0
aI9
aI50
aNaNaNaNaNaNaNag5
aa(lp133
S'FSE100'
p134
aI81479
aI38
aI40
aS'Th'
p135
aS' 9:00 AM'
p136
aI9
aI0
aI11
aI50
aNaNaNaNaNaNaNag10
aa(lp137
S'FSE100'
p138
aI81480
aI38
aI40
aS'Th'
p139
aS' 9:00 AM'
p140
aI9
aI0
aI9
aI50
aNaNaNaNaNaNaNag5
aa(lp141
S'FSE100'
p142
aI81481
aI38
aI40
ag23
aS' 9:00 AM'
p143
aI9
aI0
aI11
aI50
aNaNaNaNaNaNaNag10
aa(lp144
S'FSE100'
p145
aI81482
aI40
aI40
ag23
aS'10:30 AM'
p146
aI10
aI30
aI11
aI20
aNaNaNaNaNaNaNag5
aa(lp147
S'FSE100'
p148
aI81483
aI40
aI40
aS'Th'
p149
aS' 9:00 AM'
p150
aI9
aI0
aI11
aI50
aNaNaNaNaNaNaNag10
aa(lp151
S'FSE100'
p152
aI77079
aI40
aI40
ag8
aS' 1:30 PM'
p153
aI13
aI30
aI14
aI30
aNaNaNaNaNaNaNag5
aa(lp154
S'FSE100'
p155
aI77080
aI40
aI40
ag44
aS' 1:30 PM'
p156
aI13
aI30
aI16
aI20
aNaNaNaNaNaNaNag10
aa(lp157
S'FSE100'
p158
aI77084
aI29
aI40
aS'Th'
p159
aS' 1:30 PM'
p160
aI13
aI30
aI14
aI20
aNaNaNaNaNaNaNag5
aa(lp161
S'FSE100'
p162
aI77085
aI29
aI40
ag23
aS' 1:30 PM'
p163
aI13
aI30
aI16
aI20
aNaNaNaNaNaNaNag10
aa(lp164
S'FSE100'
p165
aI77086
aI38
aI40
ag8
aS' 9:00 AM'
p166
aI9
aI0
aI11
aI30
aNaNaNaNaNaNaNag5
aa(lp167
S'FSE100'
p168
aI77091
aI38
aI40
ag44
aS' 9:00 AM'
p169
aI9
aI0
aI11
aI30
aNaNaNaNaNaNaNag10
aa(lp170
S'FSE100'
p171
aI87543
aI39
aI40
ag3
aS' 9:00 AM'
p172
aI9
aI0
aI9
aI50
aNaNaNaNaNaNaNag5
aa(lp173
S'FSE100'
p174
aI87544
aI39
aI40
ag8
aS' 9:00 AM'
p175
aI9
aI0
aI11
aI50
aNaNaNaNaNaNaNag10
aa(lp176
S'FSE100'
p177
aI87549
aI36
aI40
ag3
aS'10:30 AM'
p178
aI10
aI30
aI11
aI20
aNaNaNaNaNaNaNag5
aa(lp179
S'FSE100'
p180
aI87550
aI36
aI40
ag8
aS' 9:00 AM'
p181
aI9
aI0
aI11
aI50
aNaNaNaNaNaNaNag10
aa(lp182
S'FSE100'
p183
aI87553
aI40
aI40
ag44
aS'10:30 AM'
p184
aI10
aI30
aI11
aI20
aNaNaNaNaNaNaNag5
aa(lp185
S'FSE100'
p186
aI87554
aI40
aI40
ag3
aS' 9:00 AM'
p187
aI9
aI0
aI11
aI50
aNaNaNaNaNaNaNag10
aa(lp188
S'FSE100'
p189
aI77092
aI38
aI40
ag23
aS' 4:30 PM'
p190
aI16
aI30
aI17
aI20
aNaNaNaNaNaNaNag5
aa(lp191
S'FSE100'
p192
aI77093
aI38
aI40
aS'Th'
p193
aS' 4:30 PM'
p194
aI16
aI30
aI19
aI20
aNaNaNaNaNaNaNag10
aa(lp195
S'FSE100'
p196
aI78406
aI38
aI43
ag3
aS' 9:00 AM'
p197
aI9
aI0
aI9
aI50
aNaNaNaNaNaNaNag5
aa(lp198
S'FSE100'
p199
aI78407
aI38
aI43
ag8
aS' 9:00 AM'
p200
aI9
aI0
aI11
aI50
aNaNaNaNaNaNaNag5
aa(lp201
S'FSE100'
p202
aI79161
aI38
aI43
ag8
aS' 9:00 AM'
p203
aI9
aI0
aI9
aI50
aNaNaNaNaNaNaNag5
aa(lp204
S'FSE100'
p205
aI79162
aI38
aI43
ag44
aS' 9:00 AM'
p206
aI9
aI0
aI11
aI50
aNaNaNaNaNaNaNag5
aa(lp207
S'FSE100'
p208
aI79163
aI35
aI43
ag44
aS' 9:00 AM'
p209
aI9
aI0
aI9
aI50
aNaNaNaNaNaNaNag5
aa(lp210
S'FSE100'
p211
aI79164
aI35
aI43
ag3
aS' 9:00 AM'
p212
aI9
aI0
aI11
aI50
aNaNaNaNaNaNaNag5
aa(lp213
S'FSE100'
p214
aI79165
aI34
aI43
ag3
aS'12:00 PM'
p215
aI12
aI0
aI12
aI50
aNaNaNaNaNaNaNag5
aa(lp216
S'FSE100'
p217
aI79166
aI34
aI43
ag8
aS'12:05 PM'
p218
aI12
aI5
aI14
aI55
aNaNaNaNaNaNaNag5
aa(lp219
S'FSE100'
p220
aI79167
aI35
aI43
ag8
aS'12:00 PM'
p221
aI12
aI0
aI12
aI50
aNaNaNaNaNaNaNag5
aa(lp222
S'FSE100'
p223
aI79168
aI35
aI43
ag44
aS'12:05 PM'
p224
aI12
aI5
aI14
aI55
aNaNaNaNaNaNaNag5
aa(lp225
S'FSE100'
p226
aI79342
aI43
aI43
ag44
aS'12:00 PM'
p227
aI12
aI0
aI12
aI50
aNaNaNaNaNaNaNag5
aa(lp228
S'FSE100'
p229
aI79343
aI43
aI43
ag3
aS'12:05 PM'
p230
aI12
aI5
aI14
aI55
aNaNaNaNaNaNaNag10
aa(lp231
S'FSE100'
p232
aI80566
aI39
aI43
ag3
aS' 3:00 PM'
p233
aI15
aI0
aI15
aI50
aNaNaNaNaNaNaNag5
aa(lp234
S'FSE100'
p235
aI80567
aI39
aI43
ag8
aS' 3:10 PM'
p236
aI15
aI10
aI18
aI0
aNaNaNaNaNaNaNag10
aa(lp237
S'FSE100'
p238
aI80568
aI41
aI43
ag8
aS' 3:00 PM'
p239
aI15
aI0
aI15
aI50
aNaNaNaNaNaNaNag5
aa(lp240
S'FSE100'
p241
aI80569
aI41
aI43
ag44
aS' 3:10 PM'
p242
aI15
aI10
aI18
aI0
aNaNaNaNaNaNaNag10
aa(lp243
S'FSE100'
p244
aI82015
aI42
aI43
ag44
aS' 3:00 PM'
p245
aI15
aI0
aI15
aI50
aNaNaNaNaNaNaNag5
aa(lp246
S'FSE100'
p247
aI82016
aI42
aI43
ag3
aS' 3:10 PM'
p248
aI15
aI10
aI18
aI0
aNaNaNaNaNaNaNag10
aa(lp249
S'FSE100'
p250
aI82017
aI43
aI43
ag23
aS' 7:30 AM'
p251
aI7
aI30
aI8
aI20
aNaNaNaNaNaNaNag5
aa(lp252
S'FSE100'
p253
aI82018
aI43
aI43
aS'Th'
p254
aS' 7:30 AM'
p255
aI7
aI30
aI10
aI20
aNaNaNaNaNaNaNag10
aa(lp256
S'FSE100'
p257
aI82019
aI43
aI43
aS'Th'
p258
aS' 7:30 AM'
p259
aI7
aI30
aI8
aI20
aNaNaNaNaNaNaNag5
aa(lp260
S'FSE100'
p261
aI82020
aI43
aI43
ag23
aS' 7:30 AM'
p262
aI7
aI30
aI10
aI20
aNaNaNaNaNaNaNag10
aa(lp263
S'FSE100'
p264
aI87558
aI38
aI43
ag23
aS'10:30 AM'
p265
aI10
aI30
aI11
aI20
aNaNaNaNaNaNaNag5
aa(lp266
S'FSE100'
p267
aI87559
aI38
aI43
aS'Th'
p268
aS'10:35 AM'
p269
aI10
aI35
aI13
aI25
aNaNaNaNaNaNaNag5
aa(lp270
S'FSE100'
p271
aI87560
aI37
aI43
aS'Th'
p272
aS'10:30 AM'
p273
aI10
aI30
aI11
aI20
aNaNaNaNaNaNaNag5
aa(lp274
S'FSE100'
p275
aI87561
aI37
aI43
ag23
aS'10:35 AM'
p276
aI10
aI35
aI13
aI25
aNaNaNaNaNaNaNag5
aa(lp277
S'FSE100'
p278
aI87562
aI37
aI43
ag23
aS' 1:30 PM'
p279
aI13
aI30
aI14
aI20
aNaNaNaNaNaNaNag5
aa(lp280
S'FSE100'
p281
aI87563
aI37
aI43
aS'Th'
p282
aS' 1:40 PM'
p283
aI13
aI40
aI16
aI30
aNaNaNaNaNaNaNag5
aa(lp284
S'FSE100'
p285
aI87565
aI42
aI43
aS'Th'
p286
aS' 1:30 PM'
p287
aI13
aI30
aI14
aI20
aNaNaNaNaNaNaNag5
aa(lp288
S'FSE100'
p289
aI87566
aI42
aI43
ag23
aS' 1:40 AM'
p290
aI1
aI40
aI16
aI30
aNaNaNaNaNaNaNag10
aa(lp291
S'FSE100'
p292
aI87573
aI36
aI43
ag23
aS' 4:30 PM'
p293
aI16
aI30
aI17
aI20
aNaNaNaNaNaNaNag5
aa(lp294
S'FSE100'
p295
aI87574
aI36
aI43
aS'Th'
p296
aS' 4:45 PM'
p297
aI16
aI45
aI19
aI35
aNaNaNaNaNaNaNag5
aa(lp298
S'FSE100'
p299
aI87575
aI41
aI43
aS'Th'
p300
aS' 4:30 PM'
p301
aI16
aI30
aI17
aI20
aNaNaNaNaNaNaNag5
aa(lp302
S'FSE100'
p303
aI87576
aI41
aI43
ag23
aS' 4:45 PM'
p304
aI16
aI45
aI19
aI35
aNaNaNaNaNaNaNag10
aa(lp305
S'FSE104'
p306
aI86786
aI29
aI40
ag8
aS' 1:30 PM'
p307
aI13
aI30
aI14
aI20
aNaNaNaNaNaNaNag10
aa(lp308
S'FSE104'
p309
aI86787
aI33
aI40
ag23
aS'12:00 PM'
p310
aI12
aI0
aI12
aI50
aNaNaNaNaNaNaNag10
aa(lp311
S'FSE104'
p312
aI86788
aI32
aI40
ag3
aS' 4:30 PM'
p313
aI16
aI30
aI17
aI20
aNaNaNaNaNaNaNag10
aa(lp314
S'FSE104'
p315
aI86789
aI37
aI40
ag8
aS' 1:30 PM'
p316
aI13
aI30
aI14
aI20
aNaNaNaNaNaNaNag10
aa(lp317
S'FSE150'
p318
aI86245
aI46
aI50
aS'M W'
p319
aS' 3:00 PM'
p320
aI15
aI0
aI16
aI15
aNaNaNaNaNaNaNag10
aa(lp321
S'FSE150'
p322
aI86246
aI49
aI50
aS'T Th'
p323
aS' 3:00 PM'
p324
aI15
aI0
aI16
aI15
aNaNaNaNaNaNaNag10
aa(lp325
S'FSE150'
p326
aI86247
aI38
aI40
ag44
aS' 9:00 AM'
p327
aI9
aI0
aI11
aI50
aNaNaNaNaNaNaNag10
aa(lp328
S'FSE181'
p329
aI79675
aI1
aI1
aS'Th'
p330
aS' 1:30 PM'
p331
aI13
aI30
aI14
aI45
aNaNaNaNaNaNaNag10
aa(lp332
S'FSE194'
p333
aI74338
aI26
aI30
aS'Th'
p334
aS' 4:30 PM'
p335
aI16
aI30
aI18
aI10
aNaNaNaNaNaNaNag10
aa(lp336
S'FSE194'
p337
aI85654
aI40
aI40
ag44
aS' 2:00 PM'
p338
aI14
aI0
aI14
aI50
aNaNaNaNaNaNaNag10
aa(lp339
S'FSE194'
p340
aI79981
aI28
aI30
ag3
aS' 1:30 PM'
p341
aI13
aI30
aI15
aI10
aNaNaNaNaNaNaNag10
aa(lp342
S'FSE194'
p343
aI86445
aI38
aI40
ag44
aS'10:30 AM'
p344
aI10
aI30
aI11
aI20
aNaNaNaNaNaNaNag10
aa(lp345
S'FSE294'
p346
aI76476
aI40
aI40
ag3
aS' 3:00 PM'
p347
aI15
aI0
aI15
aI50
aNaNaNaNaNaNaNag10
aa(lp348
S'FSE294'
p349
aI76644
aI40
aI40
ag8
aS' 3:00 PM'
p350
aI15
aI0
aI15
aI50
aNaNaNaNaNaNaNag10
aa(lp351
S'FSE294'
p352
aI90807
aI8
aI15
aS'M W'
p353
aS' 4:30 PM'
p354
aI16
aI30
aI17
aI45
aNaNaNaNaNaNaNag10
aa(lp355
S'FSE301'
p356
aI74300
aI0
aI55
ag41
aNaNaNaNaNaNaNaNaNaNaNaNag5
aa(lp357
S'FSE301'
p358
aI83761
aI0
aI40
ag8
aS'12:00PM'
p359
aI12
aI0
aI13
aI20
aS''
p360
ag360
aNaNag360
aNaNag5
aa(lp361
S'FSE301'
p362
aI90396
aI21
aI35
ag3
aS'3:00PM'
p363
aI15
aI0
aI16
aI15
ag360
ag360
aNaNag360
aNaNag10
aa(lp364
S'FSE301'
p365
aI90397
aI21
aI35
ag8
aS'3:00PM'
p366
aI15
aI0
aI16
aI15
ag360
ag360
aNaNag360
aNaNag10
aa(lp367
S'FSE301'
p368
aI90806
aI29
aI30
ag3
aS' 6:00 PM'
p369
aI18
aI0
aI20
aI45
aNaNaNaNaNaNaNag10
aa(lp370
S'FSE394'
p371
aI84301
aI22
aI40
ag3
aS'12:00PM'
p372
aI12
aI0
aI12
aI50
ag360
aS'12:00AM'
p373
aNaNaS'12:00AM'
p374
aNaNag5
aa(lp375
S'FSE394'
p376
aI84302
aI35
aI40
ag23
aS'12:00PM'
p377
aI12
aI0
aI12
aI50
ag360
aS'12:00AM'
p378
aNaNaS'12:00AM'
p379
aNaNag5
aa(lp380
S'FSE394'
p381
aI84303
aI35
aI40
ag8
aS'12:00PM'
p382
aI12
aI0
aI12
aI50
ag360
aS'12:00AM'
p383
aNaNaS'12:00AM'
p384
aNaNag5
aa(lp385
S'FSE394'
p386
aI84304
aI36
aI40
aS'Th'
p387
aS'12:00PM'
p388
aI12
aI0
aI12
aI50
ag360
aS'12:00AM'
p389
aNaNaS'12:00AM'
p390
aNaNag5
aa(lp391
S'FSE394'
p392
aI84305
aI38
aI40
ag44
aS'12:00PM'
p393
aI12
aI0
aI12
aI50
ag360
aS'12:00AM'
p394
aNaNaS'12:00AM'
p395
aNaNag5
aa(lp396
S'FSE394'
p397
aI89596
aI36
aI40
ag44
aS'1:00PM'
p398
aI13
aI0
aI13
aI50
ag360
aS'12:00AM'
p399
aNaNaS'12:00AM'
p400
aNaNag5
aa(lp401
S'FSE394'
p402
aI91620
aI158
aI180
ag41
aNaNaNaNaNaNaNaNaNaNaNaNag5
aa(lp403
S'FSE492'
p404
aI90819
aI30
aI30
ag41
aNaNaNaNaNaNaNaNaNaNaNaNag10
aa(lp405
S'FSE494'
p406
aI83641
aI56
aI80
aS'Th'
p407
aS'12:00 PM'
p408
aI12
aI0
aI12
aI50
aNaNaNaNaNaNaNag10
aa(lp409
S'FSE494'
p410
aI83642
aI44
aI80
ag3
aS'12:00 PM'
p411
aI12
aI0
aI12
aI50
aNaNaNaNaNaNaNag10
aa(lp412
S'FSE494'
p413
aI83643
aI60
aI80
ag23
aS' 4:30 PM'
p414
aI16
aI30
aI17
aI20
aNaNaNaNaNaNaNag10
aa(lp415
S'FSE494'
p416
aI78821
aI80
aI80
ag8
aS' 3:00 PM'
p417
aI15
aI0
aI15
aI50
aNaNaNaNaNaNaNag10
aa(lp418
S'FSE494'
p419
aI90808
aI4
aI8
aS'M W'
p420
aS' 4:30 PM'
p421
aI16
aI30
aI17
aI45
aNaNaNaNaNaNaNag10
aa(lp422
S'FSE501'
p423
aI90857
aI30
aI30
ag8
aS' 1:30 PM'
p424
aI13
aI30
aI16
aI30
aNaNaNaNaNaNaNag10
aa(lp425
S'FSE580'
p426
aI84442
aI30
aI30
ag41
aNaNaNaNaNaNaNaNaNaNaNaNag10
aa(lp427
S'FSE580'
p428
aI89654
aI30
aI30
ag41
aNaNaNaNaNaNaNaNaNaNaNaNag10
aa(lp429
S'FSE598'
p430
aI90837
aI10
aI10
aS'Th'
p431
aS' 4:30 PM'
p432
aI16
aI30
aI18
aI10
aNaNaNaNaNaNaNag10
aa(lp433
S'FSE598'
p434
aI90838
aI9
aI10
ag3
aS' 1:30 PM'
p435
aI13
aI30
aI15
aI10
aNaNaNaNaNaNaNag10
aa(lp436
S'FSE598'
p437
aI90810
aI8
aI8
aS'M W'
p438
aS' 4:30 PM'
p439
aI16
aI30
aI17
aI45
aNaNaNaNaNaNaNag10
aa.