(lp0
(lp1
S'GCU102'
p2
aI73141
aI183
aI200
aS'ONLINE'
p3
aNaNaNaNaNaNaNaNaNaNaNaNaS'Not Reserved'
p4
aa(lp5
S'GCU102'
p6
aI89953
aI61
aI72
aS'M W'
p7
aS' 4:30 PM'
p8
aI16
aI30
aI17
aI45
aNaNaNaNaNaNaNag4
aa(lp9
S'GCU102'
p10
aI74172
aI76
aI100
aS'T Th'
p11
aS' 4:30 PM'
p12
aI16
aI30
aI17
aI45
aNaNaNaNaNaNaNag4
aa(lp13
S'GCU113'
p14
aI88848
aI19
aI40
aS'W'
p15
aS'4:30PM'
p16
aI16
aI30
aI19
aI15
aS''
p17
ag17
aNaNag17
aNaNaS'Reserved'
p18
aa(lp19
S'GCU113'
p20
aI77462
aI0
aI50
ag3
aNaNaNaNaNaNaNaNaNaNaNaNag18
aa(lp21
S'GCU113'
p22
aI80233
aI38
aI50
ag3
aNaNaNaNaNaNaNaNaNaNaNaNag18
aa(lp23
S'GCU113'
p24
aI80468
aI30
aI50
ag3
aNaNaNaNaNaNaNaNaNaNaNaNag18
aa(lp25
S'GCU113'
p26
aI80769
aI34
aI50
ag3
aNaNaNaNaNaNaNaNaNaNaNaNag18
aa(lp27
S'GCU113'
p28
aI85692
aI23
aI50
ag3
aNaNaNaNaNaNaNaNaNaNaNaNag18
aa(lp29
S'GCU113'
p30
aI91108
aI50
aI50
ag3
aNaNaNaNaNaNaNaNaNaNaNaNag18
aa(lp31
S'GCU113'
p32
aI91126
aI19
aI40
aS'M'
p33
aS'4:30PM'
p34
aI16
aI30
aI19
aI15
ag17
ag17
aNaNag17
aNaNag18
aa(lp35
S'GCU114'
p36
aI78888
aI0
aI50
ag3
aNaNaNaNaNaNaNaNaNaNaNaNag18
aa(lp37
S'GCU114'
p38
aI80339
aI3
aI50
ag3
aNaNaNaNaNaNaNaNaNaNaNaNag4
aa(lp39
S'GCU114'
p40
aI91433
aI9
aI50
ag3
aNaNaNaNaNaNaNaNaNaNaNaNag18
aa(lp41
S'GCU114'
p42
aI91434
aI44
aI50
ag3
aNaNaNaNaNaNaNaNaNaNaNaNag18
aa(lp43
S'GCU121'
p44
aI75774
aI88
aI132
aS'M W'
p45
aS'12:00 PM'
p46
aI12
aI0
aI13
aI15
aNaNaNaNaNaNaNag4
aa(lp47
S'GCU121'
p48
aI81228
aI26
aI30
aS'M W'
p49
aS'3:00PM'
p50
aI15
aI0
aI16
aI15
ag17
ag17
aNaNag17
aNaNag4
aa(lp51
S'GCU171'
p52
aI79655
aI36
aI69
aS'T Th'
p53
aS' 1:30 PM'
p54
aI13
aI30
aI14
aI45
aNaNaNaNaNaNaNag4
aa(lp55
S'GCU194'
p56
aI82927
aI131
aI132
aS'F'
p57
aS'12:00 PM'
p58
aI12
aI0
aI13
aI15
aNaNaNaNaNaNaNag4
aa(lp59
S'GCU240'
p60
aI91180
aI12
aI12
ag3
aNaNaNaNaNaNaNaNaNaNaNaNag4
aa(lp61
S'GCU241'
p62
aI71255
aI35
aI40
aS'T Th'
p63
aS' 9:00 AM'
p64
aI9
aI0
aI10
aI15
aNaNaNaNaNaNaNag4
aa(lp65
S'GCU322'
p66
aI71256
aI34
aI150
ag3
aNaNaNaNaNaNaNaNaNaNaNaNag4
aa(lp67
S'GCU323'
p68
aI89477
aI83
aI100
ag3
aNaNaNaNaNaNaNaNaNaNaNaNag18
aa(lp69
S'GCU325'
p70
aI78877
aI52
aI100
ag3
aNaNaNaNaNaNaNaNaNaNaNaNag4
aa(lp71
S'GCU328'
p72
aI75653
aI84
aI100
ag3
aNaNaNaNaNaNaNaNaNaNaNaNag18
aa(lp73
S'GCU361'
p74
aI71257
aI15
aI50
aS'T Th'
p75
aS' 1:30 PM'
p76
aI13
aI30
aI14
aI45
aNaNaNaNaNaNaNag4
aa(lp77
S'GCU414'
p78
aI74136
aI19
aI20
ag3
aNaNaNaNaNaNaNaNaNaNaNaNag18
aa(lp79
S'GCU425'
p80
aI90020
aI51
aI55
aS'M W'
p81
aS' 3:00 PM'
p82
aI15
aI0
aI16
aI15
aNaNaNaNaNaNaNag4
aa(lp83
S'GCU433'
p84
aI89993
aI83
aI100
ag3
aNaNaNaNaNaNaNaNaNaNaNaNag18
aa(lp85
S'GCU442'
p86
aI76915
aI3
aI23
aS'Th'
p87
aS'9:00AM'
p88
aI9
aI0
aI10
aI15
aS'T'
p89
aS'9:00AM'
p90
aI9
aI0
aS'10:15AM'
p91
aI10
aI15
ag4
aa(lp92
S'GCU484'
p93
aI71258
aI5
aI5
ag33
aS' 4:30 PM'
p94
aI16
aI30
aI19
aI15
aNaNaNaNaNaNaNag4
aa(lp95
S'GCU492'
p96
aI71259
aI10
aI10
ag3
aNaNaNaNaNaNaNaNaNaNaNaNag4
aa(lp97
S'GCU492'
p98
aI85761
aI1
aI1
ag3
aNaNaNaNaNaNaNaNaNaNaNaNag4
aa(lp99
S'GCU493'
p100
aI71260
aI10
aI10
ag3
aNaNaNaNaNaNaNaNaNaNaNaNag4
aa(lp101
S'GCU493'
p102
aI86052
aI30
aI30
ag3
aNaNaNaNaNaNaNaNaNaNaNaNag4
aa(lp103
S'GCU494'
p104
aI84327
aI7
aI7
aS'T Th'
p105
aS'10:30 AM'
p106
aI10
aI30
aI11
aI45
aNaNaNaNaNaNaNag4
aa(lp107
S'GCU494'
p108
aI76070
aI2
aI3
aS'T Th'
p109
aS' 1:30 PM'
p110
aI13
aI30
aI14
aI45
aNaNaNaNaNaNaNag4
aa(lp111
S'GCU494'
p112
aI89849
aI13
aI20
aS'T Th'
p113
aS'12:00 PM'
p114
aI12
aI0
aI13
aI15
aNaNaNaNaNaNaNag18
aa(lp115
S'GCU496'
p116
aI82261
aI16
aI32
aS'M W'
p117
aS' 1:30 PM'
p118
aI13
aI30
aI14
aI45
aNaNaNaNaNaNaNag4
aa(lp119
S'GCU499'
p120
aI80894
aI30
aI30
ag3
aNaNaNaNaNaNaNaNaNaNaNaNag4
aa(lp121
S'GCU499'
p122
aI85754
aI30
aI30
ag3
aNaNaNaNaNaNaNaNaNaNaNaNag4
aa(lp123
S'GCU529'
p124
aI71261
aI18
aI20
aS'Th'
p125
aS' 3:00 PM'
p126
aI15
aI0
aI17
aI30
aNaNaNaNaNaNaNag4
aa(lp127
S'GCU542'
p128
aI77792
aI23
aI23
ag89
aS'9:00AM'
p129
aI9
aI0
aI10
aI15
aS'Th'
p130
aS'9:00AM'
p131
aI9
aI0
aS'10:15AM'
p132
aI10
aI15
ag4
aa(lp133
S'GCU584'
p134
aI71262
aI5
aI5
ag33
aS' 4:30 PM'
p135
aI16
aI30
aI19
aI15
aNaNaNaNaNaNaNag4
aa(lp136
S'GCU590'
p137
aI71263
aI20
aI20
ag3
aNaNaNaNaNaNaNaNaNaNaNaNag4
aa(lp138
S'GCU591'
p139
aI82283
aI10
aI10
aS'T Th'
p140
aS' 1:30 PM'
p141
aI13
aI30
aI14
aI45
aNaNaNaNaNaNaNag4
aa(lp142
S'GCU592'
p143
aI71264
aI25
aI25
ag3
aNaNaNaNaNaNaNaNaNaNaNaNag4
aa(lp144
S'GCU592'
p145
aI84119
aI30
aI30
ag3
aNaNaNaNaNaNaNaNaNaNaNaNag4
aa(lp146
S'GCU592'
p147
aI85989
aI30
aI30
ag3
aNaNaNaNaNaNaNaNaNaNaNaNag4
aa(lp148
S'GCU592'
p149
aI85996
aI30
aI30
ag3
aNaNaNaNaNaNaNaNaNaNaNaNag4
aa(lp150
S'GCU592'
p151
aI86000
aI30
aI30
ag3
aNaNaNaNaNaNaNaNaNaNaNaNag4
aa(lp152
S'GCU595'
p153
aI71265
aI20
aI20
ag3
aNaNaNaNaNaNaNaNaNaNaNaNag4
aa(lp154
S'GCU598'
p155
aI83378
aI12
aI15
aS'T Th'
p156
aS' 1:30 PM'
p157
aI13
aI30
aI14
aI45
aNaNaNaNaNaNaNag4
aa(lp158
S'GCU598'
p159
aI84330
aI0
aI0
ag3
aNaNaNaNaNaNaNaNaNaNaNaNag18
aa(lp160
S'GCU598'
p161
aI91417
aI0
aI5
aS'T Th'
p162
aS'12:00 PM'
p163
aI12
aI0
aI13
aI15
aNaNaNaNaNaNaNag18
aa(lp164
S'GCU598'
p165
aI73604
aI2
aI2
aS'T Th'
p166
aS' 1:30 PM'
p167
aI13
aI30
aI14
aI45
aNaNaNaNaNaNaNag4
aa(lp168
S'GCU599'
p169
aI71266
aI50
aI50
ag3
aNaNaNaNaNaNaNaNaNaNaNaNag4
aa(lp170
S'GCU790'
p171
aI71267
aI50
aI50
ag3
aNaNaNaNaNaNaNaNaNaNaNaNag4
aa(lp172
S'GCU792'
p173
aI71268
aI50
aI50
ag3
aNaNaNaNaNaNaNaNaNaNaNaNag4
aa(lp174
S'GCU792'
p175
aI86004
aI30
aI30
ag3
aNaNaNaNaNaNaNaNaNaNaNaNag4
aa(lp176
S'GCU792'
p177
aI86013
aI30
aI30
ag3
aNaNaNaNaNaNaNaNaNaNaNaNag4
aa(lp178
S'GCU795'
p179
aI71269
aI48
aI50
ag3
aNaNaNaNaNaNaNaNaNaNaNaNag4
aa(lp180
S'GCU799'
p181
aI71270
aI50
aI50
ag3
aNaNaNaNaNaNaNaNaNaNaNaNag4
aa.