(lp0
(lp1
S'GER101'
p2
aI71273
aI17
aI28
aS'T Th'
p3
aS'12:00PM'
p4
aI12
aI0
aI13
aI15
aS''
p5
ag5
aNaNag5
aNaNaS'Not Reserved'
p6
aa(lp7
S'GER101'
p8
aI71271
aI15
aI28
aS'T Th'
p9
aS'6:00PM'
p10
aI18
aI0
aI19
aI15
ag5
ag5
aNaNag5
aNaNag6
aa(lp11
S'GER101'
p12
aI75781
aI18
aI28
aS'T Th'
p13
aS'9:00AM'
p14
aI9
aI0
aI10
aI15
ag5
ag5
aNaNag5
aNaNag6
aa(lp15
S'GER101'
p16
aI71272
aI22
aI28
aS'M W F'
p17
aS'12:00PM'
p18
aI12
aI0
aI12
aI50
ag5
ag5
aNaNag5
aNaNag6
aa(lp19
S'GER101'
p20
aI81209
aI19
aI28
aS'M T W Th'
p21
aS'10:30 AM'
p22
aI10
aI30
aI11
aI20
aNaNaNaNaNaNaNag6
aa(lp23
S'GER102'
p24
aI71274
aI19
aI28
aS'M T W Th'
p25
aS'10:30 AM'
p26
aI10
aI30
aI11
aI20
aNaNaNaNaNaNaNag6
aa(lp27
S'GER102'
p28
aI71275
aI9
aI28
aS'T Th'
p29
aS'12:00PM'
p30
aI12
aI0
aI13
aI15
ag5
ag5
aNaNag5
aNaNag6
aa(lp31
S'GER102'
p32
aI90276
aI12
aI21
aS'T Th'
p33
aS'9:00AM'
p34
aI9
aI0
aI10
aI15
ag5
ag5
aNaNag5
aNaNag6
aa(lp35
S'GER110'
p36
aI91803
aI27
aI28
aS'M T W Th'
p37
aS'10:30 AM'
p38
aI10
aI30
aI11
aI45
aNaNaNaNaNaNaNag6
aa(lp39
S'GER201'
p40
aI71276
aI23
aI28
aS'M T W Th'
p41
aS'10:30 AM'
p42
aI10
aI30
aI11
aI20
aNaNaNaNaNaNaNag6
aa(lp43
S'GER201'
p44
aI77482
aI14
aI28
aS'T Th'
p45
aS'12:00PM'
p46
aI12
aI0
aI13
aI15
ag5
ag5
aNaNag5
aNaNag6
aa(lp47
S'GER201'
p48
aI90840
aI13
aI18
aS'ONLINE'
p49
aNaNaNaNaNaNaNaNaNaNaNaNaS'Reserved'
p50
aa(lp51
S'GER202'
p52
aI81210
aI21
aI28
aS'T Th'
p53
aS'10:30AM'
p54
aI10
aI30
aI11
aI45
ag5
ag5
aNaNag5
aNaNag6
aa(lp55
S'GER202'
p56
aI71277
aI18
aI28
aS'T Th'
p57
aS'12:00PM'
p58
aI12
aI0
aI13
aI15
ag5
ag5
aNaNag5
aNaNag6
aa(lp59
S'GER310'
p60
aI71279
aI3
aI28
aS'M W'
p61
aS' 9:00 AM'
p62
aI9
aI0
aI10
aI15
aNaNaNaNaNaNaNag6
aa(lp63
S'GER311'
p64
aI71278
aI6
aI28
aS'M W'
p65
aS'10:30 AM'
p66
aI10
aI30
aI11
aI45
aNaNaNaNaNaNaNag6
aa(lp67
S'GER315'
p68
aI77088
aI10
aI40
ag49
aNaNaNaNaNaNaNaNaNaNaNaNag50
aa(lp69
S'GER422'
p70
aI71281
aI23
aI25
aS'T Th'
p71
aS' 1:30 PM'
p72
aI13
aI30
aI14
aI45
aNaNaNaNaNaNaNag6
aa(lp73
S'GER431'
p74
aI90003
aI15
aI25
aS'M W'
p75
aS' 1:30 PM'
p76
aI13
aI30
aI14
aI45
aNaNaNaNaNaNaNag6
aa(lp77
S'GER492'
p78
aI71284
aI1
aI3
ag49
aNaNaNaNaNaNaNaNaNaNaNaNag6
aa(lp79
S'GER493'
p80
aI81216
aI3
aI3
ag49
aNaNaNaNaNaNaNaNaNaNaNaNag6
aa(lp81
S'GER494'
p82
aI81211
aI11
aI14
aS'M W'
p83
aS'10:30 AM'
p84
aI10
aI30
aI11
aI45
aNaNaNaNaNaNaNag6
aa(lp85
S'GER499'
p86
aI71285
aI3
aI3
ag49
aNaNaNaNaNaNaNaNaNaNaNaNag6
aa(lp87
S'GER550'
p88
aI89600
aI5
aI20
ag49
aNaNaNaNaNaNaNaNaNaNaNaNag50
aa(lp89
S'GER590'
p90
aI71286
aI5
aI5
ag49
aNaNaNaNaNaNaNaNaNaNaNaNag6
aa(lp91
S'GER592'
p92
aI71287
aI5
aI5
ag49
aNaNaNaNaNaNaNaNaNaNaNaNag6
aa(lp93
S'GER593'
p94
aI71288
aI10
aI10
ag49
aNaNaNaNaNaNaNaNaNaNaNaNag6
aa(lp95
S'GER595'
p96
aI71289
aI10
aI10
ag49
aNaNaNaNaNaNaNaNaNaNaNaNag6
aa(lp97
S'GER598'
p98
aI81212
aI3
aI5
aS'M W'
p99
aS'10:30 AM'
p100
aI10
aI30
aI11
aI45
aNaNaNaNaNaNaNag6
aa(lp101
S'GER598'
p102
aI89598
aI4
aI5
aS'M W'
p103
aS' 1:30 PM'
p104
aI13
aI30
aI14
aI45
aNaNaNaNaNaNaNag6
aa(lp105
S'GER599'
p106
aI71292
aI10
aI10
ag49
aNaNaNaNaNaNaNaNaNaNaNaNag6
aa.