(lp0
(lp1
S'GIT135'
p2
aI71293
aI62
aI80
aS'M W F'
p3
aS' 9:00 AM'
p4
aI9
aI0
aI9
aI50
aNaNaNaNaNaNaNaS'Not Reserved'
p5
aa(lp6
S'GIT210'
p7
aI78027
aI57
aI70
aS'M W'
p8
aS' 1:30 PM'
p9
aI13
aI30
aI14
aI45
aNaNaNaNaNaNaNag5
aa(lp10
S'GIT211'
p11
aI78453
aI32
aI40
aS'M W F'
p12
aS'10:30 AM'
p13
aI10
aI30
aI11
aI20
aNaNaNaNaNaNaNag5
aa(lp14
S'GIT215'
p15
aI78094
aI27
aI39
aS'T Th'
p16
aS' 9:00 AM'
p17
aI9
aI0
aI10
aI15
aNaNaNaNaNaNaNag5
aa(lp18
S'GIT215'
p19
aI80684
aI22
aI39
aS'T Th'
p20
aS'10:30 AM'
p21
aI10
aI30
aI11
aI45
aNaNaNaNaNaNaNag5
aa(lp22
S'GIT230'
p23
aI78095
aI39
aI60
aS'T Th'
p24
aS' 3:00 PM'
p25
aI15
aI0
aI16
aI15
aNaNaNaNaNaNaNag5
aa(lp26
S'GIT237'
p27
aI71294
aI41
aI80
aS'M W F'
p28
aS'10:30 AM'
p29
aI10
aI30
aI11
aI20
aNaNaNaNaNaNaNag5
aa(lp30
S'GIT295'
p31
aI78451
aI17
aI40
aS'T Th'
p32
aS' 1:30 PM'
p33
aI13
aI30
aI14
aI45
aNaNaNaNaNaNaNag5
aa(lp34
S'GIT303'
p35
aI84341
aI37
aI70
aS'T Th'
p36
aS' 3:00 PM'
p37
aI15
aI0
aI16
aI15
aNaNaNaNaNaNaNag5
aa(lp38
S'GIT314'
p39
aI73588
aI11
aI40
aS'M W F'
p40
aS' 1:30 PM'
p41
aI13
aI30
aI14
aI20
aNaNaNaNaNaNaNag5
aa(lp42
S'GIT315'
p43
aI90208
aI27
aI40
aS'M W'
p44
aS' 4:30 PM'
p45
aI16
aI30
aI17
aI45
aNaNaNaNaNaNaNag5
aa(lp46
S'GIT334'
p47
aI76291
aI3
aI38
aS'T'
p48
aS' 4:30 PM'
p49
aI16
aI30
aI19
aI15
aNaNaNaNaNaNaNag5
aa(lp50
S'GIT335'
p51
aI72941
aI18
aI40
aS'ONLINE'
p52
aNaNaNaNaNaNaNaNaNaNaNaNaS'Reserved'
p53
aa(lp54
S'GIT340'
p55
aI90992
aI28
aI40
aS'T Th'
p56
aS' 1:30 PM'
p57
aI13
aI30
aI14
aI45
aNaNaNaNaNaNaNag5
aa(lp58
S'GIT384'
p59
aI71295
aI4
aI24
aS'T Th'
p60
aS'10:30 AM'
p61
aI10
aI30
aI11
aI45
aNaNaNaNaNaNaNag5
aa(lp62
S'GIT384'
p63
aI84310
aI11
aI24
aS'M W'
p64
aS' 1:30 PM'
p65
aI13
aI30
aI14
aI45
aNaNaNaNaNaNaNag5
aa(lp66
S'GIT394'
p67
aI89995
aI12
aI20
ag52
aNaNaNaNaNaNaNaNaNaNaNaNag53
aa(lp68
S'GIT402'
p69
aI90323
aI3
aI10
ag52
aNaNaNaNaNaNaNaNaNaNaNaNag53
aa(lp70
S'GIT411'
p71
aI77157
aI27
aI40
aS'T Th'
p72
aS' 9:00 AM'
p73
aI9
aI0
aI10
aI15
aNaNaNaNaNaNaNag5
aa(lp74
S'GIT413'
p75
aI78525
aI20
aI50
aS'M W F'
p76
aS' 1:30 PM'
p77
aI13
aI30
aI14
aI20
aNaNaNaNaNaNaNag5
aa(lp78
S'GIT414'
p79
aI80368
aI13
aI30
aS'M W F'
p80
aS' 9:00 AM'
p81
aI9
aI0
aI9
aI50
aNaNaNaNaNaNaNag5
aa(lp82
S'GIT417'
p83
aI78528
aI25
aI40
ag52
aNaNaNaNaNaNaNaNaNaNaNaNag53
aa(lp84
S'GIT418'
p85
aI72772
aI29
aI40
ag52
aNaNaNaNaNaNaNaNaNaNaNaNag5
aa(lp86
S'GIT432'
p87
aI83205
aI24
aI40
ag52
aNaNaNaNaNaNaNaNaNaNaNaNag53
aa(lp88
S'GIT435'
p89
aI78153
aI23
aI30
ag52
aNaNaNaNaNaNaNaNaNaNaNaNag53
aa(lp90
S'GIT437'
p91
aI71296
aI16
aI30
ag52
aNaNaNaNaNaNaNaNaNaNaNaNag53
aa(lp92
S'GIT450'
p93
aI90311
aI8
aI18
aS'W'
p94
aS' 4:30 PM'
p95
aI16
aI30
aI19
aI15
aNaNaNaNaNaNaNag5
aa(lp96
S'GIT480'
p97
aI76463
aI20
aI40
ag52
aNaNaNaNaNaNaNaNaNaNaNaNag53
aa(lp98
S'GIT484'
p99
aI76106
aI10
aI10
ag52
aNaNaNaNaNaNaNaNaNaNaNaNag5
aa(lp100
S'GIT492'
p101
aI78464
aI10
aI10
ag52
aNaNaNaNaNaNaNaNaNaNaNaNag5
aa(lp102
S'GIT493'
p103
aI76073
aI10
aI10
ag52
aNaNaNaNaNaNaNaNaNaNaNaNag5
aa(lp104
S'GIT494'
p105
aI85521
aI9
aI10
ag52
aNaNaNaNaNaNaNaNaNaNaNaNag53
aa(lp106
S'GIT499'
p107
aI76465
aI10
aI10
ag52
aNaNaNaNaNaNaNaNaNaNaNaNag5
aa(lp108
S'GIT500'
p109
aI76107
aI6
aI10
ag52
aNaNaNaNaNaNaNaNaNaNaNaNag53
aa(lp110
S'GIT502'
p111
aI90325
aI9
aI10
ag52
aNaNaNaNaNaNaNaNaNaNaNaNag53
aa(lp112
S'GIT515'
p113
aI91836
aI10
aI10
ag52
aNaNaNaNaNaNaNaNaNaNaNaNag53
aa(lp114
S'GIT515'
p115
aI83202
aI9
aI9
aS'M W F'
p116
aS' 9:00 AM'
p117
aI9
aI0
aI9
aI50
aNaNaNaNaNaNaNag5
aa(lp118
S'GIT519'
p119
aI83204
aI5
aI5
ag52
aNaNaNaNaNaNaNaNaNaNaNaNag53
aa(lp120
S'GIT540'
p121
aI91621
aI17
aI20
ag52
aNaNaNaNaNaNaNaNaNaNaNaNag53
aa(lp122
S'GIT542'
p123
aI84358
aI17
aI20
ag52
aNaNaNaNaNaNaNaNaNaNaNaNag53
aa(lp124
S'GIT573'
p125
aI84018
aI9
aI10
ag52
aNaNaNaNaNaNaNaNaNaNaNaNag53
aa(lp126
S'GIT584'
p127
aI76464
aI10
aI10
ag52
aNaNaNaNaNaNaNaNaNaNaNaNag5
aa(lp128
S'GIT590'
p129
aI78271
aI10
aI10
ag52
aNaNaNaNaNaNaNaNaNaNaNaNag5
aa(lp130
S'GIT592'
p131
aI80417
aI10
aI10
ag52
aNaNaNaNaNaNaNaNaNaNaNaNag5
aa(lp132
S'GIT593'
p133
aI76348
aI14
aI15
ag52
aNaNaNaNaNaNaNaNaNaNaNaNag5
aa(lp134
S'GIT595'
p135
aI76598
aI10
aI10
ag52
aNaNaNaNaNaNaNaNaNaNaNaNag5
aa(lp136
S'GIT598'
p137
aI83206
aI10
aI10
ag52
aNaNaNaNaNaNaNaNaNaNaNaNag53
aa(lp138
S'GIT598'
p139
aI78155
aI8
aI10
ag52
aNaNaNaNaNaNaNaNaNaNaNaNag53
aa(lp140
S'GIT598'
p141
aI83863
aI19
aI20
ag52
aNaNaNaNaNaNaNaNaNaNaNaNag53
aa(lp142
S'GIT598'
p143
aI85523
aI9
aI10
ag52
aNaNaNaNaNaNaNaNaNaNaNaNag53
aa(lp144
S'GIT598'
p145
aI76578
aI2
aI5
ag52
aNaNaNaNaNaNaNaNaNaNaNaNag53
aa(lp146
S'GIT598'
p147
aI90310
aI2
aI6
ag94
aS' 4:30 PM'
p148
aI16
aI30
aI19
aI15
aNaNaNaNaNaNaNag5
aa.