(lp0
(lp1
S'GLG101'
p2
aI76333
aI96
aI200
aS'ONLINE'
p3
aNaNaNaNaNaNaNaNaNaNaNaNaS'Reserved'
p4
aa(lp5
S'GLG101'
p6
aI80762
aI64
aI75
ag3
aNaNaNaNaNaNaNaNaNaNaNaNag4
aa(lp7
S'GLG101'
p8
aI71312
aI69
aI220
aS'M W F'
p9
aS' 1:30 PM'
p10
aI13
aI30
aI14
aI20
aNaNaNaNaNaNaNaS'Not Reserved'
p11
aa(lp12
S'GLG101'
p13
aI71313
aI70
aI220
aS'T Th'
p14
aS' 1:30 PM'
p15
aI13
aI30
aI14
aI45
aNaNaNaNaNaNaNag11
aa(lp16
S'GLG101'
p17
aI84005
aI142
aI220
aS'T Th'
p18
aS' 3:00 PM'
p19
aI15
aI0
aI16
aI15
aNaNaNaNaNaNaNag11
aa(lp20
S'GLG101'
p21
aI73357
aI326
aI400
ag3
aNaNaNaNaNaNaNaNaNaNaNaNag4
aa(lp22
S'GLG102'
p23
aI71298
aI24
aI130
aS'T Th'
p24
aS' 1:30 PM'
p25
aI13
aI30
aI14
aI45
aNaNaNaNaNaNaNag4
aa(lp26
S'GLG103'
p27
aI76376
aI104
aI200
ag3
aNaNaNaNaNaNaNaNaNaNaNaNag4
aa(lp28
S'GLG103'
p29
aI80760
aI45
aI75
ag3
aNaNaNaNaNaNaNaNaNaNaNaNag4
aa(lp30
S'GLG103'
p31
aI73433
aI19
aI30
aS'M'
p32
aS' 9:00 AM'
p33
aI9
aI0
aI10
aI55
aNaNaNaNaNaNaNag4
aa(lp34
S'GLG103'
p35
aI73434
aI9
aI30
ag32
aS' 9:00 AM'
p36
aI9
aI0
aI10
aI55
aNaNaNaNaNaNaNag11
aa(lp37
S'GLG103'
p38
aI73435
aI0
aI30
ag32
aS' 4:30 PM'
p39
aI16
aI30
aI18
aI25
aNaNaNaNaNaNaNag4
aa(lp40
S'GLG103'
p41
aI73436
aI21
aI30
ag32
aS' 4:30 PM'
p42
aI16
aI30
aI18
aI25
aNaNaNaNaNaNaNag11
aa(lp43
S'GLG103'
p44
aI73437
aI19
aI30
aS'T'
p45
aS' 9:00 AM'
p46
aI9
aI0
aI10
aI55
aNaNaNaNaNaNaNag4
aa(lp47
S'GLG103'
p48
aI73439
aI2
aI30
ag45
aS' 4:30 PM'
p49
aI16
aI30
aI18
aI25
aNaNaNaNaNaNaNag11
aa(lp50
S'GLG103'
p51
aI73440
aI13
aI30
ag45
aS' 4:30 PM'
p52
aI16
aI30
aI18
aI25
aNaNaNaNaNaNaNag11
aa(lp53
S'GLG103'
p54
aI73441
aI5
aI30
aS'W'
p55
aS' 9:00 AM'
p56
aI9
aI0
aI10
aI55
aNaNaNaNaNaNaNag11
aa(lp57
S'GLG103'
p58
aI73442
aI16
aI30
ag55
aS' 9:00 AM'
p59
aI9
aI0
aI10
aI55
aNaNaNaNaNaNaNag11
aa(lp60
S'GLG103'
p61
aI73443
aI0
aI30
ag55
aS' 1:30 PM'
p62
aI13
aI30
aI15
aI25
aNaNaNaNaNaNaNag4
aa(lp63
S'GLG103'
p64
aI73444
aI0
aI30
ag55
aS' 4:30 PM'
p65
aI16
aI30
aI18
aI25
aNaNaNaNaNaNaNag4
aa(lp66
S'GLG103'
p67
aI73445
aI24
aI30
ag55
aS' 4:30 PM'
p68
aI16
aI30
aI18
aI25
aNaNaNaNaNaNaNag11
aa(lp69
S'GLG103'
p70
aI73468
aI12
aI30
aS'Th'
p71
aS' 9:00 AM'
p72
aI9
aI0
aI10
aI55
aNaNaNaNaNaNaNag11
aa(lp73
S'GLG103'
p74
aI79368
aI0
aI30
aS'Th'
p75
aS' 1:30 PM'
p76
aI13
aI30
aI15
aI25
aNaNaNaNaNaNaNag4
aa(lp77
S'GLG103'
p78
aI79369
aI9
aI30
aS'Th'
p79
aS' 4:30 PM'
p80
aI16
aI30
aI18
aI25
aNaNaNaNaNaNaNag11
aa(lp81
S'GLG103'
p82
aI79370
aI23
aI30
aS'Th'
p83
aS' 4:30 PM'
p84
aI16
aI30
aI18
aI25
aNaNaNaNaNaNaNag11
aa(lp85
S'GLG103'
p86
aI73358
aI335
aI400
ag3
aNaNaNaNaNaNaNaNaNaNaNaNag4
aa(lp87
S'GLG104'
p88
aI71300
aI6
aI30
ag32
aS' 1:30 PM'
p89
aI13
aI30
aI15
aI30
aNaNaNaNaNaNaNag4
aa(lp90
S'GLG104'
p91
aI71299
aI6
aI30
ag45
aS' 3:00 PM'
p92
aI15
aI0
aI17
aI0
aNaNaNaNaNaNaNag4
aa(lp93
S'GLG104'
p94
aI80764
aI2
aI30
ag55
aS' 1:30 PM'
p95
aI13
aI30
aI15
aI30
aNaNaNaNaNaNaNag4
aa(lp96
S'GLG110'
p97
aI75199
aI26
aI30
aS'M W F'
p98
aS'10:30 AM'
p99
aI10
aI30
aI11
aI20
aNaNaNaNaNaNaNag4
aa(lp100
S'GLG111'
p101
aI77809
aI28
aI30
ag32
aS' 1:30 PM'
p102
aI13
aI30
aI16
aI20
aNaNaNaNaNaNaNag4
aa(lp103
S'GLG301'
p104
aI77751
aI1
aI15
aS'T Th'
p105
aS' 9:00 AM'
p106
aI9
aI0
aI10
aI15
aNaNaNaNaNaNaNag4
aa(lp107
S'GLG310'
p108
aI71301
aI2
aI40
aS'T Th'
p109
aS'10:30 AM'
p110
aI10
aI30
aI11
aI45
aNaNaNaNaNaNaNag11
aa(lp111
S'GLG310'
p112
aI90593
aI1
aI20
ag32
aS' 1:30 PM'
p113
aI13
aI30
aI16
aI20
aNaNaNaNaNaNaNag11
aa(lp114
S'GLG310'
p115
aI90594
aI1
aI20
aS'Th'
p116
aS' 1:30 PM'
p117
aI13
aI30
aI16
aI20
aNaNaNaNaNaNaNag11
aa(lp118
S'GLG325'
p119
aI75600
aI15
aI55
aS'M W'
p120
aS' 4:30 PM'
p121
aI16
aI30
aI17
aI45
aNaNaNaNaNaNaNag11
aa(lp122
S'GLG327'
p123
aI89148
aI36
aI49
aS'T Th'
p124
aS' 9:00 AM'
p125
aI9
aI0
aI10
aI15
aNaNaNaNaNaNaNag4
aa(lp126
S'GLG362'
p127
aI74161
aI11
aI20
aS'M W'
p128
aS'9:00AM'
p129
aI9
aI0
aI10
aI15
ag55
aS'1:15PM'
p130
aI13
aI15
aS'3:15PM'
p131
aI15
aI15
ag11
aa(lp132
S'GLG400'
p133
aI71302
aI102
aI120
ag55
aS' 3:00 PM'
p134
aI15
aI0
aI17
aI0
aNaNaNaNaNaNaNag11
aa(lp135
S'GLG404'
p136
aI74126
aI0
aI20
aS'T Th'
p137
aS' 9:00 AM'
p138
aI9
aI0
aI10
aI15
aNaNaNaNaNaNaNag4
aa(lp139
S'GLG410'
p140
aI90911
aI1
aI5
aS'M W'
p141
aS'12:00 PM'
p142
aI12
aI0
aI13
aI15
aNaNaNaNaNaNaNag11
aa(lp143
S'GLG418'
p144
aI75097
aI10
aI17
aS'T Th'
p145
aS' 9:00 AM'
p146
aI9
aI0
aI10
aI15
aNaNaNaNaNaNaNag11
aa(lp147
S'GLG420'
p148
aI90917
aI15
aI15
aS'M W'
p149
aS'10:30 AM'
p150
aI10
aI30
aI11
aI45
aNaNaNaNaNaNaNag11
aa(lp151
S'GLG424'
p152
aI71303
aI5
aI30
aS'M W'
p153
aS'10:30 AM'
p154
aI10
aI30
aI11
aI20
aNaNaNaNaNaNaNag11
aa(lp155
S'GLG424'
p156
aI90595
aI0
aI15
ag32
aS' 1:30 PM'
p157
aI13
aI30
aI16
aI20
aNaNaNaNaNaNaNag4
aa(lp158
S'GLG424'
p159
aI90596
aI5
aI15
ag45
aS' 1:30 PM'
p160
aI13
aI30
aI16
aI20
aNaNaNaNaNaNaNag11
aa(lp161
S'GLG430'
p162
aI79365
aI0
aI20
aS'T Th'
p163
aS'10:30AM'
p164
aI10
aI30
aI11
aI45
ag45
aS'1:30PM'
p165
aI13
aI30
aS'4:20PM'
p166
aI16
aI20
ag4
aa(lp167
S'GLG441'
p168
aI91368
aI5
aI10
aS'T Th'
p169
aS' 9:00 AM'
p170
aI9
aI0
aI10
aI15
aNaNaNaNaNaNaNag11
aa(lp171
S'GLG490'
p172
aI91367
aI6
aI15
aS'Th'
p173
aS' 4:30 PM'
p174
aI16
aI30
aI18
aI30
aNaNaNaNaNaNaNag11
aa(lp175
S'GLG494'
p176
aI83455
aI5
aI15
aS'M W'
p177
aS' 3:00 PM'
p178
aI15
aI0
aI16
aI15
aNaNaNaNaNaNaNag11
aa(lp179
S'GLG494'
p180
aI91377
aI5
aI5
aS'T Th'
p181
aS'10:30 AM'
p182
aI10
aI30
aI11
aI45
aNaNaNaNaNaNaNag11
aa(lp183
S'GLG494'
p184
aI91394
aI5
aI5
aS'M W'
p185
aS' 9:00 AM'
p186
aI9
aI0
aI10
aI15
aNaNaNaNaNaNaNag11
aa(lp187
S'GLG494'
p188
aI91694
aI15
aI15
aS'T Th'
p189
aS' 3:00 PM'
p190
aI15
aI0
aI16
aI15
aNaNaNaNaNaNaNag11
aa(lp191
S'GLG499'
p192
aI90889
aI0
aI1
ag3
aNaNaNaNaNaNaNaNaNaNaNaNag4
aa(lp193
S'GLG500'
p194
aI71304
aI40
aI40
ag55
aS' 3:00 PM'
p195
aI15
aI0
aI17
aI0
aNaNaNaNaNaNaNag11
aa(lp196
S'GLG591'
p197
aI71305
aI29
aI30
ag45
aS'12:00 PM'
p198
aI12
aI0
aI13
aI0
aNaNaNaNaNaNaNag11
aa(lp199
S'GLG591'
p200
aI83187
aI10
aI10
ag45
aS' 4:30 PM'
p201
aI16
aI30
aI19
aI15
aNaNaNaNaNaNaNag11
aa(lp202
S'GLG592'
p203
aI71306
aI29
aI30
ag3
aNaNaNaNaNaNaNaNaNaNaNaNag11
aa(lp204
S'GLG595'
p205
aI85995
aI1
aI1
ag3
aNaNaNaNaNaNaNaNaNaNaNaNag11
aa(lp206
S'GLG598'
p207
aI75063
aI9
aI10
aS'M W'
p208
aS'9:00AM'
p209
aI9
aI0
aI10
aI15
ag55
aS'1:15PM'
p210
aI13
aI15
aS'3:15PM'
p211
aI15
aI15
ag11
aa(lp212
S'GLG598'
p213
aI74128
aI7
aI10
aS'T Th'
p214
aS' 9:00 AM'
p215
aI9
aI0
aI10
aI15
aNaNaNaNaNaNaNag11
aa(lp216
S'GLG598'
p217
aI71307
aI17
aI17
aS'T Th'
p218
aS' 9:00 AM'
p219
aI9
aI0
aI10
aI15
aNaNaNaNaNaNaNag11
aa(lp220
S'GLG598'
p221
aI83501
aI5
aI5
aS'T Th'
p222
aS'10:30AM'
p223
aI10
aI30
aI11
aI45
ag45
aS'1:30PM'
p224
aI13
aI30
aS'4:20PM'
p225
aI16
aI20
ag11
aa(lp226
S'GLG598'
p227
aI90912
aI14
aI15
aS'M W'
p228
aS'12:00 PM'
p229
aI12
aI0
aI13
aI15
aNaNaNaNaNaNaNag11
aa(lp230
S'GLG598'
p231
aI83456
aI15
aI15
aS'M W'
p232
aS' 3:00 PM'
p233
aI15
aI0
aI16
aI15
aNaNaNaNaNaNaNag11
aa(lp234
S'GLG598'
p235
aI90913
aI3
aI10
aS'T Th'
p236
aS'10:30 AM'
p237
aI10
aI30
aI11
aI45
aNaNaNaNaNaNaNag11
aa(lp238
S'GLG598'
p239
aI90918
aI7
aI10
aS'M W'
p240
aS'10:30 AM'
p241
aI10
aI30
aI11
aI45
aNaNaNaNaNaNaNag11
aa(lp242
S'GLG598'
p243
aI91369
aI3
aI5
aS'T Th'
p244
aS' 9:00 AM'
p245
aI9
aI0
aI10
aI15
aNaNaNaNaNaNaNag11
aa(lp246
S'GLG598'
p247
aI91384
aI15
aI15
aS'Th'
p248
aS' 4:30 PM'
p249
aI16
aI30
aI18
aI30
aNaNaNaNaNaNaNag11
aa(lp250
S'GLG598'
p251
aI91393
aI3
aI10
aS'M W'
p252
aS' 9:00 AM'
p253
aI9
aI0
aI10
aI15
aNaNaNaNaNaNaNag11
aa(lp254
S'GLG598'
p255
aI91699
aI14
aI15
aS'T Th'
p256
aS' 3:00 PM'
p257
aI15
aI0
aI16
aI15
aNaNaNaNaNaNaNag11
aa(lp258
S'GLG599'
p259
aI71308
aI30
aI30
ag3
aNaNaNaNaNaNaNaNaNaNaNaNag11
aa(lp260
S'GLG692'
p261
aI76456
aI7
aI10
ag3
aNaNaNaNaNaNaNaNaNaNaNaNag11
aa(lp262
S'GLG792'
p263
aI71309
aI54
aI60
ag3
aNaNaNaNaNaNaNaNaNaNaNaNag11
aa(lp264
S'GLG795'
p265
aI71310
aI4
aI5
ag3
aNaNaNaNaNaNaNaNaNaNaNaNag11
aa(lp266
S'GLG799'
p267
aI71311
aI23
aI25
ag3
aNaNaNaNaNaNaNaNaNaNaNaNag11
aa.