(lp0
(lp1
S'GPH111'
p2
aI71325
aI179
aI210
aS'M W F'
p3
aS'10:30 AM'
p4
aI10
aI30
aI11
aI20
aNaNaNaNaNaNaNaS'Not Reserved'
p5
aa(lp6
S'GPH111'
p7
aI71326
aI22
aI35
aS'T'
p8
aS'11:50 AM'
p9
aI11
aI50
aI14
aI45
aNaNaNaNaNaNaNag5
aa(lp10
S'GPH111'
p11
aI71327
aI33
aI35
aS'Th'
p12
aS' 8:35 AM'
p13
aI8
aI35
aI11
aI30
aNaNaNaNaNaNaNag5
aa(lp14
S'GPH111'
p15
aI71328
aI29
aI35
aS'Th'
p16
aS'11:50 AM'
p17
aI11
aI50
aI14
aI45
aNaNaNaNaNaNaNag5
aa(lp18
S'GPH111'
p19
aI71329
aI30
aI35
aS'W'
p20
aS' 6:05 PM'
p21
aI18
aI5
aI20
aI55
aNaNaNaNaNaNaNag5
aa(lp22
S'GPH111'
p23
aI73158
aI33
aI35
ag8
aS' 8:35 AM'
p24
aI8
aI35
aI11
aI30
aNaNaNaNaNaNaNag5
aa(lp25
S'GPH111'
p26
aI75969
aI32
aI35
ag20
aS' 7:30 AM'
p27
aI7
aI30
aI10
aI30
aNaNaNaNaNaNaNag5
aa(lp28
S'GPH111'
p29
aI71330
aI121
aI210
aS'M W F'
p30
aS'12:00 PM'
p31
aI12
aI0
aI12
aI50
aNaNaNaNaNaNaNag5
aa(lp32
S'GPH111'
p33
aI71331
aI19
aI35
ag8
aS' 2:45 PM'
p34
aI14
aI45
aI17
aI30
aNaNaNaNaNaNaNaS'Reserved'
p35
aa(lp36
S'GPH111'
p37
aI71332
aI1
aI35
ag20
aS' 2:45 PM'
p38
aI14
aI45
aI17
aI30
aNaNaNaNaNaNaNag5
aa(lp39
S'GPH111'
p40
aI71333
aI17
aI35
aS'Th'
p41
aS' 2:45 PM'
p42
aI14
aI45
aI17
aI30
aNaNaNaNaNaNaNag5
aa(lp43
S'GPH111'
p44
aI75968
aI32
aI35
aS'F'
p45
aS' 4:40 PM'
p46
aI16
aI40
aI19
aI30
aNaNaNaNaNaNaNag5
aa(lp47
S'GPH111'
p48
aI75970
aI29
aI35
ag45
aS' 3:00 PM'
p49
aI15
aI0
aI17
aI45
aNaNaNaNaNaNaNag5
aa(lp50
S'GPH111'
p51
aI80614
aI23
aI35
ag8
aS' 6:05 PM'
p52
aI18
aI5
aI20
aI55
aNaNaNaNaNaNaNag5
aa(lp53
S'GPH111'
p54
aI71314
aI117
aI210
ag8
aS' 6:00 PM'
p55
aI18
aI0
aI20
aI45
aNaNaNaNaNaNaNag5
aa(lp56
S'GPH111'
p57
aI71315
aI17
aI35
aS'M'
p58
aS' 6:00 PM'
p59
aI18
aI0
aI20
aI45
aNaNaNaNaNaNaNag5
aa(lp60
S'GPH111'
p61
aI71316
aI26
aI35
ag58
aS' 6:00 PM'
p62
aI18
aI0
aI20
aI45
aNaNaNaNaNaNaNag5
aa(lp63
S'GPH111'
p64
aI71317
aI26
aI35
ag58
aS' 8:35 AM'
p65
aI8
aI35
aI11
aI30
aNaNaNaNaNaNaNag5
aa(lp66
S'GPH111'
p67
aI71318
aI19
aI35
ag58
aS' 2:45 PM'
p68
aI14
aI45
aI17
aI30
aNaNaNaNaNaNaNag5
aa(lp69
S'GPH111'
p70
aI71319
aI3
aI35
aS'Th'
p71
aS' 6:00 PM'
p72
aI18
aI0
aI20
aI45
aNaNaNaNaNaNaNag5
aa(lp73
S'GPH111'
p74
aI71320
aI26
aI35
aS'Th'
p75
aS' 6:00 PM'
p76
aI18
aI0
aI20
aI45
aNaNaNaNaNaNaNag5
aa(lp77
S'GPH111'
p78
aI71321
aI125
aI210
aS'T Th'
p79
aS' 9:00 AM'
p80
aI9
aI0
aI10
aI15
aNaNaNaNaNaNaNag5
aa(lp81
S'GPH111'
p82
aI71322
aI15
aI35
ag58
aS' 9:00 AM'
p83
aI9
aI0
aI11
aI45
aNaNaNaNaNaNaNag5
aa(lp84
S'GPH111'
p85
aI71323
aI16
aI35
ag58
aS'11:50 AM'
p86
aI11
aI50
aI14
aI45
aNaNaNaNaNaNaNag5
aa(lp87
S'GPH111'
p88
aI71324
aI10
aI35
ag20
aS'11:50 AM'
p89
aI11
aI50
aI14
aI45
aNaNaNaNaNaNaNag5
aa(lp90
S'GPH111'
p91
aI72642
aI20
aI35
ag20
aS' 9:00 AM'
p92
aI9
aI0
aI11
aI45
aNaNaNaNaNaNaNag5
aa(lp93
S'GPH111'
p94
aI72643
aI34
aI35
ag45
aS' 8:35 AM'
p95
aI8
aI35
aI11
aI30
aNaNaNaNaNaNaNag5
aa(lp96
S'GPH111'
p97
aI72644
aI30
aI35
ag45
aS'11:50 AM'
p98
aI11
aI50
aI14
aI45
aNaNaNaNaNaNaNag5
aa(lp99
S'GPH191'
p100
aI71334
aI16
aI19
ag45
aS'12:00 PM'
p101
aI12
aI0
aI12
aI50
aNaNaNaNaNaNaNag5
aa(lp102
S'GPH210'
p103
aI75099
aI113
aI150
aS'ONLINE'
p104
aNaNaNaNaNaNaNaNaNaNaNaNag35
aa(lp105
S'GPH210'
p106
aI75100
aI40
aI64
aS'T Th'
p107
aS'10:30 AM'
p108
aI10
aI30
aI11
aI45
aNaNaNaNaNaNaNag5
aa(lp109
S'GPH211'
p110
aI73835
aI44
aI120
ag104
aNaNaNaNaNaNaNaNaNaNaNaNag5
aa(lp111
S'GPH212'
p112
aI71335
aI28
aI70
aS'M W'
p113
aS' 3:00 PM'
p114
aI15
aI0
aI16
aI15
aNaNaNaNaNaNaNag5
aa(lp115
S'GPH214'
p116
aI71336
aI9
aI35
ag20
aS' 8:15 AM'
p117
aI8
aI15
aI10
aI15
aNaNaNaNaNaNaNag5
aa(lp118
S'GPH214'
p119
aI75347
aI31
aI34
ag45
aS' 8:15 AM'
p120
aI8
aI15
aI10
aI15
aNaNaNaNaNaNaNag5
aa(lp121
S'GPH267'
p122
aI78847
aI4
aI50
ag104
aNaNaNaNaNaNaNaNaNaNaNaNag35
aa(lp123
S'GPH314'
p124
aI85919
aI112
aI145
aS'T Th'
p125
aS' 4:30 PM'
p126
aI16
aI30
aI17
aI45
aNaNaNaNaNaNaNag5
aa(lp127
S'GPH314'
p128
aI80388
aI67
aI100
ag104
aNaNaNaNaNaNaNaNaNaNaNaNag35
aa(lp129
S'GPH381'
p130
aI75762
aI13
aI100
ag104
aNaNaNaNaNaNaNaNaNaNaNaNag5
aa(lp131
S'GPH409'
p132
aI86400
aI10
aI30
aS'T Th'
p133
aS' 1:30 PM'
p134
aI13
aI30
aI16
aI45
aNaNaNaNaNaNaNag5
aa(lp135
S'GPH412'
p136
aI89480
aI22
aI25
aS'M W'
p137
aS' 1:30 PM'
p138
aI13
aI30
aI14
aI45
aNaNaNaNaNaNaNag5
aa(lp139
S'GPH413'
p140
aI78848
aI9
aI15
aS'M W F'
p141
aS' 1:30 PM'
p142
aI13
aI30
aI15
aI20
aNaNaNaNaNaNaNag5
aa(lp143
S'GPH413'
p144
aI78850
aI14
aI15
aS'M W F'
p145
aS' 1:30 PM'
p146
aI13
aI30
aI15
aI20
aNaNaNaNaNaNaNag5
aa(lp147
S'GPH484'
p148
aI71338
aI8
aI10
ag58
aS' 4:30 PM'
p149
aI16
aI30
aI19
aI15
aNaNaNaNaNaNaNag5
aa(lp150
S'GPH491'
p151
aI89952
aI5
aI10
ag20
aS' 6:00 PM'
p152
aI18
aI0
aI20
aI45
aNaNaNaNaNaNaNag5
aa(lp153
S'GPH492'
p154
aI71339
aI10
aI10
ag104
aNaNaNaNaNaNaNaNaNaNaNaNag5
aa(lp155
S'GPH493'
p156
aI71340
aI9
aI10
ag104
aNaNaNaNaNaNaNaNaNaNaNaNag5
aa(lp157
S'GPH494'
p158
aI81550
aI493
aI500
ag104
aNaNaNaNaNaNaNaNaNaNaNaNag35
aa(lp159
S'GPH494'
p160
aI76894
aI5
aI10
ag20
aS' 9:00 AM'
p161
aI9
aI0
aI11
aI45
aNaNaNaNaNaNaNag5
aa(lp162
S'GPH494'
p163
aI82793
aI97
aI100
ag104
aNaNaNaNaNaNaNaNaNaNaNaNag35
aa(lp164
S'GPH494'
p165
aI90739
aI12
aI15
ag8
aS' 3:00 PM'
p166
aI15
aI0
aI15
aI50
aNaNaNaNaNaNaNag5
aa(lp167
S'GPH494'
p168
aI83601
aI5
aI5
ag45
aS' 9:00 AM'
p169
aI9
aI0
aI11
aI45
aNaNaNaNaNaNaNag5
aa(lp170
S'GPH498'
p171
aI75766
aI12
aI12
aS'T Th'
p172
aS'12:00 PM'
p173
aI12
aI0
aI13
aI15
aNaNaNaNaNaNaNag5
aa(lp174
S'GPH498'
p175
aI86402
aI5
aI5
aS'Th'
p176
aS'12:00 PM'
p177
aI12
aI0
aI14
aI45
aNaNaNaNaNaNaNag5
aa(lp178
S'GPH499'
p179
aI85755
aI30
aI30
ag104
aNaNaNaNaNaNaNaNaNaNaNaNag5
aa(lp180
S'GPH511'
p181
aI74815
aI23
aI25
aS'T Th'
p182
aS'10:30 AM'
p183
aI10
aI30
aI11
aI45
aNaNaNaNaNaNaNag5
aa(lp184
S'GPH569'
p185
aI78844
aI17
aI22
ag20
aS' 9:00 AM'
p186
aI9
aI0
aI11
aI45
aNaNaNaNaNaNaNag5
aa(lp187
S'GPH584'
p188
aI71341
aI5
aI5
ag58
aS' 4:30 PM'
p189
aI16
aI30
aI19
aI15
aNaNaNaNaNaNaNag5
aa(lp190
S'GPH590'
p191
aI78232
aI30
aI30
ag104
aNaNaNaNaNaNaNaNaNaNaNaNag5
aa(lp192
S'GPH590'
p193
aI80800
aI30
aI30
ag104
aNaNaNaNaNaNaNaNaNaNaNaNag5
aa(lp194
S'GPH591'
p195
aI82262
aI21
aI25
ag58
aS' 3:00 PM'
p196
aI15
aI0
aI17
aI45
aNaNaNaNaNaNaNag5
aa(lp197
S'GPH591'
p198
aI85509
aI10
aI10
ag58
aS' 4:30 PM'
p199
aI16
aI30
aI19
aI15
aNaNaNaNaNaNaNag5
aa(lp200
S'GPH591'
p201
aI86405
aI10
aI10
aS'Th'
p202
aS'12:00 PM'
p203
aI12
aI0
aI14
aI45
aNaNaNaNaNaNaNag5
aa(lp204
S'GPH591'
p205
aI76496
aI30
aI30
ag45
aS'12:00 PM'
p206
aI12
aI0
aI13
aI0
aNaNaNaNaNaNaNag5
aa(lp207
S'GPH592'
p208
aI78217
aI30
aI30
ag104
aNaNaNaNaNaNaNaNaNaNaNaNag5
aa(lp209
S'GPH592'
p210
aI75384
aI30
aI30
ag104
aNaNaNaNaNaNaNaNaNaNaNaNag5
aa(lp211
S'GPH592'
p212
aI80434
aI1
aI1
ag104
aNaNaNaNaNaNaNaNaNaNaNaNag5
aa(lp213
S'GPH592'
p214
aI80570
aI30
aI30
ag104
aNaNaNaNaNaNaNaNaNaNaNaNag5
aa(lp215
S'GPH592'
p216
aI80843
aI30
aI30
ag104
aNaNaNaNaNaNaNaNaNaNaNaNag5
aa(lp217
S'GPH592'
p218
aI85563
aI1
aI1
ag104
aNaNaNaNaNaNaNaNaNaNaNaNag5
aa(lp219
S'GPH592'
p220
aI91632
aI0
aI1
ag104
aNaNaNaNaNaNaNaNaNaNaNaNag35
aa(lp221
S'GPH595'
p222
aI71342
aI15
aI15
ag104
aNaNaNaNaNaNaNaNaNaNaNaNag5
aa(lp223
S'GPH598'
p224
aI75916
aI12
aI12
aS'T Th'
p225
aS'12:00 PM'
p226
aI12
aI0
aI13
aI15
aNaNaNaNaNaNaNag5
aa(lp227
S'GPH598'
p228
aI81684
aI4
aI4
ag20
aS' 6:00 PM'
p229
aI18
aI0
aI21
aI0
aNaNaNaNaNaNaNag5
aa(lp230
S'GPH598'
p231
aI82229
aI9
aI10
aS'T Th'
p232
aS' 1:30 PM'
p233
aI13
aI30
aI16
aI45
aNaNaNaNaNaNaNag5
aa(lp234
S'GPH598'
p235
aI83563
aI7
aI10
ag45
aS' 9:00 AM'
p236
aI9
aI0
aI11
aI45
aNaNaNaNaNaNaNag5
aa(lp237
S'GPH598'
p238
aI91020
aI6
aI8
aS'M W F'
p239
aS'6:00PM'
p240
aI18
aI0
aI19
aI20
aS'W F'
p241
aS'6:00PM'
p242
aI18
aI0
aS'7:20PM'
p243
aI19
aI20
ag5
aa(lp244
S'GPH693'
p245
aI85776
aI30
aI30
ag104
aNaNaNaNaNaNaNaNaNaNaNaNag5
aa(lp246
S'GPH790'
p247
aI71343
aI30
aI30
ag104
aNaNaNaNaNaNaNaNaNaNaNaNag5
aa(lp248
S'GPH792'
p249
aI77946
aI30
aI30
ag104
aNaNaNaNaNaNaNaNaNaNaNaNag5
aa(lp250
S'GPH792'
p251
aI84089
aI30
aI30
ag104
aNaNaNaNaNaNaNaNaNaNaNaNag5
aa(lp252
S'GPH792'
p253
aI85798
aI1
aI1
ag104
aNaNaNaNaNaNaNaNaNaNaNaNag5
aa(lp254
S'GPH792'
p255
aI85880
aI29
aI30
ag104
aNaNaNaNaNaNaNaNaNaNaNaNag5
aa(lp256
S'GPH792'
p257
aI85944
aI3
aI3
ag104
aNaNaNaNaNaNaNaNaNaNaNaNag5
aa(lp258
S'GPH792'
p259
aI86021
aI30
aI30
ag104
aNaNaNaNaNaNaNaNaNaNaNaNag5
aa(lp260
S'GPH795'
p261
aI78264
aI27
aI30
ag104
aNaNaNaNaNaNaNaNaNaNaNaNag35
aa(lp262
S'GPH799'
p263
aI71344
aI25
aI25
ag104
aNaNaNaNaNaNaNaNaNaNaNaNag5
aa(lp264
S'GPH799'
p265
aI84517
aI30
aI30
ag104
aNaNaNaNaNaNaNaNaNaNaNaNag5
aa(lp266
S'GPH799'
p267
aI84544
aI30
aI30
ag104
aNaNaNaNaNaNaNaNaNaNaNaNag5
aa.