(lp0
(lp1
S'GRD595'
p2
aI73572
aI30
aI30
aS'ONLINE'
p3
aNaNaNaNaNaNaNaNaNaNaNaNaS'Not Reserved'
p4
aa(lp5
S'GRD598'
p6
aI74059
aI37
aI38
aS'F'
p7
aS'12:00PM'
p8
aI12
aI0
aI14
aI0
ag7
aS'12:00PM'
p9
aI12
aI0
aS'2:00PM'
p10
aI14
aI0
ag4
aa(lp11
S'GRD791'
p12
aI71365
aI25
aI25
ag7
aS'9:00AM'
p13
aI9
aI0
aI11
aI0
ag7
aS'9:00AM'
p14
aI9
aI0
aS'11:00AM'
p15
aI11
aI0
ag4
aa(lp16
S'GRD791'
p17
aI71366
aI60
aI60
ag7
aS'10:30AM'
p18
aI10
aI30
aI12
aI30
ag7
aS'10:30AM'
p19
aI10
aI30
aS'12:30PM'
p20
aI12
aI30
ag4
aa.