(lp0
(lp1
S'GRK101'
p2
aI71367
aI20
aI25
aS'M T W Th F'
p3
aS'12:00 PM'
p4
aI12
aI0
aI12
aI50
aNaNaNaNaNaNaNaS'Not Reserved'
p5
aa(lp6
S'GRK140'
p7
aI76260
aI8
aI10
aS'ONLINE'
p8
aNaNaNaNaNaNaNaNaNaNaNaNaS'Reserved'
p9
aa(lp10
S'GRK221'
p11
aI89241
aI14
aI15
aS'T Th'
p12
aS'10:30 AM'
p13
aI10
aI30
aI11
aI45
aNaNaNaNaNaNaNag5
aa(lp14
S'GRK223'
p15
aI78909
aI1
aI15
aS'T Th'
p16
aS' 1:30 PM'
p17
aI13
aI30
aI14
aI45
aNaNaNaNaNaNaNag5
aa(lp18
S'GRK301'
p19
aI71368
aI11
aI15
aS'T Th'
p20
aS' 9:00 AM'
p21
aI9
aI0
aI10
aI15
aNaNaNaNaNaNaNag5
aa(lp22
S'GRK394'
p23
aI89232
aI15
aI15
aS'T Th'
p24
aS' 1:30 PM'
p25
aI13
aI30
aI14
aI45
aNaNaNaNaNaNaNag5
aa(lp26
S'GRK394'
p27
aI90290
aI8
aI10
aS'M W F'
p28
aS' 1:30 PM'
p29
aI13
aI30
aI14
aI20
aNaNaNaNaNaNaNag5
aa(lp30
S'GRK492'
p31
aI91052
aI3
aI3
ag8
aNaNaNaNaNaNaNaNaNaNaNaNag5
aa(lp32
S'GRK493'
p33
aI75183
aI3
aI3
ag8
aNaNaNaNaNaNaNaNaNaNaNaNag5
aa(lp34
S'GRK494'
p35
aI73232
aI5
aI5
ag8
aNaNaNaNaNaNaNaNaNaNaNaNag5
aa(lp36
S'GRK499'
p37
aI71369
aI1
aI1
ag8
aNaNaNaNaNaNaNaNaNaNaNaNag5
aa.