(lp0
(lp1
S'GTD501'
p2
aI74778
aI19
aI20
aS'T'
p3
aS'6:00PM'
p4
aI18
aI0
aI20
aI45
aS''
p5
aS'12:00AM'
p6
aNaNaS'12:00AM'
p7
aNaNaS'Not Reserved'
p8
aa(lp9
S'GTD505'
p10
aI74779
aI18
aI20
ag3
aS'6:00PM'
p11
aI18
aI0
aI20
aI45
ag5
aS'12:00AM'
p12
aNaNaS'12:00AM'
p13
aNaNag8
aa(lp14
S'GTD507'
p15
aI82061
aI18
aI20
aS'ONLINE'
p16
aNaNaNaNaNaNaNaNaNaNaNaNaS'Reserved'
p17
aa(lp18
S'GTD509'
p19
aI83313
aI18
aI20
ag16
aNaNaNaNaNaNaNaNaNaNaNaNag8
aa(lp20
S'GTD510'
p21
aI90855
aI29
aI30
aS'M'
p22
aS' 4:30 PM'
p23
aI16
aI30
aI19
aI15
aNaNaNaNaNaNaNag8
aa(lp24
S'GTD584'
p25
aI80661
aI10
aI10
ag16
aNaNaNaNaNaNaNaNaNaNaNaNag8
aa(lp26
S'GTD590'
p27
aI77346
aI10
aI10
ag16
aNaNaNaNaNaNaNaNaNaNaNaNag8
aa(lp28
S'GTD592'
p29
aI79187
aI10
aI10
ag16
aNaNaNaNaNaNaNaNaNaNaNaNag8
aa(lp30
S'GTD593'
p31
aI77348
aI10
aI10
ag16
aNaNaNaNaNaNaNaNaNaNaNaNag8
aa(lp32
S'GTD595'
p33
aI77349
aI10
aI10
ag16
aNaNaNaNaNaNaNaNaNaNaNaNag17
aa(lp34
S'GTD599'
p35
aI77350
aI10
aI10
ag16
aNaNaNaNaNaNaNaNaNaNaNaNag8
aa.