(lp0
(lp1
S'HCD100'
p2
aI88641
aI25
aI30
aS'T Th'
p3
aS' 9:00 AM'
p4
aI9
aI0
aI10
aI15
aNaNaNaNaNaNaNaS'Not Reserved'
p5
aa(lp6
S'HCD101'
p7
aI84359
aI42
aI50
aS'T Th'
p8
aS'10:30 AM'
p9
aI10
aI30
aI11
aI45
aNaNaNaNaNaNaNag5
aa(lp10
S'HCD300'
p11
aI88646
aI14
aI25
aS'T Th'
p12
aS'10:30 AM'
p13
aI10
aI30
aI11
aI45
aNaNaNaNaNaNaNag5
aa(lp14
S'HCD303'
p15
aI88642
aI16
aI30
aS'T Th'
p16
aS' 1:30 PM'
p17
aI13
aI30
aI14
aI45
aNaNaNaNaNaNaNag5
aa(lp18
S'HCD484'
p19
aI91340
aI5
aI5
aS'ONLINE'
p20
aNaNaNaNaNaNaNaNaNaNaNaNaS'Reserved'
p21
aa(lp22
S'HCD492'
p23
aI85655
aI20
aI20
ag20
aNaNaNaNaNaNaNaNaNaNaNaNag21
aa(lp24
S'HCD493'
p25
aI85656
aI20
aI20
ag20
aNaNaNaNaNaNaNaNaNaNaNaNag21
aa(lp26
S'HCD501'
p27
aI80213
aI59
aI60
aS'M W F'
p28
aS'10:30 AM'
p29
aI10
aI30
aI12
aI45
aNaNaNaNaNaNaNag21
aa(lp30
S'HCD502'
p31
aI83210
aI59
aI60
aS'T Th'
p32
aS' 1:00 PM'
p33
aI13
aI0
aI15
aI45
aNaNaNaNaNaNaNag5
aa(lp34
S'HCD510'
p35
aI90835
aI60
aI60
aS'W F'
p36
aS'10:30 AM'
p37
aI10
aI30
aI12
aI30
aNaNaNaNaNaNaNag5
aa(lp38
S'HCD511'
p39
aI83212
aI59
aI60
aS'T Th'
p40
aS'10:30 AM'
p41
aI10
aI30
aI13
aI15
aNaNaNaNaNaNaNag21
aa(lp42
S'HCD540'
p43
aI83211
aI59
aI60
aS'T Th'
p44
aS'10:00 AM'
p45
aI10
aI0
aI12
aI0
aNaNaNaNaNaNaNag5
aa(lp46
S'HCD592'
p47
aI91036
aI60
aI60
aS'F'
p48
aS' 1:30 PM'
p49
aI13
aI30
aI14
aI30
aNaNaNaNaNaNaNag5
aa(lp50
S'HCD594'
p51
aI80265
aI60
aI60
ag48
aS' 1:30 PM'
p52
aI13
aI30
aI15
aI30
aNaNaNaNaNaNaNag21
aa(lp53
S'HCD594'
p54
aI90841
aI59
aI60
aS'W'
p55
aS' 1:30 PM'
p56
aI13
aI30
aI15
aI30
aNaNaNaNaNaNaNag5
aa(lp57
S'HCD598'
p58
aI82759
aI8
aI8
ag20
aNaNaNaNaNaNaNaNaNaNaNaNag21
aa.