(lp0
(lp1
S'HCR210'
p2
aI71370
aI1
aI45
aS'M'
p3
aS' 4:30 PM'
p4
aI16
aI30
aI19
aI15
aNaNaNaNaNaNaNaS'Not Reserved'
p5
aa(lp6
S'HCR210'
p7
aI71371
aI2
aI45
aS'T'
p8
aS' 4:30 PM'
p9
aI16
aI30
aI19
aI15
aNaNaNaNaNaNaNag5
aa(lp10
S'HCR210'
p11
aI71372
aI2
aI45
aS'W'
p12
aS' 4:30 PM'
p13
aI16
aI30
aI19
aI15
aNaNaNaNaNaNaNag5
aa(lp14
S'HCR210'
p15
aI82050
aI15
aI45
aS'Th'
p16
aS' 4:30 PM'
p17
aI16
aI30
aI19
aI15
aNaNaNaNaNaNaNag5
aa(lp18
S'HCR210'
p19
aI90863
aI13
aI30
aS'Th'
p20
aS' 7:30 AM'
p21
aI7
aI30
aI10
aI15
aNaNaNaNaNaNaNag5
aa(lp22
S'HCR210'
p23
aI91685
aI17
aI30
aS'ONLINE'
p24
aNaNaNaNaNaNaNaNaNaNaNaNag5
aa(lp25
S'HCR210'
p26
aI91695
aI30
aI30
aS'T Th'
p27
aS' 9:00 AM'
p28
aI9
aI0
aI10
aI15
aNaNaNaNaNaNaNag5
aa(lp29
S'HCR220'
p30
aI73321
aI1
aI65
ag24
aNaNaNaNaNaNaNaNaNaNaNaNaS'Reserved'
p31
aa(lp32
S'HCR220'
p33
aI73934
aI36
aI65
ag24
aNaNaNaNaNaNaNaNaNaNaNaNag31
aa(lp34
S'HCR220'
p35
aI75736
aI53
aI65
ag24
aNaNaNaNaNaNaNaNaNaNaNaNag31
aa(lp36
S'HCR220'
p37
aI80820
aI41
aI45
ag24
aNaNaNaNaNaNaNaNaNaNaNaNag31
aa(lp38
S'HCR220'
p39
aI90864
aI1
aI30
ag24
aNaNaNaNaNaNaNaNaNaNaNaNag31
aa(lp40
S'HCR220'
p41
aI91684
aI26
aI30
aS'T Th'
p42
aS' 4:15 PM'
p43
aI16
aI15
aI17
aI45
aNaNaNaNaNaNaNag5
aa(lp44
S'HCR220'
p45
aI91696
aI30
aI30
aS'T Th'
p46
aS'10:30 AM'
p47
aI10
aI30
aI11
aI45
aNaNaNaNaNaNaNag5
aa(lp48
S'HCR230'
p49
aI71373
aI0
aI35
ag24
aNaNaNaNaNaNaNaNaNaNaNaNag31
aa(lp50
S'HCR230'
p51
aI91686
aI21
aI30
ag24
aNaNaNaNaNaNaNaNaNaNaNaNag5
aa(lp52
S'HCR230'
p53
aI74009
aI0
aI35
ag24
aNaNaNaNaNaNaNaNaNaNaNaNag31
aa(lp54
S'HCR230'
p55
aI91687
aI29
aI30
ag24
aNaNaNaNaNaNaNaNaNaNaNaNag5
aa(lp56
S'HCR230'
p57
aI71374
aI19
aI45
ag8
aS'4:30PM'
p58
aI16
aI30
aI19
aI15
aS''
p59
ag59
aNaNag59
aNaNag5
aa(lp60
S'HCR230'
p61
aI77007
aI1
aI45
ag12
aS'4:30PM'
p62
aI16
aI30
aI19
aI15
ag59
ag59
aNaNag59
aNaNag5
aa(lp63
S'HCR230'
p64
aI80821
aI20
aI35
aS'Th'
p65
aS'4:30PM'
p66
aI16
aI30
aI19
aI15
ag59
ag59
aNaNag59
aNaNag5
aa(lp67
S'HCR230'
p68
aI91697
aI27
aI30
aS'T Th'
p69
aS'12:00 PM'
p70
aI12
aI0
aI13
aI15
aNaNaNaNaNaNaNag5
aa(lp71
S'HCR240'
p72
aI71376
aI25
aI50
ag3
aS'3:00PM'
p73
aI15
aI0
aI16
aI50
ag12
aS'3:00PM'
p74
aI15
aI0
aS'4:50PM'
p75
aI16
aI50
ag5
aa(lp76
S'HCR240'
p77
aI71375
aI19
aI50
ag8
aS'8:25AM'
p78
aI8
aI25
aI10
aI15
aS'Th'
p79
aS'8:25AM'
p80
aI8
aI25
aS'10:15AM'
p81
aI10
aI15
ag5
aa(lp82
S'HCR240'
p83
aI88703
aI21
aI50
ag8
aS'3:00PM'
p84
aI15
aI0
aI16
aI45
aS'Th'
p85
aS'3:00PM'
p86
aI15
aI0
aS'4:45PM'
p87
aI16
aI45
ag5
aa(lp88
S'HCR240'
p89
aI91698
aI30
aI30
aS'M W'
p90
aS' 3:00 PM'
p91
aI15
aI0
aI16
aI50
aNaNaNaNaNaNaNag5
aa(lp92
S'HCR330'
p93
aI90862
aI22
aI30
aS'W F'
p94
aS' 7:30 AM'
p95
aI7
aI30
aI8
aI45
aNaNaNaNaNaNaNag5
aa(lp96
S'HCR330'
p97
aI91701
aI24
aI24
aS'M W'
p98
aS' 3:00 PM'
p99
aI15
aI0
aI16
aI15
aNaNaNaNaNaNaNag5
aa(lp100
S'HCR331'
p101
aI90861
aI24
aI30
aS'W F'
p102
aS' 9:00 AM'
p103
aI9
aI0
aI10
aI15
aNaNaNaNaNaNaNag5
aa(lp104
S'HCR331'
p105
aI91700
aI24
aI24
aS'T Th'
p106
aS' 3:00 PM'
p107
aI15
aI0
aI16
aI15
aNaNaNaNaNaNaNag5
aa(lp108
S'HCR340'
p109
aI90859
aI25
aI30
aS'W F'
p110
aS' 7:30 AM'
p111
aI7
aI30
aI8
aI45
aNaNaNaNaNaNaNag5
aa(lp112
S'HCR340'
p113
aI91702
aI24
aI24
aS'T Th'
p114
aS' 1:30 PM'
p115
aI13
aI30
aI14
aI45
aNaNaNaNaNaNaNag5
aa(lp116
S'HCR341'
p117
aI90860
aI25
aI30
aS'W F'
p118
aS' 9:00 AM'
p119
aI9
aI0
aI10
aI15
aNaNaNaNaNaNaNag5
aa(lp120
S'HCR341'
p121
aI91703
aI24
aI24
aS'M W F'
p122
aS' 9:00 AM'
p123
aI9
aI0
aI9
aI50
aNaNaNaNaNaNaNag5
aa(lp124
S'HCR350'
p125
aI80209
aI15
aI20
ag24
aNaNaNaNaNaNaNaNaNaNaNaNag31
aa(lp126
S'HCR394'
p127
aI89531
aI30
aI30
aS'Th'
p128
aS'12:00 PM'
p129
aI12
aI0
aI14
aI45
aNaNaNaNaNaNaNag5
aa(lp130
S'HCR394'
p131
aI89533
aI24
aI24
aS'M W'
p132
aS' 1:30 PM'
p133
aI13
aI30
aI14
aI45
aNaNaNaNaNaNaNag5
aa(lp134
S'HCR406'
p135
aI91321
aI30
aI30
aS'Th'
p136
aS' 1:00 PM'
p137
aI13
aI0
aI16
aI0
aNaNaNaNaNaNaNag5
aa(lp138
S'HCR494'
p139
aI80503
aI26
aI30
ag24
aNaNaNaNaNaNaNaNaNaNaNaNag5
aa(lp140
S'HCR494'
p141
aI89536
aI24
aI24
aS'M W'
p142
aS' 1:30 PM'
p143
aI13
aI30
aI14
aI45
aNaNaNaNaNaNaNag5
aa(lp144
S'HCR545'
p145
aI91033
aI5
aI5
ag24
aNaNaNaNaNaNaNaNaNaNaNaNag31
aa(lp146
S'HCR546'
p147
aI90770
aI5
aI5
ag24
aNaNaNaNaNaNaNaNaNaNaNaNag31
aa(lp148
S'HCR561'
p149
aI73933
aI9
aI10
ag24
aNaNaNaNaNaNaNaNaNaNaNaNag31
aa(lp150
S'HCR561'
p151
aI84743
aI10
aI10
ag24
aNaNaNaNaNaNaNaNaNaNaNaNag31
aa(lp152
S'HCR563'
p153
aI76194
aI28
aI30
ag24
aNaNaNaNaNaNaNaNaNaNaNaNag31
aa(lp154
S'HCR565'
p155
aI75074
aI12
aI12
ag24
aNaNaNaNaNaNaNaNaNaNaNaNag31
aa(lp156
S'HCR570'
p157
aI80219
aI22
aI25
ag24
aNaNaNaNaNaNaNaNaNaNaNaNag31
aa(lp158
S'HCR574'
p159
aI83656
aI4
aI5
ag24
aNaNaNaNaNaNaNaNaNaNaNaNag31
aa(lp160
S'HCR598'
p161
aI75322
aI20
aI20
ag24
aNaNaNaNaNaNaNaNaNaNaNaNag5
aa.