(lp0
(lp1
S'HDA101'
p2
aI79720
aI19
aI19
aS'T'
p3
aS'12:00 PM'
p4
aI12
aI0
aI13
aI15
aNaNaNaNaNaNaNaS'Reserved'
p5
aa(lp6
S'HDA210'
p7
aI79714
aI13
aI40
aS'T Th'
p8
aS' 3:00 PM'
p9
aI15
aI0
aI16
aI15
aNaNaNaNaNaNaNag5
aa(lp10
S'HDA225'
p11
aI90246
aI17
aI32
ag3
aS' 4:30 PM'
p12
aI16
aI30
aI19
aI15
aNaNaNaNaNaNaNaS'Not Reserved'
p13
aa(lp14
S'HDA294'
p15
aI89709
aI6
aI7
aS'M W'
p16
aS'10:30 AM'
p17
aI10
aI30
aI11
aI45
aNaNaNaNaNaNaNag13
aa(lp18
S'HDA484'
p19
aI70668
aI10
aI10
aS'ONLINE'
p20
aNaNaNaNaNaNaNaNaNaNaNaNag13
aa(lp21
S'HDA584'
p22
aI70669
aI10
aI10
ag20
aNaNaNaNaNaNaNaNaNaNaNaNag13
aa.