(lp0
(lp1
S'HEB101'
p2
aI71377
aI21
aI28
aS'T Th'
p3
aS'10:30AM'
p4
aI10
aI30
aI11
aI45
aS''
p5
ag5
aNaNag5
aNaNaS'Not Reserved'
p6
aa(lp7
S'HEB131'
p8
aI79959
aI6
aI10
aS'M W'
p9
aS' 4:30 PM'
p10
aI16
aI30
aI17
aI45
aNaNaNaNaNaNaNag6
aa(lp11
S'HEB201'
p12
aI71378
aI12
aI15
aS'T Th'
p13
aS'12:00PM'
p14
aI12
aI0
aI13
aI15
ag5
ag5
aNaNag5
aNaNag6
aa(lp15
S'HEB231'
p16
aI79960
aI10
aI10
aS'M W'
p17
aS' 3:00 PM'
p18
aI15
aI0
aI16
aI15
aNaNaNaNaNaNaNag6
aa(lp19
S'HEB313'
p20
aI71379
aI13
aI15
aS'T Th'
p21
aS' 1:30 PM'
p22
aI13
aI30
aI14
aI45
aNaNaNaNaNaNaNag6
aa(lp23
S'HEB347'
p24
aI82445
aI19
aI20
aS'ONLINE'
p25
aNaNaNaNaNaNaNaNaNaNaNaNaS'Reserved'
p26
aa(lp27
S'HEB375'
p28
aI90002
aI21
aI30
ag25
aNaNaNaNaNaNaNaNaNaNaNaNag26
aa(lp29
S'HEB394'
p30
aI89420
aI26
aI30
ag25
aNaNaNaNaNaNaNaNaNaNaNaNag26
aa(lp31
S'HEB499'
p32
aI76624
aI3
aI3
ag25
aNaNaNaNaNaNaNaNaNaNaNaNag6
aa.