(lp0
(lp1
S'HED510'
p2
aI81320
aI32
aI35
aS'T'
p3
aS'7:30PM'
p4
aI19
aI30
aI22
aI15
aS''
p5
ag5
aNaNag5
aNaNaS'Reserved'
p6
aa(lp7
S'HED510'
p8
aI78115
aI26
aI35
ag3
aS'4:30PM'
p9
aI16
aI30
aI19
aI15
ag5
ag5
aNaNag5
aNaNag6
aa(lp10
S'HED573'
p11
aI88813
aI13
aI35
ag3
aS'7:30PM'
p12
aI19
aI30
aI22
aI15
ag5
ag5
aNaNag5
aNaNag6
aa(lp13
S'HED573'
p14
aI87456
aI16
aI35
ag3
aS'4:30PM'
p15
aI16
aI30
aI19
aI15
ag5
ag5
aNaNag5
aNaNag6
aa(lp16
S'HED580'
p17
aI81321
aI20
aI30
aS'Th'
p18
aS' 4:30 PM'
p19
aI16
aI30
aI19
aI15
aNaNaNaNaNaNaNag6
aa(lp20
S'HED590'
p21
aI76594
aI6
aI6
aS'ONLINE'
p22
aNaNaNaNaNaNaNaNaNaNaNaNaS'Not Reserved'
p23
aa(lp24
S'HED593'
p25
aI88823
aI14
aI35
ag3
aS'7:30PM'
p26
aI19
aI30
aI22
aI15
ag5
ag5
aNaNag5
aNaNag6
aa(lp27
S'HED593'
p28
aI78055
aI16
aI35
ag3
aS'4:30PM'
p29
aI16
aI30
aI19
aI15
ag5
ag5
aNaNag5
aNaNag6
aa(lp30
S'HED598'
p31
aI90878
aI26
aI35
aS'W'
p32
aS'4:30PM'
p33
aI16
aI30
aI19
aI15
ag5
ag5
aNaNag5
aNaNag6
aa(lp34
S'HED598'
p35
aI81322
aI27
aI35
ag32
aS'4:30PM'
p36
aI16
aI30
aI19
aI15
ag5
ag5
aNaNag5
aNaNag6
aa(lp37
S'HED598'
p38
aI84139
aI32
aI35
ag32
aS'4:30PM'
p39
aI16
aI30
aI19
aI15
ag5
ag5
aNaNag5
aNaNag6
aa(lp40
S'HED620'
p41
aI88820
aI14
aI35
ag32
aS'7:30PM'
p42
aI19
aI30
aI22
aI15
ag5
ag5
aNaNag5
aNaNag6
aa(lp43
S'HED620'
p44
aI75726
aI27
aI35
aS'Th'
p45
aS'4:30PM'
p46
aI16
aI30
aI19
aI15
ag5
ag5
aNaNag5
aNaNag6
aa(lp47
S'HED634'
p48
aI78120
aI29
aI35
aS'Th'
p49
aS'4:30PM'
p50
aI16
aI30
aI19
aI15
ag5
ag5
aNaNag5
aNaNag6
aa(lp51
S'HED644'
p52
aI80264
aI20
aI35
ag3
aS'4:30PM'
p53
aI16
aI30
aI19
aI15
ag5
ag5
aNaNag5
aNaNag6
aa(lp54
S'HED649'
p55
aI80266
aI22
aI35
ag32
aS'4:30PM'
p56
aI16
aI30
aI19
aI15
ag5
ag5
aNaNag5
aNaNag6
aa(lp57
S'HED649'
p58
aI81323
aI32
aI35
ag3
aS'7:30PM'
p59
aI19
aI30
aI22
aI15
ag5
ag5
aNaNag5
aNaNag6
aa(lp60
S'HED689'
p61
aI89194
aI21
aI35
aS'M'
p62
aS' 4:30 PM'
p63
aI16
aI30
aI19
aI15
aNaNaNaNaNaNaNag6
aa(lp64
S'HED689'
p65
aI81324
aI32
aI35
ag32
aS'7:30PM'
p66
aI19
aI30
aI22
aI15
ag5
ag5
aNaNag5
aNaNag6
aa(lp67
S'HED691'
p68
aI75727
aI21
aI35
ag62
aS'4:30PM'
p69
aI16
aI30
aI19
aI15
ag5
ag5
aNaNag5
aNaNag6
aa(lp70
S'HED799'
p71
aI76238
aI30
aI30
ag22
aNaNaNaNaNaNaNaNaNaNaNaNag6
aa.