(lp0
(lp1
S'HHE590'
p2
aI91338
aI10
aI10
aS'ONLINE'
p3
aNaNaNaNaNaNaNaNaNaNaNaNaS'Not Reserved'
p4
aa(lp5
S'HHE598'
p6
aI91339
aI12
aI12
aS'Th'
p7
aS' 4:30 PM'
p8
aI16
aI30
aI19
aI15
aNaNaNaNaNaNaNag4
aa.