(lp0
(lp1
S'HON171'
p2
aI71384
aI0
aI15
aS'T Th'
p3
aS'10:30 AM'
p4
aI10
aI30
aI11
aI45
aNaNaNaNaNaNaNaS'Reserved'
p5
aa(lp6
S'HON171'
p7
aI71385
aI0
aI15
aS'T Th'
p8
aS' 1:30 PM'
p9
aI13
aI30
aI14
aI45
aNaNaNaNaNaNaNag5
aa(lp10
S'HON171'
p11
aI71386
aI0
aI15
aS'T Th'
p12
aS' 3:00 PM'
p13
aI15
aI0
aI16
aI15
aNaNaNaNaNaNaNag5
aa(lp14
S'HON171'
p15
aI71387
aI0
aI15
aS'T Th'
p16
aS' 9:00 AM'
p17
aI9
aI0
aI10
aI15
aNaNaNaNaNaNaNag5
aa(lp18
S'HON171'
p19
aI71388
aI3
aI15
aS'T Th'
p20
aS'10:30 AM'
p21
aI10
aI30
aI11
aI45
aNaNaNaNaNaNaNaS'Not Reserved'
p22
aa(lp23
S'HON171'
p24
aI71389
aI15
aI15
aS'T Th'
p25
aS'10:30 AM'
p26
aI10
aI30
aI11
aI45
aNaNaNaNaNaNaNag22
aa(lp27
S'HON171'
p28
aI71390
aI0
aI15
aS'T Th'
p29
aS' 1:30 PM'
p30
aI13
aI30
aI14
aI45
aNaNaNaNaNaNaNag5
aa(lp31
S'HON171'
p32
aI71391
aI10
aI15
aS'T Th'
p33
aS' 3:00 PM'
p34
aI15
aI0
aI16
aI15
aNaNaNaNaNaNaNag22
aa(lp35
S'HON171'
p36
aI82909
aI1
aI15
aS'W F'
p37
aS' 9:00 AM'
p38
aI9
aI0
aI10
aI15
aNaNaNaNaNaNaNag22
aa(lp39
S'HON171'
p40
aI71392
aI6
aI15
aS'W F'
p41
aS'10:30 AM'
p42
aI10
aI30
aI11
aI45
aNaNaNaNaNaNaNag22
aa(lp43
S'HON171'
p44
aI71393
aI0
aI15
aS'M W'
p45
aS'12:00 PM'
p46
aI12
aI0
aI13
aI15
aNaNaNaNaNaNaNag5
aa(lp47
S'HON171'
p48
aI71394
aI0
aI15
aS'M W'
p49
aS' 1:30 PM'
p50
aI13
aI30
aI14
aI45
aNaNaNaNaNaNaNag5
aa(lp51
S'HON171'
p52
aI82910
aI2
aI15
aS'M W'
p53
aS' 4:30 PM'
p54
aI16
aI30
aI17
aI45
aNaNaNaNaNaNaNag22
aa(lp55
S'HON171'
p56
aI71395
aI10
aI15
aS'T Th'
p57
aS' 7:30 AM'
p58
aI7
aI30
aI8
aI45
aNaNaNaNaNaNaNag22
aa(lp59
S'HON171'
p60
aI71396
aI12
aI15
aS'T Th'
p61
aS' 9:00 AM'
p62
aI9
aI0
aI10
aI15
aNaNaNaNaNaNaNag22
aa(lp63
S'HON171'
p64
aI90195
aI13
aI15
aS'T Th'
p65
aS' 3:00 PM'
p66
aI15
aI0
aI16
aI15
aNaNaNaNaNaNaNag22
aa(lp67
S'HON171'
p68
aI71397
aI14
aI15
aS'T Th'
p69
aS'10:30 AM'
p70
aI10
aI30
aI11
aI45
aNaNaNaNaNaNaNag22
aa(lp71
S'HON171'
p72
aI71398
aI0
aI15
aS'T Th'
p73
aS' 1:30 PM'
p74
aI13
aI30
aI14
aI45
aNaNaNaNaNaNaNag5
aa(lp75
S'HON171'
p76
aI71399
aI0
aI15
aS'T Th'
p77
aS' 3:00 PM'
p78
aI15
aI0
aI16
aI15
aNaNaNaNaNaNaNag5
aa(lp79
S'HON171'
p80
aI71401
aI15
aI15
aS'T Th'
p81
aS'10:30 AM'
p82
aI10
aI30
aI11
aI45
aNaNaNaNaNaNaNag22
aa(lp83
S'HON171'
p84
aI71402
aI13
aI15
aS'T Th'
p85
aS' 1:30 PM'
p86
aI13
aI30
aI14
aI45
aNaNaNaNaNaNaNag22
aa(lp87
S'HON171'
p88
aI71403
aI10
aI15
aS'T Th'
p89
aS' 3:00 PM'
p90
aI15
aI0
aI16
aI15
aNaNaNaNaNaNaNag22
aa(lp91
S'HON171'
p92
aI82911
aI11
aI15
aS'T Th'
p93
aS' 9:00 AM'
p94
aI9
aI0
aI10
aI15
aNaNaNaNaNaNaNag22
aa(lp95
S'HON171'
p96
aI73364
aI15
aI15
aS'T Th'
p97
aS'10:30 AM'
p98
aI10
aI30
aI11
aI45
aNaNaNaNaNaNaNag22
aa(lp99
S'HON171'
p100
aI77397
aI12
aI15
aS'T Th'
p101
aS' 9:00 AM'
p102
aI9
aI0
aI10
aI15
aNaNaNaNaNaNaNag22
aa(lp103
S'HON171'
p104
aI78001
aI15
aI15
aS'T Th'
p105
aS'10:30 AM'
p106
aI10
aI30
aI11
aI45
aNaNaNaNaNaNaNag22
aa(lp107
S'HON171'
p108
aI73956
aI15
aI15
aS'T Th'
p109
aS'10:30 AM'
p110
aI10
aI30
aI11
aI45
aNaNaNaNaNaNaNag22
aa(lp111
S'HON171'
p112
aI73957
aI11
aI15
aS'T Th'
p113
aS' 1:30 PM'
p114
aI13
aI30
aI14
aI45
aNaNaNaNaNaNaNag22
aa(lp115
S'HON171'
p116
aI82912
aI11
aI15
aS'T Th'
p117
aS' 3:00 PM'
p118
aI15
aI0
aI16
aI15
aNaNaNaNaNaNaNag22
aa(lp119
S'HON171'
p120
aI74091
aI14
aI15
aS'T Th'
p121
aS' 9:00 AM'
p122
aI9
aI0
aI10
aI15
aNaNaNaNaNaNaNag22
aa(lp123
S'HON171'
p124
aI74092
aI15
aI15
aS'T Th'
p125
aS'10:30 AM'
p126
aI10
aI30
aI11
aI45
aNaNaNaNaNaNaNag22
aa(lp127
S'HON171'
p128
aI74232
aI15
aI15
aS'T Th'
p129
aS' 1:30 PM'
p130
aI13
aI30
aI14
aI45
aNaNaNaNaNaNaNag22
aa(lp131
S'HON171'
p132
aI74257
aI15
aI15
aS'T Th'
p133
aS'10:30 AM'
p134
aI10
aI30
aI11
aI45
aNaNaNaNaNaNaNag22
aa(lp135
S'HON171'
p136
aI75088
aI15
aI15
aS'T Th'
p137
aS'10:30 AM'
p138
aI10
aI30
aI11
aI45
aNaNaNaNaNaNaNag22
aa(lp139
S'HON171'
p140
aI75089
aI15
aI15
aS'T Th'
p141
aS' 1:30 PM'
p142
aI13
aI30
aI14
aI45
aNaNaNaNaNaNaNag22
aa(lp143
S'HON171'
p144
aI75254
aI14
aI15
aS'T Th'
p145
aS' 3:00 PM'
p146
aI15
aI0
aI16
aI15
aNaNaNaNaNaNaNag22
aa(lp147
S'HON171'
p148
aI75255
aI15
aI15
aS'T Th'
p149
aS' 9:00 AM'
p150
aI9
aI0
aI10
aI15
aNaNaNaNaNaNaNag22
aa(lp151
S'HON171'
p152
aI82913
aI15
aI15
aS'T Th'
p153
aS'10:30 AM'
p154
aI10
aI30
aI11
aI45
aNaNaNaNaNaNaNag22
aa(lp155
S'HON171'
p156
aI75266
aI14
aI15
aS'T Th'
p157
aS' 1:30 PM'
p158
aI13
aI30
aI14
aI45
aNaNaNaNaNaNaNag22
aa(lp159
S'HON171'
p160
aI82914
aI0
aI15
aS'M W'
p161
aS'10:30 AM'
p162
aI10
aI30
aI11
aI45
aNaNaNaNaNaNaNag5
aa(lp163
S'HON171'
p164
aI75941
aI8
aI15
aS'M W'
p165
aS' 1:30 PM'
p166
aI13
aI30
aI14
aI45
aNaNaNaNaNaNaNag22
aa(lp167
S'HON171'
p168
aI77001
aI6
aI15
aS'M W'
p169
aS' 9:00 AM'
p170
aI9
aI0
aI10
aI15
aNaNaNaNaNaNaNag22
aa(lp171
S'HON171'
p172
aI77002
aI8
aI15
aS'M W'
p173
aS'10:30 AM'
p174
aI10
aI30
aI11
aI45
aNaNaNaNaNaNaNag22
aa(lp175
S'HON171'
p176
aI77003
aI2
aI15
aS'M W'
p177
aS' 1:30 PM'
p178
aI13
aI30
aI14
aI45
aNaNaNaNaNaNaNag22
aa(lp179
S'HON171'
p180
aI77004
aI4
aI15
aS'M W'
p181
aS' 3:00 PM'
p182
aI15
aI0
aI16
aI15
aNaNaNaNaNaNaNag22
aa(lp183
S'HON171'
p184
aI82915
aI13
aI15
aS'M W'
p185
aS' 1:30 PM'
p186
aI13
aI30
aI14
aI45
aNaNaNaNaNaNaNag22
aa(lp187
S'HON171'
p188
aI77887
aI14
aI15
aS'M W'
p189
aS' 3:00 PM'
p190
aI15
aI0
aI16
aI15
aNaNaNaNaNaNaNag22
aa(lp191
S'HON171'
p192
aI79691
aI15
aI15
aS'M W'
p193
aS' 4:30 PM'
p194
aI16
aI30
aI17
aI45
aNaNaNaNaNaNaNag22
aa(lp195
S'HON171'
p196
aI79692
aI9
aI15
aS'M W'
p197
aS' 9:00 AM'
p198
aI9
aI0
aI10
aI15
aNaNaNaNaNaNaNag22
aa(lp199
S'HON171'
p200
aI79693
aI10
aI15
aS'M W'
p201
aS'10:30 AM'
p202
aI10
aI30
aI11
aI45
aNaNaNaNaNaNaNag22
aa(lp203
S'HON171'
p204
aI79709
aI13
aI15
aS'M W'
p205
aS' 9:00 AM'
p206
aI9
aI0
aI10
aI15
aNaNaNaNaNaNaNag22
aa(lp207
S'HON171'
p208
aI79710
aI10
aI15
aS'M W'
p209
aS'10:30 AM'
p210
aI10
aI30
aI11
aI45
aNaNaNaNaNaNaNag22
aa(lp211
S'HON171'
p212
aI79711
aI10
aI15
aS'M W'
p213
aS' 1:30 PM'
p214
aI13
aI30
aI14
aI45
aNaNaNaNaNaNaNag22
aa(lp215
S'HON171'
p216
aI79712
aI11
aI15
aS'M W'
p217
aS' 3:00 PM'
p218
aI15
aI0
aI16
aI15
aNaNaNaNaNaNaNag22
aa(lp219
S'HON171'
p220
aI90196
aI15
aI15
aS'M W'
p221
aS' 4:30 PM'
p222
aI16
aI30
aI17
aI45
aNaNaNaNaNaNaNag22
aa(lp223
S'HON171'
p224
aI90197
aI11
aI15
aS'T Th'
p225
aS' 1:30 PM'
p226
aI13
aI30
aI14
aI45
aNaNaNaNaNaNaNag22
aa(lp227
S'HON171'
p228
aI82916
aI9
aI15
aS'M W'
p229
aS' 7:30 AM'
p230
aI7
aI30
aI8
aI45
aNaNaNaNaNaNaNag22
aa(lp231
S'HON171'
p232
aI84584
aI0
aI15
aS'M W'
p233
aS' 9:00 AM'
p234
aI9
aI0
aI10
aI15
aNaNaNaNaNaNaNag5
aa(lp235
S'HON171'
p236
aI84611
aI0
aI15
aS'M W'
p237
aS'10:30 AM'
p238
aI10
aI30
aI11
aI45
aNaNaNaNaNaNaNag5
aa(lp239
S'HON171'
p240
aI90028
aI0
aI15
aS'M W'
p241
aS' 1:30 PM'
p242
aI13
aI30
aI14
aI45
aNaNaNaNaNaNaNag5
aa(lp243
S'HON171'
p244
aI90029
aI14
aI15
aS'M W'
p245
aS' 1:30 PM'
p246
aI13
aI30
aI14
aI45
aNaNaNaNaNaNaNag22
aa(lp247
S'HON171'
p248
aI90030
aI15
aI15
aS'M W'
p249
aS' 9:00 AM'
p250
aI9
aI0
aI10
aI15
aNaNaNaNaNaNaNag22
aa(lp251
S'HON171'
p252
aI90031
aI13
aI15
aS'M W'
p253
aS'12:00 PM'
p254
aI12
aI0
aI13
aI15
aNaNaNaNaNaNaNag22
aa(lp255
S'HON171'
p256
aI90032
aI15
aI15
aS'M W'
p257
aS' 3:00 PM'
p258
aI15
aI0
aI16
aI15
aNaNaNaNaNaNaNag22
aa(lp259
S'HON171'
p260
aI90033
aI15
aI15
aS'M W'
p261
aS'10:30 AM'
p262
aI10
aI30
aI11
aI45
aNaNaNaNaNaNaNag22
aa(lp263
S'HON171'
p264
aI90034
aI13
aI15
aS'M W'
p265
aS'12:00 PM'
p266
aI12
aI0
aI13
aI15
aNaNaNaNaNaNaNag22
aa(lp267
S'HON171'
p268
aI90035
aI14
aI15
aS'M W'
p269
aS' 3:00 PM'
p270
aI15
aI0
aI16
aI15
aNaNaNaNaNaNaNag22
aa(lp271
S'HON171'
p272
aI90036
aI14
aI15
aS'M W'
p273
aS' 4:30 PM'
p274
aI16
aI30
aI17
aI45
aNaNaNaNaNaNaNag22
aa(lp275
S'HON171'
p276
aI90037
aI15
aI15
aS'M W'
p277
aS' 9:00 AM'
p278
aI9
aI0
aI10
aI15
aNaNaNaNaNaNaNag22
aa(lp279
S'HON171'
p280
aI90038
aI15
aI15
aS'M W'
p281
aS'10:30 AM'
p282
aI10
aI30
aI11
aI45
aNaNaNaNaNaNaNag22
aa(lp283
S'HON171'
p284
aI90040
aI15
aI15
aS'M W'
p285
aS' 1:30 PM'
p286
aI13
aI30
aI14
aI45
aNaNaNaNaNaNaNag22
aa(lp287
S'HON171'
p288
aI90041
aI15
aI15
aS'M W'
p289
aS'10:30 AM'
p290
aI10
aI30
aI11
aI45
aNaNaNaNaNaNaNag22
aa(lp291
S'HON171'
p292
aI90042
aI15
aI15
aS'M W'
p293
aS' 1:30 PM'
p294
aI13
aI30
aI14
aI45
aNaNaNaNaNaNaNag22
aa(lp295
S'HON171'
p296
aI90043
aI15
aI15
aS'M W'
p297
aS' 3:00 PM'
p298
aI15
aI0
aI16
aI15
aNaNaNaNaNaNaNag22
aa(lp299
S'HON171'
p300
aI90044
aI14
aI15
aS'T Th'
p301
aS' 9:00 AM'
p302
aI9
aI0
aI10
aI15
aNaNaNaNaNaNaNag22
aa(lp303
S'HON171'
p304
aI90045
aI15
aI15
aS'T Th'
p305
aS'10:30 AM'
p306
aI10
aI30
aI11
aI45
aNaNaNaNaNaNaNag22
aa(lp307
S'HON171'
p308
aI90046
aI12
aI15
aS'W F'
p309
aS' 9:00 AM'
p310
aI9
aI0
aI10
aI15
aNaNaNaNaNaNaNag22
aa(lp311
S'HON171'
p312
aI90047
aI15
aI15
aS'W F'
p313
aS'10:30 AM'
p314
aI10
aI30
aI11
aI45
aNaNaNaNaNaNaNag22
aa(lp315
S'HON171'
p316
aI90048
aI12
aI15
aS'W F'
p317
aS' 1:30 PM'
p318
aI13
aI30
aI14
aI45
aNaNaNaNaNaNaNag22
aa(lp319
S'HON171'
p320
aI90049
aI8
aI15
aS'W F'
p321
aS'10:30 AM'
p322
aI10
aI30
aI11
aI45
aNaNaNaNaNaNaNag22
aa(lp323
S'HON171'
p324
aI90050
aI10
aI15
aS'W F'
p325
aS'12:00 PM'
p326
aI12
aI0
aI13
aI15
aNaNaNaNaNaNaNag22
aa(lp327
S'HON171'
p328
aI90052
aI14
aI15
aS'W F'
p329
aS' 9:00 AM'
p330
aI9
aI0
aI10
aI15
aNaNaNaNaNaNaNag22
aa(lp331
S'HON171'
p332
aI90053
aI15
aI15
aS'W F'
p333
aS'12:00 PM'
p334
aI12
aI0
aI13
aI15
aNaNaNaNaNaNaNag22
aa(lp335
S'HON171'
p336
aI90054
aI12
aI15
aS'W F'
p337
aS' 1:30 PM'
p338
aI13
aI30
aI14
aI45
aNaNaNaNaNaNaNag22
aa(lp339
S'HON171'
p340
aI78066
aI0
aI4
aS'M W'
p341
aS' 1:30 PM'
p342
aI13
aI30
aI14
aI45
aNaNaNaNaNaNaNag5
aa(lp343
S'HON171'
p344
aI73451
aI3
aI4
aS'T Th'
p345
aS' 1:30 PM'
p346
aI13
aI30
aI14
aI45
aNaNaNaNaNaNaNag22
aa(lp347
S'HON171'
p348
aI87184
aI1
aI4
aS'T Th'
p349
aS'10:30 AM'
p350
aI10
aI30
aI11
aI45
aNaNaNaNaNaNaNag22
aa(lp351
S'HON171'
p352
aI73431
aI16
aI21
aS'M W'
p353
aS'12:00 PM'
p354
aI12
aI0
aI13
aI15
aNaNaNaNaNaNaNag22
aa(lp355
S'HON171'
p356
aI77259
aI20
aI21
aS'M W'
p357
aS' 1:30 PM'
p358
aI13
aI30
aI14
aI45
aNaNaNaNaNaNaNag22
aa(lp359
S'HON171'
p360
aI77997
aI21
aI21
aS'M W'
p361
aS' 3:00 PM'
p362
aI15
aI0
aI16
aI15
aNaNaNaNaNaNaNag22
aa(lp363
S'HON171'
p364
aI82768
aI18
aI21
aS'W'
p365
aS' 4:30 PM'
p366
aI16
aI30
aI19
aI15
aNaNaNaNaNaNaNag22
aa(lp367
S'HON171'
p368
aI73524
aI20
aI21
aS'T Th'
p369
aS' 9:00 AM'
p370
aI9
aI0
aI10
aI15
aNaNaNaNaNaNaNag22
aa(lp371
S'HON171'
p372
aI76422
aI21
aI21
aS'T Th'
p373
aS'10:30 AM'
p374
aI10
aI30
aI11
aI45
aNaNaNaNaNaNaNag22
aa(lp375
S'HON171'
p376
aI73955
aI21
aI21
aS'T Th'
p377
aS' 3:00 PM'
p378
aI15
aI0
aI16
aI15
aNaNaNaNaNaNaNag22
aa(lp379
S'HON171'
p380
aI82264
aI21
aI21
aS'T Th'
p381
aS' 4:30 PM'
p382
aI16
aI30
aI17
aI45
aNaNaNaNaNaNaNag22
aa(lp383
S'HON171'
p384
aI75867
aI21
aI21
aS'M W'
p385
aS' 7:30 AM'
p386
aI7
aI30
aI8
aI45
aNaNaNaNaNaNaNag22
aa(lp387
S'HON171'
p388
aI78827
aI21
aI21
aS'M W'
p389
aS' 9:00 AM'
p390
aI9
aI0
aI10
aI15
aNaNaNaNaNaNaNag22
aa(lp391
S'HON171'
p392
aI82265
aI21
aI21
aS'M W'
p393
aS'10:30 AM'
p394
aI10
aI30
aI11
aI45
aNaNaNaNaNaNaNag22
aa(lp395
S'HON171'
p396
aI89364
aI20
aI21
aS'M W'
p397
aS'12:00 PM'
p398
aI12
aI0
aI13
aI15
aNaNaNaNaNaNaNag22
aa(lp399
S'HON171'
p400
aI89365
aI20
aI21
aS'M W'
p401
aS' 1:30 PM'
p402
aI13
aI30
aI14
aI45
aNaNaNaNaNaNaNag22
aa(lp403
S'HON191'
p404
aI81336
aI57
aI64
aS'F'
p405
aS'12:00 PM'
p406
aI12
aI0
aI13
aI15
aNaNaNaNaNaNaNag22
aa(lp407
S'HON194'
p408
aI90652
aI20
aI20
aS'Th'
p409
aS'12:00 PM'
p410
aI12
aI0
aI12
aI50
aNaNaNaNaNaNaNag22
aa(lp411
S'HON194'
p412
aI80016
aI24
aI25
ag365
aS'10:30 AM'
p413
aI10
aI30
aI11
aI20
aNaNaNaNaNaNaNag22
aa(lp414
S'HON194'
p415
aI80792
aI9
aI10
aS'ONLINE'
p416
aNaNaNaNaNaNaNaNaNaNaNaNag22
aa(lp417
S'HON194'
p418
aI83401
aI20
aI20
aS'M'
p419
aS' 3:00 PM'
p420
aI15
aI0
aI15
aI50
aNaNaNaNaNaNaNag22
aa(lp421
S'HON272'
p422
aI74826
aI0
aI19
aS'M W'
p423
aS'10:30 AM'
p424
aI10
aI30
aI11
aI45
aNaNaNaNaNaNaNag5
aa(lp425
S'HON272'
p426
aI74827
aI0
aI19
aS'M W'
p427
aS'12:00 PM'
p428
aI12
aI0
aI13
aI15
aNaNaNaNaNaNaNag5
aa(lp429
S'HON272'
p430
aI77999
aI0
aI19
aS'M W'
p431
aS' 3:00 PM'
p432
aI15
aI0
aI16
aI15
aNaNaNaNaNaNaNag5
aa(lp433
S'HON272'
p434
aI79715
aI0
aI19
aS'W F'
p435
aS' 9:00 AM'
p436
aI9
aI0
aI10
aI15
aNaNaNaNaNaNaNag5
aa(lp437
S'HON272'
p438
aI79716
aI0
aI19
aS'W F'
p439
aS'12:00 PM'
p440
aI12
aI0
aI13
aI15
aNaNaNaNaNaNaNag5
aa(lp441
S'HON294'
p442
aI83166
aI21
aI25
ag405
aS'12:00 PM'
p443
aI12
aI0
aI14
aI45
aNaNaNaNaNaNaNag22
aa(lp444
S'HON294'
p445
aI80791
aI5
aI10
ag416
aNaNaNaNaNaNaNaNaNaNaNaNag22
aa(lp446
S'HON370'
p447
aI84444
aI19
aI25
ag365
aS' 6:00 PM'
p448
aI18
aI0
aI20
aI45
aNaNaNaNaNaNaNag22
aa(lp449
S'HON370'
p450
aI84446
aI13
aI15
aS'T Th'
p451
aS' 1:30 PM'
p452
aI13
aI30
aI14
aI45
aNaNaNaNaNaNaNag22
aa(lp453
S'HON370'
p454
aI84447
aI14
aI15
aS'M W'
p455
aS' 4:30 PM'
p456
aI16
aI30
aI17
aI45
aNaNaNaNaNaNaNag22
aa(lp457
S'HON370'
p458
aI84448
aI13
aI15
aS'M W'
p459
aS'12:00 PM'
p460
aI12
aI0
aI13
aI15
aNaNaNaNaNaNaNag22
aa(lp461
S'HON370'
p462
aI89483
aI25
aI25
ag419
aS' 4:30 PM'
p463
aI16
aI30
aI19
aI15
aNaNaNaNaNaNaNag22
aa(lp464
S'HON370'
p465
aI89367
aI24
aI24
ag419
aS' 3:00 PM'
p466
aI15
aI0
aI17
aI30
aNaNaNaNaNaNaNag22
aa(lp467
S'HON394'
p468
aI77012
aI0
aI29
aS'M W'
p469
aS' 1:30 PM'
p470
aI13
aI30
aI14
aI45
aNaNaNaNaNaNaNag5
aa(lp471
S'HON394'
p472
aI73958
aI0
aI20
aS'T Th'
p473
aS' 3:00 PM'
p474
aI15
aI0
aI16
aI15
aNaNaNaNaNaNaNag5
aa(lp475
S'HON394'
p476
aI90275
aI0
aI25
aS'T Th'
p477
aS'12:00 PM'
p478
aI12
aI0
aI13
aI15
aNaNaNaNaNaNaNag5
aa(lp479
S'HON394'
p480
aI90343
aI0
aI23
aS'T'
p481
aS' 3:00 PM'
p482
aI15
aI0
aI15
aI50
aNaNaNaNaNaNaNag5
aa(lp483
S'HON394'
p484
aI90344
aI15
aI25
ag419
aS'12:00 PM'
p485
aI12
aI0
aI12
aI50
aNaNaNaNaNaNaNag5
aa(lp486
S'HON394'
p487
aI90345
aI15
aI25
ag405
aS'12:00 PM'
p488
aI12
aI0
aI12
aI50
aNaNaNaNaNaNaNag5
aa(lp489
S'HON394'
p490
aI90346
aI2
aI25
ag481
aS' 3:00 PM'
p491
aI15
aI0
aI15
aI50
aNaNaNaNaNaNaNag5
aa(lp492
S'HON394'
p493
aI90466
aI0
aI25
aS'M W'
p494
aS' 1:30 PM'
p495
aI13
aI30
aI14
aI45
aNaNaNaNaNaNaNag5
aa(lp496
S'HON394'
p497
aI90467
aI0
aI25
aS'T Th'
p498
aS' 1:30 PM'
p499
aI13
aI30
aI14
aI45
aNaNaNaNaNaNaNag5
aa(lp500
S'HON394'
p501
aI90468
aI7
aI25
aS'T Th'
p502
aS' 1:30 PM'
p503
aI13
aI30
aI14
aI45
aNaNaNaNaNaNaNag22
aa(lp504
S'HON394'
p505
aI90469
aI0
aI25
aS'W F'
p506
aS' 3:00 PM'
p507
aI15
aI0
aI16
aI15
aNaNaNaNaNaNaNag5
aa(lp508
S'HON394'
p509
aI90569
aI22
aI25
aS'Th'
p510
aS' 4:30 PM'
p511
aI16
aI30
aI19
aI15
aNaNaNaNaNaNaNag22
aa(lp512
S'HON394'
p513
aI90932
aI1
aI20
ag365
aS' 3:00 PM'
p514
aI15
aI0
aI17
aI30
aNaNaNaNaNaNaNag22
aa(lp515
S'HON394'
p516
aI79717
aI0
aI28
aS'T Th'
p517
aS'12:00 PM'
p518
aI12
aI0
aI13
aI15
aNaNaNaNaNaNaNag5
aa(lp519
S'HON394'
p520
aI76046
aI0
aI25
aS'M W'
p521
aS'12:00 PM'
p522
aI12
aI0
aI13
aI15
aNaNaNaNaNaNaNag5
aa(lp523
S'HON394'
p524
aI83106
aI0
aI20
ag419
aS' 3:00 PM'
p525
aI15
aI0
aI18
aI0
aNaNaNaNaNaNaNag5
aa(lp526
S'HON394'
p527
aI80597
aI16
aI16
ag365
aS' 4:30 PM'
p528
aI16
aI30
aI17
aI20
aNaNaNaNaNaNaNag22
aa(lp529
S'HON394'
p530
aI80790
aI37
aI40
ag405
aS'10:30 AM'
p531
aI10
aI30
aI11
aI45
aNaNaNaNaNaNaNag22
aa(lp532
S'HON394'
p533
aI81233
aI19
aI19
ag405
aS' 9:00 AM'
p534
aI9
aI0
aI10
aI15
aNaNaNaNaNaNaNag22
aa(lp535
S'HON394'
p536
aI87185
aI9
aI16
ag405
aS'12:00 PM'
p537
aI12
aI0
aI13
aI15
aNaNaNaNaNaNaNag22
aa(lp538
S'HON394'
p539
aI90242
aI7
aI19
ag405
aS'10:30 AM'
p540
aI10
aI30
aI11
aI45
aNaNaNaNaNaNaNag22
aa(lp541
S'HON394'
p542
aI90280
aI0
aI10
aS'T Th'
p543
aS'12:00 PM'
p544
aI12
aI0
aI13
aI15
aNaNaNaNaNaNaNag5
aa(lp545
S'HON394'
p546
aI90292
aI7
aI10
ag365
aS' 4:30 PM'
p547
aI16
aI30
aI19
aI15
aNaNaNaNaNaNaNag22
aa(lp548
S'HON394'
p549
aI90775
aI4
aI20
ag365
aS'1:00PM'
p550
aI13
aI0
aI15
aI0
ag365
aS'1:00PM'
p551
aI13
aI0
aS'3:00PM'
p552
aI15
aI0
ag22
aa(lp553
S'HON394'
p554
aI90582
aI9
aI24
ag365
aS' 4:30 PM'
p555
aI16
aI30
aI18
aI10
aNaNaNaNaNaNaNag22
aa(lp556
S'HON394'
p557
aI90583
aI17
aI24
ag365
aS' 3:00 PM'
p558
aI15
aI0
aI16
aI40
aNaNaNaNaNaNaNag22
aa(lp559
S'HON394'
p560
aI91071
aI12
aI20
ag365
aS' 4:30 PM'
p561
aI16
aI30
aI17
aI45
aNaNaNaNaNaNaNag22
aa(lp562
S'HON394'
p563
aI90300
aI4
aI10
ag405
aS'12:00PM'
p564
aI12
aI0
aI13
aI15
aS''
p565
aS'12:00AM'
p566
aNaNaS'12:00AM'
p567
aNaNag22
aa(lp568
S'HON394'
p569
aI90581
aI1
aI24
ag481
aS' 4:30 PM'
p570
aI16
aI30
aI17
aI20
aNaNaNaNaNaNaNag22
aa(lp571
S'HON394'
p572
aI84369
aI20
aI24
aS'M W'
p573
aS' 6:00 PM'
p574
aI18
aI0
aI18
aI50
aNaNaNaNaNaNaNag22
aa(lp575
S'HON447'
p576
aI90096
aI8
aI10
ag481
aS'6:00PM'
p577
aI18
aI0
aI21
aI0
ag565
ag565
aNaNag565
aNaNag22
aa(lp578
S'HON484'
p579
aI71380
aI25
aI25
ag365
aS'5:00PM'
p580
aI17
aI0
aI19
aI50
ag365
aS'5:00PM'
p581
aI17
aI0
aS'7:50PM'
p582
aI19
aI50
ag22
aa(lp583
S'HON484'
p584
aI72951
aI15
aI15
ag416
aNaNaNaNaNaNaNaNaNaNaNaNag22
aa(lp585
S'HON484'
p586
aI80757
aI25
aI25
ag416
aNaNaNaNaNaNaNaNaNaNaNaNag22
aa(lp587
S'HON492'
p588
aI71381
aI25
aI25
ag416
aNaNaNaNaNaNaNaNaNaNaNaNag22
aa(lp589
S'HON492'
p590
aI74335
aI4
aI6
ag416
aNaNaNaNaNaNaNaNaNaNaNaNag22
aa(lp591
S'HON492'
p592
aI80765
aI24
aI25
ag416
aNaNaNaNaNaNaNaNaNaNaNaNag22
aa(lp593
S'HON492'
p594
aI78831
aI25
aI25
ag416
aNaNaNaNaNaNaNaNaNaNaNaNag22
aa(lp595
S'HON493'
p596
aI71382
aI23
aI25
ag416
aNaNaNaNaNaNaNaNaNaNaNaNag22
aa(lp597
S'HON493'
p598
aI74336
aI5
aI5
ag416
aNaNaNaNaNaNaNaNaNaNaNaNag22
aa(lp599
S'HON493'
p600
aI80766
aI24
aI25
ag416
aNaNaNaNaNaNaNaNaNaNaNaNag22
aa(lp601
S'HON493'
p602
aI78832
aI16
aI25
ag416
aNaNaNaNaNaNaNaNaNaNaNaNag22
aa(lp603
S'HON494'
p604
aI90570
aI2
aI15
ag481
aS' 3:00 PM'
p605
aI15
aI0
aI17
aI45
aNaNaNaNaNaNaNag22
aa(lp606
S'HON494'
p607
aI83494
aI10
aI20
aS'T Th'
p608
aS' 3:00 PM'
p609
aI15
aI0
aI16
aI15
aNaNaNaNaNaNaNag22
aa(lp610
S'HON494'
p611
aI83698
aI0
aI25
ag419
aS' 4:30 PM'
p612
aI16
aI30
aI19
aI15
aNaNaNaNaNaNaNag5
aa(lp613
S'HON494'
p614
aI91532
aI2
aI5
aS'T Th'
p615
aS' 3:30 PM'
p616
aI15
aI30
aI16
aI55
aNaNaNaNaNaNaNag22
aa(lp617
S'HON494'
p618
aI91533
aI4
aI4
aS'T Th'
p619
aS' 8:30 AM'
p620
aI8
aI30
aI9
aI55
aNaNaNaNaNaNaNag22
aa(lp621
S'HON494'
p622
aI91535
aI0
aI5
aS'Th'
p623
aS' 5:30 PM'
p624
aI17
aI30
aI19
aI25
aNaNaNaNaNaNaNag5
aa(lp625
S'HON494'
p626
aI91537
aI5
aI5
aS'M W'
p627
aS' 1:30 PM'
p628
aI13
aI30
aI14
aI55
aNaNaNaNaNaNaNag22
aa(lp629
S'HON494'
p630
aI91538
aI8
aI10
ag419
aS' 6:00 PM'
p631
aI18
aI0
aI19
aI55
aNaNaNaNaNaNaNag22
aa(lp632
S'HON494'
p633
aI91539
aI2
aI4
aS'M W'
p634
aS'10:00 AM'
p635
aI10
aI0
aI11
aI25
aNaNaNaNaNaNaNag22
aa(lp636
S'HON494'
p637
aI91540
aI3
aI5
ag481
aS' 3:30 PM'
p638
aI15
aI30
aI17
aI25
aNaNaNaNaNaNaNag22
aa(lp639
S'HON494'
p640
aI91541
aI1
aI8
aS'T Th'
p641
aS' 1:30 PM'
p642
aI13
aI30
aI14
aI55
aNaNaNaNaNaNaNag22
aa(lp643
S'HON494'
p644
aI91542
aI4
aI5
ag419
aS'10:00 AM'
p645
aI10
aI0
aI11
aI55
aNaNaNaNaNaNaNag22
aa(lp646
S'HON494'
p647
aI91543
aI2
aI5
aS'T Th'
p648
aS'10:30 AM'
p649
aI10
aI30
aI11
aI55
aNaNaNaNaNaNaNag22
aa(lp650
S'HON494'
p651
aI80489
aI1
aI10
ag405
aS' 2:15 PM'
p652
aI14
aI15
aI17
aI5
aNaNaNaNaNaNaNag22
aa(lp653
S'HON494'
p654
aI84398
aI15
aI20
ag365
aS'12:00 PM'
p655
aI12
aI0
aI12
aI50
aNaNaNaNaNaNaNag22
aa(lp656
S'HON494'
p657
aI91544
aI8
aI10
ag405
aS' 8:30 AM'
p658
aI8
aI30
aI11
aI25
aNaNaNaNaNaNaNag22
aa(lp659
S'HON494'
p660
aI91545
aI1
aI3
aS'T Th'
p661
aS'10:30 AM'
p662
aI10
aI30
aI11
aI55
aNaNaNaNaNaNaNag22
aa(lp663
S'HON494'
p664
aI91548
aI0
aI2
ag419
aS' 4:00 PM'
p665
aI16
aI0
aI17
aI55
aNaNaNaNaNaNaNag5
aa(lp666
S'HON494'
p667
aI91549
aI3
aI3
ag481
aS' 9:00 AM'
p668
aI9
aI0
aI9
aI55
aNaNaNaNaNaNaNag22
aa(lp669
S'HON494'
p670
aI91551
aI7
aI10
ag481
aS' 6:00 PM'
p671
aI18
aI0
aI20
aI55
aNaNaNaNaNaNaNag22
aa(lp672
S'HON494'
p673
aI91553
aI9
aI10
aS'T Th'
p674
aS' 3:30 PM'
p675
aI15
aI30
aI16
aI55
aNaNaNaNaNaNaNag22
aa(lp676
S'HON494'
p677
aI81337
aI10
aI10
ag416
aNaNaNaNaNaNaNaNaNaNaNaNag22
aa(lp678
S'HON494'
p679
aI90584
aI11
aI24
ag365
aS' 4:30 PM'
p680
aI16
aI30
aI18
aI10
aNaNaNaNaNaNaNag22
aa(lp681
S'HON494'
p682
aI90585
aI18
aI24
aS'T Th'
p683
aS' 1:30 PM'
p684
aI13
aI30
aI14
aI20
aNaNaNaNaNaNaNag22
aa(lp685
S'HON497'
p686
aI72887
aI4
aI5
ag365
aS' 3:00 PM'
p687
aI15
aI0
aI17
aI45
aNaNaNaNaNaNaNag22
aa(lp688
S'HON497'
p689
aI72904
aI9
aI16
aS'T Th'
p690
aS' 5:40 PM'
p691
aI17
aI40
aI20
aI30
aNaNaNaNaNaNaNag22
aa(lp692
S'HON497'
p693
aI72905
aI7
aI8
aS'T Th'
p694
aS' 5:40 PM'
p695
aI17
aI40
aI20
aI30
aNaNaNaNaNaNaNag22
aa(lp696
S'HON497'
p697
aI73606
aI0
aI20
ag405
aS'10:30AM'
p698
aI10
aI30
aI12
aI30
ag405
aS'10:30AM'
p699
aI10
aI30
aS'12:30PM'
p700
aI12
aI30
ag5
aa(lp701
S'HON498'
p702
aI71383
aI19
aI19
ag416
aNaNaNaNaNaNaNaNaNaNaNaNag22
aa(lp703
S'HON498'
p704
aI74348
aI19
aI19
ag416
aNaNaNaNaNaNaNaNaNaNaNaNag22
aa(lp705
S'HON498'
p706
aI80767
aI25
aI25
ag416
aNaNaNaNaNaNaNaNaNaNaNaNag22
aa(lp707
S'HON498'
p708
aI80717
aI20
aI24
ag405
aS'10:30 AM'
p709
aI10
aI30
aI12
aI0
aNaNaNaNaNaNaNag22
aa(lp710
S'HON498'
p711
aI80773
aI25
aI25
ag416
aNaNaNaNaNaNaNaNaNaNaNaNag22
aa(lp712
S'HON499'
p713
aI72972
aI15
aI19
ag416
aNaNaNaNaNaNaNaNaNaNaNaNag22
aa(lp714
S'HON499'
p715
aI76595
aI3
aI3
ag416
aNaNaNaNaNaNaNaNaNaNaNaNag22
aa(lp716
S'HON499'
p717
aI72973
aI17
aI19
ag416
aNaNaNaNaNaNaNaNaNaNaNaNag22
aa(lp718
S'HON499'
p719
aI80853
aI1
aI1
ag416
aNaNaNaNaNaNaNaNaNaNaNaNag22
aa(lp720
S'HON499'
p721
aI80752
aI18
aI19
ag416
aNaNaNaNaNaNaNaNaNaNaNaNag22
aa(lp722
S'HON499'
p723
aI80772
aI24
aI25
ag416
aNaNaNaNaNaNaNaNaNaNaNaNag22
aa.