(lp0
(lp1
S'HPS294'
p2
aI84515
aI9
aI10
aS'ONLINE'
p3
aNaNaNaNaNaNaNaNaNaNaNaNaS'Not Reserved'
p4
aa(lp5
S'HPS314'
p6
aI75523
aI34
aI65
aS'T Th'
p7
aS'12:00 PM'
p8
aI12
aI0
aI13
aI15
aNaNaNaNaNaNaNag4
aa(lp9
S'HPS322'
p10
aI76754
aI47
aI100
aS'T Th'
p11
aS' 4:30 PM'
p12
aI16
aI30
aI17
aI45
aNaNaNaNaNaNaNag4
aa(lp13
S'HPS322'
p14
aI83453
aI12
aI20
aS'T Th'
p15
aS' 4:30 PM'
p16
aI16
aI30
aI17
aI45
aNaNaNaNaNaNaNaS'Reserved'
p17
aa(lp18
S'HPS340'
p19
aI71404
aI78
aI86
aS'T Th'
p20
aS' 1:30 PM'
p21
aI13
aI30
aI14
aI45
aNaNaNaNaNaNaNag4
aa(lp22
S'HPS484'
p23
aI71405
aI12
aI12
ag3
aNaNaNaNaNaNaNaNaNaNaNaNag17
aa(lp24
S'HPS492'
p25
aI75545
aI30
aI30
ag3
aNaNaNaNaNaNaNaNaNaNaNaNag4
aa(lp26
S'HPS493'
p27
aI75547
aI40
aI40
ag3
aNaNaNaNaNaNaNaNaNaNaNaNag4
aa(lp28
S'HPS495'
p29
aI76641
aI40
aI40
ag3
aNaNaNaNaNaNaNaNaNaNaNaNag4
aa(lp30
S'HPS496'
p31
aI76815
aI30
aI30
ag3
aNaNaNaNaNaNaNaNaNaNaNaNag4
aa(lp32
S'HPS498'
p33
aI73367
aI3
aI4
aS'W'
p34
aS' 3:00 PM'
p35
aI15
aI0
aI17
aI45
aNaNaNaNaNaNaNag4
aa(lp36
S'HPS499'
p37
aI71406
aI30
aI30
ag3
aNaNaNaNaNaNaNaNaNaNaNaNag4
aa(lp38
S'HPS590'
p39
aI72953
aI50
aI50
ag3
aNaNaNaNaNaNaNaNaNaNaNaNag4
aa(lp40
S'HPS591'
p41
aI74875
aI4
aI4
ag34
aS' 3:00 PM'
p42
aI15
aI0
aI17
aI45
aNaNaNaNaNaNaNag4
aa(lp43
S'HPS591'
p44
aI76324
aI5
aI5
ag3
aNaNaNaNaNaNaNaNaNaNaNaNag4
aa(lp45
S'HPS591'
p46
aI76325
aI3
aI9
aS'M'
p47
aS'12:30 PM'
p48
aI12
aI30
aI15
aI15
aNaNaNaNaNaNaNag4
aa(lp49
S'HPS592'
p50
aI75241
aI30
aI30
ag3
aNaNaNaNaNaNaNaNaNaNaNaNag4
aa(lp51
S'HPS595'
p52
aI75242
aI30
aI30
ag3
aNaNaNaNaNaNaNaNaNaNaNaNag4
aa(lp53
S'HPS599'
p54
aI75243
aI30
aI30
ag3
aNaNaNaNaNaNaNaNaNaNaNaNag4
aa(lp55
S'HPS615'
p56
aI74741
aI17
aI17
aS'T'
p57
aS'12:00 PM'
p58
aI12
aI0
aI13
aI15
aNaNaNaNaNaNaNag4
aa(lp59
S'HPS790'
p60
aI75246
aI30
aI30
ag3
aNaNaNaNaNaNaNaNaNaNaNaNag4
aa(lp61
S'HPS792'
p62
aI75244
aI30
aI30
ag3
aNaNaNaNaNaNaNaNaNaNaNaNag4
aa(lp63
S'HPS795'
p64
aI75247
aI29
aI30
ag3
aNaNaNaNaNaNaNaNaNaNaNaNag4
aa(lp65
S'HPS799'
p66
aI75248
aI30
aI30
ag3
aNaNaNaNaNaNaNaNaNaNaNaNag4
aa.