(lp0
(lp1
S'HRC200'
p2
aI86267
aI31
aI40
aS'ONLINE'
p3
aNaNaNaNaNaNaNaNaNaNaNaNaS'Reserved'
p4
aa(lp5
S'HRC310'
p6
aI82807
aI27
aI40
aS'T Th'
p7
aS'12:00 PM'
p8
aI12
aI0
aI13
aI15
aNaNaNaNaNaNaNaS'Not Reserved'
p9
aa.