(lp0
(lp1
S'HSC210'
p2
aI76544
aI0
aI40
aS'ONLINE'
p3
aNaNaNaNaNaNaNaNaNaNaNaNaS'Reserved'
p4
aa(lp5
S'HSC210'
p6
aI76392
aI90
aI100
aS'M W'
p7
aS' 4:30 PM'
p8
aI16
aI30
aI17
aI45
aNaNaNaNaNaNaNaS'Not Reserved'
p9
aa(lp10
S'HSC210'
p11
aI76569
aI43
aI60
aS'T Th'
p12
aS' 3:00 PM'
p13
aI15
aI0
aI16
aI15
aNaNaNaNaNaNaNag9
aa(lp14
S'HSC300'
p15
aI80851
aI0
aI40
ag3
aNaNaNaNaNaNaNaNaNaNaNaNag4
aa(lp16
S'HSC300'
p17
aI81041
aI0
aI40
ag3
aNaNaNaNaNaNaNaNaNaNaNaNag4
aa(lp18
S'HSC300'
p19
aI76545
aI0
aI40
ag3
aNaNaNaNaNaNaNaNaNaNaNaNag4
aa(lp20
S'HSC300'
p21
aI75131
aI44
aI90
aS'T Th'
p22
aS'12:00 PM'
p23
aI12
aI0
aI13
aI15
aNaNaNaNaNaNaNag9
aa(lp24
S'HSC300'
p25
aI81043
aI92
aI100
aS'T Th'
p26
aS' 4:30 PM'
p27
aI16
aI30
aI17
aI45
aNaNaNaNaNaNaNag9
aa(lp28
S'HSC304'
p29
aI90447
aI8
aI20
ag3
aNaNaNaNaNaNaNaNaNaNaNaNag4
aa(lp30
S'HSC320'
p31
aI75128
aI6
aI40
ag3
aNaNaNaNaNaNaNaNaNaNaNaNag4
aa(lp32
S'HSC320'
p33
aI85418
aI4
aI37
ag3
aNaNaNaNaNaNaNaNaNaNaNaNag4
aa(lp34
S'HSC320'
p35
aI82337
aI23
aI40
ag3
aNaNaNaNaNaNaNaNaNaNaNaNag4
aa(lp36
S'HSC320'
p37
aI77526
aI27
aI45
aS'T Th'
p38
aS'10:30AM'
p39
aI10
aI30
aI11
aI45
aS''
p40
aS'12:00AM'
p41
aNaNaS'12:00AM'
p42
aNaNag9
aa(lp43
S'HSC320'
p44
aI77981
aI27
aI40
ag3
aNaNaNaNaNaNaNaNaNaNaNaNag4
aa(lp45
S'HSC330'
p46
aI91289
aI0
aI20
ag3
aNaNaNaNaNaNaNaNaNaNaNaNag4
aa(lp47
S'HSC330'
p48
aI75936
aI22
aI28
aS'T'
p49
aS'7:30AM'
p50
aI7
aI30
aI8
aI45
ag40
ag40
aNaNag40
aNaNag9
aa(lp51
S'HSC330'
p52
aI84710
aI7
aI28
ag49
aS'9:00AM'
p53
aI9
aI0
aI10
aI15
ag40
aS'12:00AM'
p54
aNaNaS'12:00AM'
p55
aNaNag9
aa(lp56
S'HSC332'
p57
aI91600
aI15
aI20
ag3
aNaNaNaNaNaNaNaNaNaNaNaNag4
aa(lp58
S'HSC332'
p59
aI77626
aI19
aI25
aS'Th'
p60
aS'7:30AM'
p61
aI7
aI30
aI8
aI45
ag40
aS'12:00AM'
p62
aNaNaS'12:00AM'
p63
aNaNag9
aa(lp64
S'HSC332'
p65
aI80620
aI0
aI40
ag3
aNaNaNaNaNaNaNaNaNaNaNaNag4
aa(lp66
S'HSC332'
p67
aI84711
aI18
aI28
aS'Th'
p68
aS'9:00AM'
p69
aI9
aI0
aI10
aI15
ag40
ag40
aNaNag40
aNaNag9
aa(lp70
S'HSC340'
p71
aI85763
aI26
aI40
ag3
aNaNaNaNaNaNaNaNaNaNaNaNag4
aa(lp72
S'HSC340'
p73
aI78998
aI15
aI40
ag3
aNaNaNaNaNaNaNaNaNaNaNaNag4
aa(lp74
S'HSC394'
p75
aI86341
aI10
aI40
ag3
aNaNaNaNaNaNaNaNaNaNaNaNag4
aa(lp76
S'HSC394'
p77
aI85469
aI12
aI12
ag3
aNaNaNaNaNaNaNaNaNaNaNaNag4
aa(lp78
S'HSC400'
p79
aI90940
aI30
aI40
ag3
aNaNaNaNaNaNaNaNaNaNaNaNag4
aa(lp80
S'HSC410'
p81
aI78967
aI11
aI22
ag3
aNaNaNaNaNaNaNaNaNaNaNaNag4
aa(lp82
S'HSC412'
p83
aI79231
aI18
aI40
ag3
aNaNaNaNaNaNaNaNaNaNaNaNag4
aa(lp84
S'HSC420'
p85
aI76269
aI0
aI38
ag3
aNaNaNaNaNaNaNaNaNaNaNaNag4
aa(lp86
S'HSC420'
p87
aI75129
aI23
aI50
aS'T Th'
p88
aS' 4:30 PM'
p89
aI16
aI30
aI17
aI45
aNaNaNaNaNaNaNag9
aa(lp90
S'HSC420'
p91
aI80432
aI14
aI50
aS'T Th'
p92
aS' 3:00 PM'
p93
aI15
aI0
aI16
aI15
aNaNaNaNaNaNaNag9
aa(lp94
S'HSC432'
p95
aI91602
aI11
aI20
ag3
aNaNaNaNaNaNaNaNaNaNaNaNag4
aa(lp96
S'HSC432'
p97
aI82339
aI25
aI50
aS'M W F'
p98
aS' 1:30 PM'
p99
aI13
aI30
aI14
aI20
aNaNaNaNaNaNaNag9
aa(lp100
S'HSC440'
p101
aI85513
aI22
aI30
ag49
aS' 6:00 PM'
p102
aI18
aI0
aI20
aI45
aNaNaNaNaNaNaNag9
aa(lp103
S'HSC484'
p104
aI80483
aI57
aI60
ag3
aNaNaNaNaNaNaNaNaNaNaNaNag4
aa(lp105
S'HSC492'
p106
aI78183
aI1
aI1
ag3
aNaNaNaNaNaNaNaNaNaNaNaNag4
aa(lp107
S'HSC494'
p108
aI75906
aI5
aI5
ag3
aNaNaNaNaNaNaNaNaNaNaNaNag4
aa(lp109
S'HSC499'
p110
aI85929
aI5
aI5
ag3
aNaNaNaNaNaNaNaNaNaNaNaNag9
aa.