(lp0
(lp1
S'HSD501'
p2
aI75634
aI10
aI12
aS'W'
p3
aS' 3:00 PM'
p4
aI15
aI0
aI17
aI45
aNaNaNaNaNaNaNaS'Not Reserved'
p5
aa(lp6
S'HSD540'
p7
aI79794
aI7
aI8
aS'T'
p8
aS' 1:30 PM'
p9
aI13
aI30
aI16
aI15
aNaNaNaNaNaNaNag5
aa(lp10
S'HSD580'
p11
aI80135
aI10
aI10
aS'ONLINE'
p12
aNaNaNaNaNaNaNaNaNaNaNaNag5
aa(lp13
S'HSD584'
p14
aI73613
aI20
aI20
ag12
aNaNaNaNaNaNaNaNaNaNaNaNag5
aa(lp15
S'HSD590'
p16
aI73614
aI20
aI20
ag12
aNaNaNaNaNaNaNaNaNaNaNaNag5
aa(lp17
S'HSD591'
p18
aI80541
aI8
aI8
ag3
aS'10:30 AM'
p19
aI10
aI30
aI11
aI30
aNaNaNaNaNaNaNag5
aa(lp20
S'HSD592'
p21
aI73615
aI20
aI20
ag12
aNaNaNaNaNaNaNaNaNaNaNaNag5
aa(lp22
S'HSD593'
p23
aI75587
aI10
aI10
ag12
aNaNaNaNaNaNaNaNaNaNaNaNag5
aa(lp24
S'HSD595'
p25
aI73616
aI20
aI20
ag12
aNaNaNaNaNaNaNaNaNaNaNaNag5
aa(lp26
S'HSD598'
p27
aI75918
aI4
aI4
ag3
aS' 6:00 PM'
p28
aI18
aI0
aI21
aI0
aNaNaNaNaNaNaNaS'Reserved'
p29
aa(lp30
S'HSD598'
p31
aI81821
aI14
aI15
aS'Th'
p32
aS' 6:00 PM'
p33
aI18
aI0
aI20
aI45
aNaNaNaNaNaNaNag5
aa(lp34
S'HSD598'
p35
aI90574
aI10
aI10
ag8
aS' 3:00 PM'
p36
aI15
aI0
aI17
aI45
aNaNaNaNaNaNaNag5
aa(lp37
S'HSD598'
p38
aI83328
aI4
aI4
ag3
aS' 4:30 PM'
p39
aI16
aI30
aI19
aI15
aNaNaNaNaNaNaNag5
aa(lp40
S'HSD598'
p41
aI91237
aI1
aI5
aS'Th'
p42
aS' 3:00 PM'
p43
aI15
aI0
aI17
aI45
aNaNaNaNaNaNaNag5
aa(lp44
S'HSD599'
p45
aI73617
aI20
aI20
ag12
aNaNaNaNaNaNaNaNaNaNaNaNag5
aa(lp46
S'HSD601'
p47
aI73525
aI7
aI8
aS'F'
p48
aS' 9:00 AM'
p49
aI9
aI0
aI12
aI30
aNaNaNaNaNaNaNag5
aa(lp50
S'HSD610'
p51
aI73527
aI7
aI12
ag3
aS' 1:15 PM'
p52
aI13
aI15
aI14
aI30
aNaNaNaNaNaNaNag5
aa(lp53
S'HSD692'
p54
aI74349
aI19
aI20
ag12
aNaNaNaNaNaNaNaNaNaNaNaNag5
aa(lp55
S'HSD784'
p56
aI73618
aI20
aI20
ag12
aNaNaNaNaNaNaNaNaNaNaNaNag5
aa(lp57
S'HSD790'
p58
aI80427
aI15
aI15
ag12
aNaNaNaNaNaNaNaNaNaNaNaNag5
aa(lp59
S'HSD792'
p60
aI73620
aI17
aI20
ag12
aNaNaNaNaNaNaNaNaNaNaNaNag5
aa(lp61
S'HSD795'
p62
aI73621
aI19
aI20
ag12
aNaNaNaNaNaNaNaNaNaNaNaNag5
aa(lp63
S'HSD799'
p64
aI73622
aI19
aI20
ag12
aNaNaNaNaNaNaNaNaNaNaNaNag5
aa.