(lp0
(lp1
S'HST100'
p2
aI82338
aI102
aI132
aS'T Th'
p3
aS'10:30 AM'
p4
aI10
aI30
aI11
aI45
aNaNaNaNaNaNaNaS'Not Reserved'
p5
aa(lp6
S'HST100'
p7
aI83469
aI85
aI99
aS'M W'
p8
aS' 3:00 PM'
p9
aI15
aI0
aI16
aI15
aNaNaNaNaNaNaNag5
aa(lp10
S'HST100'
p11
aI90407
aI105
aI130
aS'T Th'
p12
aS' 3:00 PM'
p13
aI15
aI0
aI16
aI15
aNaNaNaNaNaNaNag5
aa(lp14
S'HST100'
p15
aI77185
aI41
aI60
aS'M W F'
p16
aS'12:00 PM'
p17
aI12
aI0
aI12
aI50
aNaNaNaNaNaNaNag5
aa(lp18
S'HST100'
p19
aI80294
aI14
aI28
aS'T Th'
p20
aS' 1:30 PM'
p21
aI13
aI30
aI14
aI45
aNaNaNaNaNaNaNag5
aa(lp22
S'HST101'
p23
aI82341
aI55
aI108
aS'T Th'
p24
aS'10:30 AM'
p25
aI10
aI30
aI11
aI45
aNaNaNaNaNaNaNag5
aa(lp26
S'HST101'
p27
aI91153
aI60
aI68
aS'T Th'
p28
aS'12:00 PM'
p29
aI12
aI0
aI13
aI15
aNaNaNaNaNaNaNag5
aa(lp30
S'HST101'
p31
aI83599
aI22
aI28
aS'T Th'
p32
aS' 9:00 AM'
p33
aI9
aI0
aI10
aI15
aNaNaNaNaNaNaNag5
aa(lp34
S'HST102'
p35
aI86275
aI41
aI60
aS'T Th'
p36
aS'10:30 AM'
p37
aI10
aI30
aI11
aI45
aNaNaNaNaNaNaNag5
aa(lp38
S'HST103'
p39
aI82352
aI64
aI68
aS'M W'
p40
aS' 3:00 PM'
p41
aI15
aI0
aI16
aI15
aNaNaNaNaNaNaNag5
aa(lp42
S'HST103'
p43
aI90934
aI47
aI60
aS'M W'
p44
aS' 1:30 PM'
p45
aI13
aI30
aI14
aI45
aNaNaNaNaNaNaNag5
aa(lp46
S'HST104'
p47
aI70373
aI128
aI145
aS'M W'
p48
aS' 3:00 PM'
p49
aI15
aI0
aI16
aI15
aNaNaNaNaNaNaNag5
aa(lp50
S'HST104'
p51
aI70374
aI124
aI142
aS'W'
p52
aS'1:30PM'
p53
aI13
aI30
aI14
aI45
aS''
p54
ag54
aNaNag54
aNaNag5
aa(lp55
S'HST104'
p56
aI75725
aI45
aI60
aS'T Th'
p57
aS' 9:00 AM'
p58
aI9
aI0
aI10
aI15
aNaNaNaNaNaNaNag5
aa(lp59
S'HST104'
p60
aI86364
aI25
aI30
aS'T Th'
p61
aS' 1:30 PM'
p62
aI13
aI30
aI14
aI45
aNaNaNaNaNaNaNag5
aa(lp63
S'HST104'
p64
aI71414
aI49
aI60
aS'T Th'
p65
aS' 9:00 AM'
p66
aI9
aI0
aI10
aI15
aNaNaNaNaNaNaNag5
aa(lp67
S'HST106'
p68
aI77113
aI73
aI99
aS'M W'
p69
aS' 9:00 AM'
p70
aI9
aI0
aI10
aI15
aNaNaNaNaNaNaNag5
aa(lp71
S'HST109'
p72
aI77114
aI157
aI175
aS'M W F'
p73
aS'12:00 PM'
p74
aI12
aI0
aI12
aI50
aNaNaNaNaNaNaNag5
aa(lp75
S'HST109'
p76
aI77115
aI34
aI58
aS'M W'
p77
aS' 3:00 PM'
p78
aI15
aI0
aI16
aI15
aNaNaNaNaNaNaNag5
aa(lp79
S'HST109'
p80
aI77116
aI122
aI145
aS'T Th'
p81
aS'12:00 PM'
p82
aI12
aI0
aI13
aI15
aNaNaNaNaNaNaNag5
aa(lp83
S'HST109'
p84
aI82356
aI58
aI70
aS'T Th'
p85
aS' 9:00 AM'
p86
aI9
aI0
aI10
aI15
aNaNaNaNaNaNaNag5
aa(lp87
S'HST109'
p88
aI90726
aI64
aI100
aS'ONLINE'
p89
aNaNaNaNaNaNaNaNaNaNaNaNaS'Reserved'
p90
aa(lp91
S'HST109'
p92
aI77106
aI42
aI60
aS'M W'
p93
aS' 3:00 PM'
p94
aI15
aI0
aI16
aI15
aNaNaNaNaNaNaNag5
aa(lp95
S'HST110'
p96
aI82357
aI116
aI132
aS'T Th'
p97
aS' 3:00 PM'
p98
aI15
aI0
aI16
aI15
aNaNaNaNaNaNaNag5
aa(lp99
S'HST110'
p100
aI77119
aI34
aI50
aS'M W'
p101
aS' 3:00 PM'
p102
aI15
aI0
aI16
aI15
aNaNaNaNaNaNaNag5
aa(lp103
S'HST110'
p104
aI77607
aI43
aI60
ag89
aNaNaNaNaNaNaNaNaNaNaNaNag90
aa(lp105
S'HST110'
p106
aI74715
aI27
aI30
aS'F'
p107
aS'1:30PM'
p108
aI13
aI30
aI14
aI45
ag54
ag54
aNaNag54
aNaNag5
aa(lp109
S'HST110'
p110
aI90906
aI1
aI25
ag89
aNaNaNaNaNaNaNaNaNaNaNaNag90
aa(lp111
S'HST110'
p112
aI73381
aI37
aI50
aS'T Th'
p113
aS'12:00 PM'
p114
aI12
aI0
aI13
aI15
aNaNaNaNaNaNaNag90
aa(lp115
S'HST111'
p116
aI82359
aI40
aI70
aS'M W'
p117
aS'12:00 PM'
p118
aI12
aI0
aI13
aI15
aNaNaNaNaNaNaNag5
aa(lp119
S'HST112'
p120
aI80349
aI8
aI28
aS'T Th'
p121
aS' 1:30 PM'
p122
aI13
aI30
aI14
aI45
aNaNaNaNaNaNaNag5
aa(lp123
S'HST191'
p124
aI89298
aI19
aI19
ag107
aS'10:30 AM'
p125
aI10
aI30
aI11
aI20
aNaNaNaNaNaNaNag90
aa(lp126
S'HST191'
p127
aI89802
aI19
aI19
ag107
aS' 1:30 PM'
p128
aI13
aI30
aI14
aI20
aNaNaNaNaNaNaNag90
aa(lp129
S'HST194'
p130
aI80327
aI11
aI12
ag107
aS'12:00 PM'
p131
aI12
aI0
aI12
aI50
aNaNaNaNaNaNaNag5
aa(lp132
S'HST204'
p133
aI77875
aI16
aI30
ag89
aNaNaNaNaNaNaNaNaNaNaNaNag90
aa(lp134
S'HST210'
p135
aI77107
aI16
aI30
aS'T'
p136
aS'12:00PM'
p137
aI12
aI0
aI13
aI15
ag54
ag54
aNaNag54
aNaNag5
aa(lp138
S'HST240'
p139
aI82361
aI6
aI12
aS'M W'
p140
aS' 3:00 PM'
p141
aI15
aI0
aI16
aI15
aNaNaNaNaNaNaNag5
aa(lp142
S'HST302'
p143
aI80140
aI90
aI128
aS'M W'
p144
aS' 1:30 PM'
p145
aI13
aI30
aI14
aI45
aNaNaNaNaNaNaNag5
aa(lp146
S'HST302'
p147
aI84344
aI27
aI38
aS'T Th'
p148
aS' 3:00 PM'
p149
aI15
aI0
aI16
aI15
aNaNaNaNaNaNaNag5
aa(lp150
S'HST303'
p151
aI89208
aI68
aI80
ag89
aNaNaNaNaNaNaNaNaNaNaNaNag90
aa(lp152
S'HST303'
p153
aI90947
aI3
aI60
ag89
aNaNaNaNaNaNaNaNaNaNaNaNag90
aa(lp154
S'HST303'
p155
aI82407
aI0
aI48
aS'T Th'
p156
aS' 1:30 PM'
p157
aI13
aI30
aI14
aI45
aNaNaNaNaNaNaNag90
aa(lp158
S'HST303'
p159
aI91303
aI69
aI70
aS'T Th'
p160
aS' 9:00 AM'
p161
aI9
aI0
aI10
aI15
aNaNaNaNaNaNaNag5
aa(lp162
S'HST304'
p163
aI77300
aI33
aI38
aS'T Th'
p164
aS'12:00 PM'
p165
aI12
aI0
aI13
aI15
aNaNaNaNaNaNaNag5
aa(lp166
S'HST304'
p167
aI83532
aI46
aI70
aS'T Th'
p168
aS'10:30 AM'
p169
aI10
aI30
aI11
aI45
aNaNaNaNaNaNaNag5
aa(lp170
S'HST306'
p171
aI91423
aI39
aI55
ag89
aNaNaNaNaNaNaNaNaNaNaNaNag90
aa(lp172
S'HST306'
p173
aI91424
aI51
aI55
ag89
aNaNaNaNaNaNaNaNaNaNaNaNag90
aa(lp174
S'HST306'
p175
aI89949
aI109
aI128
aS'M W'
p176
aS'12:00 PM'
p177
aI12
aI0
aI13
aI15
aNaNaNaNaNaNaNag5
aa(lp178
S'HST306'
p179
aI79651
aI1
aI130
ag136
aS'12:00PM'
p180
aI12
aI0
aI13
aI15
ag54
ag54
aNaNag54
aNaNag5
aa(lp181
S'HST306'
p182
aI79652
aI95
aI130
aS'Th'
p183
aS'12:00PM'
p184
aI12
aI0
aI13
aI15
ag54
ag54
aNaNag54
aNaNag5
aa(lp185
S'HST306'
p186
aI86678
aI10
aI30
ag107
aS'12:00 PM'
p187
aI12
aI0
aI14
aI45
aNaNaNaNaNaNaNag5
aa(lp188
S'HST309'
p189
aI77103
aI0
aI30
ag89
aNaNaNaNaNaNaNaNaNaNaNaNag90
aa(lp190
S'HST310'
p191
aI85502
aI14
aI30
aS'T Th'
p192
aS' 3:00 PM'
p193
aI15
aI0
aI16
aI15
aNaNaNaNaNaNaNag5
aa(lp194
S'HST314'
p195
aI77168
aI23
aI50
ag89
aNaNaNaNaNaNaNaNaNaNaNaNag90
aa(lp196
S'HST317'
p197
aI79788
aI12
aI28
aS'T Th'
p198
aS' 3:00 PM'
p199
aI15
aI0
aI16
aI15
aNaNaNaNaNaNaNag5
aa(lp200
S'HST318'
p201
aI78458
aI5
aI50
ag89
aNaNaNaNaNaNaNaNaNaNaNaNag90
aa(lp202
S'HST321'
p203
aI79194
aI52
aI60
aS'M W'
p204
aS' 3:00 PM'
p205
aI15
aI0
aI16
aI15
aNaNaNaNaNaNaNag5
aa(lp206
S'HST325'
p207
aI89300
aI3
aI38
aS'T Th'
p208
aS'10:30 AM'
p209
aI10
aI30
aI11
aI45
aNaNaNaNaNaNaNag5
aa(lp210
S'HST327'
p211
aI79249
aI13
aI45
aS'T Th'
p212
aS' 9:00 AM'
p213
aI9
aI0
aI10
aI15
aNaNaNaNaNaNaNag5
aa(lp214
S'HST327'
p215
aI74872
aI21
aI50
aS'T Th'
p216
aS' 1:30 PM'
p217
aI13
aI30
aI14
aI45
aNaNaNaNaNaNaNag5
aa(lp218
S'HST328'
p219
aI91387
aI33
aI55
ag89
aNaNaNaNaNaNaNaNaNaNaNaNag90
aa(lp220
S'HST328'
p221
aI91388
aI46
aI55
ag89
aNaNaNaNaNaNaNaNaNaNaNaNag90
aa(lp222
S'HST328'
p223
aI74895
aI10
aI48
aS'T Th'
p224
aS'10:30 AM'
p225
aI10
aI30
aI11
aI45
aNaNaNaNaNaNaNag5
aa(lp226
S'HST328'
p227
aI91250
aI25
aI45
aS'T Th'
p228
aS' 4:30 PM'
p229
aI16
aI30
aI17
aI45
aNaNaNaNaNaNaNag5
aa(lp230
S'HST332'
p231
aI82856
aI33
aI40
aS'T Th'
p232
aS'12:00 PM'
p233
aI12
aI0
aI13
aI15
aNaNaNaNaNaNaNag5
aa(lp234
S'HST338'
p235
aI90908
aI19
aI99
aS'M W'
p236
aS' 1:30 PM'
p237
aI13
aI30
aI14
aI45
aNaNaNaNaNaNaNag5
aa(lp238
S'HST341'
p239
aI77637
aI5
aI30
ag89
aNaNaNaNaNaNaNaNaNaNaNaNag90
aa(lp240
S'HST342'
p241
aI74719
aI22
aI30
aS'T Th'
p242
aS' 1:30 PM'
p243
aI13
aI30
aI14
aI45
aNaNaNaNaNaNaNag5
aa(lp244
S'HST343'
p245
aI74720
aI0
aI30
ag89
aNaNaNaNaNaNaNaNaNaNaNaNag90
aa(lp246
S'HST344'
p247
aI75695
aI29
aI60
ag89
aNaNaNaNaNaNaNaNaNaNaNaNag90
aa(lp248
S'HST345'
p249
aI90933
aI24
aI30
aS'T Th'
p250
aS'10:30 AM'
p251
aI10
aI30
aI11
aI45
aNaNaNaNaNaNaNag5
aa(lp252
S'HST347'
p253
aI90866
aI29
aI45
aS'M W'
p254
aS' 3:00 PM'
p255
aI15
aI0
aI16
aI15
aNaNaNaNaNaNaNag5
aa(lp256
S'HST350'
p257
aI77608
aI21
aI45
aS'T Th'
p258
aS'10:30 AM'
p259
aI10
aI30
aI11
aI45
aNaNaNaNaNaNaNag5
aa(lp260
S'HST352'
p261
aI90418
aI39
aI50
ag89
aNaNaNaNaNaNaNaNaNaNaNaNag90
aa(lp262
S'HST355'
p263
aI79195
aI34
aI70
aS'M W'
p264
aS'12:00 PM'
p265
aI12
aI0
aI13
aI15
aNaNaNaNaNaNaNag5
aa(lp266
S'HST356'
p267
aI82418
aI29
aI58
aS'T Th'
p268
aS' 3:00 PM'
p269
aI15
aI0
aI16
aI15
aNaNaNaNaNaNaNag5
aa(lp270
S'HST361'
p271
aI90422
aI19
aI50
aS'T Th'
p272
aS' 9:00 AM'
p273
aI9
aI0
aI10
aI15
aNaNaNaNaNaNaNag5
aa(lp274
S'HST364'
p275
aI82422
aI26
aI60
ag89
aNaNaNaNaNaNaNaNaNaNaNaNag90
aa(lp276
S'HST364'
p277
aI77104
aI13
aI30
ag89
aNaNaNaNaNaNaNaNaNaNaNaNag90
aa(lp278
S'HST364'
p279
aI89958
aI19
aI24
aS'M W'
p280
aS' 3:00 PM'
p281
aI15
aI0
aI16
aI15
aNaNaNaNaNaNaNag5
aa(lp282
S'HST366'
p283
aI71407
aI24
aI38
aS'T Th'
p284
aS'10:30 AM'
p285
aI10
aI30
aI11
aI45
aNaNaNaNaNaNaNag5
aa(lp286
S'HST369'
p287
aI89301
aI9
aI28
aS'M W'
p288
aS' 3:00 PM'
p289
aI15
aI0
aI16
aI15
aNaNaNaNaNaNaNag5
aa(lp290
S'HST372'
p291
aI82424
aI6
aI25
ag89
aNaNaNaNaNaNaNaNaNaNaNaNag90
aa(lp292
S'HST372'
p293
aI90095
aI18
aI25
ag89
aNaNaNaNaNaNaNaNaNaNaNaNag90
aa(lp294
S'HST373'
p295
aI91062
aI41
aI70
aS'T Th'
p296
aS'10:30 AM'
p297
aI10
aI30
aI11
aI45
aNaNaNaNaNaNaNag5
aa(lp298
S'HST383'
p299
aI91383
aI27
aI30
aS'T Th'
p300
aS' 1:30 PM'
p301
aI13
aI30
aI14
aI45
aNaNaNaNaNaNaNag5
aa(lp302
S'HST385'
p303
aI84123
aI22
aI22
aS'T Th'
p304
aS'10:30 AM'
p305
aI10
aI30
aI11
aI45
aNaNaNaNaNaNaNag5
aa(lp306
S'HST387'
p307
aI71408
aI36
aI48
aS'M W F'
p308
aS' 1:30 PM'
p309
aI13
aI30
aI14
aI20
aNaNaNaNaNaNaNag5
aa(lp310
S'HST388'
p311
aI89303
aI28
aI45
aS'T Th'
p312
aS' 3:00 PM'
p313
aI15
aI0
aI16
aI15
aNaNaNaNaNaNaNag5
aa(lp314
S'HST394'
p315
aI90925
aI26
aI30
aS'T Th'
p316
aS' 1:30 PM'
p317
aI13
aI30
aI14
aI45
aNaNaNaNaNaNaNag5
aa(lp318
S'HST407'
p319
aI89304
aI76
aI99
aS'M W'
p320
aS'10:30 AM'
p321
aI10
aI30
aI11
aI45
aNaNaNaNaNaNaNag5
aa(lp322
S'HST413'
p323
aI91084
aI23
aI30
aS'M'
p324
aS'1:30PM'
p325
aI13
aI30
aI14
aI45
ag54
ag54
aNaNag54
aNaNag5
aa(lp326
S'HST419'
p327
aI91182
aI36
aI45
ag89
aNaNaNaNaNaNaNaNaNaNaNaNag5
aa(lp328
S'HST423'
p329
aI71409
aI0
aI40
aS'T Th'
p330
aS' 1:30 PM'
p331
aI13
aI30
aI14
aI45
aNaNaNaNaNaNaNag90
aa(lp332
S'HST430'
p333
aI90839
aI39
aI45
ag136
aS' 6:00 PM'
p334
aI18
aI0
aI20
aI45
aNaNaNaNaNaNaNag5
aa(lp335
S'HST436'
p336
aI89306
aI15
aI48
aS'T Th'
p337
aS' 3:00 PM'
p338
aI15
aI0
aI16
aI15
aNaNaNaNaNaNaNag5
aa(lp339
S'HST451'
p340
aI83435
aI4
aI15
aS'T Th'
p341
aS'10:30 AM'
p342
aI10
aI30
aI11
aI45
aNaNaNaNaNaNaNag5
aa(lp343
S'HST456'
p344
aI81002
aI25
aI30
ag107
aS' 9:00 AM'
p345
aI9
aI0
aI11
aI45
aNaNaNaNaNaNaNag5
aa(lp346
S'HST480'
p347
aI71410
aI17
aI35
ag136
aS' 4:30 PM'
p348
aI16
aI30
aI19
aI0
aNaNaNaNaNaNaNag5
aa(lp349
S'HST481'
p350
aI89801
aI6
aI35
ag136
aS' 4:30 PM'
p351
aI16
aI30
aI19
aI15
aNaNaNaNaNaNaNag5
aa(lp352
S'HST481'
p353
aI77508
aI29
aI30
ag324
aS' 7:30 PM'
p354
aI19
aI30
aI22
aI15
aNaNaNaNaNaNaNag5
aa(lp355
S'HST484'
p356
aI91612
aI30
aI30
ag89
aNaNaNaNaNaNaNaNaNaNaNaNag5
aa(lp357
S'HST494'
p358
aI90473
aI10
aI10
ag89
aNaNaNaNaNaNaNaNaNaNaNaNag5
aa(lp359
S'HST494'
p360
aI91132
aI8
aI10
aS'T Th'
p361
aS' 1:30 PM'
p362
aI13
aI30
aI14
aI45
aNaNaNaNaNaNaNag5
aa(lp363
S'HST494'
p364
aI80529
aI7
aI10
aS'T Th'
p365
aS'12:00 PM'
p366
aI12
aI0
aI13
aI15
aNaNaNaNaNaNaNag5
aa(lp367
S'HST495'
p368
aI82432
aI20
aI35
aS'T Th'
p369
aS' 4:30 PM'
p370
aI16
aI30
aI17
aI45
aNaNaNaNaNaNaNag5
aa(lp371
S'HST495'
p372
aI91307
aI2
aI35
aS'T Th'
p373
aS'12:00 PM'
p374
aI12
aI0
aI13
aI15
aNaNaNaNaNaNaNag5
aa(lp375
S'HST495'
p376
aI78813
aI21
aI30
ag52
aS' 6:00 PM'
p377
aI18
aI0
aI20
aI45
aNaNaNaNaNaNaNag5
aa(lp378
S'HST495'
p379
aI78814
aI12
aI30
aS'Th'
p380
aS' 4:30 PM'
p381
aI16
aI30
aI19
aI15
aNaNaNaNaNaNaNag5
aa(lp382
S'HST495'
p383
aI83865
aI24
aI30
ag136
aS' 6:00 PM'
p384
aI18
aI0
aI20
aI45
aNaNaNaNaNaNaNag5
aa(lp385
S'HST499'
p386
aI84530
aI5
aI5
ag89
aNaNaNaNaNaNaNaNaNaNaNaNag5
aa(lp387
S'HST515'
p388
aI91275
aI0
aI2
ag89
aNaNaNaNaNaNaNaNaNaNaNaNag90
aa(lp389
S'HST532'
p390
aI89309
aI16
aI18
ag107
aS' 9:00 AM'
p391
aI9
aI0
aI11
aI45
aNaNaNaNaNaNaNag5
aa(lp392
S'HST584'
p393
aI91786
aI30
aI30
ag89
aNaNaNaNaNaNaNaNaNaNaNaNag5
aa(lp394
S'HST591'
p395
aI89687
aI3
aI16
ag324
aS' 4:30 PM'
p396
aI16
aI30
aI19
aI15
aNaNaNaNaNaNaNag5
aa(lp397
S'HST595'
p398
aI84243
aI10
aI10
ag89
aNaNaNaNaNaNaNaNaNaNaNaNag5
aa(lp399
S'HST598'
p400
aI91276
aI2
aI2
ag89
aNaNaNaNaNaNaNaNaNaNaNaNag90
aa(lp401
S'HST598'
p402
aI90182
aI0
aI5
aS'T Th'
p403
aS' 1:30 PM'
p404
aI13
aI30
aI14
aI45
aNaNaNaNaNaNaNag90
aa(lp405
S'HST598'
p406
aI82442
aI11
aI16
ag107
aS'12:00 PM'
p407
aI12
aI0
aI14
aI45
aNaNaNaNaNaNaNag5
aa(lp408
S'HST598'
p409
aI90952
aI13
aI16
ag136
aS' 4:30 PM'
p410
aI16
aI30
aI19
aI0
aNaNaNaNaNaNaNag5
aa(lp411
S'HST598'
p412
aI91170
aI10
aI16
ag324
aS' 2:00 PM'
p413
aI14
aI0
aI16
aI20
aNaNaNaNaNaNaNag5
aa(lp414
S'HST599'
p415
aI91835
aI29
aI30
ag89
aNaNaNaNaNaNaNaNaNaNaNaNag5
aa(lp416
S'HST692'
p417
aI91729
aI28
aI30
ag89
aNaNaNaNaNaNaNaNaNaNaNaNag5
aa(lp418
S'HST780'
p419
aI89310
aI15
aI15
ag52
aS' 6:00 PM'
p420
aI18
aI0
aI18
aI50
aNaNaNaNaNaNaNag5
aa(lp421
S'HST795'
p422
aI84249
aI15
aI20
ag89
aNaNaNaNaNaNaNaNaNaNaNaNag5
aa(lp423
S'HST795'
p424
aI91820
aI29
aI30
ag89
aNaNaNaNaNaNaNaNaNaNaNaNag5
aa(lp425
S'HST799'
p426
aI91788
aI29
aI30
ag89
aNaNaNaNaNaNaNaNaNaNaNaNag5
aa(lp427
S'HST799'
p428
aI91824
aI4
aI5
ag89
aNaNaNaNaNaNaNaNaNaNaNaNag5
aa.