(lp0
(lp1
S'IAS191'
p2
aI76227
aI5
aI15
aS'T'
p3
aS'10:30 AM'
p4
aI10
aI30
aI11
aI45
aNaNaNaNaNaNaNaS'Not Reserved'
p5
aa(lp6
S'IAS191'
p7
aI76228
aI13
aI15
aS'Th'
p8
aS'10:30 AM'
p9
aI10
aI30
aI11
aI45
aNaNaNaNaNaNaNag5
aa(lp10
S'IAS191'
p11
aI78839
aI11
aI15
ag3
aS'10:30 AM'
p12
aI10
aI30
aI11
aI45
aNaNaNaNaNaNaNag5
aa(lp13
S'IAS191'
p14
aI76229
aI15
aI15
aS'Th'
p15
aS'10:30 AM'
p16
aI10
aI30
aI11
aI45
aNaNaNaNaNaNaNag5
aa(lp17
S'IAS191'
p18
aI76230
aI22
aI22
ag3
aS' 1:30 PM'
p19
aI13
aI30
aI14
aI45
aNaNaNaNaNaNaNaS'Reserved'
p20
aa(lp21
S'IAS191'
p22
aI76231
aI22
aI22
aS'Th'
p23
aS' 1:30 PM'
p24
aI13
aI30
aI14
aI45
aNaNaNaNaNaNaNag20
aa(lp25
S'IAS191'
p26
aI76232
aI12
aI15
aS'M'
p27
aS'10:30 AM'
p28
aI10
aI30
aI11
aI20
aNaNaNaNaNaNaNag5
aa(lp29
S'IAS191'
p30
aI76233
aI10
aI15
aS'W'
p31
aS'10:30 AM'
p32
aI10
aI30
aI11
aI20
aNaNaNaNaNaNaNag5
aa(lp33
S'IAS191'
p34
aI80593
aI13
aI15
aS'F'
p35
aS'10:30 AM'
p36
aI10
aI30
aI11
aI20
aNaNaNaNaNaNaNag5
aa(lp37
S'IAS191'
p38
aI83090
aI15
aI15
ag27
aS'10:30 AM'
p39
aI10
aI30
aI11
aI20
aNaNaNaNaNaNaNag5
aa(lp40
S'IAS191'
p41
aI86645
aI15
aI15
ag31
aS'10:30 AM'
p42
aI10
aI30
aI11
aI20
aNaNaNaNaNaNaNag5
aa(lp43
S'IAS191'
p44
aI86646
aI15
aI15
ag35
aS'10:30 AM'
p45
aI10
aI30
aI11
aI20
aNaNaNaNaNaNaNag5
aa(lp46
S'IAS191'
p47
aI89139
aI50
aI50
ag3
aS'10:30AM'
p48
aI10
aI30
aI11
aI45
aS''
p49
ag49
aNaNag49
aNaNag20
aa(lp50
S'IAS194'
p51
aI90759
aI50
aI50
aS'Th'
p52
aS'10:30AM'
p53
aI10
aI30
aI11
aI45
ag49
ag49
aNaNag49
aNaNag20
aa(lp54
S'IAS210'
p55
aI90755
aI37
aI40
aS'T Th'
p56
aS' 9:00 AM'
p57
aI9
aI0
aI10
aI15
aNaNaNaNaNaNaNag5
aa(lp58
S'IAS225'
p59
aI90754
aI37
aI40
aS'T Th'
p60
aS' 1:30 PM'
p61
aI13
aI30
aI14
aI45
aNaNaNaNaNaNaNag5
aa(lp62
S'IAS294'
p63
aI90313
aI16
aI20
ag31
aS'10:30AM'
p64
aI10
aI30
aI12
aI10
ag49
ag49
aNaNag49
aNaNag5
aa(lp65
S'IAS300'
p66
aI71419
aI44
aI60
aS'ONLINE'
p67
aNaNaNaNaNaNaNaNaNaNaNaNag20
aa(lp68
S'IAS300'
p69
aI90744
aI55
aI60
ag67
aNaNaNaNaNaNaNaNaNaNaNaNag20
aa(lp70
S'IAS300'
p71
aI90745
aI34
aI40
aS'T Th'
p72
aS' 6:00 PM'
p73
aI18
aI0
aI19
aI15
aNaNaNaNaNaNaNag5
aa(lp74
S'IAS300'
p75
aI90746
aI25
aI40
aS'T Th'
p76
aS' 9:00 AM'
p77
aI9
aI0
aI10
aI15
aNaNaNaNaNaNaNag5
aa(lp78
S'IAS300'
p79
aI90747
aI15
aI40
aS'T Th'
p80
aS'10:30 AM'
p81
aI10
aI30
aI11
aI45
aNaNaNaNaNaNaNag5
aa(lp82
S'IAS300'
p83
aI90748
aI28
aI40
aS'M W'
p84
aS' 3:00 PM'
p85
aI15
aI0
aI16
aI15
aNaNaNaNaNaNaNag5
aa(lp86
S'IAS340'
p87
aI86228
aI16
aI20
ag31
aS' 6:00 PM'
p88
aI18
aI0
aI20
aI45
aNaNaNaNaNaNaNag5
aa(lp89
S'IAS394'
p90
aI87116
aI25
aI25
ag35
aS'12:00 PM'
p91
aI12
aI0
aI12
aI50
aNaNaNaNaNaNaNag5
aa(lp92
S'IAS406'
p93
aI75669
aI24
aI30
aS'M W'
p94
aS' 3:00 PM'
p95
aI15
aI0
aI16
aI15
aNaNaNaNaNaNaNag5
aa(lp96
S'IAS410'
p97
aI77232
aI33
aI40
ag27
aS' 6:00 PM'
p98
aI18
aI0
aI20
aI45
aNaNaNaNaNaNaNag5
aa(lp99
S'IAS410'
p100
aI77620
aI24
aI30
ag67
aNaNaNaNaNaNaNaNaNaNaNaNag20
aa(lp101
S'IAS415'
p102
aI75926
aI36
aI40
aS'T Th'
p103
aS'12:00 PM'
p104
aI12
aI0
aI13
aI15
aNaNaNaNaNaNaNag5
aa(lp105
S'IAS420'
p106
aI83382
aI14
aI15
ag67
aNaNaNaNaNaNaNaNaNaNaNaNag20
aa(lp107
S'IAS480'
p108
aI82747
aI16
aI20
ag67
aNaNaNaNaNaNaNaNaNaNaNaNag20
aa(lp109
S'IAS484'
p110
aI71420
aI19
aI20
ag67
aNaNaNaNaNaNaNaNaNaNaNaNag5
aa(lp111
S'IAS484'
p112
aI86409
aI6
aI6
ag27
aS'4:30PM'
p113
aI16
aI30
aI19
aI15
ag49
ag49
aNaNag49
aNaNag5
aa.