(lp0
(lp1
S'IDN101'
p2
aI83142
aI5
aI5
aS'ONLINE'
p3
aNaNaNaNaNaNaNaNaNaNaNaNaS'Not Reserved'
p4
aa(lp5
S'IDN101'
p6
aI80245
aI14
aI15
aS'M T W Th F'
p7
aS' 1:30 PM'
p8
aI13
aI30
aI14
aI20
aNaNaNaNaNaNaNag4
aa(lp9
S'IDN201'
p10
aI83650
aI7
aI10
ag3
aNaNaNaNaNaNaNaNaNaNaNaNag4
aa(lp11
S'IDN394'
p12
aI83654
aI4
aI5
ag3
aNaNaNaNaNaNaNaNaNaNaNaNag4
aa(lp13
S'IDN499'
p14
aI71421
aI5
aI5
ag3
aNaNaNaNaNaNaNaNaNaNaNaNag4
aa.