(lp0
(lp1
S'IED394'
p2
aI84453
aI11
aI11
aS'T'
p3
aS' 5:00 PM'
p4
aI17
aI0
aI20
aI0
aNaNaNaNaNaNaNaS'Not Reserved'
p5
aa(lp6
S'IED394'
p7
aI91411
aI15
aI15
aS'Sa'
p8
aS'9:00AM'
p9
aI9
aI0
aI15
aI0
aS''
p10
aS'12:00AM'
p11
aNaNaS'12:00AM'
p12
aNaNag5
aa(lp13
S'IED410'
p14
aI83537
aI15
aI15
aS'Sa'
p15
aS'9:00AM'
p16
aI9
aI0
aI15
aI0
ag10
aS'12:00AM'
p17
aNaNaS'12:00AM'
p18
aNaNag5
aa.