(lp0
(lp1
S'IEE210'
p2
aI71422
aI7
aI130
aS'T Th'
p3
aS' 9:00 AM'
p4
aI9
aI0
aI10
aI15
aNaNaNaNaNaNaNaS'Not Reserved'
p5
aa(lp6
S'IEE220'
p7
aI73571
aI54
aI120
aS'M W'
p8
aS' 4:30 PM'
p9
aI16
aI30
aI17
aI45
aNaNaNaNaNaNaNag5
aa(lp10
S'IEE300'
p11
aI71423
aI38
aI132
aS'T Th'
p12
aS' 3:00 PM'
p13
aI15
aI0
aI16
aI15
aNaNaNaNaNaNaNag5
aa(lp14
S'IEE305'
p15
aI71424
aI0
aI51
aS'T'
p16
aS'10:30AM'
p17
aI10
aI30
aI11
aI45
aS''
p18
ag18
aNaNag18
aNaNaS'Reserved'
p19
aa(lp20
S'IEE305'
p21
aI86856
aI27
aI51
aS'Th'
p22
aS'10:30AM'
p23
aI10
aI30
aI11
aI45
ag18
ag18
aNaNag18
aNaNag5
aa(lp24
S'IEE376'
p25
aI71425
aI39
aI82
aS'T Th'
p26
aS'12:00 PM'
p27
aI12
aI0
aI13
aI15
aNaNaNaNaNaNaNag5
aa(lp28
S'IEE380'
p29
aI78158
aI8
aI438
aS'T Th'
p30
aS' 4:30 PM'
p31
aI16
aI30
aI17
aI45
aNaNaNaNaNaNaNag19
aa(lp32
S'IEE385'
p33
aI82093
aI80
aI125
aS'T Th'
p34
aS' 6:00 PM'
p35
aI18
aI0
aI19
aI15
aNaNaNaNaNaNaNag5
aa(lp36
S'IEE394'
p37
aI79781
aI50
aI100
aS'ONLINE'
p38
aNaNaNaNaNaNaNaNaNaNaNaNag19
aa(lp39
S'IEE412'
p40
aI82096
aI11
aI30
ag38
aNaNaNaNaNaNaNaNaNaNaNaNag19
aa(lp41
S'IEE431'
p42
aI75877
aI4
aI61
aS'M W'
p43
aS' 4:30 PM'
p44
aI16
aI30
aI17
aI45
aNaNaNaNaNaNaNag5
aa(lp45
S'IEE437'
p46
aI71426
aI13
aI29
aS'M W'
p47
aS' 6:00 PM'
p48
aI18
aI0
aI19
aI15
aNaNaNaNaNaNaNag5
aa(lp49
S'IEE454'
p50
aI78647
aI71
aI150
aS'T Th'
p51
aS' 4:30 PM'
p52
aI16
aI30
aI17
aI45
aNaNaNaNaNaNaNag5
aa(lp53
S'IEE456'
p54
aI78748
aI6
aI58
aS'M W'
p55
aS'10:30 AM'
p56
aI10
aI30
aI11
aI45
aNaNaNaNaNaNaNag5
aa(lp57
S'IEE461'
p58
aI78749
aI19
aI80
aS'M W'
p59
aS' 3:00 PM'
p60
aI15
aI0
aI16
aI15
aNaNaNaNaNaNaNag5
aa(lp61
S'IEE470'
p62
aI72698
aI33
aI100
aS'M W'
p63
aS' 1:30 PM'
p64
aI13
aI30
aI14
aI45
aNaNaNaNaNaNaNag5
aa(lp65
S'IEE474'
p66
aI74674
aI56
aI132
aS'T Th'
p67
aS' 1:30 PM'
p68
aI13
aI30
aI14
aI45
aNaNaNaNaNaNaNag5
aa(lp69
S'IEE475'
p70
aI71427
aI10
aI102
aS'T Th'
p71
aS'10:30 AM'
p72
aI10
aI30
aI11
aI45
aNaNaNaNaNaNaNag5
aa(lp73
S'IEE475'
p74
aI74622
aI8
aI51
aS'F'
p75
aS' 1:30 PM'
p76
aI13
aI30
aI16
aI0
aNaNaNaNaNaNaNag5
aa(lp77
S'IEE475'
p78
aI75728
aI2
aI51
ag75
aS' 9:00 AM'
p79
aI9
aI0
aI11
aI30
aNaNaNaNaNaNaNag5
aa(lp80
S'IEE485'
p81
aI82094
aI10
aI82
aS'T Th'
p82
aS' 9:00 AM'
p83
aI9
aI0
aI10
aI15
aNaNaNaNaNaNaNag5
aa(lp84
S'IEE486'
p85
aI86871
aI47
aI66
aS'T Th'
p86
aS' 9:00 AM'
p87
aI9
aI0
aI10
aI15
aNaNaNaNaNaNaNag5
aa(lp88
S'IEE492'
p89
aI78305
aI30
aI30
ag38
aNaNaNaNaNaNaNaNaNaNaNaNag5
aa(lp90
S'IEE493'
p91
aI74997
aI30
aI30
ag38
aNaNaNaNaNaNaNaNaNaNaNaNag5
aa(lp92
S'IEE520'
p93
aI72892
aI0
aI82
aS'T Th'
p94
aS' 4:30 PM'
p95
aI16
aI30
aI17
aI45
aNaNaNaNaNaNaNag19
aa(lp96
S'IEE535'
p97
aI74601
aI0
aI42
aS'T Th'
p98
aS' 6:00 PM'
p99
aI18
aI0
aI19
aI15
aNaNaNaNaNaNaNag19
aa(lp100
S'IEE541'
p101
aI76445
aI0
aI21
aS'M W'
p102
aS' 4:30 PM'
p103
aI16
aI30
aI17
aI45
aNaNaNaNaNaNaNag19
aa(lp104
S'IEE547'
p105
aI71429
aI15
aI31
aS'M W'
p106
aS' 6:00 PM'
p107
aI18
aI0
aI19
aI15
aNaNaNaNaNaNaNag5
aa(lp108
S'IEE552'
p109
aI71430
aI28
aI80
aS'M W'
p110
aS' 9:00 AM'
p111
aI9
aI0
aI10
aI15
aNaNaNaNaNaNaNag5
aa(lp112
S'IEE556'
p113
aI79382
aI0
aI31
aS'M W'
p114
aS'10:30 AM'
p115
aI10
aI30
aI11
aI45
aNaNaNaNaNaNaNag19
aa(lp116
S'IEE572'
p117
aI76367
aI122
aI150
aS'T Th'
p118
aS'10:30 AM'
p119
aI10
aI30
aI11
aI45
aNaNaNaNaNaNaNag19
aa(lp120
S'IEE578'
p121
aI71431
aI7
aI66
aS'T Th'
p122
aS' 1:30 PM'
p123
aI13
aI30
aI14
aI45
aNaNaNaNaNaNaNag5
aa(lp124
S'IEE579'
p125
aI77740
aI0
aI66
aS'T Th'
p126
aS' 3:00 PM'
p127
aI15
aI0
aI16
aI15
aNaNaNaNaNaNaNag19
aa(lp128
S'IEE580'
p129
aI74998
aI29
aI30
ag38
aNaNaNaNaNaNaNaNaNaNaNaNag5
aa(lp130
S'IEE581'
p131
aI76213
aI10
aI80
aS'M W'
p132
aS' 6:00 PM'
p133
aI18
aI0
aI19
aI15
aNaNaNaNaNaNaNag5
aa(lp134
S'IEE585'
p135
aI83279
aI27
aI30
ag38
aNaNaNaNaNaNaNaNaNaNaNaNag19
aa(lp136
S'IEE594'
p137
aI71432
aI27
aI30
aS'M'
p138
aS' 1:00 PM'
p139
aI13
aI0
aI13
aI50
aNaNaNaNaNaNaNag5
aa(lp140
S'IEE595'
p141
aI71433
aI29
aI30
ag38
aNaNaNaNaNaNaNaNaNaNaNaNag5
aa(lp142
S'IEE599'
p143
aI85941
aI30
aI30
ag38
aNaNaNaNaNaNaNaNaNaNaNaNag5
aa(lp144
S'IEE605'
p145
aI79381
aI25
aI30
aS'T Th'
p146
aS' 1:30 PM'
p147
aI13
aI30
aI14
aI45
aNaNaNaNaNaNaNag5
aa(lp148
S'IEE620'
p149
aI73691
aI32
aI46
aS'M W'
p150
aS' 3:00 PM'
p151
aI15
aI0
aI16
aI15
aNaNaNaNaNaNaNag5
aa(lp152
S'IEE640'
p153
aI79380
aI41
aI46
aS'M W'
p154
aS'10:30 AM'
p155
aI10
aI30
aI11
aI45
aNaNaNaNaNaNaNag5
aa(lp156
S'IEE784'
p157
aI74999
aI30
aI30
ag38
aNaNaNaNaNaNaNaNaNaNaNaNag5
aa(lp158
S'IEE790'
p159
aI75000
aI30
aI30
ag38
aNaNaNaNaNaNaNaNaNaNaNaNag5
aa(lp160
S'IEE792'
p161
aI75001
aI30
aI30
ag38
aNaNaNaNaNaNaNaNaNaNaNaNag5
aa(lp162
S'IEE795'
p163
aI71434
aI30
aI30
ag38
aNaNaNaNaNaNaNaNaNaNaNaNag5
aa(lp164
S'IEE799'
p165
aI75002
aI30
aI30
ag38
aNaNaNaNaNaNaNaNaNaNaNaNag5
aa.