(lp0
(lp1
S'ITA101'
p2
aI89493
aI7
aI22
aS'ONLINE'
p3
aNaNaNaNaNaNaNaNaNaNaNaNaS'Reserved'
p4
aa(lp5
S'ITA101'
p6
aI83981
aI12
aI28
aS'M W'
p7
aS'10:30AM'
p8
aI10
aI30
aI11
aI45
aS''
p9
ag9
aNaNag9
aNaNaS'Not Reserved'
p10
aa(lp11
S'ITA101'
p12
aI83982
aI19
aI28
aS'M W'
p13
aS'12:00PM'
p14
aI12
aI0
aI13
aI15
ag9
ag9
aNaNag9
aNaNag10
aa(lp15
S'ITA101'
p16
aI73628
aI17
aI28
aS'T Th'
p17
aS'12:00PM'
p18
aI12
aI0
aI13
aI15
ag9
ag9
aNaNag9
aNaNag10
aa(lp19
S'ITA101'
p20
aI73893
aI23
aI28
aS'M W'
p21
aS'10:30AM'
p22
aI10
aI30
aI11
aI45
ag9
ag9
aNaNag9
aNaNag10
aa(lp23
S'ITA101'
p24
aI76096
aI21
aI28
aS'T Th'
p25
aS'1:30PM'
p26
aI13
aI30
aI14
aI45
ag9
ag9
aNaNag9
aNaNag10
aa(lp27
S'ITA101'
p28
aI83117
aI21
aI24
aS'M W'
p29
aS'9:00AM'
p30
aI9
aI0
aI10
aI15
ag9
ag9
aNaNag9
aNaNag10
aa(lp31
S'ITA102'
p32
aI89498
aI0
aI12
ag3
aNaNaNaNaNaNaNaNaNaNaNaNag4
aa(lp33
S'ITA102'
p34
aI73630
aI11
aI28
aS'T Th'
p35
aS'12:00PM'
p36
aI12
aI0
aI13
aI15
ag9
ag9
aNaNag9
aNaNag10
aa(lp37
S'ITA102'
p38
aI73836
aI15
aI28
aS'M W'
p39
aS'1:30PM'
p40
aI13
aI30
aI14
aI45
ag9
ag9
aNaNag9
aNaNag10
aa(lp41
S'ITA110'
p42
aI90825
aI25
aI28
aS'M T W Th'
p43
aS'12:00 PM'
p44
aI12
aI0
aI13
aI15
aNaNaNaNaNaNaNag10
aa(lp45
S'ITA194'
p46
aI83740
aI24
aI28
aS'T Th'
p47
aS'12:00PM'
p48
aI12
aI0
aI13
aI15
ag9
ag9
aNaNag9
aNaNag10
aa(lp49
S'ITA201'
p50
aI89504
aI16
aI22
ag3
aNaNaNaNaNaNaNaNaNaNaNaNag4
aa(lp51
S'ITA201'
p52
aI90278
aI8
aI28
aS'T Th'
p53
aS'12:00PM'
p54
aI12
aI0
aI13
aI15
ag9
ag9
aNaNag9
aNaNag10
aa(lp55
S'ITA201'
p56
aI73294
aI6
aI28
aS'M W'
p57
aS'12:00PM'
p58
aI12
aI0
aI13
aI15
ag9
ag9
aNaNag9
aNaNag10
aa(lp59
S'ITA201'
p60
aI79968
aI27
aI28
aS'T Th'
p61
aS'10:30AM'
p62
aI10
aI30
aI11
aI45
ag9
ag9
aNaNag9
aNaNag10
aa(lp63
S'ITA202'
p64
aI89508
aI16
aI22
ag3
aNaNaNaNaNaNaNaNaNaNaNaNag4
aa(lp65
S'ITA202'
p66
aI71467
aI19
aI28
aS'T Th'
p67
aS'10:30AM'
p68
aI10
aI30
aI11
aI45
ag9
ag9
aNaNag9
aNaNag10
aa(lp69
S'ITA311'
p70
aI73894
aI19
aI25
aS'T Th'
p71
aS' 1:30 PM'
p72
aI13
aI30
aI14
aI45
aNaNaNaNaNaNaNag10
aa(lp73
S'ITA321'
p74
aI79976
aI14
aI25
aS'T Th'
p75
aS'12:00 PM'
p76
aI12
aI0
aI13
aI15
aNaNaNaNaNaNaNag10
aa(lp77
S'ITA394'
p78
aI90272
aI23
aI28
aS'M W'
p79
aS'12:00 PM'
p80
aI12
aI0
aI13
aI15
aNaNaNaNaNaNaNag10
aa(lp81
S'ITA420'
p82
aI83723
aI21
aI28
aS'W'
p83
aS' 4:30 PM'
p84
aI16
aI30
aI19
aI15
aNaNaNaNaNaNaNag10
aa(lp85
S'ITA484'
p86
aI71468
aI5
aI5
ag3
aNaNaNaNaNaNaNaNaNaNaNaNag10
aa(lp87
S'ITA492'
p88
aI71469
aI2
aI2
ag3
aNaNaNaNaNaNaNaNaNaNaNaNag10
aa(lp89
S'ITA493'
p90
aI71470
aI1
aI1
ag3
aNaNaNaNaNaNaNaNaNaNaNaNag10
aa(lp91
S'ITA494'
p92
aI89521
aI26
aI28
aS'T Th'
p93
aS'10:30 AM'
p94
aI10
aI30
aI11
aI45
aNaNaNaNaNaNaNag10
aa(lp95
S'ITA499'
p96
aI71471
aI2
aI2
ag3
aNaNaNaNaNaNaNaNaNaNaNaNag10
aa(lp97
S'ITA590'
p98
aI71472
aI5
aI5
ag3
aNaNaNaNaNaNaNaNaNaNaNaNag10
aa(lp99
S'ITA598'
p100
aI91850
aI23
aI25
aS'M W'
p101
aS' 1:30 PM'
p102
aI13
aI30
aI14
aI45
aNaNaNaNaNaNaNag10
aa.