(lp0
(lp1
S'JHR501'
p2
aI73334
aI17
aI25
aS'W'
p3
aS' 6:00 PM'
p4
aI18
aI0
aI20
aI45
aNaNaNaNaNaNaNaS'Not Reserved'
p5
aa(lp6
S'JHR506'
p7
aI75422
aI9
aI25
aS'ONLINE'
p8
aNaNaNaNaNaNaNaNaNaNaNaNaS'Reserved'
p9
aa(lp10
S'JHR510'
p11
aI73335
aI20
aI25
aS'T'
p12
aS' 6:00 PM'
p13
aI18
aI0
aI20
aI45
aNaNaNaNaNaNaNag5
aa(lp14
S'JHR580'
p15
aI91427
aI4
aI5
ag8
aNaNaNaNaNaNaNaNaNaNaNaNag5
aa(lp16
S'JHR584'
p17
aI75133
aI6
aI10
aS'M'
p18
aS'4:30PM'
p19
aI16
aI30
aI19
aI15
aS''
p20
ag20
aNaNag20
aNaNag5
aa(lp21
S'JHR590'
p22
aI86055
aI5
aI5
ag8
aNaNaNaNaNaNaNaNaNaNaNaNag5
aa(lp23
S'JHR592'
p24
aI77076
aI4
aI5
ag8
aNaNaNaNaNaNaNaNaNaNaNaNag5
aa(lp25
S'JHR595'
p26
aI78138
aI1
aI1
ag8
aNaNaNaNaNaNaNaNaNaNaNaNag5
aa(lp27
S'JHR598'
p28
aI81549
aI0
aI5
aS'T Th'
p29
aS' 4:30 PM'
p30
aI16
aI30
aI17
aI45
aNaNaNaNaNaNaNag9
aa(lp31
S'JHR598'
p32
aI80842
aI0
aI5
ag8
aNaNaNaNaNaNaNaNaNaNaNaNag9
aa(lp33
S'JHR598'
p34
aI87038
aI4
aI5
ag18
aS' 4:30 PM'
p35
aI16
aI30
aI19
aI15
aNaNaNaNaNaNaNag5
aa(lp36
S'JHR598'
p37
aI87039
aI5
aI5
aS'Th'
p38
aS' 4:30 PM'
p39
aI16
aI30
aI19
aI15
aNaNaNaNaNaNaNag5
aa(lp40
S'JHR599'
p41
aI85950
aI5
aI5
ag8
aNaNaNaNaNaNaNaNaNaNaNaNag5
aa.