(lp0
(lp1
S'JST131'
p2
aI80091
aI5
aI5
aS'M W'
p3
aS' 4:30 PM'
p4
aI16
aI30
aI17
aI45
aNaNaNaNaNaNaNaS'Not Reserved'
p5
aa(lp6
S'JST210'
p7
aI77299
aI7
aI20
aS'T Th'
p8
aS' 9:00 AM'
p9
aI9
aI0
aI10
aI15
aNaNaNaNaNaNaNag5
aa(lp10
S'JST231'
p11
aI80093
aI5
aI5
aS'M W'
p12
aS' 3:00 PM'
p13
aI15
aI0
aI16
aI15
aNaNaNaNaNaNaNag5
aa(lp14
S'JST304'
p15
aI90905
aI10
aI10
aS'T Th'
p16
aS'12:00 PM'
p17
aI12
aI0
aI13
aI15
aNaNaNaNaNaNaNag5
aa(lp18
S'JST315'
p19
aI91664
aI30
aI30
aS'ONLINE'
p20
aNaNaNaNaNaNaNaNaNaNaNaNaS'Reserved'
p21
aa.