(lp0
(lp1
S'JUS105'
p2
aI76308
aI5
aI20
aS'ONLINE'
p3
aNaNaNaNaNaNaNaNaNaNaNaNaS'Reserved'
p4
aa(lp5
S'JUS105'
p6
aI89554
aI132
aI150
aS'M W'
p7
aS' 9:00 AM'
p8
aI9
aI0
aI9
aI50
aNaNaNaNaNaNaNaS'Not Reserved'
p9
aa(lp10
S'JUS105'
p11
aI89556
aI20
aI30
aS'F'
p12
aS' 9:00 AM'
p13
aI9
aI0
aI9
aI50
aNaNaNaNaNaNaNag9
aa(lp14
S'JUS105'
p15
aI89557
aI26
aI30
ag12
aS'10:30 AM'
p16
aI10
aI30
aI11
aI20
aNaNaNaNaNaNaNag9
aa(lp17
S'JUS105'
p18
aI89558
aI28
aI30
ag12
aS' 1:30 PM'
p19
aI13
aI30
aI14
aI20
aNaNaNaNaNaNaNag9
aa(lp20
S'JUS105'
p21
aI89559
aI30
aI30
ag12
aS' 3:00 PM'
p22
aI15
aI0
aI15
aI50
aNaNaNaNaNaNaNag9
aa(lp23
S'JUS105'
p24
aI89562
aI28
aI30
ag12
aS'12:00 PM'
p25
aI12
aI0
aI12
aI50
aNaNaNaNaNaNaNag9
aa(lp26
S'JUS191'
p27
aI79665
aI19
aI19
ag12
aS' 1:30 PM'
p28
aI13
aI30
aI14
aI20
aNaNaNaNaNaNaNag4
aa(lp29
S'JUS191'
p30
aI74852
aI18
aI19
ag12
aS'12:00 PM'
p31
aI12
aI0
aI12
aI50
aNaNaNaNaNaNaNag4
aa(lp32
S'JUS191'
p33
aI79666
aI17
aI19
ag12
aS'10:30 AM'
p34
aI10
aI30
aI11
aI20
aNaNaNaNaNaNaNag4
aa(lp35
S'JUS207'
p36
aI89546
aI16
aI150
aS'T Th'
p37
aS' 3:00 PM'
p38
aI15
aI0
aI16
aI15
aNaNaNaNaNaNaNag9
aa(lp39
S'JUS210'
p40
aI91039
aI9
aI10
aS'Th'
p41
aS'1:30PM'
p42
aI13
aI30
aI14
aI45
aS''
p43
aS'12:00AM'
p44
aNaNaS'12:00AM'
p45
aNaNag9
aa(lp46
S'JUS210'
p47
aI91040
aI2
aI5
aS'T'
p48
aS'1:30PM'
p49
aI13
aI30
aI14
aI45
ag43
aS'12:00AM'
p50
aNaNaS'12:00AM'
p51
aNaNag9
aa(lp52
S'JUS215'
p53
aI91037
aI20
aI30
aS'T Th'
p54
aS'12:00 PM'
p55
aI12
aI0
aI13
aI15
aNaNaNaNaNaNaNag9
aa(lp56
S'JUS222'
p57
aI74881
aI170
aI200
aS'T Th'
p58
aS'10:30 AM'
p59
aI10
aI30
aI11
aI45
aNaNaNaNaNaNaNag9
aa(lp60
S'JUS300'
p61
aI84275
aI12
aI15
aS'T Th'
p62
aS' 3:00 PM'
p63
aI15
aI0
aI16
aI15
aNaNaNaNaNaNaNag9
aa(lp64
S'JUS301'
p65
aI83037
aI4
aI20
ag3
aNaNaNaNaNaNaNaNaNaNaNaNag4
aa(lp66
S'JUS301'
p67
aI76370
aI9
aI20
ag3
aNaNaNaNaNaNaNaNaNaNaNaNag4
aa(lp68
S'JUS301'
p69
aI80335
aI29
aI40
aS'M W F'
p70
aS'10:30 AM'
p71
aI10
aI30
aI11
aI20
aNaNaNaNaNaNaNag9
aa(lp72
S'JUS302'
p73
aI76353
aI17
aI25
ag3
aNaNaNaNaNaNaNaNaNaNaNaNag4
aa(lp74
S'JUS302'
p75
aI83068
aI4
aI30
aS'T Th'
p76
aS' 3:00 PM'
p77
aI15
aI0
aI16
aI15
aNaNaNaNaNaNaNag9
aa(lp78
S'JUS303'
p79
aI76389
aI0
aI29
ag3
aNaNaNaNaNaNaNaNaNaNaNaNag4
aa(lp80
S'JUS303'
p81
aI79419
aI0
aI40
aS'T Th'
p82
aS'12:00 PM'
p83
aI12
aI0
aI13
aI15
aNaNaNaNaNaNaNag4
aa(lp84
S'JUS303'
p85
aI79430
aI7
aI40
aS'M W F'
p86
aS' 9:00 AM'
p87
aI9
aI0
aI9
aI50
aNaNaNaNaNaNaNag9
aa(lp88
S'JUS303'
p89
aI90111
aI15
aI40
aS'M'
p90
aS' 4:30 PM'
p91
aI16
aI30
aI19
aI15
aNaNaNaNaNaNaNag9
aa(lp92
S'JUS305'
p93
aI76310
aI12
aI20
ag3
aNaNaNaNaNaNaNaNaNaNaNaNag4
aa(lp94
S'JUS305'
p95
aI79431
aI35
aI40
aS'M W F'
p96
aS' 1:30 PM'
p97
aI13
aI30
aI14
aI20
aNaNaNaNaNaNaNag9
aa(lp98
S'JUS325'
p99
aI79432
aI23
aI30
aS'T Th'
p100
aS' 9:00 AM'
p101
aI9
aI0
aI10
aI15
aNaNaNaNaNaNaNag9
aa(lp102
S'JUS329'
p103
aI83539
aI0
aI20
ag3
aNaNaNaNaNaNaNaNaNaNaNaNag4
aa(lp104
S'JUS329'
p105
aI84055
aI6
aI20
ag3
aNaNaNaNaNaNaNaNaNaNaNaNag4
aa(lp106
S'JUS350'
p107
aI79584
aI27
aI50
ag3
aNaNaNaNaNaNaNaNaNaNaNaNag4
aa(lp108
S'JUS352'
p109
aI83541
aI4
aI25
ag3
aNaNaNaNaNaNaNaNaNaNaNaNag4
aa(lp110
S'JUS353'
p111
aI90867
aI8
aI10
aS'T Th'
p112
aS'10:30 AM'
p113
aI10
aI30
aI11
aI45
aNaNaNaNaNaNaNag9
aa(lp114
S'JUS360'
p115
aI79433
aI12
aI60
aS'T Th'
p116
aS'12:00 PM'
p117
aI12
aI0
aI13
aI15
aNaNaNaNaNaNaNag9
aa(lp118
S'JUS365'
p119
aI83879
aI6
aI10
ag3
aNaNaNaNaNaNaNaNaNaNaNaNag4
aa(lp120
S'JUS374'
p121
aI76365
aI23
aI75
ag3
aNaNaNaNaNaNaNaNaNaNaNaNag4
aa(lp122
S'JUS382'
p123
aI90108
aI0
aI30
ag3
aNaNaNaNaNaNaNaNaNaNaNaNag4
aa(lp124
S'JUS385'
p125
aI77308
aI0
aI40
ag3
aNaNaNaNaNaNaNaNaNaNaNaNag4
aa(lp126
S'JUS394'
p127
aI91395
aI5
aI6
aS'W'
p128
aS' 4:30 PM'
p129
aI16
aI30
aI18
aI20
aNaNaNaNaNaNaNag9
aa(lp130
S'JUS394'
p131
aI85627
aI13
aI20
ag3
aNaNaNaNaNaNaNaNaNaNaNaNag9
aa(lp132
S'JUS394'
p133
aI79414
aI24
aI30
ag128
aS' 4:30 PM'
p134
aI16
aI30
aI19
aI15
aNaNaNaNaNaNaNag9
aa(lp135
S'JUS394'
p136
aI89781
aI25
aI30
aS'M W'
p137
aS' 3:00 PM'
p138
aI15
aI0
aI16
aI15
aNaNaNaNaNaNaNag9
aa(lp139
S'JUS394'
p140
aI90220
aI13
aI15
aS'M W'
p141
aS' 3:00 PM'
p142
aI15
aI0
aI16
aI15
aNaNaNaNaNaNaNag9
aa(lp143
S'JUS427'
p144
aI89770
aI14
aI45
aS'T Th'
p145
aS' 1:30 PM'
p146
aI13
aI30
aI14
aI45
aNaNaNaNaNaNaNag9
aa(lp147
S'JUS432'
p148
aI76722
aI4
aI50
ag3
aNaNaNaNaNaNaNaNaNaNaNaNag4
aa(lp149
S'JUS435'
p150
aI91201
aI4
aI40
ag3
aNaNaNaNaNaNaNaNaNaNaNaNag4
aa(lp151
S'JUS438'
p152
aI79441
aI0
aI38
aS'T Th'
p153
aS' 3:00 PM'
p154
aI15
aI0
aI16
aI15
aNaNaNaNaNaNaNag4
aa(lp155
S'JUS444'
p156
aI79379
aI24
aI38
aS'T Th'
p157
aS' 9:00 AM'
p158
aI9
aI0
aI10
aI15
aNaNaNaNaNaNaNag9
aa(lp159
S'JUS445'
p160
aI90813
aI4
aI40
aS'T Th'
p161
aS'12:00 PM'
p162
aI12
aI0
aI13
aI15
aNaNaNaNaNaNaNag9
aa(lp163
S'JUS460'
p164
aI90886
aI34
aI40
aS'T Th'
p165
aS' 4:30 PM'
p166
aI16
aI30
aI17
aI45
aNaNaNaNaNaNaNag9
aa(lp167
S'JUS465'
p168
aI76475
aI26
aI60
ag48
aS' 4:30 PM'
p169
aI16
aI30
aI19
aI15
aNaNaNaNaNaNaNag9
aa(lp170
S'JUS467'
p171
aI79445
aI12
aI40
aS'T Th'
p172
aS' 9:00 AM'
p173
aI9
aI0
aI10
aI15
aNaNaNaNaNaNaNag9
aa(lp174
S'JUS477'
p175
aI90110
aI0
aI20
ag3
aNaNaNaNaNaNaNaNaNaNaNaNag4
aa(lp176
S'JUS477'
p177
aI77316
aI0
aI10
ag3
aNaNaNaNaNaNaNaNaNaNaNaNag4
aa(lp178
S'JUS484'
p179
aI71497
aI20
aI20
ag3
aNaNaNaNaNaNaNaNaNaNaNaNag9
aa(lp180
S'JUS484'
p181
aI76600
aI8
aI10
ag3
aNaNaNaNaNaNaNaNaNaNaNaNag9
aa(lp182
S'JUS492'
p183
aI71498
aI5
aI5
ag3
aNaNaNaNaNaNaNaNaNaNaNaNag9
aa(lp184
S'JUS493'
p185
aI71499
aI1
aI2
ag3
aNaNaNaNaNaNaNaNaNaNaNaNag4
aa(lp186
S'JUS493'
p187
aI91765
aI5
aI5
ag3
aNaNaNaNaNaNaNaNaNaNaNaNag9
aa(lp188
S'JUS494'
p189
aI89785
aI8
aI20
aS'Th'
p190
aS' 4:30 PM'
p191
aI16
aI30
aI19
aI15
aNaNaNaNaNaNaNag9
aa(lp192
S'JUS498'
p193
aI71500
aI10
aI10
ag3
aNaNaNaNaNaNaNaNaNaNaNaNag9
aa(lp194
S'JUS499'
p195
aI71501
aI5
aI5
ag3
aNaNaNaNaNaNaNaNaNaNaNaNag9
aa(lp196
S'JUS500'
p197
aI79828
aI10
aI20
ag128
aS' 4:30 PM'
p198
aI16
aI30
aI19
aI15
aNaNaNaNaNaNaNag9
aa(lp199
S'JUS501'
p200
aI83045
aI7
aI15
ag48
aS' 4:30 PM'
p201
aI16
aI30
aI19
aI15
aNaNaNaNaNaNaNag9
aa(lp202
S'JUS542'
p203
aI91510
aI15
aI15
ag128
aS' 5:00 PM'
p204
aI17
aI0
aI19
aI45
aNaNaNaNaNaNaNag9
aa(lp205
S'JUS584'
p206
aI71502
aI5
aI5
ag3
aNaNaNaNaNaNaNaNaNaNaNaNag9
aa(lp207
S'JUS590'
p208
aI71503
aI12
aI15
ag3
aNaNaNaNaNaNaNaNaNaNaNaNag9
aa(lp209
S'JUS591'
p210
aI90189
aI0
aI10
aS'Th'
p211
aS' 4:30 PM'
p212
aI16
aI30
aI19
aI15
aNaNaNaNaNaNaNag4
aa(lp213
S'JUS592'
p214
aI71504
aI14
aI15
ag3
aNaNaNaNaNaNaNaNaNaNaNaNag9
aa(lp215
S'JUS593'
p216
aI71505
aI14
aI15
ag3
aNaNaNaNaNaNaNaNaNaNaNaNag9
aa(lp217
S'JUS598'
p218
aI83919
aI1
aI1
ag128
aS' 4:30 PM'
p219
aI16
aI30
aI19
aI15
aNaNaNaNaNaNaNag9
aa(lp220
S'JUS599'
p221
aI71506
aI15
aI15
ag3
aNaNaNaNaNaNaNaNaNaNaNaNag9
aa(lp222
S'JUS620'
p223
aI83535
aI13
aI15
ag48
aS' 1:30 PM'
p224
aI13
aI30
aI16
aI15
aNaNaNaNaNaNaNag9
aa(lp225
S'JUS640'
p226
aI83062
aI15
aI15
aS'Th'
p227
aS' 4:30 PM'
p228
aI16
aI30
aI19
aI15
aNaNaNaNaNaNaNag9
aa(lp229
S'JUS691'
p230
aI83064
aI4
aI10
ag48
aS' 4:30 PM'
p231
aI16
aI30
aI19
aI15
aNaNaNaNaNaNaNag9
aa(lp232
S'JUS691'
p233
aI84415
aI13
aI15
ag128
aS' 1:30 PM'
p234
aI13
aI30
aI16
aI15
aNaNaNaNaNaNaNag9
aa(lp235
S'JUS790'
p236
aI71507
aI15
aI15
ag3
aNaNaNaNaNaNaNaNaNaNaNaNag9
aa(lp237
S'JUS792'
p238
aI71508
aI25
aI25
ag3
aNaNaNaNaNaNaNaNaNaNaNaNag9
aa(lp239
S'JUS795'
p240
aI71509
aI5
aI5
ag3
aNaNaNaNaNaNaNaNaNaNaNaNag9
aa(lp241
S'JUS799'
p242
aI71510
aI20
aI20
ag3
aNaNaNaNaNaNaNaNaNaNaNaNag9
aa.