(lp0
(lp1
S'KOR101'
p2
aI71511
aI14
aI28
aS'M W'
p3
aS'9:00AM'
p4
aI9
aI0
aI10
aI15
aS'T Th'
p5
aS'9:00AM'
p6
aI9
aI0
aS'9:50AM'
p7
aI9
aI50
aS'Not Reserved'
p8
aa(lp9
S'KOR101'
p10
aI71512
aI3
aI28
aS'M W'
p11
aS'12:00PM'
p12
aI12
aI0
aI13
aI15
aS'T Th'
p13
aS'12:00PM'
p14
aI12
aI0
aS'12:50PM'
p15
aI12
aI50
ag8
aa(lp16
S'KOR101'
p17
aI85622
aI7
aI28
aS'M W'
p18
aS'1:30PM'
p19
aI13
aI30
aI14
aI45
aS'T Th'
p20
aS'1:30PM'
p21
aI13
aI30
aS'2:20PM'
p22
aI14
aI20
ag8
aa(lp23
S'KOR201'
p24
aI71513
aI17
aI28
aS'M W'
p25
aS'10:30AM'
p26
aI10
aI30
aI11
aI45
aS'T Th'
p27
aS'10:30AM'
p28
aI10
aI30
aS'11:20AM'
p29
aI11
aI20
ag8
aa(lp30
S'KOR313'
p31
aI71514
aI23
aI25
aS'M W'
p32
aS'12:00 PM'
p33
aI12
aI0
aI13
aI15
aNaNaNaNaNaNaNag8
aa(lp34
S'KOR347'
p35
aI90616
aI2
aI28
aS'M W'
p36
aS' 4:30 PM'
p37
aI16
aI30
aI17
aI45
aNaNaNaNaNaNaNag8
aa(lp38
S'KOR350'
p39
aI82013
aI20
aI28
aS'T Th'
p40
aS' 3:00 PM'
p41
aI15
aI0
aI16
aI15
aNaNaNaNaNaNaNag8
aa(lp42
S'KOR354'
p43
aI91826
aI10
aI10
aS'ONLINE'
p44
aNaNaNaNaNaNaNaNaNaNaNaNag8
aa(lp45
S'KOR394'
p46
aI78807
aI18
aI21
aS'T Th'
p47
aS' 4:30 PM'
p48
aI16
aI30
aI17
aI45
aNaNaNaNaNaNaNag8
aa(lp49
S'KOR394'
p50
aI82792
aI12
aI15
aS'M W'
p51
aS'10:30 AM'
p52
aI10
aI30
aI11
aI45
aNaNaNaNaNaNaNag8
aa(lp53
S'KOR484'
p54
aI71515
aI3
aI3
ag44
aNaNaNaNaNaNaNaNaNaNaNaNag8
aa(lp55
S'KOR492'
p56
aI74357
aI3
aI3
ag44
aNaNaNaNaNaNaNaNaNaNaNaNag8
aa(lp57
S'KOR493'
p58
aI71516
aI2
aI2
ag44
aNaNaNaNaNaNaNaNaNaNaNaNag8
aa(lp59
S'KOR494'
p60
aI84362
aI11
aI15
aS'M W'
p61
aS' 1:30 PM'
p62
aI13
aI30
aI14
aI45
aNaNaNaNaNaNaNag8
aa(lp63
S'KOR499'
p64
aI71517
aI1
aI1
ag44
aNaNaNaNaNaNaNaNaNaNaNaNag8
aa.