(lp0
(lp1
S'LAS205'
p2
aI86272
aI34
aI35
aS'T'
p3
aS' 4:30 PM'
p4
aI16
aI30
aI19
aI15
aNaNaNaNaNaNaNaS'Not Reserved'
p5
aa(lp6
S'LAS355'
p7
aI90262
aI9
aI10
aS'W'
p8
aS' 4:30 PM'
p9
aI16
aI30
aI19
aI15
aNaNaNaNaNaNaNag5
aa.