(lp0
(lp1
S'LAT101'
p2
aI71518
aI26
aI30
aS'T'
p3
aS'7:30PM'
p4
aI19
aI30
aI20
aI45
aS''
p5
ag5
aNaNag5
aNaNaS'Not Reserved'
p6
aa(lp7
S'LAT101'
p8
aI74759
aI25
aI30
aS'M W'
p9
aS'10:30AM'
p10
aI10
aI30
aI11
aI45
aS'F'
p11
aS'10:30AM'
p12
aI10
aI30
aS'11:20AM'
p13
aI11
aI20
ag6
aa(lp14
S'LAT101'
p15
aI81373
aI22
aI30
aS'ONLINE'
p16
aNaNaNaNaNaNaNaNaNaNaNaNaS'Reserved'
p17
aa(lp18
S'LAT140'
p19
aI76261
aI5
aI10
ag16
aNaNaNaNaNaNaNaNaNaNaNaNag17
aa(lp20
S'LAT201'
p21
aI71519
aI10
aI25
aS'M W'
p22
aS'12:00PM'
p23
aI12
aI0
aI13
aI15
ag11
aS'12:00PM'
p24
aI12
aI0
aS'12:50PM'
p25
aI12
aI50
ag6
aa(lp26
S'LAT223'
p27
aI78918
aI9
aI15
aS'T Th'
p28
aS' 1:30 PM'
p29
aI13
aI30
aI14
aI45
aNaNaNaNaNaNaNag6
aa(lp30
S'LAT394'
p31
aI78952
aI22
aI25
aS'M W F'
p32
aS' 9:00 AM'
p33
aI9
aI0
aI9
aI50
aNaNaNaNaNaNaNag6
aa(lp34
S'LAT394'
p35
aI89063
aI20
aI20
aS'M W F'
p36
aS' 1:30 PM'
p37
aI13
aI30
aI14
aI20
aNaNaNaNaNaNaNag6
aa(lp38
S'LAT394'
p39
aI89064
aI14
aI15
aS'T Th'
p40
aS' 1:30 PM'
p41
aI13
aI30
aI14
aI45
aNaNaNaNaNaNaNag6
aa(lp42
S'LAT421'
p43
aI71521
aI14
aI18
aS'M W F'
p44
aS'10:30 AM'
p45
aI10
aI30
aI11
aI20
aNaNaNaNaNaNaNag6
aa(lp46
S'LAT494'
p47
aI73231
aI3
aI5
ag16
aNaNaNaNaNaNaNaNaNaNaNaNag6
aa(lp48
S'LAT499'
p49
aI73466
aI1
aI3
ag16
aNaNaNaNaNaNaNaNaNaNaNaNag6
aa(lp50
S'LAT598'
p51
aI71522
aI5
aI5
aS'M W F'
p52
aS'10:30 AM'
p53
aI10
aI30
aI11
aI20
aNaNaNaNaNaNaNag6
aa(lp54
S'LAT598'
p55
aI91255
aI4
aI5
ag16
aNaNaNaNaNaNaNaNaNaNaNaNag17
aa.