(lp0
(lp1
S'LAW210'
p2
aI79031
aI83
aI200
aS'M W'
p3
aS' 9:00 AM'
p4
aI9
aI0
aI10
aI15
aNaNaNaNaNaNaNaS'Not Reserved'
p5
aa(lp6
S'LAW210'
p7
aI87536
aI39
aI75
aS'F'
p8
aS'9:00AM'
p9
aI9
aI0
aI10
aI15
aS''
p10
ag10
aNaNag10
aNaNag5
aa(lp11
S'LAW310'
p12
aI80367
aI91
aI150
aS'M W'
p13
aS' 3:00 PM'
p14
aI15
aI0
aI16
aI15
aNaNaNaNaNaNaNag5
aa(lp15
S'LAW315'
p16
aI90460
aI52
aI75
aS'W'
p17
aS'6:00PM'
p18
aI18
aI0
aI20
aI45
ag10
ag10
aNaNag10
aNaNag5
aa(lp19
S'LAW480'
p20
aI90528
aI0
aI50
aS'M'
p21
aS'6:00PM'
p22
aI18
aI0
aI19
aI15
ag10
ag10
aNaNag10
aNaNaS'Reserved'
p23
aa(lp24
S'LAW515'
p25
aI71530
aI70
aI70
aS'T Th'
p26
aS' 8:00 AM'
p27
aI8
aI0
aI9
aI55
aNaNaNaNaNaNaNag5
aa(lp28
S'LAW515'
p29
aI71531
aI70
aI70
aS'W F'
p30
aS'10:00 AM'
p31
aI10
aI0
aI11
aI55
aNaNaNaNaNaNaNag5
aa(lp32
S'LAW515'
p33
aI71532
aI60
aI60
aS'T Th'
p34
aS' 1:30 PM'
p35
aI13
aI30
aI15
aI25
aNaNaNaNaNaNaNag5
aa(lp36
S'LAW517'
p37
aI71533
aI59
aI60
aS'T Th'
p38
aS'10:00 AM'
p39
aI10
aI0
aI11
aI55
aNaNaNaNaNaNaNag5
aa(lp40
S'LAW517'
p41
aI71534
aI69
aI70
aS'T Th'
p42
aS'10:00 AM'
p43
aI10
aI0
aI11
aI55
aNaNaNaNaNaNaNag5
aa(lp44
S'LAW517'
p45
aI71535
aI70
aI70
aS'M W'
p46
aS' 1:30 PM'
p47
aI13
aI30
aI15
aI25
aNaNaNaNaNaNaNag5
aa(lp48
S'LAW518'
p49
aI71536
aI68
aI70
aS'M W'
p50
aS'10:00 AM'
p51
aI10
aI0
aI11
aI55
aNaNaNaNaNaNaNag5
aa(lp52
S'LAW518'
p53
aI71537
aI59
aI60
aS'M W'
p54
aS' 1:30 PM'
p55
aI13
aI30
aI15
aI25
aNaNaNaNaNaNaNag5
aa(lp56
S'LAW518'
p57
aI71538
aI70
aI70
aS'T Th'
p58
aS' 3:30 PM'
p59
aI15
aI30
aI17
aI25
aNaNaNaNaNaNaNag5
aa(lp60
S'LAW519'
p61
aI71523
aI25
aI25
ag17
aS' 8:00 AM'
p62
aI8
aI0
aI9
aI55
aNaNaNaNaNaNaNag5
aa(lp63
S'LAW519'
p64
aI71524
aI25
aI25
ag8
aS'10:00 AM'
p65
aI10
aI0
aI11
aI55
aNaNaNaNaNaNaNag5
aa(lp66
S'LAW519'
p67
aI71525
aI25
aI25
ag8
aS'10:00 AM'
p68
aI10
aI0
aI11
aI55
aNaNaNaNaNaNaNag5
aa(lp69
S'LAW519'
p70
aI71526
aI20
aI20
aS'T'
p71
aS' 1:30 PM'
p72
aI13
aI30
aI15
aI25
aNaNaNaNaNaNaNag5
aa(lp73
S'LAW519'
p74
aI71527
aI20
aI20
aS'Th'
p75
aS' 1:30 PM'
p76
aI13
aI30
aI15
aI25
aNaNaNaNaNaNaNag5
aa(lp77
S'LAW519'
p78
aI71528
aI25
aI25
ag21
aS'10:00 AM'
p79
aI10
aI0
aI11
aI55
aNaNaNaNaNaNaNag5
aa(lp80
S'LAW519'
p81
aI71529
aI25
aI25
ag71
aS'10:00 AM'
p82
aI10
aI0
aI11
aI55
aNaNaNaNaNaNaNag5
aa(lp83
S'LAW519'
p84
aI74127
aI25
aI25
ag17
aS'10:00 AM'
p85
aI10
aI0
aI11
aI55
aNaNaNaNaNaNaNag5
aa(lp86
S'LAW519'
p87
aI91324
aI25
aI25
ag17
aS' 3:30 PM'
p88
aI15
aI30
aI17
aI25
aNaNaNaNaNaNaNag5
aa(lp89
S'LAW581'
p90
aI75127
aI30
aI30
aS'ONLINE'
p91
aNaNaNaNaNaNaNaNaNaNaNaNag23
aa(lp92
S'LAW585'
p93
aI91308
aI10
aI10
aS'T F'
p94
aS' 8:00 AM'
p95
aI8
aI0
aI9
aI55
aNaNaNaNaNaNaNag23
aa(lp96
S'LAW598'
p97
aI77963
aI21
aI24
ag91
aNaNaNaNaNaNaNaNaNaNaNaNag23
aa(lp98
S'LAW598'
p99
aI77964
aI24
aI30
ag91
aNaNaNaNaNaNaNaNaNaNaNaNag23
aa(lp100
S'LAW598'
p101
aI84669
aI20
aI24
ag91
aNaNaNaNaNaNaNaNaNaNaNaNag23
aa(lp102
S'LAW598'
p103
aI84670
aI20
aI24
ag91
aNaNaNaNaNaNaNaNaNaNaNaNag23
aa(lp104
S'LAW601'
p105
aI77897
aI37
aI60
aS'M W'
p106
aS' 3:30 PM'
p107
aI15
aI30
aI16
aI55
aNaNaNaNaNaNaNag5
aa(lp108
S'LAW604'
p109
aI71544
aI11
aI90
aS'T Th'
p110
aS'10:30 AM'
p111
aI10
aI30
aI11
aI55
aNaNaNaNaNaNaNag5
aa(lp112
S'LAW605'
p113
aI71545
aI29
aI80
aS'M W'
p114
aS'10:30 AM'
p115
aI10
aI30
aI11
aI55
aNaNaNaNaNaNaNag5
aa(lp116
S'LAW606'
p117
aI76363
aI50
aI80
aS'T Th'
p118
aS' 1:30 PM'
p119
aI13
aI30
aI15
aI25
aNaNaNaNaNaNaNag5
aa(lp120
S'LAW610'
p121
aI91311
aI21
aI30
ag21
aS' 3:30 PM'
p122
aI15
aI30
aI17
aI25
aNaNaNaNaNaNaNag5
aa(lp123
S'LAW611'
p124
aI71546
aI15
aI25
aS'Th'
p125
aS' 1:30 PM'
p126
aI13
aI30
aI15
aI25
aNaNaNaNaNaNaNag5
aa(lp127
S'LAW612'
p128
aI80362
aI11
aI90
aS'M W'
p129
aS' 3:30 PM'
p130
aI15
aI30
aI16
aI55
aNaNaNaNaNaNaNag5
aa(lp131
S'LAW614'
p132
aI91312
aI1
aI25
ag21
aS'10:00 AM'
p133
aI10
aI0
aI11
aI55
aNaNaNaNaNaNaNag5
aa(lp134
S'LAW615'
p135
aI74143
aI7
aI35
aS'T Th'
p136
aS'10:30 AM'
p137
aI10
aI30
aI11
aI55
aNaNaNaNaNaNaNag5
aa(lp138
S'LAW616'
p139
aI91313
aI3
aI25
aS'T Th'
p140
aS' 1:30 PM'
p141
aI13
aI30
aI14
aI55
aNaNaNaNaNaNaNag5
aa(lp142
S'LAW618'
p143
aI71547
aI0
aI90
aS'T Th'
p144
aS' 8:30 AM'
p145
aI8
aI30
aI9
aI55
aNaNaNaNaNaNaNag23
aa(lp146
S'LAW624'
p147
aI91314
aI43
aI60
ag8
aS' 8:00 AM'
p148
aI8
aI0
aI9
aI55
aNaNaNaNaNaNaNag5
aa(lp149
S'LAW625'
p150
aI71548
aI9
aI90
aS'M W'
p151
aS' 1:30 PM'
p152
aI13
aI30
aI15
aI25
aNaNaNaNaNaNaNag5
aa(lp153
S'LAW626'
p154
aI84132
aI3
aI16
aS'Th'
p155
aS' 1:30 PM'
p156
aI13
aI30
aI15
aI25
aNaNaNaNaNaNaNag23
aa(lp157
S'LAW626'
p158
aI91315
aI3
aI16
ag17
aS'10:00 AM'
p159
aI10
aI0
aI11
aI55
aNaNaNaNaNaNaNag5
aa(lp160
S'LAW632'
p161
aI71549
aI23
aI40
aS'M W'
p162
aS'10:00 AM'
p163
aI10
aI0
aI11
aI25
aNaNaNaNaNaNaNag5
aa(lp164
S'LAW638'
p165
aI71550
aI0
aI40
aS'Th'
p166
aS' 5:00 PM'
p167
aI17
aI0
aI19
aI55
aNaNaNaNaNaNaNag23
aa(lp168
S'LAW638'
p169
aI71551
aI35
aI35
aS'T Th'
p170
aS' 8:30 AM'
p171
aI8
aI30
aI9
aI55
aNaNaNaNaNaNaNag5
aa(lp172
S'LAW638'
p173
aI71552
aI0
aI40
ag21
aS' 5:00 PM'
p174
aI17
aI0
aI19
aI55
aNaNaNaNaNaNaNag23
aa(lp175
S'LAW643'
p176
aI71553
aI2
aI70
aS'T Th'
p177
aS' 3:30 PM'
p178
aI15
aI30
aI16
aI55
aNaNaNaNaNaNaNag5
aa(lp179
S'LAW645'
p180
aI74134
aI40
aI50
aS'T Th'
p181
aS' 3:30 PM'
p182
aI15
aI30
aI16
aI55
aNaNaNaNaNaNaNag5
aa(lp183
S'LAW646'
p184
aI74135
aI28
aI40
aS'M W'
p185
aS' 1:30 PM'
p186
aI13
aI30
aI14
aI55
aNaNaNaNaNaNaNag5
aa(lp187
S'LAW650'
p188
aI91342
aI17
aI50
aS'T Th'
p189
aS' 1:30 PM'
p190
aI13
aI30
aI14
aI55
aNaNaNaNaNaNaNag5
aa(lp191
S'LAW653'
p192
aI91317
aI1
aI18
ag21
aS' 1:30 PM'
p193
aI13
aI30
aI16
aI25
aNaNaNaNaNaNaNag5
aa(lp194
S'LAW654'
p195
aI71554
aI21
aI65
aS'T Th'
p196
aS' 1:30 PM'
p197
aI13
aI30
aI15
aI25
aNaNaNaNaNaNaNag5
aa(lp198
S'LAW657'
p199
aI77845
aI21
aI50
ag8
aS' 8:30 AM'
p200
aI8
aI30
aI11
aI25
aNaNaNaNaNaNaNag5
aa(lp201
S'LAW664'
p202
aI82989
aI32
aI60
aS'T Th'
p203
aS' 3:30 PM'
p204
aI15
aI30
aI16
aI55
aNaNaNaNaNaNaNag5
aa(lp205
S'LAW667'
p206
aI76371
aI29
aI50
ag21
aS' 6:00 PM'
p207
aI18
aI0
aI19
aI55
aNaNaNaNaNaNaNag5
aa(lp208
S'LAW691'
p209
aI74129
aI19
aI40
aS'T Th'
p210
aS' 3:30 PM'
p211
aI15
aI30
aI16
aI55
aNaNaNaNaNaNaNag5
aa(lp212
S'LAW691'
p213
aI71539
aI5
aI17
ag21
aS' 5:00 PM'
p214
aI17
aI0
aI18
aI55
aNaNaNaNaNaNaNag5
aa(lp215
S'LAW691'
p216
aI74130
aI35
aI40
ag17
aS' 3:30 PM'
p217
aI15
aI30
aI17
aI25
aNaNaNaNaNaNaNag5
aa(lp218
S'LAW691'
p219
aI71540
aI0
aI16
ag21
aS'10:00 AM'
p220
aI10
aI0
aI11
aI55
aNaNaNaNaNaNaNag23
aa(lp221
S'LAW691'
p222
aI71541
aI0
aI19
aS'M W'
p223
aS' 3:30 PM'
p224
aI15
aI30
aI16
aI55
aNaNaNaNaNaNaNag23
aa(lp225
S'LAW691'
p226
aI71542
aI19
aI30
ag71
aS' 5:30 PM'
p227
aI17
aI30
aI19
aI25
aNaNaNaNaNaNaNag5
aa(lp228
S'LAW691'
p229
aI71543
aI14
aI50
aS'M W'
p230
aS' 1:30 PM'
p231
aI13
aI30
aI14
aI55
aNaNaNaNaNaNaNag5
aa(lp232
S'LAW691'
p233
aI74137
aI15
aI30
ag21
aS' 3:30 PM'
p234
aI15
aI30
aI17
aI25
aNaNaNaNaNaNaNag5
aa(lp235
S'LAW691'
p236
aI76373
aI5
aI18
aS'Th'
p237
aS' 9:00 AM'
p238
aI9
aI0
aI9
aI55
aNaNaNaNaNaNaNag5
aa(lp239
S'LAW691'
p240
aI77862
aI10
aI16
ag71
aS' 5:00 PM'
p241
aI17
aI0
aI18
aI55
aNaNaNaNaNaNaNag5
aa(lp242
S'LAW691'
p243
aI80377
aI9
aI15
ag71
aS' 9:00 AM'
p244
aI9
aI0
aI9
aI55
aNaNaNaNaNaNaNag5
aa(lp245
S'LAW691'
p246
aI80435
aI0
aI18
ag21
aS'10:00 AM'
p247
aI10
aI0
aI11
aI55
aNaNaNaNaNaNaNag23
aa(lp248
S'LAW691'
p249
aI82987
aI12
aI25
ag21
aS' 1:30 PM'
p250
aI13
aI30
aI16
aI25
aNaNaNaNaNaNaNag5
aa(lp251
S'LAW691'
p252
aI83195
aI4
aI16
ag17
aS' 6:00 PM'
p253
aI18
aI0
aI19
aI55
aNaNaNaNaNaNaNag5
aa(lp254
S'LAW702'
p255
aI91343
aI0
aI25
ag21
aS' 8:00 AM'
p256
aI8
aI0
aI9
aI55
aNaNaNaNaNaNaNag23
aa(lp257
S'LAW703'
p258
aI91347
aI0
aI50
aS'T Th'
p259
aS'10:30 AM'
p260
aI10
aI30
aI11
aI55
aNaNaNaNaNaNaNag23
aa(lp261
S'LAW706'
p262
aI77854
aI0
aI18
aS'T Th'
p263
aS' 1:30 PM'
p264
aI13
aI30
aI14
aI55
aNaNaNaNaNaNaNag23
aa(lp265
S'LAW715'
p266
aI76374
aI45
aI70
ag71
aS' 6:00 PM'
p267
aI18
aI0
aI20
aI55
aNaNaNaNaNaNaNag5
aa(lp268
S'LAW733'
p269
aI74131
aI0
aI24
ag8
aS' 9:00 AM'
p270
aI9
aI0
aI11
aI55
aNaNaNaNaNaNaNag23
aa(lp271
S'LAW734'
p272
aI91348
aI2
aI16
ag21
aS' 1:30 PM'
p273
aI13
aI30
aI15
aI25
aNaNaNaNaNaNaNag5
aa(lp274
S'LAW735'
p275
aI73534
aI20
aI20
ag91
aNaNaNaNaNaNaNaNaNaNaNaNag5
aa(lp276
S'LAW735'
p277
aI75358
aI24
aI30
ag91
aNaNaNaNaNaNaNaNaNaNaNaNag5
aa(lp278
S'LAW738'
p279
aI71555
aI0
aI12
aS'Th'
p280
aS' 5:00 PM'
p281
aI17
aI0
aI19
aI55
aNaNaNaNaNaNaNag23
aa(lp282
S'LAW738'
p283
aI79772
aI0
aI11
ag21
aS' 5:30 PM'
p284
aI17
aI30
aI20
aI25
aNaNaNaNaNaNaNag23
aa(lp285
S'LAW738'
p286
aI91344
aI0
aI12
aS'T Th'
p287
aS'10:30 AM'
p288
aI10
aI30
aI11
aI55
aNaNaNaNaNaNaNag23
aa(lp289
S'LAW745'
p290
aI91349
aI1
aI15
ag17
aS'10:00 AM'
p291
aI10
aI0
aI11
aI55
aNaNaNaNaNaNaNag5
aa(lp292
S'LAW770'
p293
aI71556
aI44
aI70
ag91
aNaNaNaNaNaNaNaNaNaNaNaNag5
aa(lp294
S'LAW771'
p295
aI71557
aI63
aI70
ag91
aNaNaNaNaNaNaNaNaNaNaNaNag5
aa(lp296
S'LAW772'
p297
aI71558
aI5
aI10
ag71
aS' 7:00 PM'
p298
aI19
aI0
aI20
aI55
aNaNaNaNaNaNaNag5
aa(lp299
S'LAW774'
p300
aI71559
aI8
aI15
ag17
aS' 6:00 PM'
p301
aI18
aI0
aI19
aI55
aNaNaNaNaNaNaNag5
aa(lp302
S'LAW775'
p303
aI74132
aI7
aI15
aS'M W'
p304
aS' 1:30 PM'
p305
aI13
aI30
aI15
aI25
aNaNaNaNaNaNaNag5
aa(lp306
S'LAW776'
p307
aI73530
aI7
aI10
aS'M W'
p308
aS'1:30PM'
p309
aI13
aI30
aI15
aI25
ag8
aS'9:00AM'
p310
aI9
aI0
aS'10:55AM'
p311
aI10
aI55
ag5
aa(lp312
S'LAW777'
p313
aI73532
aI12
aI20
ag21
aS' 4:30 PM'
p314
aI16
aI30
aI18
aI25
aNaNaNaNaNaNaNag5
aa(lp315
S'LAW778'
p316
aI77617
aI7
aI10
aS'M W F'
p317
aS'10:00 AM'
p318
aI10
aI0
aI11
aI55
aNaNaNaNaNaNaNag5
aa(lp319
S'LAW781'
p320
aI71560
aI47
aI50
ag91
aNaNaNaNaNaNaNaNaNaNaNaNag5
aa(lp321
S'LAW785'
p322
aI71561
aI105
aI150
ag91
aNaNaNaNaNaNaNaNaNaNaNaNag5
aa(lp323
S'LAW785'
p324
aI75122
aI49
aI50
ag91
aNaNaNaNaNaNaNaNaNaNaNaNag5
aa(lp325
S'LAW791'
p326
aI77831
aI20
aI35
ag71
aS' 3:30 PM'
p327
aI15
aI30
aI17
aI30
aNaNaNaNaNaNaNag5
aa(lp328
S'LAW791'
p329
aI77832
aI0
aI20
ag17
aS' 7:55 AM'
p330
aI7
aI55
aI9
aI55
aNaNaNaNaNaNaNag23
aa(lp331
S'LAW791'
p332
aI77833
aI13
aI16
ag71
aS'10:00 AM'
p333
aI10
aI0
aI12
aI0
aNaNaNaNaNaNaNag5
aa(lp334
S'LAW791'
p335
aI77834
aI6
aI15
ag17
aS' 4:00 PM'
p336
aI16
aI0
aI18
aI0
aNaNaNaNaNaNaNag5
aa(lp337
S'LAW791'
p338
aI77835
aI0
aI35
ag17
aS' 7:55 AM'
p339
aI7
aI55
aI9
aI55
aNaNaNaNaNaNaNag23
aa(lp340
S'LAW791'
p341
aI77836
aI5
aI16
ag21
aS'10:00 AM'
p342
aI10
aI0
aI12
aI0
aNaNaNaNaNaNaNag5
aa(lp343
S'LAW791'
p344
aI77848
aI15
aI16
aS'Th'
p345
aS' 7:55 AM'
p346
aI7
aI55
aI9
aI55
aNaNaNaNaNaNaNag5
aa(lp347
S'LAW791'
p348
aI79775
aI10
aI16
ag17
aS' 4:00 PM'
p349
aI16
aI0
aI18
aI0
aNaNaNaNaNaNaNag5
aa(lp350
S'LAW791'
p351
aI71562
aI15
aI18
ag21
aS'10:00 AM'
p352
aI10
aI0
aI11
aI55
aNaNaNaNaNaNaNag5
aa(lp353
S'LAW791'
p354
aI71563
aI1
aI15
ag17
aS' 1:30 PM'
p355
aI13
aI30
aI15
aI25
aNaNaNaNaNaNaNag5
aa(lp356
S'LAW791'
p357
aI74158
aI10
aI16
ag21
aS' 4:00 PM'
p358
aI16
aI0
aI17
aI55
aNaNaNaNaNaNaNag5
aa(lp359
S'LAW791'
p360
aI71564
aI0
aI20
aS'T Th'
p361
aS' 8:30 AM'
p362
aI8
aI30
aI9
aI55
aNaNaNaNaNaNaNag23
aa(lp363
S'LAW791'
p364
aI71565
aI8
aI16
ag17
aS' 8:15 AM'
p365
aI8
aI15
aI9
aI55
aNaNaNaNaNaNaNag5
aa(lp366
S'LAW791'
p367
aI71566
aI2
aI16
ag71
aS'10:00 AM'
p368
aI10
aI0
aI11
aI55
aNaNaNaNaNaNaNag5
aa(lp369
S'LAW791'
p370
aI71567
aI9
aI16
ag91
aNaNaNaNaNaNaNaNaNaNaNaNag5
aa(lp371
S'LAW791'
p372
aI71568
aI0
aI16
ag71
aS' 3:30 PM'
p373
aI15
aI30
aI17
aI25
aNaNaNaNaNaNaNag23
aa(lp374
S'LAW791'
p375
aI71569
aI19
aI20
ag91
aNaNaNaNaNaNaNaNaNaNaNaNag5
aa(lp376
S'LAW791'
p377
aI71570
aI19
aI20
ag21
aS' 4:30 PM'
p378
aI16
aI30
aI18
aI25
aNaNaNaNaNaNaNag5
aa(lp379
S'LAW791'
p380
aI71571
aI15
aI16
ag91
aNaNaNaNaNaNaNaNaNaNaNaNag5
aa(lp381
S'LAW791'
p382
aI71572
aI9
aI16
ag17
aS' 3:30 PM'
p383
aI15
aI30
aI17
aI25
aNaNaNaNaNaNaNag5
aa(lp384
S'LAW791'
p385
aI71573
aI17
aI20
ag91
aNaNaNaNaNaNaNaNaNaNaNaNag5
aa(lp386
S'LAW791'
p387
aI91326
aI21
aI30
ag91
aNaNaNaNaNaNaNaNaNaNaNaNag5
aa(lp388
S'LAW791'
p389
aI71574
aI11
aI20
aS'T Th'
p390
aS'1:30PM'
p391
aI13
aI30
aI15
aI25
ag17
aS'1:30PM'
p392
aI13
aI30
aS'3:25PM'
p393
aI15
aI25
ag5
aa(lp394
S'LAW791'
p395
aI71575
aI0
aI8
aS'W F'
p396
aS' 1:30 PM'
p397
aI13
aI30
aI15
aI25
aNaNaNaNaNaNaNag23
aa(lp398
S'LAW791'
p399
aI71576
aI12
aI16
aS'T F'
p400
aS'10:00 AM'
p401
aI10
aI0
aI11
aI55
aNaNaNaNaNaNaNag5
aa(lp402
S'LAW791'
p403
aI75123
aI15
aI16
aS'T Th'
p404
aS' 3:30 PM'
p405
aI15
aI30
aI17
aI25
aNaNaNaNaNaNaNag5
aa(lp406
S'LAW791'
p407
aI75124
aI11
aI12
ag91
aNaNaNaNaNaNaNaNaNaNaNaNag5
aa(lp408
S'LAW791'
p409
aI75125
aI11
aI16
ag91
aNaNaNaNaNaNaNaNaNaNaNaNag5
aa(lp410
S'LAW791'
p411
aI76391
aI13
aI16
ag21
aS' 4:00 PM'
p412
aI16
aI0
aI17
aI55
aNaNaNaNaNaNaNag5
aa(lp413
S'LAW791'
p414
aI76413
aI9
aI15
ag17
aS' 1:30 PM'
p415
aI13
aI30
aI15
aI25
aNaNaNaNaNaNaNag5
aa(lp416
S'LAW791'
p417
aI75157
aI0
aI24
ag17
aS' 5:00 PM'
p418
aI17
aI0
aI18
aI55
aNaNaNaNaNaNaNag23
aa(lp419
S'LAW791'
p420
aI75193
aI0
aI1
ag91
aNaNaNaNaNaNaNaNaNaNaNaNag23
aa(lp421
S'LAW791'
p422
aI83188
aI2
aI16
aS'Th'
p423
aS' 4:00 PM'
p424
aI16
aI0
aI17
aI55
aNaNaNaNaNaNaNag5
aa(lp425
S'LAW791'
p426
aI76448
aI20
aI20
ag91
aNaNaNaNaNaNaNaNaNaNaNaNag5
aa(lp427
S'LAW791'
p428
aI76507
aI29
aI30
ag91
aNaNaNaNaNaNaNaNaNaNaNaNag5
aa(lp429
S'LAW791'
p430
aI77863
aI5
aI5
ag91
aNaNaNaNaNaNaNaNaNaNaNaNag5
aa(lp431
S'LAW791'
p432
aI77864
aI5
aI5
ag91
aNaNaNaNaNaNaNaNaNaNaNaNag5
aa(lp433
S'LAW791'
p434
aI91412
aI5
aI5
ag91
aNaNaNaNaNaNaNaNaNaNaNaNag5
aa(lp435
S'LAW791'
p436
aI91413
aI5
aI5
ag91
aNaNaNaNaNaNaNaNaNaNaNaNag5
aa(lp437
S'LAW791'
p438
aI80613
aI30
aI30
ag91
aNaNaNaNaNaNaNaNaNaNaNaNag5
aa(lp439
S'LAW791'
p440
aI79792
aI0
aI12
ag91
aNaNaNaNaNaNaNaNaNaNaNaNag23
aa(lp441
S'LAW795'
p442
aI75380
aI28
aI30
ag91
aNaNaNaNaNaNaNaNaNaNaNaNag5
aa(lp443
S'LAW797'
p444
aI75325
aI30
aI30
ag91
aNaNaNaNaNaNaNaNaNaNaNaNag5
aa.