(lp0
(lp1
S'LDE361'
p2
aI72723
aI6
aI15
aS'M W'
p3
aS' 1:30 PM'
p4
aI13
aI30
aI17
aI55
aNaNaNaNaNaNaNaS'Not Reserved'
p5
aa(lp6
S'LDE361'
p7
aI73690
aI9
aI15
aS'M W'
p8
aS' 1:30 PM'
p9
aI13
aI30
aI17
aI55
aNaNaNaNaNaNaNag5
aa(lp10
S'LDE363'
p11
aI72933
aI13
aI35
aS'T Th'
p12
aS'10:30 AM'
p13
aI10
aI30
aI11
aI45
aNaNaNaNaNaNaNag5
aa(lp14
S'LDE461'
p15
aI72724
aI4
aI15
aS'W F'
p16
aS' 1:30 PM'
p17
aI13
aI30
aI17
aI55
aNaNaNaNaNaNaNag5
aa(lp18
S'LDE461'
p19
aI75117
aI3
aI15
aS'W F'
p20
aS' 1:30 PM'
p21
aI13
aI30
aI17
aI55
aNaNaNaNaNaNaNag5
aa(lp22
S'LDE590'
p23
aI73597
aI15
aI15
aS'M W F'
p24
aS' 1:30 PM'
p25
aI13
aI30
aI17
aI5
aNaNaNaNaNaNaNag5
aa(lp26
S'LDE590'
p27
aI73790
aI10
aI10
aS'M W'
p28
aS' 1:30 PM'
p29
aI13
aI30
aI17
aI55
aNaNaNaNaNaNaNaS'Reserved'
p30
aa(lp31
S'LDE690'
p32
aI74435
aI2
aI2
aS'W F'
p33
aS' 1:30 PM'
p34
aI13
aI30
aI17
aI55
aNaNaNaNaNaNaNag5
aa(lp35
S'LDE690'
p36
aI91267
aI1
aI1
aS'W F'
p37
aS' 1:30 PM'
p38
aI13
aI30
aI17
aI55
aNaNaNaNaNaNaNag5
aa(lp39
S'LDE690'
p40
aI91268
aI1
aI1
aS'W F'
p41
aS' 1:30 PM'
p42
aI13
aI30
aI17
aI55
aNaNaNaNaNaNaNag5
aa(lp43
S'LDE692'
p44
aI91807
aI2
aI3
aS'ONLINE'
p45
aNaNaNaNaNaNaNaNaNaNaNaNag5
aa.