(lp0
(lp1
S'LES305'
p2
aI87996
aI0
aI110
aS'ONLINE'
p3
aNaNaNaNaNaNaNaNaNaNaNaNaS'Reserved'
p4
aa(lp5
S'LES305'
p6
aI71577
aI0
aI265
aS'T'
p7
aS'12:00PM'
p8
aI12
aI0
aI13
aI15
aS''
p9
aS'12:00AM'
p10
aNaNaS'12:00AM'
p11
aNaNag4
aa(lp12
S'LES305'
p13
aI71578
aI0
aI265
aS'Th'
p14
aS'12:00PM'
p15
aI12
aI0
aI13
aI15
ag9
aS'12:00AM'
p16
aNaNaS'12:00AM'
p17
aNaNag4
aa(lp18
S'LES305'
p19
aI82213
aI59
aI265
ag7
aS'4:30PM'
p20
aI16
aI30
aI17
aI45
ag9
aS'12:00AM'
p21
aNaNaS'12:00AM'
p22
aNaNaS'Not Reserved'
p23
aa(lp24
S'LES305'
p25
aI82578
aI0
aI285
ag3
aNaNaNaNaNaNaNaNaNaNaNaNag4
aa(lp26
S'LES305'
p27
aI71579
aI76
aI100
aS'Th'
p28
aS'6:00PM'
p29
aI18
aI0
aI19
aI15
ag9
ag9
aNaNag9
aNaNag23
aa(lp30
S'LES380'
p31
aI73242
aI37
aI47
aS'T Th'
p32
aS'10:30 AM'
p33
aI10
aI30
aI11
aI45
aNaNaNaNaNaNaNag23
aa(lp34
S'LES582'
p35
aI77250
aI23
aI52
aS'M'
p36
aS' 8:00 AM'
p37
aI8
aI0
aI10
aI5
aNaNaNaNaNaNaNag4
aa(lp38
S'LES582'
p39
aI77251
aI23
aI52
ag36
aS'10:20 AM'
p40
aI10
aI20
aI12
aI25
aNaNaNaNaNaNaNag4
aa(lp41
S'LES582'
p42
aI90462
aI70
aI70
ag3
aNaNaNaNaNaNaNaNaNaNaNaNag4
aa(lp43
S'LES582'
p44
aI90463
aI70
aI70
ag3
aNaNaNaNaNaNaNaNaNaNaNaNag4
aa.