(lp0
(lp1
S'LIA294'
p2
aI84451
aI13
aI19
aS'ONLINE'
p3
aNaNaNaNaNaNaNaNaNaNaNaNaS'Reserved'
p4
aa(lp5
S'LIA294'
p6
aI74835
aI19
aI19
aS'T'
p7
aS' 3:00 PM'
p8
aI15
aI0
aI15
aI50
aNaNaNaNaNaNaNaS'Not Reserved'
p9
aa(lp10
S'LIA394'
p11
aI71580
aI10
aI25
aS'M'
p12
aS' 3:00 PM'
p13
aI15
aI0
aI15
aI50
aNaNaNaNaNaNaNag9
aa(lp14
S'LIA484'
p15
aI71582
aI28
aI30
ag3
aNaNaNaNaNaNaNaNaNaNaNaNag9
aa(lp16
S'LIA484'
p17
aI73952
aI30
aI30
ag3
aNaNaNaNaNaNaNaNaNaNaNaNag9
aa.