(lp0
(lp1
S'LIN500'
p2
aI71584
aI17
aI20
aS'M W'
p3
aS' 3:00 PM'
p4
aI15
aI0
aI16
aI15
aNaNaNaNaNaNaNaS'Not Reserved'
p5
aa(lp6
S'LIN510'
p7
aI71583
aI13
aI20
aS'T Th'
p8
aS'10:30 AM'
p9
aI10
aI30
aI11
aI45
aNaNaNaNaNaNaNag5
aa(lp10
S'LIN517'
p11
aI86584
aI7
aI10
aS'ONLINE'
p12
aNaNaNaNaNaNaNaNaNaNaNaNaS'Reserved'
p13
aa(lp14
S'LIN520'
p15
aI73916
aI11
aI20
aS'T Th'
p16
aS' 9:00 AM'
p17
aI9
aI0
aI10
aI15
aNaNaNaNaNaNaNag5
aa(lp18
S'LIN521'
p19
aI81139
aI14
aI20
aS'T Th'
p20
aS' 3:00 PM'
p21
aI15
aI0
aI16
aI15
aNaNaNaNaNaNaNag5
aa(lp22
S'LIN523'
p23
aI86586
aI7
aI20
aS'W'
p24
aS' 4:30 PM'
p25
aI16
aI30
aI19
aI15
aNaNaNaNaNaNaNag5
aa(lp26
S'LIN584'
p27
aI71585
aI29
aI30
ag12
aNaNaNaNaNaNaNaNaNaNaNaNag5
aa(lp28
S'LIN584'
p29
aI72856
aI15
aI15
ag12
aNaNaNaNaNaNaNaNaNaNaNaNag5
aa(lp30
S'LIN590'
p31
aI71586
aI10
aI10
ag12
aNaNaNaNaNaNaNaNaNaNaNaNag5
aa(lp32
S'LIN592'
p33
aI71587
aI30
aI30
ag12
aNaNaNaNaNaNaNaNaNaNaNaNag5
aa(lp34
S'LIN593'
p35
aI71588
aI10
aI10
ag12
aNaNaNaNaNaNaNaNaNaNaNaNag5
aa(lp36
S'LIN595'
p37
aI71589
aI10
aI10
ag12
aNaNaNaNaNaNaNaNaNaNaNaNag5
aa(lp38
S'LIN599'
p39
aI71590
aI29
aI30
ag12
aNaNaNaNaNaNaNaNaNaNaNaNag5
aa(lp40
S'LIN615'
p41
aI86587
aI3
aI15
aS'T Th'
p42
aS' 1:30 PM'
p43
aI13
aI30
aI14
aI45
aNaNaNaNaNaNaNag5
aa(lp44
S'LIN790'
p45
aI71591
aI10
aI10
ag12
aNaNaNaNaNaNaNaNaNaNaNaNag5
aa(lp46
S'LIN792'
p47
aI71592
aI29
aI30
ag12
aNaNaNaNaNaNaNaNaNaNaNaNag5
aa(lp48
S'LIN795'
p49
aI71593
aI10
aI10
ag12
aNaNaNaNaNaNaNaNaNaNaNaNag5
aa(lp50
S'LIN799'
p51
aI71594
aI19
aI20
ag12
aNaNaNaNaNaNaNaNaNaNaNaNag5
aa.