(lp0
(lp1
S'LPH310'
p2
aI75489
aI146
aI175
aS'T Th'
p3
aS' 1:30 PM'
p4
aI13
aI30
aI14
aI45
aNaNaNaNaNaNaNaS'Not Reserved'
p5
aa(lp6
S'LPH598'
p7
aI75284
aI14
aI16
aS'T Th'
p8
aS'10:30 AM'
p9
aI10
aI30
aI11
aI45
aNaNaNaNaNaNaNag5
aa(lp10
S'LPH691'
p11
aI75288
aI15
aI15
aS'W'
p12
aS' 9:00 AM'
p13
aI9
aI0
aI11
aI45
aNaNaNaNaNaNaNag5
aa.