(lp0
(lp1
S'LSC294'
p2
aI75402
aI39
aI40
aS'T'
p3
aS' 4:30 PM'
p4
aI16
aI30
aI19
aI15
aNaNaNaNaNaNaNaS'Not Reserved'
p5
aa(lp6
S'LSC347'
p7
aI75496
aI62
aI144
aS'M W F'
p8
aS' 9:00 AM'
p9
aI9
aI0
aI9
aI50
aNaNaNaNaNaNaNag5
aa(lp10
S'LSC348'
p11
aI75497
aI0
aI24
aS'M'
p12
aS'10:30 AM'
p13
aI10
aI30
aI13
aI15
aNaNaNaNaNaNaNaS'Reserved'
p14
aa(lp15
S'LSC348'
p16
aI75498
aI0
aI24
ag12
aS' 1:45 PM'
p17
aI13
aI45
aI16
aI30
aNaNaNaNaNaNaNag14
aa(lp18
S'LSC348'
p19
aI75499
aI12
aI24
ag12
aS' 6:30 PM'
p20
aI18
aI30
aI21
aI15
aNaNaNaNaNaNaNag5
aa(lp21
S'LSC348'
p22
aI75500
aI6
aI24
ag3
aS'10:30 AM'
p23
aI10
aI30
aI13
aI15
aNaNaNaNaNaNaNag5
aa(lp24
S'LSC348'
p25
aI75913
aI18
aI24
ag3
aS' 3:15 PM'
p26
aI15
aI15
aI18
aI0
aNaNaNaNaNaNaNag5
aa(lp27
S'LSC348'
p28
aI86244
aI21
aI24
ag3
aS' 6:30 PM'
p29
aI18
aI30
aI21
aI15
aNaNaNaNaNaNaNag5
aa(lp30
S'LSC362'
p31
aI74798
aI41
aI60
aS'T Th'
p32
aS' 9:00 AM'
p33
aI9
aI0
aI10
aI15
aNaNaNaNaNaNaNag5
aa(lp34
S'LSC375'
p35
aI81508
aI10
aI10
aS'M W F'
p36
aS'12:00 PM'
p37
aI12
aI0
aI12
aI50
aNaNaNaNaNaNaNag5
aa(lp38
S'LSC376'
p39
aI81515
aI0
aI0
aS'Th'
p40
aS'10:30 AM'
p41
aI10
aI30
aI14
aI15
aNaNaNaNaNaNaNag14
aa(lp42
S'LSC376'
p43
aI89056
aI10
aI10
aS'Th'
p44
aS' 3:30 PM'
p45
aI15
aI30
aI19
aI15
aNaNaNaNaNaNaNag5
aa(lp46
S'LSC394'
p47
aI75915
aI19
aI40
aS'ONLINE'
p48
aNaNaNaNaNaNaNaNaNaNaNaNag5
aa(lp49
S'LSC484'
p50
aI75238
aI15
aI15
ag48
aNaNaNaNaNaNaNaNaNaNaNaNag5
aa(lp51
S'LSC486'
p52
aI72940
aI10
aI10
ag48
aNaNaNaNaNaNaNaNaNaNaNaNag5
aa(lp53
S'LSC492'
p54
aI80246
aI9
aI10
ag48
aNaNaNaNaNaNaNaNaNaNaNaNag5
aa(lp55
S'LSC493'
p56
aI80603
aI5
aI5
ag48
aNaNaNaNaNaNaNaNaNaNaNaNag5
aa(lp57
S'LSC498'
p58
aI83909
aI17
aI24
aS'F'
p59
aS' 1:00 PM'
p60
aI13
aI0
aI17
aI0
aNaNaNaNaNaNaNag5
aa(lp61
S'LSC498'
p62
aI86952
aI2
aI2
ag48
aNaNaNaNaNaNaNaNaNaNaNaNag5
aa(lp63
S'LSC499'
p64
aI75403
aI29
aI30
ag48
aNaNaNaNaNaNaNaNaNaNaNaNag5
aa(lp65
S'LSC499'
p66
aI75404
aI29
aI30
ag48
aNaNaNaNaNaNaNaNaNaNaNaNag5
aa(lp67
S'LSC499'
p68
aI75405
aI30
aI30
ag48
aNaNaNaNaNaNaNaNaNaNaNaNag5
aa(lp69
S'LSC499'
p70
aI78261
aI5
aI5
ag48
aNaNaNaNaNaNaNaNaNaNaNaNag5
aa(lp71
S'LSC499'
p72
aI84368
aI5
aI5
ag48
aNaNaNaNaNaNaNaNaNaNaNaNag5
aa.