(lp0
(lp1
S'LTC343'
p2
aI72725
aI21
aI35
aS'T Th'
p3
aS' 3:00 PM'
p4
aI15
aI0
aI16
aI15
aNaNaNaNaNaNaNaS'Not Reserved'
p5
aa(lp6
S'LTC344'
p7
aI72934
aI13
aI35
aS'T Th'
p8
aS' 4:30 PM'
p9
aI16
aI30
aI17
aI45
aNaNaNaNaNaNaNag5
aa(lp10
S'LTC598'
p11
aI73595
aI15
aI15
aS'F'
p12
aS' 9:00 AM'
p13
aI9
aI0
aI11
aI45
aNaNaNaNaNaNaNag5
aa(lp14
S'LTC598'
p15
aI91341
aI10
aI10
aS'T Th'
p16
aS'10:30 AM'
p17
aI10
aI30
aI11
aI45
aNaNaNaNaNaNaNag5
aa.