(lp0
(lp1
S'MAE212'
p2
aI71595
aI21
aI240
aS'M W'
p3
aS' 9:00 AM'
p4
aI9
aI0
aI10
aI15
aNaNaNaNaNaNaNaS'Reserved'
p5
aa(lp6
S'MAE212'
p7
aI71596
aI0
aI20
aS'F'
p8
aS' 9:00 AM'
p9
aI9
aI0
aI10
aI15
aNaNaNaNaNaNaNag5
aa(lp10
S'MAE212'
p11
aI71597
aI0
aI20
ag8
aS' 1:30 PM'
p12
aI13
aI30
aI14
aI45
aNaNaNaNaNaNaNag5
aa(lp13
S'MAE212'
p14
aI71598
aI0
aI20
ag8
aS' 3:00 PM'
p15
aI15
aI0
aI16
aI15
aNaNaNaNaNaNaNag5
aa(lp16
S'MAE212'
p17
aI71599
aI0
aI20
ag8
aS'12:00 PM'
p18
aI12
aI0
aI13
aI15
aNaNaNaNaNaNaNag5
aa(lp19
S'MAE212'
p20
aI71600
aI0
aI20
ag8
aS'12:00 PM'
p21
aI12
aI0
aI13
aI15
aNaNaNaNaNaNaNag5
aa(lp22
S'MAE212'
p23
aI72707
aI0
aI20
ag8
aS' 1:30 PM'
p24
aI13
aI30
aI14
aI45
aNaNaNaNaNaNaNag5
aa(lp25
S'MAE212'
p26
aI72848
aI3
aI20
ag8
aS' 7:30 AM'
p27
aI7
aI30
aI8
aI45
aNaNaNaNaNaNaNaS'Not Reserved'
p28
aa(lp29
S'MAE212'
p30
aI72849
aI0
aI20
ag8
aS'12:00 PM'
p31
aI12
aI0
aI13
aI15
aNaNaNaNaNaNaNag5
aa(lp32
S'MAE212'
p33
aI79668
aI0
aI20
ag8
aS'12:00 PM'
p34
aI12
aI0
aI13
aI15
aNaNaNaNaNaNaNag5
aa(lp35
S'MAE212'
p36
aI80239
aI14
aI20
ag8
aS' 4:30 PM'
p37
aI16
aI30
aI17
aI45
aNaNaNaNaNaNaNag28
aa(lp38
S'MAE212'
p39
aI82707
aI0
aI20
ag8
aS' 9:00 AM'
p40
aI9
aI0
aI10
aI15
aNaNaNaNaNaNaNag5
aa(lp41
S'MAE212'
p42
aI86628
aI4
aI20
ag8
aS' 3:00 PM'
p43
aI15
aI0
aI16
aI15
aNaNaNaNaNaNaNag28
aa(lp44
S'MAE212'
p45
aI82391
aI24
aI240
aS'M W'
p46
aS' 9:00 AM'
p47
aI9
aI0
aI10
aI15
aNaNaNaNaNaNaNag5
aa(lp48
S'MAE212'
p49
aI72847
aI0
aI20
ag8
aS' 9:00 AM'
p50
aI9
aI0
aI10
aI15
aNaNaNaNaNaNaNag5
aa(lp51
S'MAE212'
p52
aI73535
aI0
aI20
ag8
aS'10:30 AM'
p53
aI10
aI30
aI11
aI45
aNaNaNaNaNaNaNag5
aa(lp54
S'MAE212'
p55
aI75794
aI0
aI20
ag8
aS'10:30 AM'
p56
aI10
aI30
aI11
aI45
aNaNaNaNaNaNaNag5
aa(lp57
S'MAE212'
p58
aI75795
aI0
aI20
ag8
aS' 1:30 PM'
p59
aI13
aI30
aI14
aI45
aNaNaNaNaNaNaNag5
aa(lp60
S'MAE212'
p61
aI75796
aI0
aI20
ag8
aS' 9:00 AM'
p62
aI9
aI0
aI10
aI15
aNaNaNaNaNaNaNag5
aa(lp63
S'MAE212'
p64
aI80128
aI18
aI20
ag8
aS' 7:30 AM'
p65
aI7
aI30
aI8
aI45
aNaNaNaNaNaNaNag28
aa(lp66
S'MAE212'
p67
aI82395
aI0
aI19
ag8
aS' 9:00 AM'
p68
aI9
aI0
aI10
aI15
aNaNaNaNaNaNaNag5
aa(lp69
S'MAE212'
p70
aI82396
aI0
aI20
ag8
aS'12:00 PM'
p71
aI12
aI0
aI13
aI15
aNaNaNaNaNaNaNag5
aa(lp72
S'MAE212'
p73
aI82397
aI3
aI20
ag8
aS' 7:30 AM'
p74
aI7
aI30
aI8
aI45
aNaNaNaNaNaNaNag28
aa(lp75
S'MAE212'
p76
aI82398
aI1
aI20
ag8
aS' 7:30 AM'
p77
aI7
aI30
aI8
aI45
aNaNaNaNaNaNaNag28
aa(lp78
S'MAE212'
p79
aI82399
aI0
aI20
ag8
aS' 3:00 PM'
p80
aI15
aI0
aI16
aI15
aNaNaNaNaNaNaNag5
aa(lp81
S'MAE212'
p82
aI86629
aI1
aI20
ag8
aS' 4:30 PM'
p83
aI16
aI30
aI17
aI45
aNaNaNaNaNaNaNag28
aa(lp84
S'MAE212'
p85
aI82400
aI0
aI20
aS'M W'
p86
aS' 9:00 AM'
p87
aI9
aI0
aI10
aI15
aNaNaNaNaNaNaNag5
aa(lp88
S'MAE212'
p89
aI80365
aI0
aI20
ag8
aS' 9:00 AM'
p90
aI9
aI0
aI10
aI15
aNaNaNaNaNaNaNag5
aa(lp91
S'MAE212'
p92
aI80023
aI0
aI20
aS'M W'
p93
aS' 9:00 AM'
p94
aI9
aI0
aI10
aI15
aNaNaNaNaNaNaNag5
aa(lp95
S'MAE212'
p96
aI80127
aI0
aI20
ag8
aS' 1:30 PM'
p97
aI13
aI30
aI14
aI45
aNaNaNaNaNaNaNag5
aa(lp98
S'MAE213'
p99
aI76895
aI0
aI60
aS'M W'
p100
aS' 9:00 AM'
p101
aI9
aI0
aI10
aI15
aNaNaNaNaNaNaNag5
aa(lp102
S'MAE213'
p103
aI86808
aI0
aI30
ag8
aS' 9:00 AM'
p104
aI9
aI0
aI9
aI50
aNaNaNaNaNaNaNag5
aa(lp105
S'MAE213'
p106
aI86809
aI0
aI30
ag8
aS'10:30 AM'
p107
aI10
aI30
aI11
aI20
aNaNaNaNaNaNaNag5
aa(lp108
S'MAE213'
p109
aI75797
aI0
aI60
aS'M W'
p110
aS'10:30 AM'
p111
aI10
aI30
aI11
aI45
aNaNaNaNaNaNaNag5
aa(lp112
S'MAE213'
p113
aI86810
aI0
aI30
ag8
aS'12:00 PM'
p114
aI12
aI0
aI12
aI50
aNaNaNaNaNaNaNag5
aa(lp115
S'MAE213'
p116
aI86811
aI0
aI30
ag8
aS'10:30 AM'
p117
aI10
aI30
aI11
aI20
aNaNaNaNaNaNaNag5
aa(lp118
S'MAE214'
p119
aI79780
aI19
aI35
aS'T'
p120
aS' 7:30 AM'
p121
aI7
aI30
aI9
aI10
aNaNaNaNaNaNaNag28
aa(lp122
S'MAE214'
p123
aI79902
aI0
aI35
ag120
aS'10:30 AM'
p124
aI10
aI30
aI12
aI10
aNaNaNaNaNaNaNag5
aa(lp125
S'MAE214'
p126
aI79903
aI0
aI35
ag120
aS' 1:30 PM'
p127
aI13
aI30
aI15
aI10
aNaNaNaNaNaNaNag5
aa(lp128
S'MAE214'
p129
aI79904
aI0
aI35
ag120
aS' 4:30 PM'
p130
aI16
aI30
aI18
aI10
aNaNaNaNaNaNaNag5
aa(lp131
S'MAE214'
p132
aI86653
aI20
aI35
aS'W'
p133
aS' 4:30 PM'
p134
aI16
aI30
aI18
aI10
aNaNaNaNaNaNaNag28
aa(lp135
S'MAE214'
p136
aI79906
aI0
aI35
ag133
aS'12:00 PM'
p137
aI12
aI0
aI13
aI40
aNaNaNaNaNaNaNag5
aa(lp138
S'MAE215'
p139
aI79276
aI3
aI150
aS'M'
p140
aS'12:00 PM'
p141
aI12
aI0
aI12
aI50
aNaNaNaNaNaNaNag28
aa(lp142
S'MAE215'
p143
aI79278
aI23
aI150
ag133
aS'12:00 PM'
p144
aI12
aI0
aI12
aI50
aNaNaNaNaNaNaNag28
aa(lp145
S'MAE215'
p146
aI79279
aI127
aI150
ag8
aS'12:00 PM'
p147
aI12
aI0
aI12
aI50
aNaNaNaNaNaNaNag28
aa(lp148
S'MAE240'
p149
aI71601
aI10
aI100
aS'M W'
p150
aS' 3:00 PM'
p151
aI15
aI0
aI16
aI50
aNaNaNaNaNaNaNag5
aa(lp152
S'MAE240'
p153
aI76901
aI1
aI25
ag8
aS' 3:00 PM'
p154
aI15
aI0
aI15
aI50
aNaNaNaNaNaNaNag28
aa(lp155
S'MAE240'
p156
aI76902
aI8
aI25
ag8
aS' 4:30 PM'
p157
aI16
aI30
aI17
aI20
aNaNaNaNaNaNaNag28
aa(lp158
S'MAE240'
p159
aI76903
aI0
aI25
ag8
aS'12:00 PM'
p160
aI12
aI0
aI12
aI50
aNaNaNaNaNaNaNag5
aa(lp161
S'MAE240'
p162
aI76904
aI1
aI25
ag8
aS' 1:30 PM'
p163
aI13
aI30
aI14
aI20
aNaNaNaNaNaNaNag28
aa(lp164
S'MAE240'
p165
aI71602
aI0
aI75
aS'M W'
p166
aS'12:00 PM'
p167
aI12
aI0
aI13
aI50
aNaNaNaNaNaNaNag5
aa(lp168
S'MAE240'
p169
aI76906
aI0
aI25
ag8
aS' 1:30 PM'
p170
aI13
aI30
aI14
aI20
aNaNaNaNaNaNaNag5
aa(lp171
S'MAE240'
p172
aI76907
aI0
aI25
ag8
aS' 3:00 PM'
p173
aI15
aI0
aI15
aI50
aNaNaNaNaNaNaNag5
aa(lp174
S'MAE240'
p175
aI76908
aI0
aI25
ag8
aS' 4:30 PM'
p176
aI16
aI30
aI17
aI20
aNaNaNaNaNaNaNag5
aa(lp177
S'MAE240'
p178
aI83778
aI19
aI25
aS'M W'
p179
aS'12:00 PM'
p180
aI12
aI0
aI13
aI50
aNaNaNaNaNaNaNag5
aa(lp181
S'MAE240'
p182
aI76905
aI19
aI25
ag8
aS'12:00 PM'
p183
aI12
aI0
aI12
aI50
aNaNaNaNaNaNaNag28
aa(lp184
S'MAE301'
p185
aI79315
aI31
aI150
aS'T Th'
p186
aS' 4:30 PM'
p187
aI16
aI30
aI17
aI45
aNaNaNaNaNaNaNag28
aa(lp188
S'MAE301'
p189
aI82463
aI0
aI150
aS'T Th'
p190
aS'12:00 PM'
p191
aI12
aI0
aI13
aI15
aNaNaNaNaNaNaNag5
aa(lp192
S'MAE318'
p193
aI71603
aI9
aI90
aS'T Th'
p194
aS' 3:00 PM'
p195
aI15
aI0
aI16
aI55
aNaNaNaNaNaNaNag28
aa(lp196
S'MAE318'
p197
aI73870
aI0
aI18
ag8
aS' 7:30 AM'
p198
aI7
aI30
aI9
aI25
aNaNaNaNaNaNaNag5
aa(lp199
S'MAE318'
p200
aI73871
aI0
aI18
ag133
aS' 7:30 AM'
p201
aI7
aI30
aI9
aI25
aNaNaNaNaNaNaNag5
aa(lp202
S'MAE318'
p203
aI76911
aI8
aI18
ag8
aS' 7:30 AM'
p204
aI7
aI30
aI9
aI25
aNaNaNaNaNaNaNag28
aa(lp205
S'MAE318'
p206
aI76912
aI1
aI18
ag133
aS' 7:30 AM'
p207
aI7
aI30
aI9
aI25
aNaNaNaNaNaNaNag28
aa(lp208
S'MAE318'
p209
aI86696
aI0
aI18
ag120
aS' 6:00 PM'
p210
aI18
aI0
aI19
aI55
aNaNaNaNaNaNaNag5
aa(lp211
S'MAE318'
p212
aI73024
aI0
aI90
aS'M W'
p213
aS' 3:00 PM'
p214
aI15
aI0
aI16
aI55
aNaNaNaNaNaNaNag5
aa(lp215
S'MAE318'
p216
aI73872
aI0
aI18
ag140
aS' 9:00 AM'
p217
aI9
aI0
aI10
aI55
aNaNaNaNaNaNaNag5
aa(lp218
S'MAE318'
p219
aI73873
aI0
aI18
ag133
aS'10:30 AM'
p220
aI10
aI30
aI12
aI25
aNaNaNaNaNaNaNag5
aa(lp221
S'MAE318'
p222
aI76913
aI0
aI18
ag140
aS' 9:00 AM'
p223
aI9
aI0
aI10
aI55
aNaNaNaNaNaNaNag5
aa(lp224
S'MAE318'
p225
aI76914
aI0
aI18
ag133
aS'10:30 AM'
p226
aI10
aI30
aI12
aI25
aNaNaNaNaNaNaNag5
aa(lp227
S'MAE318'
p228
aI86697
aI0
aI18
ag120
aS' 6:00 PM'
p229
aI18
aI0
aI19
aI55
aNaNaNaNaNaNaNag5
aa(lp230
S'MAE384'
p231
aI71608
aI41
aI100
aS'T Th'
p232
aS' 9:00 AM'
p233
aI9
aI0
aI10
aI15
aNaNaNaNaNaNaNag5
aa(lp234
S'MAE384'
p235
aI90134
aI18
aI34
ag140
aS' 6:00 PM'
p236
aI18
aI0
aI19
aI15
aNaNaNaNaNaNaNag28
aa(lp237
S'MAE384'
p238
aI90135
aI21
aI33
ag133
aS' 6:00 PM'
p239
aI18
aI0
aI19
aI15
aNaNaNaNaNaNaNag28
aa(lp240
S'MAE384'
p241
aI90136
aI2
aI33
ag120
aS' 4:30 PM'
p242
aI16
aI30
aI17
aI45
aNaNaNaNaNaNaNag28
aa(lp243
S'MAE384'
p244
aI71609
aI9
aI85
aS'T Th'
p245
aS'12:00 PM'
p246
aI12
aI0
aI13
aI15
aNaNaNaNaNaNaNag5
aa(lp247
S'MAE384'
p248
aI90137
aI4
aI28
ag140
aS' 6:00 PM'
p249
aI18
aI0
aI19
aI15
aNaNaNaNaNaNaNag28
aa(lp250
S'MAE384'
p251
aI90139
aI5
aI28
ag133
aS' 6:00 PM'
p252
aI18
aI0
aI19
aI15
aNaNaNaNaNaNaNag28
aa(lp253
S'MAE384'
p254
aI90140
aI0
aI29
ag120
aS' 4:30 PM'
p255
aI16
aI30
aI17
aI45
aNaNaNaNaNaNaNag5
aa(lp256
S'MAE394'
p257
aI80732
aI0
aI25
ag140
aS' 1:30 PM'
p258
aI13
aI30
aI14
aI20
aNaNaNaNaNaNaNag5
aa(lp259
S'MAE400'
p260
aI71611
aI29
aI70
aS'T Th'
p261
aS' 6:00 PM'
p262
aI18
aI0
aI19
aI15
aNaNaNaNaNaNaNag28
aa(lp263
S'MAE400'
p264
aI83167
aI0
aI70
aS'M W'
p265
aS' 3:00 PM'
p266
aI15
aI0
aI16
aI15
aNaNaNaNaNaNaNag5
aa(lp267
S'MAE400'
p268
aI90113
aI44
aI70
aS'M W'
p269
aS' 6:00 PM'
p270
aI18
aI0
aI19
aI15
aNaNaNaNaNaNaNag28
aa(lp271
S'MAE455'
p272
aI72441
aI0
aI32
aS'T Th'
p273
aS' 4:30 PM'
p274
aI16
aI30
aI17
aI45
aNaNaNaNaNaNaNag5
aa(lp275
S'MAE484'
p276
aI80247
aI28
aI30
aS'ONLINE'
p277
aNaNaNaNaNaNaNaNaNaNaNaNag28
aa(lp278
S'MAE492'
p279
aI75059
aI30
aI30
ag277
aNaNaNaNaNaNaNaNaNaNaNaNag28
aa(lp280
S'MAE493'
p281
aI75060
aI29
aI30
ag277
aNaNaNaNaNaNaNaNaNaNaNaNag28
aa(lp282
S'MAE494'
p283
aI77458
aI0
aI22
aS'T Th'
p284
aS' 9:00 AM'
p285
aI9
aI0
aI10
aI15
aNaNaNaNaNaNaNag5
aa(lp286
S'MAE494'
p287
aI86804
aI7
aI60
aS'T Th'
p288
aS' 1:30 PM'
p289
aI13
aI30
aI14
aI45
aNaNaNaNaNaNaNag28
aa(lp290
S'MAE499'
p291
aI80630
aI30
aI30
ag277
aNaNaNaNaNaNaNaNaNaNaNaNag28
aa(lp292
S'MAE501'
p293
aI71618
aI119
aI185
aS'T Th'
p294
aS'12:00 PM'
p295
aI12
aI0
aI13
aI15
aNaNaNaNaNaNaNag28
aa(lp296
S'MAE502'
p297
aI82583
aI47
aI120
aS'M W'
p298
aS'12:00 PM'
p299
aI12
aI0
aI13
aI15
aNaNaNaNaNaNaNag5
aa(lp300
S'MAE506'
p301
aI77682
aI21
aI50
aS'T Th'
p302
aS' 3:00 PM'
p303
aI15
aI0
aI16
aI15
aNaNaNaNaNaNaNag5
aa(lp304
S'MAE513'
p305
aI80152
aI0
aI23
aS'T Th'
p306
aS' 4:30 PM'
p307
aI16
aI30
aI17
aI45
aNaNaNaNaNaNaNag5
aa(lp308
S'MAE520'
p309
aI83397
aI0
aI40
aS'T Th'
p310
aS' 9:00 AM'
p311
aI9
aI0
aI10
aI15
aNaNaNaNaNaNaNag5
aa(lp312
S'MAE523'
p313
aI86708
aI24
aI40
aS'M W'
p314
aS' 1:30 PM'
p315
aI13
aI30
aI14
aI45
aNaNaNaNaNaNaNag5
aa(lp316
S'MAE546'
p317
aI90093
aI0
aI60
aS'Th'
p318
aS' 1:30 PM'
p319
aI13
aI30
aI15
aI30
aNaNaNaNaNaNaNag5
aa(lp320
S'MAE547'
p321
aI80186
aI0
aI40
aS'T Th'
p322
aS'10:30 AM'
p323
aI10
aI30
aI11
aI45
aNaNaNaNaNaNaNag5
aa(lp324
S'MAE557'
p325
aI77745
aI34
aI40
aS'T Th'
p326
aS'10:30 AM'
p327
aI10
aI30
aI11
aI45
aNaNaNaNaNaNaNag5
aa(lp328
S'MAE564'
p329
aI79796
aI28
aI50
aS'M W'
p330
aS' 9:00 AM'
p331
aI9
aI0
aI10
aI15
aNaNaNaNaNaNaNag5
aa(lp332
S'MAE570'
p333
aI79958
aI36
aI64
aS'M W'
p334
aS' 6:00 PM'
p335
aI18
aI0
aI19
aI15
aNaNaNaNaNaNaNag5
aa(lp336
S'MAE571'
p337
aI80183
aI0
aI50
aS'M W'
p338
aS'10:30 AM'
p339
aI10
aI30
aI11
aI45
aNaNaNaNaNaNaNag5
aa(lp340
S'MAE577'
p341
aI86710
aI33
aI40
aS'T Th'
p342
aS' 9:00 AM'
p343
aI9
aI0
aI10
aI15
aNaNaNaNaNaNaNag5
aa(lp344
S'MAE581'
p345
aI86711
aI18
aI40
aS'M W'
p346
aS' 4:30 PM'
p347
aI16
aI30
aI17
aI45
aNaNaNaNaNaNaNag5
aa(lp348
S'MAE585'
p349
aI80207
aI12
aI50
ag120
aS'4:30PM'
p350
aI16
aI30
aI17
aI20
aS''
p351
aS'12:00AM'
p352
aNaNaS'12:00AM'
p353
aNaNag5
aa(lp354
S'MAE591'
p355
aI79731
aI96
aI120
ag8
aS' 1:30 PM'
p356
aI13
aI30
aI14
aI45
aNaNaNaNaNaNaNag28
aa(lp357
S'MAE592'
p358
aI74853
aI69
aI70
ag277
aNaNaNaNaNaNaNaNaNaNaNaNag28
aa(lp359
S'MAE593'
p360
aI78281
aI26
aI30
ag277
aNaNaNaNaNaNaNaNaNaNaNaNag28
aa(lp361
S'MAE595'
p362
aI74854
aI30
aI30
ag277
aNaNaNaNaNaNaNaNaNaNaNaNag28
aa(lp363
S'MAE598'
p364
aI76313
aI0
aI27
aS'T Th'
p365
aS' 9:00 AM'
p366
aI9
aI0
aI10
aI15
aNaNaNaNaNaNaNag5
aa(lp367
S'MAE598'
p368
aI72440
aI22
aI32
aS'M W'
p369
aS' 9:00 AM'
p370
aI9
aI0
aI10
aI15
aNaNaNaNaNaNaNag5
aa(lp371
S'MAE598'
p372
aI83462
aI34
aI40
aS'T Th'
p373
aS' 1:30 PM'
p374
aI13
aI30
aI14
aI45
aNaNaNaNaNaNaNag5
aa(lp375
S'MAE598'
p376
aI86801
aI17
aI40
aS'M W'
p377
aS' 3:00 PM'
p378
aI15
aI0
aI16
aI15
aNaNaNaNaNaNaNag5
aa(lp379
S'MAE598'
p380
aI77770
aI24
aI50
aS'M W'
p381
aS' 3:00 PM'
p382
aI15
aI0
aI16
aI15
aNaNaNaNaNaNaNag5
aa(lp383
S'MAE598'
p384
aI77873
aI0
aI8
aS'T Th'
p385
aS'12:00 PM'
p386
aI12
aI0
aI13
aI15
aNaNaNaNaNaNaNag5
aa(lp387
S'MAE598'
p388
aI77898
aI29
aI40
aS'T Th'
p389
aS' 4:30 PM'
p390
aI16
aI30
aI17
aI45
aNaNaNaNaNaNaNag5
aa(lp391
S'MAE598'
p392
aI86805
aI0
aI30
aS'T Th'
p393
aS' 1:30 PM'
p394
aI13
aI30
aI14
aI45
aNaNaNaNaNaNaNag5
aa(lp395
S'MAE598'
p396
aI80008
aI20
aI25
aS'M W'
p397
aS'10:30 AM'
p398
aI10
aI30
aI11
aI45
aNaNaNaNaNaNaNag5
aa(lp399
S'MAE598'
p400
aI86700
aI4
aI5
ag8
aS' 9:00 AM'
p401
aI9
aI0
aI10
aI15
aNaNaNaNaNaNaNag28
aa(lp402
S'MAE598'
p403
aI86701
aI2
aI5
ag8
aS'10:30 AM'
p404
aI10
aI30
aI11
aI45
aNaNaNaNaNaNaNag28
aa(lp405
S'MAE598'
p406
aI86702
aI5
aI5
ag8
aS'12:00 PM'
p407
aI12
aI0
aI13
aI15
aNaNaNaNaNaNaNag28
aa(lp408
S'MAE598'
p409
aI86703
aI5
aI5
ag8
aS' 1:30 PM'
p410
aI13
aI30
aI14
aI45
aNaNaNaNaNaNaNag28
aa(lp411
S'MAE598'
p412
aI86704
aI4
aI5
ag8
aS' 7:30 AM'
p413
aI7
aI30
aI8
aI45
aNaNaNaNaNaNaNag28
aa(lp414
S'MAE598'
p415
aI80129
aI34
aI45
aS'T Th'
p416
aS' 3:00 PM'
p417
aI15
aI0
aI16
aI15
aNaNaNaNaNaNaNag5
aa(lp418
S'MAE598'
p419
aI91060
aI5
aI30
aS'Th'
p420
aS' 3:45 PM'
p421
aI15
aI45
aI17
aI45
aNaNaNaNaNaNaNag5
aa(lp422
S'MAE598'
p423
aI91061
aI0
aI30
aS'Th'
p424
aS' 6:00 PM'
p425
aI18
aI0
aI20
aI0
aNaNaNaNaNaNaNag5
aa(lp426
S'MAE599'
p427
aI74855
aI62
aI70
ag277
aNaNaNaNaNaNaNaNaNaNaNaNag28
aa(lp428
S'MAE792'
p429
aI74856
aI74
aI95
ag277
aNaNaNaNaNaNaNaNaNaNaNaNag28
aa(lp430
S'MAE795'
p431
aI74857
aI29
aI30
ag277
aNaNaNaNaNaNaNaNaNaNaNaNag28
aa(lp432
S'MAE799'
p433
aI74858
aI43
aI50
ag277
aNaNaNaNaNaNaNaNaNaNaNaNag28
aa.