(lp0
(lp1
S'MAS501'
p2
aI79597
aI12
aI25
aS'M'
p3
aS' 6:00 PM'
p4
aI18
aI0
aI20
aI45
aNaNaNaNaNaNaNaS'Not Reserved'
p5
aa(lp6
S'MAS502'
p7
aI73134
aI12
aI25
aS'Th'
p8
aS' 6:00 PM'
p9
aI18
aI0
aI20
aI45
aNaNaNaNaNaNaNag5
aa(lp10
S'MAS580'
p11
aI85497
aI0
aI1
aS'ONLINE'
p12
aNaNaNaNaNaNaNaNaNaNaNaNaS'Reserved'
p13
aa(lp14
S'MAS584'
p15
aI80919
aI5
aI5
ag12
aNaNaNaNaNaNaNaNaNaNaNaNag5
aa(lp16
S'MAS585'
p17
aI73624
aI5
aI5
ag12
aNaNaNaNaNaNaNaNaNaNaNaNag5
aa(lp18
S'MAS590'
p19
aI80927
aI4
aI5
ag12
aNaNaNaNaNaNaNaNaNaNaNaNag5
aa(lp20
S'MAS590'
p21
aI91642
aI4
aI5
ag12
aNaNaNaNaNaNaNaNaNaNaNaNag5
aa(lp22
S'MAS592'
p23
aI80967
aI5
aI5
ag12
aNaNaNaNaNaNaNaNaNaNaNaNag5
aa(lp24
S'MAS595'
p25
aI73601
aI5
aI5
ag12
aNaNaNaNaNaNaNaNaNaNaNaNag5
aa(lp26
S'MAS598'
p27
aI86268
aI4
aI5
ag3
aS' 6:00 PM'
p28
aI18
aI0
aI20
aI45
aNaNaNaNaNaNaNag5
aa(lp29
S'MAS598'
p30
aI86269
aI3
aI5
ag12
aNaNaNaNaNaNaNaNaNaNaNaNag13
aa(lp31
S'MAS598'
p32
aI87043
aI5
aI5
ag3
aS' 4:30 PM'
p33
aI16
aI30
aI19
aI15
aNaNaNaNaNaNaNag5
aa(lp34
S'MAS598'
p35
aI87045
aI4
aI5
aS'Th'
p36
aS' 4:30 PM'
p37
aI16
aI30
aI19
aI15
aNaNaNaNaNaNaNag5
aa(lp38
S'MAS598'
p39
aI89962
aI3
aI5
ag12
aNaNaNaNaNaNaNaNaNaNaNaNag13
aa(lp40
S'MAS598'
p41
aI89963
aI1
aI5
aS'W'
p42
aS' 4:30 PM'
p43
aI16
aI30
aI19
aI15
aNaNaNaNaNaNaNag5
aa(lp44
S'MAS598'
p45
aI89964
aI3
aI5
aS'T Th'
p46
aS' 6:00 PM'
p47
aI18
aI0
aI19
aI15
aNaNaNaNaNaNaNag5
aa(lp48
S'MAS598'
p49
aI90245
aI4
aI5
aS'M W F'
p50
aS'12:00 PM'
p51
aI12
aI0
aI12
aI50
aNaNaNaNaNaNaNag5
aa(lp52
S'MAS598'
p53
aI90247
aI5
aI5
aS'T'
p54
aS' 4:30 PM'
p55
aI16
aI30
aI19
aI15
aNaNaNaNaNaNaNag5
aa(lp56
S'MAS598'
p57
aI90248
aI5
aI5
ag42
aS' 4:30 PM'
p58
aI16
aI30
aI19
aI15
aNaNaNaNaNaNaNag5
aa(lp59
S'MAS598'
p60
aI90249
aI4
aI5
aS'T Th'
p61
aS' 9:00 AM'
p62
aI9
aI0
aI10
aI15
aNaNaNaNaNaNaNag5
aa.