(lp0
(lp1
S'MAT110'
p2
aI77925
aI57
aI60
aS'ONLINE'
p3
aNaNaNaNaNaNaNaNaNaNaNaNaS'Reserved'
p4
aa(lp5
S'MAT110'
p6
aI78200
aI15
aI15
ag3
aNaNaNaNaNaNaNaNaNaNaNaNag4
aa(lp7
S'MAT110'
p8
aI81692
aI59
aI60
ag3
aNaNaNaNaNaNaNaNaNaNaNaNag4
aa(lp9
S'MAT110'
p10
aI81693
aI13
aI15
ag3
aNaNaNaNaNaNaNaNaNaNaNaNag4
aa(lp11
S'MAT110'
p12
aI81696
aI93
aI98
aS'M W F'
p13
aS' 9:00 AM'
p14
aI9
aI0
aI9
aI50
aNaNaNaNaNaNaNag4
aa(lp15
S'MAT110'
p16
aI81698
aI2
aI2
aS'M W F'
p17
aS' 9:00 AM'
p18
aI9
aI0
aI9
aI50
aNaNaNaNaNaNaNag4
aa(lp19
S'MAT110'
p20
aI81702
aI93
aI97
aS'M W F'
p21
aS' 9:00 AM'
p22
aI9
aI0
aI9
aI50
aNaNaNaNaNaNaNag4
aa(lp23
S'MAT110'
p24
aI81703
aI3
aI3
aS'M W F'
p25
aS' 9:00 AM'
p26
aI9
aI0
aI9
aI50
aNaNaNaNaNaNaNag4
aa(lp27
S'MAT110'
p28
aI81704
aI82
aI97
aS'M W F'
p29
aS'10:30 AM'
p30
aI10
aI30
aI11
aI20
aNaNaNaNaNaNaNag4
aa(lp31
S'MAT110'
p32
aI81705
aI2
aI3
aS'M W F'
p33
aS'10:30 AM'
p34
aI10
aI30
aI11
aI20
aNaNaNaNaNaNaNag4
aa(lp35
S'MAT110'
p36
aI81706
aI94
aI98
aS'M W F'
p37
aS'10:30 AM'
p38
aI10
aI30
aI11
aI20
aNaNaNaNaNaNaNag4
aa(lp39
S'MAT110'
p40
aI81707
aI3
aI3
aS'M W F'
p41
aS'10:30 AM'
p42
aI10
aI30
aI11
aI20
aNaNaNaNaNaNaNag4
aa(lp43
S'MAT110'
p44
aI81708
aI92
aI97
aS'M W F'
p45
aS'12:00 PM'
p46
aI12
aI0
aI12
aI50
aNaNaNaNaNaNaNag4
aa(lp47
S'MAT110'
p48
aI81709
aI3
aI3
aS'M W F'
p49
aS'12:00 PM'
p50
aI12
aI0
aI12
aI50
aNaNaNaNaNaNaNag4
aa(lp51
S'MAT110'
p52
aI81711
aI95
aI97
aS'M W F'
p53
aS'12:00 PM'
p54
aI12
aI0
aI12
aI50
aNaNaNaNaNaNaNag4
aa(lp55
S'MAT110'
p56
aI81712
aI3
aI3
aS'M W F'
p57
aS'12:00 PM'
p58
aI12
aI0
aI12
aI50
aNaNaNaNaNaNaNag4
aa(lp59
S'MAT110'
p60
aI81713
aI92
aI97
aS'M W F'
p61
aS' 1:30 PM'
p62
aI13
aI30
aI14
aI20
aNaNaNaNaNaNaNag4
aa(lp63
S'MAT110'
p64
aI81714
aI3
aI3
aS'M W F'
p65
aS' 1:30 PM'
p66
aI13
aI30
aI14
aI20
aNaNaNaNaNaNaNag4
aa(lp67
S'MAT110'
p68
aI81715
aI93
aI97
aS'M W F'
p69
aS' 1:30 PM'
p70
aI13
aI30
aI14
aI20
aNaNaNaNaNaNaNag4
aa(lp71
S'MAT110'
p72
aI81716
aI3
aI3
aS'M W F'
p73
aS' 1:30 PM'
p74
aI13
aI30
aI14
aI20
aNaNaNaNaNaNaNag4
aa(lp75
S'MAT110'
p76
aI81717
aI94
aI97
aS'M W F'
p77
aS' 3:00 PM'
p78
aI15
aI0
aI15
aI50
aNaNaNaNaNaNaNag4
aa(lp79
S'MAT110'
p80
aI81718
aI3
aI3
aS'M W F'
p81
aS' 3:00 PM'
p82
aI15
aI0
aI15
aI50
aNaNaNaNaNaNaNag4
aa(lp83
S'MAT110'
p84
aI81719
aI90
aI90
aS'M W F'
p85
aS' 3:00 PM'
p86
aI15
aI0
aI15
aI50
aNaNaNaNaNaNaNag4
aa(lp87
S'MAT110'
p88
aI81720
aI10
aI10
aS'M W F'
p89
aS' 3:00 PM'
p90
aI15
aI0
aI15
aI50
aNaNaNaNaNaNaNag4
aa(lp91
S'MAT110'
p92
aI77954
aI31
aI40
aS'M W F'
p93
aS' 9:00 AM'
p94
aI9
aI0
aI9
aI50
aNaNaNaNaNaNaNag4
aa(lp95
S'MAT110'
p96
aI77955
aI14
aI15
aS'M W F'
p97
aS' 9:00 AM'
p98
aI9
aI0
aI9
aI50
aNaNaNaNaNaNaNag4
aa(lp99
S'MAT110'
p100
aI77956
aI39
aI40
aS'M W F'
p101
aS'12:00 PM'
p102
aI12
aI0
aI12
aI50
aNaNaNaNaNaNaNag4
aa(lp103
S'MAT110'
p104
aI77988
aI15
aI15
aS'M W F'
p105
aS'12:00 PM'
p106
aI12
aI0
aI12
aI50
aNaNaNaNaNaNaNag4
aa(lp107
S'MAT110'
p108
aI81578
aI41
aI42
aS'M W F'
p109
aS'10:30 AM'
p110
aI10
aI30
aI11
aI20
aNaNaNaNaNaNaNag4
aa(lp111
S'MAT110'
p112
aI81590
aI3
aI3
aS'M W F'
p113
aS'10:30 AM'
p114
aI10
aI30
aI11
aI20
aNaNaNaNaNaNaNag4
aa(lp115
S'MAT110'
p116
aI83383
aI40
aI42
aS'T Th'
p117
aS' 3:00 PM'
p118
aI15
aI0
aI16
aI15
aNaNaNaNaNaNaNag4
aa(lp119
S'MAT110'
p120
aI83384
aI3
aI3
aS'T Th'
p121
aS' 3:00 PM'
p122
aI15
aI0
aI16
aI15
aNaNaNaNaNaNaNag4
aa(lp123
S'MAT110'
p124
aI77926
aI69
aI70
aS'M W'
p125
aS' 9:00 AM'
p126
aI9
aI0
aI10
aI15
aNaNaNaNaNaNaNag4
aa(lp127
S'MAT110'
p128
aI77927
aI68
aI70
aS'M W'
p129
aS'10:30 AM'
p130
aI10
aI30
aI11
aI45
aNaNaNaNaNaNaNag4
aa(lp131
S'MAT110'
p132
aI77928
aI69
aI70
aS'T Th'
p133
aS' 3:00 PM'
p134
aI15
aI0
aI16
aI15
aNaNaNaNaNaNaNag4
aa(lp135
S'MAT110'
p136
aI79208
aI5
aI5
aS'M W'
p137
aS' 9:00 AM'
p138
aI9
aI0
aI10
aI15
aNaNaNaNaNaNaNag4
aa(lp139
S'MAT110'
p140
aI77929
aI5
aI5
aS'M W'
p141
aS'10:30 AM'
p142
aI10
aI30
aI11
aI45
aNaNaNaNaNaNaNag4
aa(lp143
S'MAT110'
p144
aI77930
aI5
aI5
aS'T Th'
p145
aS' 3:00 PM'
p146
aI15
aI0
aI16
aI15
aNaNaNaNaNaNaNag4
aa(lp147
S'MAT117'
p148
aI81657
aI61
aI75
ag3
aNaNaNaNaNaNaNaNaNaNaNaNag4
aa(lp149
S'MAT117'
p150
aI81661
aI70
aI75
ag3
aNaNaNaNaNaNaNaNaNaNaNaNag4
aa(lp151
S'MAT117'
p152
aI81573
aI99
aI105
aS'T'
p153
aS'7:30AM'
p154
aI7
aI30
aI8
aI45
aS'Th'
p155
aS'7:30AM'
p156
aI7
aI30
aS'8:45AM'
p157
aI8
aI45
aS'Not Reserved'
p158
aa(lp159
S'MAT117'
p160
aI81574
aI105
aI105
aS'Th'
p161
aS'7:30AM'
p162
aI7
aI30
aI8
aI45
ag153
aS'7:30AM'
p163
aI7
aI30
aS'8:45AM'
p164
aI8
aI45
ag158
aa(lp165
S'MAT117'
p166
aI81589
aI80
aI105
ag153
aS'9:00AM'
p167
aI9
aI0
aI10
aI15
aS'Th'
p168
aS'9:00AM'
p169
aI9
aI0
aS'10:15AM'
p170
aI10
aI15
ag158
aa(lp171
S'MAT117'
p172
aI81592
aI100
aI105
aS'Th'
p173
aS'9:00AM'
p174
aI9
aI0
aI10
aI15
ag153
aS'9:00AM'
p175
aI9
aI0
aS'10:15AM'
p176
aI10
aI15
ag158
aa(lp177
S'MAT117'
p178
aI81598
aI77
aI105
ag153
aS'10:30AM'
p179
aI10
aI30
aI11
aI45
aS'Th'
p180
aS'10:30AM'
p181
aI10
aI30
aS'11:45AM'
p182
aI11
aI45
ag158
aa(lp183
S'MAT117'
p184
aI81599
aI97
aI105
aS'Th'
p185
aS'10:30AM'
p186
aI10
aI30
aI11
aI45
ag153
aS'10:30AM'
p187
aI10
aI30
aS'11:45AM'
p188
aI11
aI45
ag158
aa(lp189
S'MAT117'
p190
aI81631
aI85
aI105
ag153
aS'12:00PM'
p191
aI12
aI0
aI13
aI15
aS'Th'
p192
aS'12:00PM'
p193
aI12
aI0
aS'1:15PM'
p194
aI13
aI15
ag158
aa(lp195
S'MAT117'
p196
aI81632
aI99
aI105
aS'Th'
p197
aS'12:00PM'
p198
aI12
aI0
aI13
aI15
ag153
aS'12:00PM'
p199
aI12
aI0
aS'1:15PM'
p200
aI13
aI15
ag158
aa(lp201
S'MAT117'
p202
aI81652
aI95
aI105
ag153
aS'1:30PM'
p203
aI13
aI30
aI14
aI45
aS'Th'
p204
aS'1:30PM'
p205
aI13
aI30
aS'2:45PM'
p206
aI14
aI45
ag158
aa(lp207
S'MAT117'
p208
aI81653
aI95
aI105
aS'Th'
p209
aS'1:30PM'
p210
aI13
aI30
aI14
aI45
ag153
aS'1:30PM'
p211
aI13
aI30
aS'2:45PM'
p212
aI14
aI45
ag158
aa(lp213
S'MAT117'
p214
aI81654
aI98
aI105
ag153
aS'3:00PM'
p215
aI15
aI0
aI16
aI15
aS'Th'
p216
aS'3:00PM'
p217
aI15
aI0
aS'4:15PM'
p218
aI16
aI15
ag158
aa(lp219
S'MAT117'
p220
aI81655
aI102
aI105
aS'Th'
p221
aS'3:00PM'
p222
aI15
aI0
aI16
aI15
ag153
aS'3:00PM'
p223
aI15
aI0
aS'4:15PM'
p224
aI16
aI15
ag158
aa(lp225
S'MAT117'
p226
aI81656
aI58
aI75
ag3
aNaNaNaNaNaNaNaNaNaNaNaNag4
aa(lp227
S'MAT117'
p228
aI81384
aI53
aI58
ag153
aS'9:00AM'
p229
aI9
aI0
aI10
aI15
aS'Th'
p230
aS'9:00AM'
p231
aI9
aI0
aS'10:15AM'
p232
aI10
aI15
ag158
aa(lp233
S'MAT117'
p234
aI81385
aI49
aI58
ag153
aS'12:00PM'
p235
aI12
aI0
aI13
aI15
aS'Th'
p236
aS'12:00PM'
p237
aI12
aI0
aS'1:15PM'
p238
aI13
aI15
ag158
aa(lp239
S'MAT117'
p240
aI83441
aI37
aI42
ag153
aS'9:00AM'
p241
aI9
aI0
aI10
aI15
aS'Th'
p242
aS'9:00AM'
p243
aI9
aI0
aS'10:15AM'
p244
aI10
aI15
ag4
aa(lp245
S'MAT117'
p246
aI83442
aI37
aI42
ag153
aS'12:00PM'
p247
aI12
aI0
aI13
aI15
aS'Th'
p248
aS'12:00PM'
p249
aI12
aI0
aS'1:15PM'
p250
aI13
aI15
ag4
aa(lp251
S'MAT117'
p252
aI82065
aI54
aI55
aS'W'
p253
aS'3:00PM'
p254
aI15
aI0
aI16
aI15
aS'M'
p255
aS'3:00PM'
p256
aI15
aI0
aS'4:15PM'
p257
aI16
aI15
ag4
aa(lp258
S'MAT117'
p259
aI82066
aI52
aI55
ag153
aS'9:00AM'
p260
aI9
aI0
aI10
aI15
aS'Th'
p261
aS'9:00AM'
p262
aI9
aI0
aS'10:15AM'
p263
aI10
aI15
ag4
aa(lp264
S'MAT117'
p265
aI82067
aI52
aI55
ag153
aS'1:30PM'
p266
aI13
aI30
aI14
aI45
aS'Th'
p267
aS'1:30PM'
p268
aI13
aI30
aS'2:45PM'
p269
aI14
aI45
ag4
aa(lp270
S'MAT117'
p271
aI82068
aI50
aI55
aS'Th'
p272
aS'12:00PM'
p273
aI12
aI0
aI13
aI15
ag153
aS'12:00PM'
p274
aI12
aI0
aS'1:15PM'
p275
aI13
aI15
ag4
aa(lp276
S'MAT119'
p277
aI77258
aI21
aI25
ag3
aNaNaNaNaNaNaNaNaNaNaNaNag158
aa(lp278
S'MAT119'
p279
aI76509
aI14
aI20
ag3
aNaNaNaNaNaNaNaNaNaNaNaNag4
aa(lp280
S'MAT119'
p281
aI71663
aI30
aI40
aS'T Th'
p282
aS'10:30 AM'
p283
aI10
aI30
aI11
aI45
aNaNaNaNaNaNaNag158
aa(lp284
S'MAT142'
p285
aI81686
aI60
aI75
ag3
aNaNaNaNaNaNaNaNaNaNaNaNag4
aa(lp286
S'MAT142'
p287
aI81688
aI64
aI75
ag3
aNaNaNaNaNaNaNaNaNaNaNaNag4
aa(lp288
S'MAT142'
p289
aI81665
aI89
aI100
ag153
aS'7:30AM'
p290
aI7
aI30
aI8
aI45
aS'Th'
p291
aS'7:30AM'
p292
aI7
aI30
aS'8:45AM'
p293
aI8
aI45
ag158
aa(lp294
S'MAT142'
p295
aI81666
aI100
aI100
aS'Th'
p296
aS'7:30AM'
p297
aI7
aI30
aI8
aI45
ag153
aS'7:30AM'
p298
aI7
aI30
aS'8:45AM'
p299
aI8
aI45
ag158
aa(lp300
S'MAT142'
p301
aI81667
aI80
aI100
ag153
aS'9:00AM'
p302
aI9
aI0
aI10
aI15
aS'Th'
p303
aS'9:00AM'
p304
aI9
aI0
aS'10:15AM'
p305
aI10
aI15
ag158
aa(lp306
S'MAT142'
p307
aI81668
aI91
aI100
aS'Th'
p308
aS'9:00AM'
p309
aI9
aI0
aI10
aI15
ag153
aS'9:00AM'
p310
aI9
aI0
aS'10:15AM'
p311
aI10
aI15
ag158
aa(lp312
S'MAT142'
p313
aI81669
aI53
aI100
ag153
aS'10:30AM'
p314
aI10
aI30
aI11
aI45
aS'Th'
p315
aS'10:30AM'
p316
aI10
aI30
aS'11:45AM'
p317
aI11
aI45
ag158
aa(lp318
S'MAT142'
p319
aI81671
aI88
aI100
aS'Th'
p320
aS'10:30AM'
p321
aI10
aI30
aI11
aI45
ag153
aS'10:30AM'
p322
aI10
aI30
aS'11:45AM'
p323
aI11
aI45
ag158
aa(lp324
S'MAT142'
p325
aI81672
aI51
aI100
ag153
aS'12:00PM'
p326
aI12
aI0
aI13
aI15
aS'Th'
p327
aS'12:00PM'
p328
aI12
aI0
aS'1:15PM'
p329
aI13
aI15
ag158
aa(lp330
S'MAT142'
p331
aI81674
aI91
aI100
aS'Th'
p332
aS'12:00PM'
p333
aI12
aI0
aI13
aI15
ag153
aS'12:00PM'
p334
aI12
aI0
aS'1:15PM'
p335
aI13
aI15
ag158
aa(lp336
S'MAT142'
p337
aI81685
aI57
aI75
ag3
aNaNaNaNaNaNaNaNaNaNaNaNag4
aa(lp338
S'MAT142'
p339
aI81386
aI55
aI58
aS'M W'
p340
aS'3:00PM'
p341
aI15
aI0
aI15
aI50
aS'F'
p342
aS'3:00PM'
p343
aI15
aI0
aS'3:50PM'
p344
aI15
aI50
ag158
aa(lp345
S'MAT142'
p346
aI81387
aI48
aI58
aS'M W'
p347
aS'1:30PM'
p348
aI13
aI30
aI14
aI20
ag342
aS'1:30PM'
p349
aI13
aI30
aS'2:20PM'
p350
aI14
aI20
ag158
aa(lp351
S'MAT142'
p352
aI81388
aI127
aI150
ag3
aNaNaNaNaNaNaNaNaNaNaNaNag4
aa(lp353
S'MAT142'
p354
aI81830
aI37
aI38
aS'Th'
p355
aS'9:00AM'
p356
aI9
aI0
aI10
aI15
ag153
aS'9:00AM'
p357
aI9
aI0
aS'10:15AM'
p358
aI10
aI15
ag4
aa(lp359
S'MAT142'
p360
aI82069
aI53
aI55
ag253
aS'3:00PM'
p361
aI15
aI0
aI16
aI15
ag255
aS'3:00PM'
p362
aI15
aI0
aS'4:15PM'
p363
aI16
aI15
ag4
aa(lp364
S'MAT142'
p365
aI82070
aI51
aI55
aS'Th'
p366
aS'9:00AM'
p367
aI9
aI0
aI10
aI15
ag153
aS'9:00AM'
p368
aI9
aI0
aS'10:15AM'
p369
aI10
aI15
ag4
aa(lp370
S'MAT142'
p371
aI82084
aI49
aI55
ag153
aS'10:30AM'
p372
aI10
aI30
aI11
aI45
aS'Th'
p373
aS'10:30AM'
p374
aI10
aI30
aS'11:45AM'
p375
aI11
aI45
ag4
aa(lp376
S'MAT142'
p377
aI82086
aI49
aI55
ag153
aS'1:30PM'
p378
aI13
aI30
aI14
aI45
aS'Th'
p379
aS'1:30PM'
p380
aI13
aI30
aS'2:45PM'
p381
aI14
aI45
ag4
aa(lp382
S'MAT142'
p383
aI82087
aI55
aI55
ag255
aS'4:30PM'
p384
aI16
aI30
aI17
aI45
ag253
aS'4:30PM'
p385
aI16
aI30
aS'5:45PM'
p386
aI17
aI45
ag4
aa(lp387
S'MAT142'
p388
aI82088
aI49
aI55
ag153
aS'12:00PM'
p389
aI12
aI0
aI13
aI15
aS'Th'
p390
aS'12:00PM'
p391
aI12
aI0
aS'1:15PM'
p392
aI13
aI15
ag4
aa(lp393
S'MAT142'
p394
aI82089
aI54
aI55
ag253
aS'4:30PM'
p395
aI16
aI30
aI17
aI45
ag255
aS'4:30PM'
p396
aI16
aI30
aS'5:45PM'
p397
aI17
aI45
ag4
aa(lp398
S'MAT142'
p399
aI82090
aI54
aI55
ag153
aS'10:30AM'
p400
aI10
aI30
aI11
aI45
aS'Th'
p401
aS'10:30AM'
p402
aI10
aI30
aS'11:45AM'
p403
aI11
aI45
ag4
aa(lp404
S'MAT142'
p405
aI85399
aI40
aI40
ag342
aS'12:00PM'
p406
aI12
aI0
aI13
aI15
ag253
aS'12:00PM'
p407
aI12
aI0
aS'1:15PM'
p408
aI13
aI15
ag4
aa(lp409
S'MAT142'
p410
aI86942
aI40
aI40
ag253
aS'10:30AM'
p411
aI10
aI30
aI11
aI45
ag342
aS'10:30AM'
p412
aI10
aI30
aS'11:45AM'
p413
aI11
aI45
ag4
aa(lp414
S'MAT142'
p415
aI86943
aI40
aI40
ag253
aS'1:30PM'
p416
aI13
aI30
aI14
aI45
ag342
aS'1:30PM'
p417
aI13
aI30
aS'2:45PM'
p418
aI14
aI45
ag4
aa(lp419
S'MAT170'
p420
aI76403
aI13
aI20
ag3
aNaNaNaNaNaNaNaNaNaNaNaNag4
aa(lp421
S'MAT170'
p422
aI79653
aI8
aI10
ag3
aNaNaNaNaNaNaNaNaNaNaNaNag4
aa(lp423
S'MAT170'
p424
aI71619
aI89
aI100
ag3
aNaNaNaNaNaNaNaNaNaNaNaNag4
aa(lp425
S'MAT170'
p426
aI81725
aI27
aI32
aS'M W F'
p427
aS' 7:30 AM'
p428
aI7
aI30
aI8
aI20
aNaNaNaNaNaNaNag158
aa(lp429
S'MAT170'
p430
aI81727
aI68
aI85
aS'M W F'
p431
aS' 9:00 AM'
p432
aI9
aI0
aI9
aI50
aNaNaNaNaNaNaNag158
aa(lp433
S'MAT170'
p434
aI81728
aI32
aI40
aS'M W F'
p435
aS' 9:00 AM'
p436
aI9
aI0
aI9
aI50
aNaNaNaNaNaNaNag158
aa(lp437
S'MAT170'
p438
aI81729
aI34
aI40
aS'M W F'
p439
aS'10:30 AM'
p440
aI10
aI30
aI11
aI20
aNaNaNaNaNaNaNag158
aa(lp441
S'MAT170'
p442
aI81731
aI82
aI85
aS'M W F'
p443
aS'10:30 AM'
p444
aI10
aI30
aI11
aI20
aNaNaNaNaNaNaNag158
aa(lp445
S'MAT170'
p446
aI81732
aI29
aI40
aS'M W F'
p447
aS'12:00 PM'
p448
aI12
aI0
aI12
aI50
aNaNaNaNaNaNaNag158
aa(lp449
S'MAT170'
p450
aI81733
aI37
aI40
aS'M W F'
p451
aS' 1:30 PM'
p452
aI13
aI30
aI14
aI20
aNaNaNaNaNaNaNag158
aa(lp453
S'MAT170'
p454
aI81734
aI62
aI85
aS'M W F'
p455
aS' 1:30 PM'
p456
aI13
aI30
aI14
aI20
aNaNaNaNaNaNaNag158
aa(lp457
S'MAT170'
p458
aI81738
aI64
aI85
aS'T Th'
p459
aS' 9:00 AM'
p460
aI9
aI0
aI10
aI15
aNaNaNaNaNaNaNag158
aa(lp461
S'MAT170'
p462
aI81740
aI43
aI47
ag153
aS'10:30AM'
p463
aI10
aI30
aI11
aI45
aS''
p464
aS'12:00AM'
p465
aNaNaS'12:00AM'
p466
aNaNag158
aa(lp467
S'MAT170'
p468
aI81741
aI44
aI47
aS'Th'
p469
aS'10:30AM'
p470
aI10
aI30
aI11
aI45
ag464
aS'12:00AM'
p471
aNaNaS'12:00AM'
p472
aNaNag158
aa(lp473
S'MAT170'
p474
aI81742
aI21
aI40
aS'T Th'
p475
aS'12:00 PM'
p476
aI12
aI0
aI13
aI15
aNaNaNaNaNaNaNag158
aa(lp477
S'MAT170'
p478
aI81743
aI78
aI80
aS'M W F'
p479
aS' 1:30 PM'
p480
aI13
aI30
aI14
aI20
aNaNaNaNaNaNaNag158
aa(lp481
S'MAT170'
p482
aI81744
aI56
aI82
aS'T Th'
p483
aS' 3:00 PM'
p484
aI15
aI0
aI16
aI15
aNaNaNaNaNaNaNag158
aa(lp485
S'MAT170'
p486
aI85599
aI81
aI82
aS'T Th'
p487
aS' 7:30 AM'
p488
aI7
aI30
aI8
aI45
aNaNaNaNaNaNaNag158
aa(lp489
S'MAT170'
p490
aI81739
aI19
aI40
aS'T Th'
p491
aS'10:30 AM'
p492
aI10
aI30
aI11
aI45
aNaNaNaNaNaNaNag4
aa(lp493
S'MAT170'
p494
aI71664
aI43
aI60
aS'T Th'
p495
aS' 1:30 PM'
p496
aI13
aI30
aI14
aI45
aNaNaNaNaNaNaNag158
aa(lp497
S'MAT170'
p498
aI71665
aI137
aI150
ag3
aNaNaNaNaNaNaNaNaNaNaNaNag4
aa(lp499
S'MAT170'
p500
aI81833
aI36
aI42
aS'M W F'
p501
aS' 9:00 AM'
p502
aI9
aI0
aI9
aI50
aNaNaNaNaNaNaNag4
aa(lp503
S'MAT170'
p504
aI81834
aI34
aI42
aS'T Th'
p505
aS'12:00 PM'
p506
aI12
aI0
aI13
aI15
aNaNaNaNaNaNaNag4
aa(lp507
S'MAT170'
p508
aI81835
aI22
aI32
aS'M W F'
p509
aS' 1:30 PM'
p510
aI13
aI30
aI14
aI20
aNaNaNaNaNaNaNag4
aa(lp511
S'MAT170'
p512
aI81836
aI28
aI32
aS'T Th'
p513
aS'10:30 AM'
p514
aI10
aI30
aI11
aI45
aNaNaNaNaNaNaNag4
aa(lp515
S'MAT170'
p516
aI83380
aI37
aI42
aS'M W'
p517
aS' 3:00 PM'
p518
aI15
aI0
aI16
aI15
aNaNaNaNaNaNaNag4
aa(lp519
S'MAT170'
p520
aI85585
aI31
aI32
aS'T Th'
p521
aS'10:30 AM'
p522
aI10
aI30
aI11
aI45
aNaNaNaNaNaNaNag4
aa(lp523
S'MAT170'
p524
aI85586
aI32
aI32
aS'M W F'
p525
aS' 1:30 PM'
p526
aI13
aI30
aI14
aI20
aNaNaNaNaNaNaNag4
aa(lp527
S'MAT170'
p528
aI89242
aI29
aI32
aS'T Th'
p529
aS' 1:30 PM'
p530
aI13
aI30
aI14
aI45
aNaNaNaNaNaNaNag4
aa(lp531
S'MAT170'
p532
aI74659
aI35
aI39
aS'M W'
p533
aS'10:30 AM'
p534
aI10
aI30
aI11
aI45
aNaNaNaNaNaNaNag4
aa(lp535
S'MAT170'
p536
aI75802
aI34
aI39
aS'M W'
p537
aS'12:00 PM'
p538
aI12
aI0
aI13
aI15
aNaNaNaNaNaNaNag4
aa(lp539
S'MAT170'
p540
aI79209
aI33
aI39
aS'T Th'
p541
aS' 3:00 PM'
p542
aI15
aI0
aI16
aI15
aNaNaNaNaNaNaNag4
aa(lp543
S'MAT170'
p544
aI80736
aI37
aI39
aS'T Th'
p545
aS' 4:30 PM'
p546
aI16
aI30
aI17
aI45
aNaNaNaNaNaNaNag4
aa(lp547
S'MAT170'
p548
aI86962
aI32
aI39
aS'T Th'
p549
aS' 9:00 AM'
p550
aI9
aI0
aI10
aI15
aNaNaNaNaNaNaNag4
aa(lp551
S'MAT171'
p552
aI79253
aI75
aI80
aS'T Th'
p553
aS' 9:00 AM'
p554
aI9
aI0
aI10
aI15
aNaNaNaNaNaNaNag4
aa(lp555
S'MAT171'
p556
aI79259
aI38
aI40
ag255
aS' 1:30 PM'
p557
aI13
aI30
aI14
aI20
aNaNaNaNaNaNaNag158
aa(lp558
S'MAT171'
p559
aI79260
aI37
aI40
ag253
aS'10:30 AM'
p560
aI10
aI30
aI11
aI20
aNaNaNaNaNaNaNag158
aa(lp561
S'MAT171'
p562
aI79262
aI79
aI80
aS'M W F'
p563
aS' 9:00 AM'
p564
aI9
aI0
aI9
aI50
aNaNaNaNaNaNaNag4
aa(lp565
S'MAT171'
p566
aI79280
aI39
aI40
ag255
aS'10:30 AM'
p567
aI10
aI30
aI11
aI20
aNaNaNaNaNaNaNag158
aa(lp568
S'MAT171'
p569
aI79281
aI40
aI40
ag342
aS'10:30 AM'
p570
aI10
aI30
aI11
aI20
aNaNaNaNaNaNaNag158
aa(lp571
S'MAT171'
p572
aI79282
aI79
aI80
aS'M W F'
p573
aS'12:00 PM'
p574
aI12
aI0
aI12
aI50
aNaNaNaNaNaNaNag4
aa(lp575
S'MAT171'
p576
aI79287
aI40
aI40
ag253
aS' 1:30 PM'
p577
aI13
aI30
aI14
aI20
aNaNaNaNaNaNaNag158
aa(lp578
S'MAT171'
p579
aI79289
aI39
aI40
ag342
aS' 1:30 PM'
p580
aI13
aI30
aI14
aI20
aNaNaNaNaNaNaNag158
aa(lp581
S'MAT191'
p582
aI74231
aI19
aI19
ag255
aS' 1:30 PM'
p583
aI13
aI30
aI14
aI20
aNaNaNaNaNaNaNag4
aa(lp584
S'MAT191'
p585
aI74880
aI18
aI19
ag255
aS' 1:30 PM'
p586
aI13
aI30
aI14
aI20
aNaNaNaNaNaNaNag4
aa(lp587
S'MAT191'
p588
aI77127
aI18
aI19
ag253
aS' 1:30 PM'
p589
aI13
aI30
aI14
aI20
aNaNaNaNaNaNaNag4
aa(lp590
S'MAT191'
p591
aI78169
aI17
aI19
ag255
aS' 1:30 PM'
p592
aI13
aI30
aI14
aI20
aNaNaNaNaNaNaNag4
aa(lp593
S'MAT191'
p594
aI80655
aI19
aI19
ag253
aS' 1:30 PM'
p595
aI13
aI30
aI14
aI20
aNaNaNaNaNaNaNag4
aa(lp596
S'MAT191'
p597
aI83424
aI16
aI19
ag253
aS' 1:30 PM'
p598
aI13
aI30
aI14
aI20
aNaNaNaNaNaNaNag4
aa(lp599
S'MAT191'
p600
aI86623
aI19
aI20
ag342
aS' 1:30 PM'
p601
aI13
aI30
aI14
aI20
aNaNaNaNaNaNaNag4
aa(lp602
S'MAT191'
p603
aI86624
aI19
aI19
ag342
aS' 1:30 PM'
p604
aI13
aI30
aI14
aI20
aNaNaNaNaNaNaNag4
aa(lp605
S'MAT194'
p606
aI71620
aI2
aI7
aS'T Th'
p607
aS' 1:30 PM'
p608
aI13
aI30
aI14
aI45
aNaNaNaNaNaNaNag158
aa(lp609
S'MAT208'
p610
aI79871
aI25
aI35
aS'T Th'
p611
aS' 9:00 AM'
p612
aI9
aI0
aI10
aI15
aNaNaNaNaNaNaNag158
aa(lp613
S'MAT210'
p614
aI76841
aI32
aI35
ag3
aNaNaNaNaNaNaNaNaNaNaNaNag4
aa(lp615
S'MAT210'
p616
aI81748
aI16
aI35
ag3
aNaNaNaNaNaNaNaNaNaNaNaNag4
aa(lp617
S'MAT210'
p618
aI81750
aI74
aI85
aS'M W F'
p619
aS' 7:30 AM'
p620
aI7
aI30
aI8
aI20
aNaNaNaNaNaNaNag158
aa(lp621
S'MAT210'
p622
aI81751
aI66
aI85
aS'M W F'
p623
aS' 9:00 AM'
p624
aI9
aI0
aI9
aI50
aNaNaNaNaNaNaNag158
aa(lp625
S'MAT210'
p626
aI81752
aI0
aI45
ag255
aS'9:00AM'
p627
aI9
aI0
aI10
aI15
ag464
ag464
aNaNag464
aNaNag4
aa(lp628
S'MAT210'
p629
aI81753
aI37
aI45
ag253
aS'9:00AM'
p630
aI9
aI0
aI10
aI15
ag464
aS'12:00AM'
p631
aNaNaS'12:00AM'
p632
aNaNag158
aa(lp633
S'MAT210'
p634
aI81754
aI37
aI45
ag342
aS'9:00AM'
p635
aI9
aI0
aI10
aI15
ag464
aS'12:00AM'
p636
aNaNaS'12:00AM'
p637
aNaNag158
aa(lp638
S'MAT210'
p639
aI81755
aI69
aI85
aS'M W F'
p640
aS'10:30 AM'
p641
aI10
aI30
aI11
aI20
aNaNaNaNaNaNaNag158
aa(lp642
S'MAT210'
p643
aI81756
aI16
aI45
ag255
aS'10:30AM'
p644
aI10
aI30
aI11
aI45
ag464
aS'12:00AM'
p645
aNaNaS'12:00AM'
p646
aNaNag158
aa(lp647
S'MAT210'
p648
aI81757
aI31
aI45
ag253
aS'10:30AM'
p649
aI10
aI30
aI11
aI45
ag464
aS'12:00AM'
p650
aNaNaS'12:00AM'
p651
aNaNag158
aa(lp652
S'MAT210'
p653
aI81758
aI30
aI45
ag342
aS'10:30AM'
p654
aI10
aI30
aI11
aI45
ag464
aS'12:00AM'
p655
aNaNaS'12:00AM'
p656
aNaNag158
aa(lp657
S'MAT210'
p658
aI81759
aI74
aI85
aS'M W F'
p659
aS'12:00 PM'
p660
aI12
aI0
aI12
aI50
aNaNaNaNaNaNaNag4
aa(lp661
S'MAT210'
p662
aI81760
aI66
aI80
aS'M W F'
p663
aS' 1:30 PM'
p664
aI13
aI30
aI14
aI20
aNaNaNaNaNaNaNag158
aa(lp665
S'MAT210'
p666
aI81761
aI85
aI85
aS'M W F'
p667
aS' 7:30 AM'
p668
aI7
aI30
aI8
aI20
aNaNaNaNaNaNaNag158
aa(lp669
S'MAT210'
p670
aI81762
aI84
aI85
aS'M W F'
p671
aS' 4:30 PM'
p672
aI16
aI30
aI17
aI20
aNaNaNaNaNaNaNag158
aa(lp673
S'MAT210'
p674
aI81763
aI85
aI85
aS'M W F'
p675
aS' 6:00 PM'
p676
aI18
aI0
aI18
aI50
aNaNaNaNaNaNaNag158
aa(lp677
S'MAT210'
p678
aI81764
aI69
aI80
aS'M W'
p679
aS' 3:00 PM'
p680
aI15
aI0
aI16
aI15
aNaNaNaNaNaNaNag4
aa(lp681
S'MAT210'
p682
aI81765
aI57
aI85
aS'M W'
p683
aS' 4:30 PM'
p684
aI16
aI30
aI17
aI45
aNaNaNaNaNaNaNag158
aa(lp685
S'MAT210'
p686
aI81766
aI78
aI80
aS'M W'
p687
aS' 6:00 PM'
p688
aI18
aI0
aI19
aI15
aNaNaNaNaNaNaNag158
aa(lp689
S'MAT210'
p690
aI81767
aI57
aI80
aS'T Th'
p691
aS' 7:30 AM'
p692
aI7
aI30
aI8
aI45
aNaNaNaNaNaNaNag158
aa(lp693
S'MAT210'
p694
aI81768
aI19
aI35
aS'T Th'
p695
aS' 9:00 AM'
p696
aI9
aI0
aI10
aI15
aNaNaNaNaNaNaNag4
aa(lp697
S'MAT210'
p698
aI81769
aI56
aI80
aS'T Th'
p699
aS'10:30 AM'
p700
aI10
aI30
aI11
aI45
aNaNaNaNaNaNaNag4
aa(lp701
S'MAT210'
p702
aI81770
aI79
aI80
aS'M W F'
p703
aS' 9:00 AM'
p704
aI9
aI0
aI9
aI50
aNaNaNaNaNaNaNag158
aa(lp705
S'MAT210'
p706
aI81771
aI74
aI80
aS'T Th'
p707
aS' 6:00 PM'
p708
aI18
aI0
aI19
aI15
aNaNaNaNaNaNaNag158
aa(lp709
S'MAT210'
p710
aI81772
aI51
aI85
aS'T Th'
p711
aS' 3:00 PM'
p712
aI15
aI0
aI16
aI15
aNaNaNaNaNaNaNag4
aa(lp713
S'MAT210'
p714
aI81773
aI39
aI75
aS'T Th'
p715
aS' 4:30 PM'
p716
aI16
aI30
aI17
aI45
aNaNaNaNaNaNaNag158
aa(lp717
S'MAT210'
p718
aI81774
aI72
aI75
aS'T Th'
p719
aS' 6:00 PM'
p720
aI18
aI0
aI19
aI15
aNaNaNaNaNaNaNag158
aa(lp721
S'MAT210'
p722
aI84022
aI75
aI80
aS'M W F'
p723
aS' 9:00 AM'
p724
aI9
aI0
aI9
aI50
aNaNaNaNaNaNaNag158
aa(lp725
S'MAT210'
p726
aI85672
aI74
aI80
aS'T Th'
p727
aS' 4:30 PM'
p728
aI16
aI30
aI17
aI45
aNaNaNaNaNaNaNag158
aa(lp729
S'MAT210'
p730
aI85879
aI47
aI65
aS'M W F'
p731
aS'12:00 PM'
p732
aI12
aI0
aI12
aI50
aNaNaNaNaNaNaNag158
aa(lp733
S'MAT210'
p734
aI81749
aI72
aI75
ag3
aNaNaNaNaNaNaNaNaNaNaNaNag4
aa(lp735
S'MAT210'
p736
aI75505
aI51
aI60
aS'M W F'
p737
aS' 9:00 AM'
p738
aI9
aI0
aI9
aI50
aNaNaNaNaNaNaNag158
aa(lp739
S'MAT210'
p740
aI75506
aI54
aI60
aS'M W F'
p741
aS'10:30 AM'
p742
aI10
aI30
aI11
aI20
aNaNaNaNaNaNaNag158
aa(lp743
S'MAT210'
p744
aI72443
aI87
aI120
ag3
aNaNaNaNaNaNaNaNaNaNaNaNag4
aa(lp745
S'MAT210'
p746
aI80024
aI48
aI60
aS'M W'
p747
aS' 3:00 PM'
p748
aI15
aI0
aI16
aI15
aNaNaNaNaNaNaNag158
aa(lp749
S'MAT210'
p750
aI81837
aI29
aI32
aS'M W'
p751
aS' 3:00 PM'
p752
aI15
aI0
aI16
aI15
aNaNaNaNaNaNaNag4
aa(lp753
S'MAT210'
p754
aI81838
aI22
aI32
aS'T Th'
p755
aS' 9:00 AM'
p756
aI9
aI0
aI10
aI15
aNaNaNaNaNaNaNag4
aa(lp757
S'MAT210'
p758
aI84637
aI28
aI32
aS'T Th'
p759
aS' 1:30 PM'
p760
aI13
aI30
aI14
aI45
aNaNaNaNaNaNaNag4
aa(lp761
S'MAT210'
p762
aI84638
aI26
aI32
aS'T Th'
p763
aS'12:00 PM'
p764
aI12
aI0
aI13
aI15
aNaNaNaNaNaNaNag4
aa(lp765
S'MAT211'
p766
aI76842
aI39
aI70
ag3
aNaNaNaNaNaNaNaNaNaNaNaNag4
aa(lp767
S'MAT211'
p768
aI81819
aI3
aI101
ag3
aNaNaNaNaNaNaNaNaNaNaNaNag4
aa(lp769
S'MAT211'
p770
aI71669
aI0
aI80
aS'M W F'
p771
aS' 9:00 AM'
p772
aI9
aI0
aI9
aI50
aNaNaNaNaNaNaNag4
aa(lp773
S'MAT211'
p774
aI71670
aI0
aI80
aS'M W F'
p775
aS'10:30 AM'
p776
aI10
aI30
aI11
aI20
aNaNaNaNaNaNaNag4
aa(lp777
S'MAT211'
p778
aI71671
aI0
aI80
aS'M W F'
p779
aS'12:00 PM'
p780
aI12
aI0
aI12
aI50
aNaNaNaNaNaNaNag4
aa(lp781
S'MAT211'
p782
aI71672
aI0
aI80
aS'M W F'
p783
aS' 1:30 PM'
p784
aI13
aI30
aI14
aI20
aNaNaNaNaNaNaNag4
aa(lp785
S'MAT211'
p786
aI71673
aI76
aI80
aS'T Th'
p787
aS' 7:30 AM'
p788
aI7
aI30
aI8
aI45
aNaNaNaNaNaNaNag158
aa(lp789
S'MAT211'
p790
aI76843
aI79
aI80
aS'M W F'
p791
aS' 7:30 AM'
p792
aI7
aI30
aI8
aI20
aNaNaNaNaNaNaNag158
aa(lp793
S'MAT211'
p794
aI71674
aI7
aI80
aS'T Th'
p795
aS'10:30 AM'
p796
aI10
aI30
aI11
aI45
aNaNaNaNaNaNaNag158
aa(lp797
S'MAT211'
p798
aI71675
aI13
aI75
aS'T Th'
p799
aS'12:00 PM'
p800
aI12
aI0
aI13
aI15
aNaNaNaNaNaNaNag158
aa(lp801
S'MAT211'
p802
aI82160
aI17
aI70
aS'T Th'
p803
aS' 4:30 PM'
p804
aI16
aI30
aI17
aI45
aNaNaNaNaNaNaNag158
aa(lp805
S'MAT211'
p806
aI79375
aI0
aI47
ag255
aS'12:00PM'
p807
aI12
aI0
aI13
aI15
ag464
aS'12:00AM'
p808
aNaNaS'12:00AM'
p809
aNaNag4
aa(lp810
S'MAT211'
p811
aI79376
aI0
aI47
ag253
aS'12:00PM'
p812
aI12
aI0
aI13
aI15
ag464
aS'12:00AM'
p813
aNaNaS'12:00AM'
p814
aNaNag4
aa(lp815
S'MAT211'
p816
aI79377
aI0
aI47
ag342
aS'12:00PM'
p817
aI12
aI0
aI13
aI15
ag464
aS'12:00AM'
p818
aNaNaS'12:00AM'
p819
aNaNag4
aa(lp820
S'MAT211'
p821
aI79455
aI0
aI47
ag153
aS'1:30PM'
p822
aI13
aI30
aI14
aI45
ag464
aS'12:00AM'
p823
aNaNaS'12:00AM'
p824
aNaNag4
aa(lp825
S'MAT211'
p826
aI79456
aI0
aI47
aS'Th'
p827
aS'1:30PM'
p828
aI13
aI30
aI14
aI45
ag464
aS'12:00AM'
p829
aNaNaS'12:00AM'
p830
aNaNag4
aa(lp831
S'MAT211'
p832
aI72851
aI47
aI60
aS'M W'
p833
aS' 3:00 PM'
p834
aI15
aI0
aI16
aI15
aNaNaNaNaNaNaNag158
aa(lp835
S'MAT211'
p836
aI81840
aI21
aI32
aS'T Th'
p837
aS' 3:00 PM'
p838
aI15
aI0
aI16
aI15
aNaNaNaNaNaNaNag4
aa(lp839
S'MAT211'
p840
aI89250
aI26
aI60
ag3
aNaNaNaNaNaNaNaNaNaNaNaNag4
aa(lp841
S'MAT242'
p842
aI81778
aI22
aI80
ag3
aNaNaNaNaNaNaNaNaNaNaNaNag4
aa(lp843
S'MAT242'
p844
aI71621
aI59
aI90
aS'M W'
p845
aS' 7:30 PM'
p846
aI19
aI30
aI20
aI20
aNaNaNaNaNaNaNag158
aa(lp847
S'MAT242'
p848
aI71622
aI0
aI90
aS'M W'
p849
aS' 4:30 PM'
p850
aI16
aI30
aI17
aI20
aNaNaNaNaNaNaNag4
aa(lp851
S'MAT242'
p852
aI76974
aI20
aI90
aS'M W'
p853
aS' 6:00 PM'
p854
aI18
aI0
aI18
aI50
aNaNaNaNaNaNaNag158
aa(lp855
S'MAT242'
p856
aI77483
aI0
aI90
aS'T Th'
p857
aS' 7:30 PM'
p858
aI19
aI30
aI20
aI20
aNaNaNaNaNaNaNag4
aa(lp859
S'MAT242'
p860
aI78795
aI14
aI90
aS'T Th'
p861
aS' 4:30 PM'
p862
aI16
aI30
aI17
aI20
aNaNaNaNaNaNaNag158
aa(lp863
S'MAT243'
p864
aI81783
aI5
aI40
ag3
aNaNaNaNaNaNaNaNaNaNaNaNag4
aa(lp865
S'MAT243'
p866
aI84546
aI15
aI35
ag3
aNaNaNaNaNaNaNaNaNaNaNaNag4
aa(lp867
S'MAT243'
p868
aI75083
aI8
aI50
aS'M W F'
p869
aS'12:00 PM'
p870
aI12
aI0
aI12
aI50
aNaNaNaNaNaNaNag4
aa(lp871
S'MAT243'
p872
aI71623
aI0
aI50
aS'M W'
p873
aS' 3:00 PM'
p874
aI15
aI0
aI16
aI15
aNaNaNaNaNaNaNag4
aa(lp875
S'MAT243'
p876
aI71624
aI0
aI50
aS'M W'
p877
aS' 4:30 PM'
p878
aI16
aI30
aI17
aI45
aNaNaNaNaNaNaNag4
aa(lp879
S'MAT243'
p880
aI75287
aI0
aI50
aS'T Th'
p881
aS'12:00 PM'
p882
aI12
aI0
aI13
aI15
aNaNaNaNaNaNaNag4
aa(lp883
S'MAT243'
p884
aI76551
aI7
aI50
aS'T Th'
p885
aS' 1:30 PM'
p886
aI13
aI30
aI14
aI45
aNaNaNaNaNaNaNag4
aa(lp887
S'MAT243'
p888
aI78796
aI0
aI50
aS'T Th'
p889
aS' 3:00 PM'
p890
aI15
aI0
aI16
aI15
aNaNaNaNaNaNaNag4
aa(lp891
S'MAT243'
p892
aI80509
aI12
aI50
aS'T Th'
p893
aS' 7:30 AM'
p894
aI7
aI30
aI8
aI45
aNaNaNaNaNaNaNag158
aa(lp895
S'MAT243'
p896
aI70375
aI32
aI36
aS'T Th'
p897
aS'12:00 PM'
p898
aI12
aI0
aI13
aI15
aNaNaNaNaNaNaNag4
aa(lp899
S'MAT243'
p900
aI81843
aI14
aI32
aS'M W F'
p901
aS'12:00 PM'
p902
aI12
aI0
aI12
aI50
aNaNaNaNaNaNaNag4
aa(lp903
S'MAT243'
p904
aI81857
aI12
aI32
aS'M W F'
p905
aS' 1:30 PM'
p906
aI13
aI30
aI14
aI20
aNaNaNaNaNaNaNag4
aa(lp907
S'MAT243'
p908
aI84236
aI13
aI32
aS'M W F'
p909
aS' 9:00 AM'
p910
aI9
aI0
aI9
aI50
aNaNaNaNaNaNaNag4
aa(lp911
S'MAT251'
p912
aI77749
aI58
aI95
ag3
aNaNaNaNaNaNaNaNaNaNaNaNag4
aa(lp913
S'MAT251'
p914
aI71625
aI25
aI80
aS'M W F'
p915
aS'10:30 AM'
p916
aI10
aI30
aI11
aI20
aNaNaNaNaNaNaNag158
aa(lp917
S'MAT251'
p918
aI71626
aI56
aI80
aS'M W F'
p919
aS'12:00 PM'
p920
aI12
aI0
aI12
aI50
aNaNaNaNaNaNaNag158
aa(lp921
S'MAT251'
p922
aI73623
aI50
aI80
aS'M W F'
p923
aS' 1:30 PM'
p924
aI13
aI30
aI14
aI20
aNaNaNaNaNaNaNag158
aa(lp925
S'MAT251'
p926
aI84701
aI69
aI80
aS'M W F'
p927
aS'12:00 PM'
p928
aI12
aI0
aI12
aI50
aNaNaNaNaNaNaNag158
aa(lp929
S'MAT251'
p930
aI81860
aI29
aI32
aS'T Th'
p931
aS'12:00 PM'
p932
aI12
aI0
aI13
aI15
aNaNaNaNaNaNaNag4
aa(lp933
S'MAT251'
p934
aI76976
aI32
aI39
aS'T Th'
p935
aS'10:30 AM'
p936
aI10
aI30
aI11
aI45
aNaNaNaNaNaNaNag4
aa(lp937
S'MAT251'
p938
aI77907
aI32
aI39
aS'T Th'
p939
aS' 1:30 PM'
p940
aI13
aI30
aI14
aI45
aNaNaNaNaNaNaNag4
aa(lp941
S'MAT251'
p942
aI79210
aI21
aI39
aS'M W'
p943
aS' 1:30 PM'
p944
aI13
aI30
aI14
aI45
aNaNaNaNaNaNaNag4
aa(lp945
S'MAT251'
p946
aI82099
aI35
aI39
aS'M W'
p947
aS' 3:00 PM'
p948
aI15
aI0
aI16
aI15
aNaNaNaNaNaNaNag4
aa(lp949
S'MAT265'
p950
aI80720
aI27
aI30
ag3
aNaNaNaNaNaNaNaNaNaNaNaNag4
aa(lp951
S'MAT265'
p952
aI85473
aI20
aI30
ag3
aNaNaNaNaNaNaNaNaNaNaNaNag4
aa(lp953
S'MAT265'
p954
aI72609
aI68
aI80
aS'T Th'
p955
aS' 7:30 AM'
p956
aI7
aI30
aI8
aI45
aNaNaNaNaNaNaNag158
aa(lp957
S'MAT265'
p958
aI72610
aI52
aI80
aS'T Th'
p959
aS'10:30 AM'
p960
aI10
aI30
aI11
aI45
aNaNaNaNaNaNaNag4
aa(lp961
S'MAT265'
p962
aI72611
aI78
aI80
aS'M W F'
p963
aS' 7:30 AM'
p964
aI7
aI30
aI8
aI20
aNaNaNaNaNaNaNag158
aa(lp965
S'MAT265'
p966
aI76971
aI54
aI70
aS'T Th'
p967
aS' 4:30 PM'
p968
aI16
aI30
aI17
aI45
aNaNaNaNaNaNaNag158
aa(lp969
S'MAT265'
p970
aI76972
aI77
aI80
aS'T Th'
p971
aS' 6:00 PM'
p972
aI18
aI0
aI19
aI15
aNaNaNaNaNaNaNag158
aa(lp973
S'MAT265'
p974
aI72612
aI75
aI80
aS'M W F'
p975
aS' 7:30 AM'
p976
aI7
aI30
aI8
aI20
aNaNaNaNaNaNaNag158
aa(lp977
S'MAT265'
p978
aI72613
aI68
aI80
aS'M W F'
p979
aS' 9:00 AM'
p980
aI9
aI0
aI9
aI50
aNaNaNaNaNaNaNag158
aa(lp981
S'MAT265'
p982
aI75366
aI31
aI35
aS'M W F'
p983
aS'10:30 AM'
p984
aI10
aI30
aI11
aI20
aNaNaNaNaNaNaNag158
aa(lp985
S'MAT265'
p986
aI72614
aI27
aI35
aS'M W F'
p987
aS'10:30 AM'
p988
aI10
aI30
aI11
aI20
aNaNaNaNaNaNaNag158
aa(lp989
S'MAT265'
p990
aI72616
aI25
aI35
aS'M W F'
p991
aS'12:00 PM'
p992
aI12
aI0
aI12
aI50
aNaNaNaNaNaNaNag158
aa(lp993
S'MAT265'
p994
aI72617
aI73
aI80
aS'M W F'
p995
aS' 1:30 PM'
p996
aI13
aI30
aI14
aI20
aNaNaNaNaNaNaNag4
aa(lp997
S'MAT265'
p998
aI72619
aI71
aI80
aS'M W'
p999
aS' 3:00 PM'
p1000
aI15
aI0
aI16
aI15
aNaNaNaNaNaNaNag158
aa(lp1001
S'MAT265'
p1002
aI74244
aI70
aI75
aS'M W'
p1003
aS' 4:30 PM'
p1004
aI16
aI30
aI17
aI45
aNaNaNaNaNaNaNag4
aa(lp1005
S'MAT265'
p1006
aI78235
aI71
aI75
aS'M W'
p1007
aS' 6:00 PM'
p1008
aI18
aI0
aI19
aI15
aNaNaNaNaNaNaNag158
aa(lp1009
S'MAT265'
p1010
aI78798
aI79
aI80
aS'T Th'
p1011
aS' 7:30 AM'
p1012
aI7
aI30
aI8
aI45
aNaNaNaNaNaNaNag158
aa(lp1013
S'MAT265'
p1014
aI82144
aI80
aI80
aS'M W F'
p1015
aS' 7:30 AM'
p1016
aI7
aI30
aI8
aI20
aNaNaNaNaNaNaNag158
aa(lp1017
S'MAT265'
p1018
aI81872
aI23
aI32
aS'T Th'
p1019
aS'10:30 AM'
p1020
aI10
aI30
aI11
aI45
aNaNaNaNaNaNaNag4
aa(lp1021
S'MAT265'
p1022
aI81878
aI25
aI32
aS'T Th'
p1023
aS'12:00 PM'
p1024
aI12
aI0
aI13
aI15
aNaNaNaNaNaNaNag4
aa(lp1025
S'MAT265'
p1026
aI81880
aI28
aI32
aS'T Th'
p1027
aS' 1:30 PM'
p1028
aI13
aI30
aI14
aI45
aNaNaNaNaNaNaNag4
aa(lp1029
S'MAT265'
p1030
aI81882
aI28
aI32
aS'M W F'
p1031
aS'12:00 PM'
p1032
aI12
aI0
aI12
aI50
aNaNaNaNaNaNaNag4
aa(lp1033
S'MAT265'
p1034
aI81883
aI30
aI32
aS'M W F'
p1035
aS'10:30 AM'
p1036
aI10
aI30
aI11
aI20
aNaNaNaNaNaNaNag4
aa(lp1037
S'MAT265'
p1038
aI83381
aI29
aI32
aS'M W F'
p1039
aS' 3:00 PM'
p1040
aI15
aI0
aI15
aI50
aNaNaNaNaNaNaNag4
aa(lp1041
S'MAT265'
p1042
aI85587
aI31
aI32
aS'T Th'
p1043
aS'10:30 AM'
p1044
aI10
aI30
aI11
aI45
aNaNaNaNaNaNaNag4
aa(lp1045
S'MAT265'
p1046
aI85588
aI30
aI32
aS'T Th'
p1047
aS' 9:00 AM'
p1048
aI9
aI0
aI10
aI15
aNaNaNaNaNaNaNag4
aa(lp1049
S'MAT266'
p1050
aI85475
aI18
aI30
ag3
aNaNaNaNaNaNaNaNaNaNaNaNag4
aa(lp1051
S'MAT266'
p1052
aI80721
aI21
aI35
ag3
aNaNaNaNaNaNaNaNaNaNaNaNag4
aa(lp1053
S'MAT266'
p1054
aI72754
aI69
aI85
aS'M W F'
p1055
aS' 7:30 AM'
p1056
aI7
aI30
aI8
aI20
aNaNaNaNaNaNaNag158
aa(lp1057
S'MAT266'
p1058
aI72755
aI25
aI40
aS'M W F'
p1059
aS' 9:00 AM'
p1060
aI9
aI0
aI9
aI50
aNaNaNaNaNaNaNag4
aa(lp1061
S'MAT266'
p1062
aI72756
aI36
aI40
aS'M W F'
p1063
aS' 9:00 AM'
p1064
aI9
aI0
aI9
aI50
aNaNaNaNaNaNaNag158
aa(lp1065
S'MAT266'
p1066
aI72757
aI55
aI83
aS'M W F'
p1067
aS'10:30 AM'
p1068
aI10
aI30
aI11
aI20
aNaNaNaNaNaNaNag158
aa(lp1069
S'MAT266'
p1070
aI72758
aI28
aI85
aS'M W F'
p1071
aS'12:00 PM'
p1072
aI12
aI0
aI12
aI50
aNaNaNaNaNaNaNag158
aa(lp1073
S'MAT266'
p1074
aI72759
aI24
aI40
aS'M W F'
p1075
aS' 1:30 PM'
p1076
aI13
aI30
aI14
aI20
aNaNaNaNaNaNaNag4
aa(lp1077
S'MAT266'
p1078
aI72760
aI33
aI40
aS'M W F'
p1079
aS' 3:00 PM'
p1080
aI15
aI0
aI15
aI50
aNaNaNaNaNaNaNag158
aa(lp1081
S'MAT266'
p1082
aI76973
aI75
aI85
aS'M W'
p1083
aS' 6:00 PM'
p1084
aI18
aI0
aI19
aI15
aNaNaNaNaNaNaNag158
aa(lp1085
S'MAT266'
p1086
aI78236
aI41
aI85
aS'T Th'
p1087
aS' 7:30 AM'
p1088
aI7
aI30
aI8
aI45
aNaNaNaNaNaNaNag158
aa(lp1089
S'MAT266'
p1090
aI79836
aI22
aI82
aS'T Th'
p1091
aS'10:30 AM'
p1092
aI10
aI30
aI11
aI45
aNaNaNaNaNaNaNag158
aa(lp1093
S'MAT266'
p1094
aI80864
aI19
aI85
aS'T Th'
p1095
aS'12:00 PM'
p1096
aI12
aI0
aI13
aI15
aNaNaNaNaNaNaNag4
aa(lp1097
S'MAT266'
p1098
aI82149
aI72
aI85
aS'T Th'
p1099
aS' 6:00 PM'
p1100
aI18
aI0
aI19
aI15
aNaNaNaNaNaNaNag158
aa(lp1101
S'MAT266'
p1102
aI81884
aI35
aI42
aS'T Th'
p1103
aS' 9:00 AM'
p1104
aI9
aI0
aI10
aI15
aNaNaNaNaNaNaNag4
aa(lp1105
S'MAT266'
p1106
aI81885
aI22
aI42
aS'T Th'
p1107
aS'10:30 AM'
p1108
aI10
aI30
aI11
aI45
aNaNaNaNaNaNaNag4
aa(lp1109
S'MAT266'
p1110
aI83379
aI0
aI42
aS'M W F'
p1111
aS'12:00 PM'
p1112
aI12
aI0
aI12
aI50
aNaNaNaNaNaNaNag4
aa(lp1113
S'MAT266'
p1114
aI83439
aI30
aI42
aS'M W F'
p1115
aS' 1:30 PM'
p1116
aI13
aI30
aI14
aI20
aNaNaNaNaNaNaNag4
aa(lp1117
S'MAT267'
p1118
aI80725
aI9
aI100
ag3
aNaNaNaNaNaNaNaNaNaNaNaNag4
aa(lp1119
S'MAT267'
p1120
aI72762
aI0
aI80
aS'T Th'
p1121
aS' 7:30 AM'
p1122
aI7
aI30
aI8
aI45
aNaNaNaNaNaNaNag4
aa(lp1123
S'MAT267'
p1124
aI72769
aI30
aI80
aS'M W F'
p1125
aS' 7:30 AM'
p1126
aI7
aI30
aI8
aI20
aNaNaNaNaNaNaNag158
aa(lp1127
S'MAT267'
p1128
aI72763
aI0
aI25
aS'M W'
p1129
aS' 1:30 PM'
p1130
aI13
aI30
aI14
aI45
aNaNaNaNaNaNaNag4
aa(lp1131
S'MAT267'
p1132
aI75315
aI0
aI80
aS'T Th'
p1133
aS' 6:00 PM'
p1134
aI18
aI0
aI19
aI15
aNaNaNaNaNaNaNag4
aa(lp1135
S'MAT267'
p1136
aI72764
aI0
aI70
aS'T Th'
p1137
aS' 4:30 PM'
p1138
aI16
aI30
aI17
aI45
aNaNaNaNaNaNaNag4
aa(lp1139
S'MAT267'
p1140
aI72765
aI0
aI80
aS'M W F'
p1141
aS' 7:30 AM'
p1142
aI7
aI30
aI8
aI20
aNaNaNaNaNaNaNag4
aa(lp1143
S'MAT267'
p1144
aI72766
aI63
aI80
aS'M W F'
p1145
aS' 7:30 AM'
p1146
aI7
aI30
aI8
aI20
aNaNaNaNaNaNaNag158
aa(lp1147
S'MAT267'
p1148
aI72767
aI43
aI80
aS'M W F'
p1149
aS' 9:00 AM'
p1150
aI9
aI0
aI9
aI50
aNaNaNaNaNaNaNag4
aa(lp1151
S'MAT267'
p1152
aI72768
aI2
aI80
aS'M W F'
p1153
aS'10:30 AM'
p1154
aI10
aI30
aI11
aI20
aNaNaNaNaNaNaNag4
aa(lp1155
S'MAT267'
p1156
aI73015
aI5
aI80
aS'M W F'
p1157
aS'12:00 PM'
p1158
aI12
aI0
aI12
aI50
aNaNaNaNaNaNaNag4
aa(lp1159
S'MAT267'
p1160
aI78801
aI0
aI80
aS'M W F'
p1161
aS' 1:30 PM'
p1162
aI13
aI30
aI14
aI20
aNaNaNaNaNaNaNag4
aa(lp1163
S'MAT267'
p1164
aI79837
aI18
aI75
aS'M W'
p1165
aS' 3:00 PM'
p1166
aI15
aI0
aI16
aI15
aNaNaNaNaNaNaNag4
aa(lp1167
S'MAT267'
p1168
aI80691
aI5
aI80
aS'M W'
p1169
aS' 4:30 PM'
p1170
aI16
aI30
aI17
aI45
aNaNaNaNaNaNaNag158
aa(lp1171
S'MAT267'
p1172
aI84178
aI33
aI80
aS'T Th'
p1173
aS' 7:30 AM'
p1174
aI7
aI30
aI8
aI45
aNaNaNaNaNaNaNag158
aa(lp1175
S'MAT267'
p1176
aI81886
aI9
aI42
aS'T Th'
p1177
aS' 1:30 PM'
p1178
aI13
aI30
aI14
aI45
aNaNaNaNaNaNaNag4
aa(lp1179
S'MAT267'
p1180
aI81888
aI24
aI42
aS'M W'
p1181
aS' 3:00 PM'
p1182
aI15
aI0
aI16
aI15
aNaNaNaNaNaNaNag4
aa(lp1183
S'MAT267'
p1184
aI81891
aI38
aI42
aS'M W'
p1185
aS' 4:30 PM'
p1186
aI16
aI30
aI17
aI45
aNaNaNaNaNaNaNag4
aa(lp1187
S'MAT267'
p1188
aI89268
aI0
aI39
aS'M W F'
p1189
aS'10:30 AM'
p1190
aI10
aI30
aI11
aI20
aNaNaNaNaNaNaNag4
aa(lp1191
S'MAT270'
p1192
aI81790
aI147
aI180
aS'M W F'
p1193
aS' 1:30 PM'
p1194
aI13
aI30
aI14
aI20
aNaNaNaNaNaNaNag158
aa(lp1195
S'MAT270'
p1196
aI81791
aI14
aI30
ag255
aS' 3:00 PM'
p1197
aI15
aI0
aI15
aI50
aNaNaNaNaNaNaNag158
aa(lp1198
S'MAT270'
p1199
aI81792
aI22
aI30
ag253
aS' 3:00 PM'
p1200
aI15
aI0
aI15
aI50
aNaNaNaNaNaNaNag158
aa(lp1201
S'MAT270'
p1202
aI81793
aI26
aI30
ag342
aS' 3:00 PM'
p1203
aI15
aI0
aI15
aI50
aNaNaNaNaNaNaNag158
aa(lp1204
S'MAT270'
p1205
aI81794
aI27
aI30
ag255
aS' 4:30 PM'
p1206
aI16
aI30
aI17
aI20
aNaNaNaNaNaNaNag158
aa(lp1207
S'MAT270'
p1208
aI81795
aI28
aI30
ag253
aS' 4:30 PM'
p1209
aI16
aI30
aI17
aI20
aNaNaNaNaNaNaNag158
aa(lp1210
S'MAT270'
p1211
aI81796
aI30
aI30
ag342
aS' 4:30 PM'
p1212
aI16
aI30
aI17
aI20
aNaNaNaNaNaNaNag158
aa(lp1213
S'MAT270'
p1214
aI81797
aI24
aI40
aS'M W F'
p1215
aS' 9:00 AM'
p1216
aI9
aI0
aI9
aI50
aNaNaNaNaNaNaNag158
aa(lp1217
S'MAT270'
p1218
aI81798
aI20
aI30
ag153
aS' 9:00 AM'
p1219
aI9
aI0
aI9
aI50
aNaNaNaNaNaNaNag158
aa(lp1220
S'MAT270'
p1221
aI81799
aI24
aI30
aS'Th'
p1222
aS' 9:00 AM'
p1223
aI9
aI0
aI9
aI50
aNaNaNaNaNaNaNag158
aa(lp1224
S'MAT270'
p1225
aI81800
aI155
aI180
aS'T Th'
p1226
aS' 1:30 PM'
p1227
aI13
aI30
aI14
aI45
aNaNaNaNaNaNaNag158
aa(lp1228
S'MAT270'
p1229
aI81801
aI22
aI30
ag255
aS' 1:30 PM'
p1230
aI13
aI30
aI14
aI20
aNaNaNaNaNaNaNag158
aa(lp1231
S'MAT270'
p1232
aI81802
aI22
aI30
ag253
aS' 1:30 PM'
p1233
aI13
aI30
aI14
aI20
aNaNaNaNaNaNaNag158
aa(lp1234
S'MAT270'
p1235
aI81803
aI28
aI30
ag342
aS' 1:30 PM'
p1236
aI13
aI30
aI14
aI20
aNaNaNaNaNaNaNag158
aa(lp1237
S'MAT270'
p1238
aI81804
aI25
aI30
ag255
aS' 3:00 PM'
p1239
aI15
aI0
aI15
aI50
aNaNaNaNaNaNaNag158
aa(lp1240
S'MAT270'
p1241
aI81805
aI28
aI30
ag253
aS' 3:00 PM'
p1242
aI15
aI0
aI15
aI50
aNaNaNaNaNaNaNag158
aa(lp1243
S'MAT270'
p1244
aI81806
aI30
aI30
ag342
aS' 3:00 PM'
p1245
aI15
aI0
aI15
aI50
aNaNaNaNaNaNaNag158
aa(lp1246
S'MAT270'
p1247
aI79563
aI172
aI180
aS'T Th'
p1248
aS' 7:30 AM'
p1249
aI7
aI30
aI8
aI45
aNaNaNaNaNaNaNag158
aa(lp1250
S'MAT270'
p1251
aI81785
aI26
aI30
ag255
aS'10:30 AM'
p1252
aI10
aI30
aI11
aI20
aNaNaNaNaNaNaNag158
aa(lp1253
S'MAT270'
p1254
aI81786
aI29
aI30
ag253
aS'10:30 AM'
p1255
aI10
aI30
aI11
aI20
aNaNaNaNaNaNaNag158
aa(lp1256
S'MAT270'
p1257
aI81787
aI30
aI30
ag342
aS'10:30 AM'
p1258
aI10
aI30
aI11
aI20
aNaNaNaNaNaNaNag158
aa(lp1259
S'MAT270'
p1260
aI81788
aI28
aI30
ag255
aS'12:00 PM'
p1261
aI12
aI0
aI12
aI50
aNaNaNaNaNaNaNag158
aa(lp1262
S'MAT270'
p1263
aI81789
aI29
aI30
ag253
aS'12:00 PM'
p1264
aI12
aI0
aI12
aI50
aNaNaNaNaNaNaNag158
aa(lp1265
S'MAT270'
p1266
aI89361
aI30
aI30
ag342
aS'12:00 PM'
p1267
aI12
aI0
aI12
aI50
aNaNaNaNaNaNaNag158
aa(lp1268
S'MAT270'
p1269
aI71666
aI44
aI50
aS'M T W Th'
p1270
aS'12:00 PM'
p1271
aI12
aI0
aI12
aI50
aNaNaNaNaNaNaNag158
aa(lp1272
S'MAT271'
p1273
aI71627
aI123
aI180
aS'M W F'
p1274
aS' 9:00 AM'
p1275
aI9
aI0
aI9
aI50
aNaNaNaNaNaNaNag158
aa(lp1276
S'MAT271'
p1277
aI75852
aI16
aI30
ag255
aS'10:30 AM'
p1278
aI10
aI30
aI11
aI20
aNaNaNaNaNaNaNag158
aa(lp1279
S'MAT271'
p1280
aI75853
aI18
aI30
ag253
aS'10:30 AM'
p1281
aI10
aI30
aI11
aI20
aNaNaNaNaNaNaNag158
aa(lp1282
S'MAT271'
p1283
aI75854
aI23
aI30
ag342
aS'10:30 AM'
p1284
aI10
aI30
aI11
aI20
aNaNaNaNaNaNaNag158
aa(lp1285
S'MAT271'
p1286
aI75855
aI18
aI30
ag255
aS'12:00 PM'
p1287
aI12
aI0
aI12
aI50
aNaNaNaNaNaNaNag158
aa(lp1288
S'MAT271'
p1289
aI75856
aI24
aI30
ag253
aS'12:00 PM'
p1290
aI12
aI0
aI12
aI50
aNaNaNaNaNaNaNag158
aa(lp1291
S'MAT271'
p1292
aI75857
aI24
aI30
ag342
aS'12:00 PM'
p1293
aI12
aI0
aI12
aI50
aNaNaNaNaNaNaNag158
aa(lp1294
S'MAT271'
p1295
aI75858
aI101
aI180
aS'T Th'
p1296
aS'12:00 PM'
p1297
aI12
aI0
aI13
aI15
aNaNaNaNaNaNaNag158
aa(lp1298
S'MAT271'
p1299
aI75859
aI1
aI30
ag255
aS' 1:30 PM'
p1300
aI13
aI30
aI14
aI20
aNaNaNaNaNaNaNag158
aa(lp1301
S'MAT271'
p1302
aI75862
aI20
aI30
ag253
aS' 1:30 PM'
p1303
aI13
aI30
aI14
aI20
aNaNaNaNaNaNaNag158
aa(lp1304
S'MAT271'
p1305
aI75863
aI24
aI30
ag342
aS' 1:30 PM'
p1306
aI13
aI30
aI14
aI20
aNaNaNaNaNaNaNag158
aa(lp1307
S'MAT271'
p1308
aI75864
aI14
aI30
ag255
aS' 3:00 PM'
p1309
aI15
aI0
aI15
aI50
aNaNaNaNaNaNaNag158
aa(lp1310
S'MAT271'
p1311
aI75865
aI14
aI30
ag253
aS' 3:00 PM'
p1312
aI15
aI0
aI15
aI50
aNaNaNaNaNaNaNag158
aa(lp1313
S'MAT271'
p1314
aI75866
aI28
aI30
ag342
aS' 3:00 PM'
p1315
aI15
aI0
aI15
aI50
aNaNaNaNaNaNaNag158
aa(lp1316
S'MAT271'
p1317
aI79216
aI54
aI60
aS'M W F'
p1318
aS' 3:00 PM'
p1319
aI15
aI0
aI15
aI50
aNaNaNaNaNaNaNag158
aa(lp1320
S'MAT271'
p1321
aI79217
aI17
aI20
ag255
aS' 4:30 PM'
p1322
aI16
aI30
aI17
aI20
aNaNaNaNaNaNaNag158
aa(lp1323
S'MAT271'
p1324
aI79218
aI18
aI20
ag253
aS' 4:30 PM'
p1325
aI16
aI30
aI17
aI20
aNaNaNaNaNaNaNag158
aa(lp1326
S'MAT271'
p1327
aI82649
aI19
aI20
ag342
aS' 4:30 PM'
p1328
aI16
aI30
aI17
aI20
aNaNaNaNaNaNaNag158
aa(lp1329
S'MAT271'
p1330
aI71667
aI47
aI50
aS'M T W Th'
p1331
aS'10:30 AM'
p1332
aI10
aI30
aI11
aI20
aNaNaNaNaNaNaNag158
aa(lp1333
S'MAT272'
p1334
aI75882
aI7
aI60
aS'T Th'
p1335
aS'12:00 PM'
p1336
aI12
aI0
aI13
aI15
aNaNaNaNaNaNaNag4
aa(lp1337
S'MAT272'
p1338
aI81807
aI7
aI30
ag153
aS'10:30 AM'
p1339
aI10
aI30
aI11
aI20
aNaNaNaNaNaNaNag4
aa(lp1340
S'MAT272'
p1341
aI81808
aI0
aI30
aS'Th'
p1342
aS'10:30 AM'
p1343
aI10
aI30
aI11
aI20
aNaNaNaNaNaNaNag4
aa(lp1344
S'MAT272'
p1345
aI81809
aI5
aI25
aS'T Th'
p1346
aS' 1:30 PM'
p1347
aI13
aI30
aI14
aI45
aNaNaNaNaNaNaNag4
aa(lp1348
S'MAT272'
p1349
aI81810
aI6
aI25
ag153
aS'12:00 PM'
p1350
aI12
aI0
aI12
aI50
aNaNaNaNaNaNaNag4
aa(lp1351
S'MAT272'
p1352
aI81811
aI46
aI60
aS'M W F'
p1353
aS'10:30 AM'
p1354
aI10
aI30
aI11
aI20
aNaNaNaNaNaNaNag158
aa(lp1355
S'MAT272'
p1356
aI81812
aI23
aI30
ag255
aS'12:00 PM'
p1357
aI12
aI0
aI12
aI50
aNaNaNaNaNaNaNag158
aa(lp1358
S'MAT272'
p1359
aI81813
aI26
aI30
ag253
aS'12:00 PM'
p1360
aI12
aI0
aI12
aI50
aNaNaNaNaNaNaNag158
aa(lp1361
S'MAT272'
p1362
aI81814
aI27
aI30
ag342
aS'12:00 PM'
p1363
aI12
aI0
aI12
aI50
aNaNaNaNaNaNaNag158
aa(lp1364
S'MAT272'
p1365
aI81815
aI43
aI60
aS'M W F'
p1366
aS' 9:00 AM'
p1367
aI9
aI0
aI9
aI50
aNaNaNaNaNaNaNag158
aa(lp1368
S'MAT272'
p1369
aI81816
aI22
aI30
ag255
aS'10:30 AM'
p1370
aI10
aI30
aI11
aI20
aNaNaNaNaNaNaNag158
aa(lp1371
S'MAT272'
p1372
aI81817
aI27
aI30
ag253
aS'10:30 AM'
p1373
aI10
aI30
aI11
aI20
aNaNaNaNaNaNaNag158
aa(lp1374
S'MAT272'
p1375
aI81818
aI24
aI30
ag342
aS'10:30 AM'
p1376
aI10
aI30
aI11
aI20
aNaNaNaNaNaNaNag158
aa(lp1377
S'MAT272'
p1378
aI71668
aI38
aI50
aS'M T W Th'
p1379
aS'12:00 PM'
p1380
aI12
aI0
aI12
aI50
aNaNaNaNaNaNaNag158
aa(lp1381
S'MAT275'
p1382
aI80723
aI0
aI90
ag3
aNaNaNaNaNaNaNaNaNaNaNaNag4
aa(lp1383
S'MAT275'
p1384
aI71628
aI0
aI80
aS'T Th'
p1385
aS' 7:30 AM'
p1386
aI7
aI30
aI8
aI45
aNaNaNaNaNaNaNag4
aa(lp1387
S'MAT275'
p1388
aI73953
aI0
aI40
ag253
aS' 7:30 AM'
p1389
aI7
aI30
aI8
aI20
aNaNaNaNaNaNaNag4
aa(lp1390
S'MAT275'
p1391
aI74326
aI0
aI40
ag253
aS' 9:00 AM'
p1392
aI9
aI0
aI9
aI50
aNaNaNaNaNaNaNag4
aa(lp1393
S'MAT275'
p1394
aI71629
aI0
aI80
aS'T Th'
p1395
aS'10:30 AM'
p1396
aI10
aI30
aI11
aI45
aNaNaNaNaNaNaNag4
aa(lp1397
S'MAT275'
p1398
aI75782
aI0
aI40
ag253
aS' 1:30 PM'
p1399
aI13
aI30
aI14
aI20
aNaNaNaNaNaNaNag4
aa(lp1400
S'MAT275'
p1401
aI75783
aI0
aI40
ag253
aS' 3:00 PM'
p1402
aI15
aI0
aI15
aI50
aNaNaNaNaNaNaNag4
aa(lp1403
S'MAT275'
p1404
aI71630
aI0
aI80
aS'T Th'
p1405
aS' 6:00 PM'
p1406
aI18
aI0
aI19
aI15
aNaNaNaNaNaNaNag4
aa(lp1407
S'MAT275'
p1408
aI75784
aI0
aI40
ag342
aS'10:30 AM'
p1409
aI10
aI30
aI11
aI20
aNaNaNaNaNaNaNag4
aa(lp1410
S'MAT275'
p1411
aI75785
aI0
aI40
ag342
aS'12:00 PM'
p1412
aI12
aI0
aI12
aI50
aNaNaNaNaNaNaNag4
aa(lp1413
S'MAT275'
p1414
aI71631
aI0
aI80
aS'T Th'
p1415
aS' 1:30 PM'
p1416
aI13
aI30
aI14
aI45
aNaNaNaNaNaNaNag4
aa(lp1417
S'MAT275'
p1418
aI75786
aI0
aI40
ag342
aS' 1:30 PM'
p1419
aI13
aI30
aI14
aI20
aNaNaNaNaNaNaNag4
aa(lp1420
S'MAT275'
p1421
aI75787
aI0
aI40
ag342
aS' 3:00 PM'
p1422
aI15
aI0
aI15
aI50
aNaNaNaNaNaNaNag4
aa(lp1423
S'MAT275'
p1424
aI71632
aI36
aI80
aS'M W F'
p1425
aS' 7:30 AM'
p1426
aI7
aI30
aI8
aI20
aNaNaNaNaNaNaNag4
aa(lp1427
S'MAT275'
p1428
aI75788
aI6
aI40
ag153
aS' 4:30 PM'
p1429
aI16
aI30
aI17
aI20
aNaNaNaNaNaNaNag158
aa(lp1430
S'MAT275'
p1431
aI75789
aI30
aI40
aS'Th'
p1432
aS' 4:30 PM'
p1433
aI16
aI30
aI17
aI20
aNaNaNaNaNaNaNag158
aa(lp1434
S'MAT275'
p1435
aI71633
aI0
aI80
aS'M W'
p1436
aS' 3:00 PM'
p1437
aI15
aI0
aI16
aI15
aNaNaNaNaNaNaNag4
aa(lp1438
S'MAT275'
p1439
aI75792
aI0
aI40
ag255
aS' 4:30 PM'
p1440
aI16
aI30
aI17
aI20
aNaNaNaNaNaNaNag4
aa(lp1441
S'MAT275'
p1442
aI77477
aI0
aI40
ag253
aS' 4:30 PM'
p1443
aI16
aI30
aI17
aI20
aNaNaNaNaNaNaNag4
aa(lp1444
S'MAT275'
p1445
aI71634
aI0
aI80
aS'M W'
p1446
aS' 4:30 PM'
p1447
aI16
aI30
aI17
aI45
aNaNaNaNaNaNaNag4
aa(lp1448
S'MAT275'
p1449
aI77478
aI0
aI40
ag255
aS' 6:00 PM'
p1450
aI18
aI0
aI18
aI50
aNaNaNaNaNaNaNag4
aa(lp1451
S'MAT275'
p1452
aI77479
aI0
aI40
ag253
aS' 6:00 PM'
p1453
aI18
aI0
aI18
aI50
aNaNaNaNaNaNaNag4
aa(lp1454
S'MAT275'
p1455
aI73000
aI0
aI25
aS'T Th'
p1456
aS'10:30 AM'
p1457
aI10
aI30
aI11
aI45
aNaNaNaNaNaNaNag4
aa(lp1458
S'MAT275'
p1459
aI74652
aI0
aI25
ag3
aNaNaNaNaNaNaNaNaNaNaNaNag4
aa(lp1460
S'MAT275'
p1461
aI79838
aI0
aI80
aS'M W F'
p1462
aS' 1:30 PM'
p1463
aI13
aI30
aI14
aI20
aNaNaNaNaNaNaNag4
aa(lp1464
S'MAT275'
p1465
aI79839
aI0
aI40
ag255
aS' 3:00 PM'
p1466
aI15
aI0
aI15
aI50
aNaNaNaNaNaNaNag4
aa(lp1467
S'MAT275'
p1468
aI79840
aI0
aI40
ag253
aS'10:30 AM'
p1469
aI10
aI30
aI11
aI20
aNaNaNaNaNaNaNag4
aa(lp1470
S'MAT275'
p1471
aI80450
aI0
aI80
aS'M W F'
p1472
aS' 7:30 AM'
p1473
aI7
aI30
aI8
aI20
aNaNaNaNaNaNaNag4
aa(lp1474
S'MAT275'
p1475
aI80451
aI0
aI40
ag255
aS' 9:00 AM'
p1476
aI9
aI0
aI9
aI50
aNaNaNaNaNaNaNag4
aa(lp1477
S'MAT275'
p1478
aI80452
aI0
aI40
ag255
aS'10:30 AM'
p1479
aI10
aI30
aI11
aI20
aNaNaNaNaNaNaNag4
aa(lp1480
S'MAT275'
p1481
aI84179
aI30
aI80
aS'M W F'
p1482
aS' 7:30 AM'
p1483
aI7
aI30
aI8
aI20
aNaNaNaNaNaNaNag158
aa(lp1484
S'MAT275'
p1485
aI84180
aI5
aI40
ag255
aS'12:00 PM'
p1486
aI12
aI0
aI12
aI50
aNaNaNaNaNaNaNag158
aa(lp1487
S'MAT275'
p1488
aI84181
aI25
aI40
ag255
aS' 1:30 PM'
p1489
aI13
aI30
aI14
aI20
aNaNaNaNaNaNaNag158
aa(lp1490
S'MAT275'
p1491
aI81892
aI0
aI32
aS'T Th'
p1492
aS'10:30 AM'
p1493
aI10
aI30
aI11
aI45
aNaNaNaNaNaNaNag4
aa(lp1494
S'MAT275'
p1495
aI81893
aI0
aI32
aS'T Th'
p1496
aS'12:00 PM'
p1497
aI12
aI0
aI13
aI15
aNaNaNaNaNaNaNag4
aa(lp1498
S'MAT275'
p1499
aI84237
aI15
aI32
aS'M W F'
p1500
aS' 9:00 AM'
p1501
aI9
aI0
aI9
aI50
aNaNaNaNaNaNaNag4
aa(lp1502
S'MAT275'
p1503
aI85589
aI14
aI32
aS'M W F'
p1504
aS'10:30 AM'
p1505
aI10
aI30
aI11
aI20
aNaNaNaNaNaNaNag4
aa(lp1506
S'MAT294'
p1507
aI89715
aI12
aI12
ag255
aS' 4:30 PM'
p1508
aI16
aI30
aI17
aI20
aNaNaNaNaNaNaNag158
aa(lp1509
S'MAT294'
p1510
aI82781
aI29
aI32
aS'T Th'
p1511
aS'10:30 AM'
p1512
aI10
aI30
aI11
aI20
aNaNaNaNaNaNaNag158
aa(lp1513
S'MAT294'
p1514
aI89718
aI11
aI12
ag255
aS' 4:30 PM'
p1515
aI16
aI30
aI17
aI20
aNaNaNaNaNaNaNag158
aa(lp1516
S'MAT294'
p1517
aI89722
aI11
aI12
ag253
aS' 4:30 PM'
p1518
aI16
aI30
aI17
aI20
aNaNaNaNaNaNaNag158
aa(lp1519
S'MAT294'
p1520
aI89729
aI11
aI12
ag153
aS'12:00 PM'
p1521
aI12
aI0
aI12
aI50
aNaNaNaNaNaNaNag158
aa(lp1522
S'MAT294'
p1523
aI89733
aI12
aI12
aS'Th'
p1524
aS'12:00 PM'
p1525
aI12
aI0
aI12
aI50
aNaNaNaNaNaNaNag158
aa(lp1526
S'MAT294'
p1527
aI72594
aI0
aI6
aS'T Th'
p1528
aS' 1:30 PM'
p1529
aI13
aI30
aI14
aI45
aNaNaNaNaNaNaNag4
aa(lp1530
S'MAT294'
p1531
aI75964
aI10
aI10
ag153
aS' 4:30 PM'
p1532
aI16
aI30
aI19
aI15
aNaNaNaNaNaNaNag158
aa(lp1533
S'MAT300'
p1534
aI71636
aI26
aI35
aS'T Th'
p1535
aS' 9:00 AM'
p1536
aI9
aI0
aI10
aI15
aNaNaNaNaNaNaNag158
aa(lp1537
S'MAT300'
p1538
aI79841
aI6
aI35
aS'T Th'
p1539
aS'10:30 AM'
p1540
aI10
aI30
aI11
aI45
aNaNaNaNaNaNaNag4
aa(lp1541
S'MAT300'
p1542
aI71637
aI19
aI35
aS'T Th'
p1543
aS' 1:30 PM'
p1544
aI13
aI30
aI14
aI45
aNaNaNaNaNaNaNag158
aa(lp1545
S'MAT300'
p1546
aI73020
aI5
aI25
aS'T Th'
p1547
aS'12:00 PM'
p1548
aI12
aI0
aI13
aI15
aNaNaNaNaNaNaNag4
aa(lp1549
S'MAT300'
p1550
aI74098
aI20
aI35
aS'M W'
p1551
aS' 3:00 PM'
p1552
aI15
aI0
aI16
aI15
aNaNaNaNaNaNaNag158
aa(lp1553
S'MAT300'
p1554
aI76975
aI0
aI35
aS'M W'
p1555
aS' 1:30 PM'
p1556
aI13
aI30
aI14
aI45
aNaNaNaNaNaNaNag4
aa(lp1557
S'MAT300'
p1558
aI89619
aI0
aI35
aS'T Th'
p1559
aS' 9:00 AM'
p1560
aI9
aI0
aI10
aI15
aNaNaNaNaNaNaNag4
aa(lp1561
S'MAT300'
p1562
aI74682
aI37
aI50
aS'M W F'
p1563
aS'10:30 AM'
p1564
aI10
aI30
aI11
aI20
aNaNaNaNaNaNaNag158
aa(lp1565
S'MAT310'
p1566
aI71638
aI13
aI40
aS'T Th'
p1567
aS' 1:30 PM'
p1568
aI13
aI30
aI14
aI45
aNaNaNaNaNaNaNag4
aa(lp1569
S'MAT342'
p1570
aI71639
aI0
aI60
aS'M W'
p1571
aS'10:30 AM'
p1572
aI10
aI30
aI11
aI45
aNaNaNaNaNaNaNag4
aa(lp1573
S'MAT342'
p1574
aI71640
aI28
aI60
aS'T Th'
p1575
aS'10:30 AM'
p1576
aI10
aI30
aI11
aI45
aNaNaNaNaNaNaNag158
aa(lp1577
S'MAT342'
p1578
aI75773
aI35
aI60
aS'M W'
p1579
aS' 4:30 PM'
p1580
aI16
aI30
aI17
aI45
aNaNaNaNaNaNaNag158
aa(lp1581
S'MAT343'
p1582
aI82181
aI0
aI80
ag3
aNaNaNaNaNaNaNaNaNaNaNaNag4
aa(lp1583
S'MAT343'
p1584
aI84702
aI12
aI60
ag3
aNaNaNaNaNaNaNaNaNaNaNaNag4
aa(lp1585
S'MAT343'
p1586
aI82183
aI29
aI84
aS'T Th'
p1587
aS' 9:00 AM'
p1588
aI9
aI0
aI10
aI15
aNaNaNaNaNaNaNag158
aa(lp1589
S'MAT343'
p1590
aI82184
aI2
aI42
ag153
aS' 8:00 AM'
p1591
aI8
aI0
aI8
aI50
aNaNaNaNaNaNaNag158
aa(lp1592
S'MAT343'
p1593
aI82187
aI27
aI42
aS'Th'
p1594
aS' 8:00 AM'
p1595
aI8
aI0
aI8
aI50
aNaNaNaNaNaNaNag158
aa(lp1596
S'MAT343'
p1597
aI82188
aI4
aI25
aS'T Th'
p1598
aS'10:30 AM'
p1599
aI10
aI30
aI11
aI45
aNaNaNaNaNaNaNag4
aa(lp1600
S'MAT343'
p1601
aI82189
aI4
aI25
ag153
aS'12:00 PM'
p1602
aI12
aI0
aI12
aI50
aNaNaNaNaNaNaNag158
aa(lp1603
S'MAT343'
p1604
aI82190
aI0
aI84
aS'T Th'
p1605
aS'12:00 PM'
p1606
aI12
aI0
aI13
aI15
aNaNaNaNaNaNaNag4
aa(lp1607
S'MAT343'
p1608
aI82191
aI0
aI42
ag153
aS' 1:30 PM'
p1609
aI13
aI30
aI14
aI20
aNaNaNaNaNaNaNag4
aa(lp1610
S'MAT343'
p1611
aI82192
aI0
aI42
aS'Th'
p1612
aS' 1:30 PM'
p1613
aI13
aI30
aI14
aI20
aNaNaNaNaNaNaNag4
aa(lp1614
S'MAT343'
p1615
aI82194
aI29
aI96
aS'T Th'
p1616
aS' 7:30 AM'
p1617
aI7
aI30
aI8
aI45
aNaNaNaNaNaNaNag158
aa(lp1618
S'MAT343'
p1619
aI82195
aI0
aI42
ag153
aS' 3:00 PM'
p1620
aI15
aI0
aI15
aI50
aNaNaNaNaNaNaNag4
aa(lp1621
S'MAT343'
p1622
aI82196
aI17
aI42
aS'Th'
p1623
aS' 3:00 PM'
p1624
aI15
aI0
aI15
aI50
aNaNaNaNaNaNaNag158
aa(lp1625
S'MAT343'
p1626
aI81894
aI30
aI30
ag253
aS' 1:35 PM'
p1627
aI13
aI35
aI15
aI45
aNaNaNaNaNaNaNag4
aa(lp1628
S'MAT343'
p1629
aI81895
aI11
aI40
aS'T Th'
p1630
aS'12:00 PM'
p1631
aI12
aI0
aI13
aI15
aNaNaNaNaNaNaNag4
aa(lp1632
S'MAT343'
p1633
aI81896
aI6
aI32
ag253
aS'6:00PM'
p1634
aI18
aI0
aI19
aI30
ag464
ag464
aNaNag464
aNaNag4
aa(lp1635
S'MAT343'
p1636
aI81897
aI21
aI40
aS'M W F'
p1637
aS'10:30 AM'
p1638
aI10
aI30
aI11
aI20
aNaNaNaNaNaNaNag4
aa(lp1639
S'MAT343'
p1640
aI89275
aI24
aI32
aS'M W F'
p1641
aS' 9:00 AM'
p1642
aI9
aI0
aI9
aI50
aNaNaNaNaNaNaNag4
aa(lp1643
S'MAT370'
p1644
aI71641
aI19
aI35
aS'T Th'
p1645
aS' 3:00 PM'
p1646
aI15
aI0
aI16
aI15
aNaNaNaNaNaNaNag158
aa(lp1647
S'MAT371'
p1648
aI71642
aI1
aI40
aS'M W F'
p1649
aS'10:30 AM'
p1650
aI10
aI30
aI11
aI20
aNaNaNaNaNaNaNag158
aa(lp1651
S'MAT371'
p1652
aI71643
aI2
aI40
aS'T Th'
p1653
aS'12:00 PM'
p1654
aI12
aI0
aI13
aI15
aNaNaNaNaNaNaNag158
aa(lp1655
S'MAT371'
p1656
aI75776
aI16
aI40
aS'T Th'
p1657
aS' 3:00 PM'
p1658
aI15
aI0
aI16
aI15
aNaNaNaNaNaNaNag158
aa(lp1659
S'MAT371'
p1660
aI74683
aI24
aI36
aS'T Th'
p1661
aS' 9:00 AM'
p1662
aI9
aI0
aI10
aI15
aNaNaNaNaNaNaNag158
aa(lp1663
S'MAT394'
p1664
aI72996
aI0
aI14
aS'T Th'
p1665
aS' 1:30 PM'
p1666
aI13
aI30
aI14
aI45
aNaNaNaNaNaNaNag4
aa(lp1667
S'MAT394'
p1668
aI79872
aI20
aI30
aS'T Th'
p1669
aS'12:00 PM'
p1670
aI12
aI0
aI13
aI15
aNaNaNaNaNaNaNag158
aa(lp1671
S'MAT394'
p1672
aI90985
aI19
aI30
aS'M W'
p1673
aS' 4:30 PM'
p1674
aI16
aI30
aI17
aI45
aNaNaNaNaNaNaNag158
aa(lp1675
S'MAT394'
p1676
aI83750
aI7
aI25
aS'T Th'
p1677
aS' 9:00 AM'
p1678
aI9
aI0
aI10
aI15
aNaNaNaNaNaNaNag158
aa(lp1679
S'MAT411'
p1680
aI72445
aI27
aI40
aS'M W'
p1681
aS' 3:00 PM'
p1682
aI15
aI0
aI16
aI15
aNaNaNaNaNaNaNag158
aa(lp1683
S'MAT415'
p1684
aI71644
aI1
aI25
aS'T Th'
p1685
aS' 9:00 AM'
p1686
aI9
aI0
aI10
aI15
aNaNaNaNaNaNaNag158
aa(lp1687
S'MAT420'
p1688
aI73831
aI16
aI40
aS'T Th'
p1689
aS' 9:00 AM'
p1690
aI9
aI0
aI10
aI15
aNaNaNaNaNaNaNag158
aa(lp1691
S'MAT421'
p1692
aI90667
aI18
aI36
aS'T Th'
p1693
aS' 1:30 PM'
p1694
aI13
aI30
aI14
aI45
aNaNaNaNaNaNaNag158
aa(lp1695
S'MAT423'
p1696
aI71645
aI0
aI35
aS'M W F'
p1697
aS'12:00 PM'
p1698
aI12
aI0
aI12
aI50
aNaNaNaNaNaNaNag4
aa(lp1699
S'MAT440'
p1700
aI89631
aI21
aI45
aS'T Th'
p1701
aS'10:30 AM'
p1702
aI10
aI30
aI11
aI45
aNaNaNaNaNaNaNag158
aa(lp1703
S'MAT442'
p1704
aI71646
aI0
aI40
aS'T Th'
p1705
aS'12:00 PM'
p1706
aI12
aI0
aI13
aI15
aNaNaNaNaNaNaNag4
aa(lp1707
S'MAT447'
p1708
aI71648
aI0
aI40
aS'M W'
p1709
aS'10:30 AM'
p1710
aI10
aI30
aI11
aI45
aNaNaNaNaNaNaNag4
aa(lp1711
S'MAT450'
p1712
aI91768
aI30
aI35
aS'T Th'
p1713
aS'10:30 AM'
p1714
aI10
aI30
aI11
aI45
aNaNaNaNaNaNaNag158
aa(lp1715
S'MAT451'
p1716
aI90950
aI21
aI30
aS'T Th'
p1717
aS' 9:00 AM'
p1718
aI9
aI0
aI10
aI15
aNaNaNaNaNaNaNag158
aa(lp1719
S'MAT452'
p1720
aI71649
aI15
aI35
aS'T Th'
p1721
aS'10:30 AM'
p1722
aI10
aI30
aI11
aI45
aNaNaNaNaNaNaNag158
aa(lp1723
S'MAT462'
p1724
aI71650
aI7
aI35
aS'T Th'
p1725
aS' 1:30 PM'
p1726
aI13
aI30
aI14
aI45
aNaNaNaNaNaNaNag158
aa(lp1727
S'MAT472'
p1728
aI71651
aI15
aI40
aS'T Th'
p1729
aS'10:30 AM'
p1730
aI10
aI30
aI11
aI45
aNaNaNaNaNaNaNag158
aa(lp1731
S'MAT475'
p1732
aI71652
aI19
aI30
aS'M W'
p1733
aS' 1:30 PM'
p1734
aI13
aI30
aI14
aI45
aNaNaNaNaNaNaNag158
aa(lp1735
S'MAT484'
p1736
aI81244
aI30
aI30
ag3
aNaNaNaNaNaNaNaNaNaNaNaNag158
aa(lp1737
S'MAT492'
p1738
aI71653
aI15
aI15
ag3
aNaNaNaNaNaNaNaNaNaNaNaNag4
aa(lp1739
S'MAT493'
p1740
aI71654
aI15
aI15
ag3
aNaNaNaNaNaNaNaNaNaNaNaNag4
aa(lp1741
S'MAT494'
p1742
aI72897
aI0
aI8
aS'T Th'
p1743
aS' 1:30 PM'
p1744
aI13
aI30
aI14
aI45
aNaNaNaNaNaNaNag4
aa(lp1745
S'MAT494'
p1746
aI73506
aI19
aI19
ag255
aS'12:00 PM'
p1747
aI12
aI0
aI13
aI30
aNaNaNaNaNaNaNag158
aa(lp1748
S'MAT494'
p1749
aI89594
aI19
aI35
aS'T Th'
p1750
aS'12:00 PM'
p1751
aI12
aI0
aI13
aI15
aNaNaNaNaNaNaNag158
aa(lp1752
S'MAT495'
p1753
aI90827
aI28
aI30
ag3
aNaNaNaNaNaNaNaNaNaNaNaNag158
aa(lp1754
S'MAT499'
p1755
aI71656
aI30
aI30
ag3
aNaNaNaNaNaNaNaNaNaNaNaNag158
aa(lp1756
S'MAT499'
p1757
aI74345
aI5
aI5
ag3
aNaNaNaNaNaNaNaNaNaNaNaNag158
aa(lp1758
S'MAT499'
p1759
aI78240
aI24
aI25
ag3
aNaNaNaNaNaNaNaNaNaNaNaNag158
aa(lp1760
S'MAT512'
p1761
aI76381
aI10
aI15
aS'T Th'
p1762
aS' 9:00 AM'
p1763
aI9
aI0
aI10
aI15
aNaNaNaNaNaNaNag158
aa(lp1764
S'MAT516'
p1765
aI77670
aI14
aI25
aS'T Th'
p1766
aS'12:00 PM'
p1767
aI12
aI0
aI13
aI15
aNaNaNaNaNaNaNag158
aa(lp1768
S'MAT543'
p1769
aI80133
aI27
aI33
aS'M W'
p1770
aS' 1:30 PM'
p1771
aI13
aI30
aI14
aI45
aNaNaNaNaNaNaNag158
aa(lp1772
S'MAT570'
p1773
aI75062
aI12
aI20
aS'T Th'
p1774
aS' 1:30 PM'
p1775
aI13
aI30
aI14
aI45
aNaNaNaNaNaNaNag158
aa(lp1776
S'MAT572'
p1777
aI72786
aI22
aI30
aS'M W'
p1778
aS'12:00 PM'
p1779
aI12
aI0
aI13
aI15
aNaNaNaNaNaNaNag158
aa(lp1780
S'MAT578'
p1781
aI71657
aI15
aI20
aS'T Th'
p1782
aS' 1:30 PM'
p1783
aI13
aI30
aI14
aI45
aNaNaNaNaNaNaNag158
aa(lp1784
S'MAT590'
p1785
aI71658
aI23
aI25
ag3
aNaNaNaNaNaNaNaNaNaNaNaNag158
aa(lp1786
S'MAT591'
p1787
aI71659
aI47
aI50
ag342
aS' 1:30 PM'
p1788
aI13
aI30
aI14
aI45
aNaNaNaNaNaNaNag158
aa(lp1789
S'MAT591'
p1790
aI71660
aI16
aI19
ag253
aS'12:00 PM'
p1791
aI12
aI0
aI13
aI15
aNaNaNaNaNaNaNag158
aa(lp1792
S'MAT591'
p1793
aI71661
aI5
aI5
ag342
aS' 1:30 PM'
p1794
aI13
aI30
aI14
aI45
aNaNaNaNaNaNaNag158
aa(lp1795
S'MAT591'
p1796
aI72978
aI18
aI20
ag342
aS' 1:30 PM'
p1797
aI13
aI30
aI14
aI45
aNaNaNaNaNaNaNag158
aa(lp1798
S'MAT591'
p1799
aI72997
aI35
aI35
ag342
aS'10:30 AM'
p1800
aI10
aI30
aI11
aI45
aNaNaNaNaNaNaNag158
aa(lp1801
S'MAT591'
p1802
aI75831
aI13
aI15
ag3
aNaNaNaNaNaNaNaNaNaNaNaNag158
aa(lp1803
S'MAT591'
p1804
aI76574
aI16
aI19
ag342
aS' 1:30 PM'
p1805
aI13
aI30
aI14
aI45
aNaNaNaNaNaNaNag158
aa(lp1806
S'MAT592'
p1807
aI80937
aI20
aI20
ag3
aNaNaNaNaNaNaNaNaNaNaNaNag158
aa(lp1808
S'MAT598'
p1809
aI77668
aI31
aI34
aS'T Th'
p1810
aS' 4:30 PM'
p1811
aI16
aI30
aI17
aI45
aNaNaNaNaNaNaNag158
aa(lp1812
S'MAT598'
p1813
aI91068
aI24
aI30
aS'T Th'
p1814
aS' 1:30 PM'
p1815
aI13
aI30
aI14
aI45
aNaNaNaNaNaNaNag158
aa(lp1816
S'MAT599'
p1817
aI80936
aI20
aI20
ag3
aNaNaNaNaNaNaNaNaNaNaNaNag158
aa(lp1818
S'MAT792'
p1819
aI75433
aI38
aI40
ag3
aNaNaNaNaNaNaNaNaNaNaNaNag158
aa(lp1820
S'MAT795'
p1821
aI71662
aI15
aI15
ag3
aNaNaNaNaNaNaNaNaNaNaNaNag158
aa(lp1822
S'MAT799'
p1823
aI75434
aI25
aI25
ag3
aNaNaNaNaNaNaNaNaNaNaNaNag158
aa.