(lp0
(lp1
S'MBB347'
p2
aI83190
aI10
aI48
aS'M W'
p3
aS' 1:30 PM'
p4
aI13
aI30
aI14
aI45
aNaNaNaNaNaNaNaS'Not Reserved'
p5
aa(lp6
S'MBB347'
p7
aI83191
aI2
aI16
aS'T'
p8
aS' 9:00 AM'
p9
aI9
aI0
aI11
aI45
aNaNaNaNaNaNaNag5
aa(lp10
S'MBB347'
p11
aI83192
aI2
aI16
ag8
aS'12:00 PM'
p12
aI12
aI0
aI14
aI45
aNaNaNaNaNaNaNag5
aa(lp13
S'MBB347'
p14
aI83193
aI6
aI16
ag8
aS' 3:00 PM'
p15
aI15
aI0
aI17
aI45
aNaNaNaNaNaNaNag5
aa(lp16
S'MBB350'
p17
aI87509
aI1
aI24
aS'M W'
p18
aS' 7:30 AM'
p19
aI7
aI30
aI8
aI45
aNaNaNaNaNaNaNaS'Reserved'
p20
aa(lp21
S'MBB350'
p22
aI90331
aI1
aI24
aS'W F'
p23
aS' 9:00 AM'
p24
aI9
aI0
aI11
aI45
aNaNaNaNaNaNaNag5
aa(lp25
S'MBB445'
p26
aI75524
aI20
aI30
aS'M W F'
p27
aS'12:00 PM'
p28
aI12
aI0
aI12
aI50
aNaNaNaNaNaNaNag5
aa(lp29
S'MBB446'
p30
aI75525
aI9
aI10
aS'T Th'
p31
aS'10:30 AM'
p32
aI10
aI30
aI13
aI15
aNaNaNaNaNaNaNag5
aa(lp33
S'MBB446'
p34
aI75526
aI5
aI10
aS'M W'
p35
aS' 1:30 PM'
p36
aI13
aI30
aI16
aI15
aNaNaNaNaNaNaNag5
aa(lp37
S'MBB484'
p38
aI71676
aI20
aI20
aS'ONLINE'
p39
aNaNaNaNaNaNaNaNaNaNaNaNag20
aa(lp40
S'MBB490'
p41
aI90017
aI20
aI48
aS'M'
p42
aS' 4:30 PM'
p43
aI16
aI30
aI18
aI30
aNaNaNaNaNaNaNag5
aa(lp44
S'MBB492'
p45
aI71677
aI30
aI30
ag39
aNaNaNaNaNaNaNaNaNaNaNaNag5
aa(lp46
S'MBB493'
p47
aI71678
aI40
aI40
ag39
aNaNaNaNaNaNaNaNaNaNaNaNag5
aa(lp48
S'MBB494'
p49
aI89957
aI19
aI20
aS'M W'
p50
aS' 3:00 PM'
p51
aI15
aI0
aI16
aI15
aNaNaNaNaNaNaNag5
aa(lp52
S'MBB494'
p53
aI78171
aI15
aI16
aS'F'
p54
aS' 3:00 PM'
p55
aI15
aI0
aI17
aI30
aNaNaNaNaNaNaNag5
aa(lp56
S'MBB495'
p57
aI75550
aI59
aI60
ag39
aNaNaNaNaNaNaNaNaNaNaNaNag5
aa(lp58
S'MBB496'
p59
aI75554
aI40
aI40
ag39
aNaNaNaNaNaNaNaNaNaNaNaNag5
aa(lp60
S'MBB499'
p61
aI71679
aI30
aI30
ag39
aNaNaNaNaNaNaNaNaNaNaNaNag5
aa.