(lp0
(lp1
S'MCB500'
p2
aI72896
aI12
aI12
aS'ONLINE'
p3
aNaNaNaNaNaNaNaNaNaNaNaNaS'Not Reserved'
p4
aa(lp5
S'MCB500'
p6
aI74295
aI30
aI30
ag3
aNaNaNaNaNaNaNaNaNaNaNaNag4
aa(lp7
S'MCB500'
p8
aI74355
aI8
aI8
aS'M'
p9
aS'12:00 PM'
p10
aI12
aI0
aI13
aI40
aNaNaNaNaNaNaNag4
aa(lp11
S'MCB555'
p12
aI77446
aI5
aI10
aS'T Th'
p13
aS' 1:30 PM'
p14
aI13
aI30
aI16
aI15
aNaNaNaNaNaNaNag4
aa(lp15
S'MCB555'
p16
aI77433
aI2
aI2
aS'T Th'
p17
aS' 1:30 PM'
p18
aI13
aI30
aI16
aI15
aNaNaNaNaNaNaNag4
aa(lp19
S'MCB555'
p20
aI77434
aI2
aI2
aS'T Th'
p21
aS' 1:30 PM'
p22
aI13
aI30
aI16
aI15
aNaNaNaNaNaNaNag4
aa(lp23
S'MCB555'
p24
aI77435
aI2
aI2
aS'T Th'
p25
aS' 1:30 PM'
p26
aI13
aI30
aI16
aI30
aNaNaNaNaNaNaNag4
aa(lp27
S'MCB555'
p28
aI77436
aI2
aI2
aS'T Th'
p29
aS' 1:30 PM'
p30
aI13
aI30
aI16
aI30
aNaNaNaNaNaNaNag4
aa(lp31
S'MCB590'
p32
aI71681
aI30
aI30
ag3
aNaNaNaNaNaNaNaNaNaNaNaNag4
aa(lp33
S'MCB591'
p34
aI78254
aI5
aI5
ag3
aNaNaNaNaNaNaNaNaNaNaNaNag4
aa(lp35
S'MCB591'
p36
aI71682
aI25
aI25
aS'F'
p37
aS' 1:30 PM'
p38
aI13
aI30
aI15
aI30
aNaNaNaNaNaNaNag4
aa(lp39
S'MCB591'
p40
aI74296
aI29
aI30
ag3
aNaNaNaNaNaNaNaNaNaNaNaNag4
aa(lp41
S'MCB592'
p42
aI71683
aI30
aI30
ag3
aNaNaNaNaNaNaNaNaNaNaNaNag4
aa(lp43
S'MCB595'
p44
aI71684
aI30
aI30
ag3
aNaNaNaNaNaNaNaNaNaNaNaNag4
aa(lp45
S'MCB598'
p46
aI71685
aI4
aI6
aS'T Th'
p47
aS' 9:00 AM'
p48
aI9
aI0
aI10
aI15
aNaNaNaNaNaNaNag4
aa(lp49
S'MCB598'
p50
aI73702
aI5
aI5
aS'T Th'
p51
aS'12:00 PM'
p52
aI12
aI0
aI13
aI15
aNaNaNaNaNaNaNag4
aa(lp53
S'MCB598'
p54
aI89827
aI8
aI10
aS'M W'
p55
aS' 3:00 PM'
p56
aI15
aI0
aI16
aI15
aNaNaNaNaNaNaNag4
aa(lp57
S'MCB599'
p58
aI71680
aI30
aI30
ag3
aNaNaNaNaNaNaNaNaNaNaNaNag4
aa(lp59
S'MCB701'
p60
aI71686
aI145
aI152
aS'Th'
p61
aS' 4:30 PM'
p62
aI16
aI30
aI17
aI45
aNaNaNaNaNaNaNag4
aa(lp63
S'MCB790'
p64
aI75398
aI50
aI50
ag3
aNaNaNaNaNaNaNaNaNaNaNaNag4
aa(lp65
S'MCB791'
p66
aI74299
aI28
aI30
ag3
aNaNaNaNaNaNaNaNaNaNaNaNag4
aa(lp67
S'MCB792'
p68
aI71687
aI96
aI100
ag3
aNaNaNaNaNaNaNaNaNaNaNaNag4
aa(lp69
S'MCB795'
p70
aI71688
aI30
aI30
ag3
aNaNaNaNaNaNaNaNaNaNaNaNag4
aa(lp71
S'MCB799'
p72
aI73340
aI30
aI30
ag3
aNaNaNaNaNaNaNaNaNaNaNaNag4
aa.