(lp0
(lp1
S'MCO120'
p2
aI79729
aI157
aI200
aS'ONLINE'
p3
aNaNaNaNaNaNaNaNaNaNaNaNaS'Reserved'
p4
aa(lp5
S'MCO120'
p6
aI84552
aI93
aI100
ag3
aNaNaNaNaNaNaNaNaNaNaNaNag4
aa(lp7
S'MCO194'
p8
aI83269
aI94
aI100
ag3
aNaNaNaNaNaNaNaNaNaNaNaNag4
aa(lp9
S'MCO194'
p10
aI83270
aI99
aI100
ag3
aNaNaNaNaNaNaNaNaNaNaNaNag4
aa(lp11
S'MCO240'
p12
aI79736
aI172
aI200
ag3
aNaNaNaNaNaNaNaNaNaNaNaNag4
aa(lp13
S'MCO294'
p14
aI71693
aI200
aI200
ag3
aNaNaNaNaNaNaNaNaNaNaNaNaS'Not Reserved'
p15
aa(lp16
S'MCO418'
p17
aI79725
aI169
aI200
ag3
aNaNaNaNaNaNaNaNaNaNaNaNag4
aa(lp18
S'MCO420'
p19
aI79528
aI0
aI30
aS'Th'
p20
aS' 9:00 AM'
p21
aI9
aI0
aI11
aI50
aNaNaNaNaNaNaNag4
aa(lp22
S'MCO425'
p23
aI91050
aI87
aI100
ag3
aNaNaNaNaNaNaNaNaNaNaNaNag4
aa(lp24
S'MCO435'
p25
aI79778
aI116
aI200
ag3
aNaNaNaNaNaNaNaNaNaNaNaNag4
aa(lp26
S'MCO450'
p27
aI79732
aI152
aI200
ag3
aNaNaNaNaNaNaNaNaNaNaNaNag4
aa(lp28
S'MCO456'
p29
aI83460
aI181
aI200
ag3
aNaNaNaNaNaNaNaNaNaNaNaNag4
aa(lp30
S'MCO460'
p31
aI74754
aI177
aI200
ag3
aNaNaNaNaNaNaNaNaNaNaNaNag4
aa(lp32
S'MCO465'
p33
aI80477
aI122
aI200
ag3
aNaNaNaNaNaNaNaNaNaNaNaNag4
aa(lp34
S'MCO473'
p35
aI79734
aI116
aI200
ag3
aNaNaNaNaNaNaNaNaNaNaNaNag4
aa(lp36
S'MCO492'
p37
aI71689
aI8
aI10
ag3
aNaNaNaNaNaNaNaNaNaNaNaNag15
aa(lp38
S'MCO493'
p39
aI71690
aI15
aI15
ag3
aNaNaNaNaNaNaNaNaNaNaNaNag15
aa(lp40
S'MCO494'
p41
aI87030
aI95
aI100
ag3
aNaNaNaNaNaNaNaNaNaNaNaNag4
aa(lp42
S'MCO502'
p43
aI77188
aI0
aI15
aS'M T W Th'
p44
aS' 8:00 AM'
p45
aI8
aI0
aI12
aI50
aNaNaNaNaNaNaNag4
aa(lp46
S'MCO502'
p47
aI77189
aI8
aI15
aS'M T W Th'
p48
aS' 8:00 AM'
p49
aI8
aI0
aI12
aI50
aNaNaNaNaNaNaNag15
aa(lp50
S'MCO503'
p51
aI82897
aI76
aI100
ag3
aNaNaNaNaNaNaNaNaNaNaNaNag4
aa(lp52
S'MCO503'
p53
aI82898
aI13
aI24
aS'Th'
p54
aS' 6:00 PM'
p55
aI18
aI0
aI20
aI20
aNaNaNaNaNaNaNag15
aa(lp56
S'MCO505'
p57
aI82941
aI3
aI5
aS'M W'
p58
aS'11:30 AM'
p59
aI11
aI30
aI13
aI20
aNaNaNaNaNaNaNag15
aa(lp60
S'MCO510'
p61
aI80105
aI0
aI4
aS'T Th'
p62
aS' 2:00 PM'
p63
aI14
aI0
aI15
aI50
aNaNaNaNaNaNaNag4
aa(lp64
S'MCO510'
p65
aI84062
aI19
aI20
aS'T Th'
p66
aS' 4:00 PM'
p67
aI16
aI0
aI17
aI50
aNaNaNaNaNaNaNag15
aa(lp68
S'MCO515'
p69
aI77193
aI2
aI10
aS'T Th'
p70
aS' 4:30 PM'
p71
aI16
aI30
aI18
aI20
aNaNaNaNaNaNaNag15
aa(lp72
S'MCO525'
p73
aI73929
aI0
aI60
aS'F'
p74
aS' 9:00 AM'
p75
aI9
aI0
aI11
aI50
aNaNaNaNaNaNaNag4
aa(lp76
S'MCO525'
p77
aI91658
aI41
aI50
ag74
aS' 9:00 AM'
p78
aI9
aI0
aI11
aI50
aNaNaNaNaNaNaNag15
aa(lp79
S'MCO531'
p80
aI83819
aI0
aI2
aS'M W'
p81
aS' 6:00 PM'
p82
aI18
aI0
aI19
aI50
aNaNaNaNaNaNaNag4
aa(lp83
S'MCO535'
p84
aI77190
aI0
aI12
aS'T'
p85
aS' 1:30 PM'
p86
aI13
aI30
aI16
aI20
aNaNaNaNaNaNaNag4
aa(lp87
S'MCO550'
p88
aI83066
aI4
aI15
ag3
aNaNaNaNaNaS'M'
p89
aNaNaNaNaNaNag4
aa(lp90
S'MCO553'
p91
aI79327
aI3
aI8
aS'M W'
p92
aS'12:00 PM'
p93
aI12
aI0
aI13
aI50
aNaNaNaNaNaNaNag15
aa(lp94
S'MCO555'
p95
aI79270
aI0
aI10
aS'T Th'
p96
aS' 4:30 PM'
p97
aI16
aI30
aI18
aI20
aNaNaNaNaNaNaNag4
aa(lp98
S'MCO570'
p99
aI75363
aI14
aI15
ag3
aNaNaNaNaNaNaNaNaNaNaNaNag15
aa(lp100
S'MCO570'
p101
aI75364
aI13
aI15
ag3
aNaNaNaNaNaNaNaNaNaNaNaNag15
aa(lp102
S'MCO570'
p103
aI75365
aI10
aI15
ag3
aNaNaNaNaNaNaNaNaNaNaNaNag15
aa(lp104
S'MCO570'
p105
aI76221
aI14
aI15
ag3
aNaNaNaNaNaNaNaNaNaNaNaNag15
aa(lp106
S'MCO570'
p107
aI76311
aI13
aI15
ag3
aNaNaNaNaNaNaNaNaNaNaNaNag15
aa(lp108
S'MCO570'
p109
aI82950
aI11
aI15
ag3
aNaNaNaNaNaNaNaNaNaNaNaNag15
aa(lp110
S'MCO570'
p111
aI87033
aI13
aI15
ag3
aNaNaNaNaNaNaNaNaNaNaNaNag15
aa(lp112
S'MCO570'
p113
aI83009
aI12
aI15
ag3
aNaNaNaNaNaNaNaNaNaNaNaNag15
aa(lp114
S'MCO570'
p115
aI87034
aI11
aI15
ag3
aNaNaNaNaNaNaNaNaNaNaNaNag15
aa(lp116
S'MCO570'
p117
aI90371
aI14
aI15
ag3
aNaNaNaNaNaNaNaNaNaNaNaNag15
aa(lp118
S'MCO580'
p119
aI71691
aI15
aI15
ag3
aNaNaNaNaNaNaNaNaNaNaNaNag15
aa(lp120
S'MCO584'
p121
aI71692
aI15
aI15
ag3
aNaNaNaNaNaNaNaNaNaNaNaNag15
aa(lp122
S'MCO590'
p123
aI71694
aI4
aI5
ag3
aNaNaNaNaNaNaNaNaNaNaNaNag15
aa(lp124
S'MCO593'
p125
aI80363
aI5
aI5
ag3
aNaNaNaNaNaNaNaNaNaNaNaNag15
aa(lp126
S'MCO598'
p127
aI79660
aI5
aI5
ag3
aNaNaNaNaNaNaNaNaNaNaNaNag4
aa(lp128
S'MCO598'
p129
aI79704
aI5
aI5
ag3
aNaNaNaNaNaNaNaNaNaNaNaNag4
aa(lp130
S'MCO598'
p131
aI73467
aI8
aI30
ag3
aNaNaNaNaNaNaNaNaNaNaNaNag15
aa(lp132
S'MCO598'
p133
aI77503
aI2
aI3
aS'T Th'
p134
aS'11:30 AM'
p135
aI11
aI30
aI13
aI20
aNaNaNaNaNaNaNag15
aa(lp136
S'MCO598'
p137
aI90598
aI4
aI5
ag74
aS' 9:00 AM'
p138
aI9
aI0
aI12
aI50
aNaNaNaNaNaNaNag15
aa(lp139
S'MCO598'
p140
aI73578
aI17
aI17
ag3
aNaNaNaNaNaNaNaNaNaNaNaNag15
aa(lp141
S'MCO598'
p142
aI79707
aI0
aI4
aS'M W'
p143
aS' 8:00 AM'
p144
aI8
aI0
aI9
aI15
aNaNaNaNaNaNaNag4
aa(lp145
S'MCO598'
p146
aI76165
aI14
aI20
ag89
aS' 1:30 PM'
p147
aI13
aI30
aI16
aI20
aNaNaNaNaNaNaNag15
aa(lp148
S'MCO598'
p149
aI83393
aI4
aI10
aS'T Th'
p150
aS' 8:00 AM'
p151
aI8
aI0
aI9
aI50
aNaNaNaNaNaNaNag15
aa(lp152
S'MCO598'
p153
aI90441
aI0
aI6
aS'M W'
p154
aS'10:00 AM'
p155
aI10
aI0
aI11
aI50
aNaNaNaNaNaNaNag4
aa(lp156
S'MCO598'
p157
aI90622
aI0
aI3
aS'W'
p158
aS' 9:00 AM'
p159
aI9
aI0
aI11
aI45
aNaNaNaNaNaNaNag4
aa(lp160
S'MCO598'
p161
aI80242
aI0
aI10
ag89
aS' 8:30 AM'
p162
aI8
aI30
aI10
aI20
aNaNaNaNaNaNaNag4
aa(lp163
S'MCO598'
p164
aI90928
aI0
aI3
aS'M W'
p165
aS' 1:00 PM'
p166
aI13
aI0
aI16
aI0
aNaNaNaNaNaNaNag4
aa(lp167
S'MCO598'
p168
aI90929
aI0
aI3
aS'T Th'
p169
aS' 9:00 AM'
p170
aI9
aI0
aI12
aI0
aNaNaNaNaNaNaNag4
aa(lp171
S'MCO598'
p172
aI90930
aI0
aI4
aS'T Th'
p173
aS' 1:00 PM'
p174
aI13
aI0
aI16
aI0
aNaNaNaNaNaNaNag4
aa(lp175
S'MCO598'
p176
aI80526
aI3
aI3
ag74
aS' 9:00 AM'
p177
aI9
aI0
aI12
aI50
aNaNaNaNaNaNaNag15
aa(lp178
S'MCO598'
p179
aI83567
aI18
aI18
ag3
aNaNaNaNaNaNaNaNaNaNaNaNag15
aa(lp180
S'MCO598'
p181
aI84019
aI5
aI9
aS'T Th'
p182
aS' 4:30 PM'
p183
aI16
aI30
aI17
aI45
aNaNaNaNaNaNaNag15
aa(lp184
S'MCO598'
p185
aI91563
aI0
aI1
ag3
aNaNaNaNaNaNaNaNaNaNaNaNag4
aa(lp186
S'MCO710'
p187
aI75897
aI9
aI10
ag89
aS' 6:00 PM'
p188
aI18
aI0
aI20
aI45
aNaNaNaNaNaNaNag15
aa(lp189
S'MCO720'
p190
aI75900
aI9
aI10
ag85
aS' 6:00 PM'
p191
aI18
aI0
aI20
aI45
aNaNaNaNaNaNaNag15
aa(lp192
S'MCO722'
p193
aI77205
aI4
aI10
ag158
aS' 6:30 PM'
p194
aI18
aI30
aI21
aI15
aNaNaNaNaNaNaNag15
aa(lp195
S'MCO755'
p196
aI76386
aI9
aI10
ag3
aNaNaNaNaNaNaNaNaNaNaNaNag15
aa(lp197
S'MCO790'
p198
aI80984
aI1
aI1
ag3
aNaNaNaNaNaNaNaNaNaNaNaNag15
aa(lp199
S'MCO792'
p200
aI78111
aI9
aI10
ag3
aNaNaNaNaNaNaNaNaNaNaNaNag15
aa(lp201
S'MCO795'
p202
aI91121
aI0
aI3
ag3
aNaNaNaNaNaNaNaNaNaNaNaNag4
aa(lp203
S'MCO799'
p204
aI78112
aI10
aI10
ag3
aNaNaNaNaNaNaNaNaNaNaNaNag15
aa.