(lp0
(lp1
S'MDL450'
p2
aI76709
aI8
aI20
aS'M'
p3
aS' 8:00 AM'
p4
aI8
aI0
aI16
aI0
aNaNaNaNaNaNaNaS'Not Reserved'
p5
aa(lp6
S'MDL460'
p7
aI76710
aI8
aI20
ag3
aS' 8:00 AM'
p8
aI8
aI0
aI16
aI0
aNaNaNaNaNaNaNag5
aa.