(lp0
(lp1
S'MEE322'
p2
aI71604
aI3
aI100
aS'T Th'
p3
aS' 1:30 PM'
p4
aI13
aI30
aI14
aI45
aNaNaNaNaNaNaNaS'Not Reserved'
p5
aa(lp6
S'MEE322'
p7
aI76916
aI0
aI10
aS'W'
p8
aS' 1:30 PM'
p9
aI13
aI30
aI15
aI25
aNaNaNaNaNaNaNaS'Reserved'
p10
aa(lp11
S'MEE322'
p12
aI76917
aI2
aI10
ag8
aS' 1:30 PM'
p13
aI13
aI30
aI15
aI25
aNaNaNaNaNaNaNag5
aa(lp14
S'MEE322'
p15
aI76918
aI0
aI10
aS'F'
p16
aS'12:00 PM'
p17
aI12
aI0
aI13
aI55
aNaNaNaNaNaNaNag10
aa(lp18
S'MEE322'
p19
aI76919
aI0
aI10
ag16
aS'12:00 PM'
p20
aI12
aI0
aI13
aI55
aNaNaNaNaNaNaNag10
aa(lp21
S'MEE322'
p22
aI76920
aI0
aI10
ag16
aS' 7:30 AM'
p23
aI7
aI30
aI9
aI25
aNaNaNaNaNaNaNag10
aa(lp24
S'MEE322'
p25
aI76921
aI0
aI10
ag16
aS' 7:30 AM'
p26
aI7
aI30
aI9
aI25
aNaNaNaNaNaNaNag10
aa(lp27
S'MEE322'
p28
aI77464
aI0
aI10
aS'T'
p29
aS' 3:00 PM'
p30
aI15
aI0
aI16
aI55
aNaNaNaNaNaNaNag10
aa(lp31
S'MEE322'
p32
aI77465
aI0
aI10
ag29
aS' 3:00 PM'
p33
aI15
aI0
aI16
aI55
aNaNaNaNaNaNaNag10
aa(lp34
S'MEE322'
p35
aI86691
aI0
aI10
aS'M'
p36
aS' 7:30 AM'
p37
aI7
aI30
aI9
aI25
aNaNaNaNaNaNaNag10
aa(lp38
S'MEE322'
p39
aI86692
aI1
aI10
ag36
aS' 7:30 AM'
p40
aI7
aI30
aI9
aI25
aNaNaNaNaNaNaNag5
aa(lp41
S'MEE322'
p42
aI71605
aI32
aI100
aS'M W'
p43
aS' 4:30 PM'
p44
aI16
aI30
aI17
aI45
aNaNaNaNaNaNaNag5
aa(lp45
S'MEE322'
p46
aI76922
aI4
aI10
ag36
aS' 1:30 PM'
p47
aI13
aI30
aI15
aI25
aNaNaNaNaNaNaNag5
aa(lp48
S'MEE322'
p49
aI76923
aI10
aI10
ag36
aS' 1:30 PM'
p50
aI13
aI30
aI15
aI25
aNaNaNaNaNaNaNag5
aa(lp51
S'MEE322'
p52
aI76924
aI1
aI10
ag8
aS' 9:00 AM'
p53
aI9
aI0
aI10
aI55
aNaNaNaNaNaNaNag5
aa(lp54
S'MEE322'
p55
aI76925
aI6
aI10
ag8
aS' 9:00 AM'
p56
aI9
aI0
aI10
aI55
aNaNaNaNaNaNaNag5
aa(lp57
S'MEE322'
p58
aI76926
aI0
aI10
ag36
aS' 9:40 AM'
p59
aI9
aI40
aI11
aI35
aNaNaNaNaNaNaNag10
aa(lp60
S'MEE322'
p61
aI76990
aI3
aI10
ag36
aS' 9:40 AM'
p62
aI9
aI40
aI11
aI35
aNaNaNaNaNaNaNag5
aa(lp63
S'MEE322'
p64
aI77466
aI1
aI10
aS'Th'
p65
aS' 3:00 PM'
p66
aI15
aI0
aI16
aI55
aNaNaNaNaNaNaNag5
aa(lp67
S'MEE322'
p68
aI77467
aI2
aI10
aS'Th'
p69
aS' 3:00 PM'
p70
aI15
aI0
aI16
aI55
aNaNaNaNaNaNaNag5
aa(lp71
S'MEE322'
p72
aI80770
aI0
aI10
ag29
aS'12:00 PM'
p73
aI12
aI0
aI13
aI55
aNaNaNaNaNaNaNag10
aa(lp74
S'MEE322'
p75
aI80771
aI5
aI10
ag29
aS'12:00 PM'
p76
aI12
aI0
aI13
aI55
aNaNaNaNaNaNaNag5
aa(lp77
S'MEE323'
p78
aI86674
aI21
aI35
ag16
aS' 7:30 AM'
p79
aI7
aI30
aI9
aI10
aNaNaNaNaNaNaNag5
aa(lp80
S'MEE323'
p81
aI86675
aI0
aI35
ag16
aS'10:30 AM'
p82
aI10
aI30
aI12
aI10
aNaNaNaNaNaNaNag10
aa(lp83
S'MEE323'
p84
aI86676
aI0
aI35
ag16
aS' 1:30 PM'
p85
aI13
aI30
aI15
aI10
aNaNaNaNaNaNaNag10
aa(lp86
S'MEE340'
p87
aI71606
aI6
aI125
aS'M W'
p88
aS' 3:00 PM'
p89
aI15
aI0
aI16
aI15
aNaNaNaNaNaNaNag5
aa(lp90
S'MEE340'
p91
aI72850
aI60
aI125
aS'M W'
p92
aS' 6:00 PM'
p93
aI18
aI0
aI19
aI15
aNaNaNaNaNaNaNag5
aa(lp94
S'MEE342'
p95
aI73308
aI22
aI100
aS'M W'
p96
aS'12:00 PM'
p97
aI12
aI0
aI13
aI15
aNaNaNaNaNaNaNag5
aa(lp98
S'MEE434'
p99
aI86894
aI0
aI70
aS'M W'
p100
aS' 4:30 PM'
p101
aI16
aI30
aI17
aI45
aNaNaNaNaNaNaNag10
aa(lp102
S'MEE434'
p103
aI86895
aI0
aI35
ag16
aS' 9:00 AM'
p104
aI9
aI0
aI11
aI0
aNaNaNaNaNaNaNag10
aa(lp105
S'MEE434'
p106
aI86896
aI0
aI35
ag16
aS'12:00 PM'
p107
aI12
aI0
aI14
aI0
aNaNaNaNaNaNaNag10
aa(lp108
S'MEE482'
p109
aI80009
aI0
aI76
aS'M W'
p110
aS' 6:00 PM'
p111
aI18
aI0
aI19
aI15
aNaNaNaNaNaNaNag10
aa(lp112
S'MEE488'
p113
aI71614
aI0
aI80
aS'T Th'
p114
aS'12:00 PM'
p115
aI12
aI0
aI13
aI15
aNaNaNaNaNaNaNag10
aa(lp116
S'MEE488'
p117
aI71615
aI8
aI80
aS'M W'
p118
aS' 6:00 PM'
p119
aI18
aI0
aI19
aI15
aNaNaNaNaNaNaNag5
aa(lp120
S'MEE489'
p121
aI72855
aI12
aI55
ag36
aS'12:00 PM'
p122
aI12
aI0
aI14
aI50
aNaNaNaNaNaNaNag5
aa(lp123
S'MEE491'
p124
aI74851
aI0
aI108
ag16
aS' 9:00 AM'
p125
aI9
aI0
aI10
aI50
aNaNaNaNaNaNaNag10
aa(lp126
S'MEE491'
p127
aI71617
aI0
aI36
ag29
aS' 9:00 AM'
p128
aI9
aI0
aI12
aI0
aNaNaNaNaNaNaNag10
aa(lp129
S'MEE491'
p130
aI75149
aI0
aI36
ag8
aS' 9:00 AM'
p131
aI9
aI0
aI12
aI0
aNaNaNaNaNaNaNag10
aa(lp132
S'MEE491'
p133
aI75803
aI0
aI36
aS'Th'
p134
aS' 9:00 AM'
p135
aI9
aI0
aI12
aI0
aNaNaNaNaNaNaNag10
aa.