(lp0
(lp1
S'MGT290'
p2
aI89997
aI25
aI72
aS'ONLINE'
p3
aNaNaNaNaNaNaNaNaNaNaNaNaS'Reserved'
p4
aa(lp5
S'MGT300'
p6
aI87999
aI0
aI85
ag3
aNaNaNaNaNaNaNaNaNaNaNaNag4
aa(lp7
S'MGT300'
p8
aI70376
aI170
aI265
aS'M W F'
p9
aS' 7:30 AM'
p10
aI7
aI30
aI8
aI20
aNaNaNaNaNaNaNaS'Not Reserved'
p11
aa(lp12
S'MGT300'
p13
aI74664
aI0
aI265
aS'M W F'
p14
aS' 9:00 AM'
p15
aI9
aI0
aI9
aI50
aNaNaNaNaNaNaNag4
aa(lp16
S'MGT300'
p17
aI74665
aI0
aI265
aS'M W F'
p18
aS'10:30 AM'
p19
aI10
aI30
aI11
aI20
aNaNaNaNaNaNaNag4
aa(lp20
S'MGT300'
p21
aI74926
aI0
aI285
ag3
aNaNaNaNaNaNaNaNaNaNaNaNag4
aa(lp22
S'MGT300'
p23
aI78449
aI55
aI100
aS'T'
p24
aS' 6:00 PM'
p25
aI18
aI0
aI20
aI45
aNaNaNaNaNaNaNag11
aa(lp26
S'MGT302'
p27
aI73160
aI0
aI265
aS'T Th'
p28
aS'10:30 AM'
p29
aI10
aI30
aI11
aI45
aNaNaNaNaNaNaNag4
aa(lp30
S'MGT302'
p31
aI73161
aI0
aI285
ag3
aNaNaNaNaNaNaNaNaNaNaNaNag4
aa(lp32
S'MGT302'
p33
aI73162
aI81
aI100
aS'W'
p34
aS' 6:00 PM'
p35
aI18
aI0
aI20
aI45
aNaNaNaNaNaNaNag11
aa(lp36
S'MGT302'
p37
aI82241
aI15
aI36
aS'T Th'
p38
aS'12:00 PM'
p39
aI12
aI0
aI13
aI15
aNaNaNaNaNaNaNag11
aa(lp40
S'MGT303'
p41
aI73286
aI0
aI50
aS'T Th'
p42
aS' 9:00 AM'
p43
aI9
aI0
aI10
aI15
aNaNaNaNaNaNaNag4
aa(lp44
S'MGT303'
p45
aI82270
aI0
aI50
aS'T Th'
p46
aS'12:00 PM'
p47
aI12
aI0
aI13
aI15
aNaNaNaNaNaNaNag4
aa(lp48
S'MGT310'
p49
aI73287
aI11
aI36
aS'Th'
p50
aS' 6:00 PM'
p51
aI18
aI0
aI20
aI45
aNaNaNaNaNaNaNag11
aa(lp52
S'MGT310'
p53
aI73288
aI14
aI36
ag24
aS' 9:00 AM'
p54
aI9
aI0
aI11
aI45
aNaNaNaNaNaNaNag11
aa(lp55
S'MGT320'
p56
aI73292
aI0
aI45
aS'T Th'
p57
aS'10:30 AM'
p58
aI10
aI30
aI11
aI45
aNaNaNaNaNaNaNag4
aa(lp59
S'MGT320'
p60
aI73293
aI0
aI45
aS'T Th'
p61
aS'12:00 PM'
p62
aI12
aI0
aI13
aI15
aNaNaNaNaNaNaNag4
aa(lp63
S'MGT320'
p64
aI82272
aI9
aI45
ag24
aS' 6:00 PM'
p65
aI18
aI0
aI20
aI45
aNaNaNaNaNaNaNag11
aa(lp66
S'MGT320'
p67
aI76838
aI28
aI40
ag24
aS' 6:00 PM'
p68
aI18
aI0
aI20
aI45
aNaNaNaNaNaNaNag11
aa(lp69
S'MGT340'
p70
aI78461
aI4
aI45
ag24
aS'9:00AM'
p71
aI9
aI0
aI10
aI15
aS''
p72
aS'12:00AM'
p73
aNaNaS'12:00AM'
p74
aNaNag11
aa(lp75
S'MGT340'
p76
aI82036
aI19
aI45
aS'Th'
p77
aS'9:00AM'
p78
aI9
aI0
aI10
aI15
ag72
aS'12:00AM'
p79
aNaNaS'12:00AM'
p80
aNaNag11
aa(lp81
S'MGT340'
p82
aI82923
aI16
aI45
aS'Th'
p83
aS'4:30PM'
p84
aI16
aI30
aI17
aI45
ag72
aS'12:00AM'
p85
aNaNaS'12:00AM'
p86
aNaNag11
aa(lp87
S'MGT360'
p88
aI90572
aI7
aI40
ag34
aS'12:00PM'
p89
aI12
aI0
aI13
aI20
ag72
ag72
aNaNag72
aNaNag11
aa(lp90
S'MGT360'
p91
aI90573
aI25
aI30
aS'F'
p92
aS'12:00PM'
p93
aI12
aI0
aI13
aI20
ag72
ag72
aNaNag72
aNaNag11
aa(lp94
S'MGT360'
p95
aI90347
aI29
aI35
aS'M'
p96
aS'3:00PM'
p97
aI15
aI0
aI16
aI15
ag72
ag72
aNaNag72
aNaNag11
aa(lp98
S'MGT360'
p99
aI90348
aI23
aI35
ag34
aS'3:00PM'
p100
aI15
aI0
aI16
aI15
ag72
ag72
aNaNag72
aNaNag11
aa(lp101
S'MGT360'
p102
aI78770
aI8
aI45
ag3
aNaNaNaNaNaNaNaNaNaNaNaNag4
aa(lp103
S'MGT380'
p104
aI77067
aI24
aI282
ag3
aNaNaNaNaNaNaNaNaNaNaNaNag4
aa(lp105
S'MGT394'
p106
aI79221
aI20
aI35
aS'T Th'
p107
aS'10:30 AM'
p108
aI10
aI30
aI11
aI45
aNaNaNaNaNaNaNag11
aa(lp109
S'MGT400'
p110
aI90338
aI0
aI35
ag3
aNaNaNaNaNaNaNaNaNaNaNaNag4
aa(lp111
S'MGT400'
p112
aI71716
aI31
aI45
ag96
aS' 6:00 PM'
p113
aI18
aI0
aI20
aI45
aNaNaNaNaNaNaNag11
aa(lp114
S'MGT400'
p115
aI71717
aI5
aI45
aS'M W'
p116
aS' 3:00 PM'
p117
aI15
aI0
aI16
aI15
aNaNaNaNaNaNaNag11
aa(lp118
S'MGT400'
p119
aI71718
aI20
aI45
ag24
aS' 4:30 PM'
p120
aI16
aI30
aI19
aI15
aNaNaNaNaNaNaNag11
aa(lp121
S'MGT400'
p122
aI79950
aI27
aI45
ag34
aS' 6:00 PM'
p123
aI18
aI0
aI20
aI45
aNaNaNaNaNaNaNag11
aa(lp124
S'MGT400'
p125
aI78465
aI37
aI50
ag24
aS'10:30 AM'
p126
aI10
aI30
aI13
aI15
aNaNaNaNaNaNaNag11
aa(lp127
S'MGT411'
p128
aI90340
aI0
aI34
ag3
aNaNaNaNaNaNaNaNaNaNaNaNag4
aa(lp129
S'MGT411'
p130
aI74995
aI27
aI50
ag24
aS' 6:00 PM'
p131
aI18
aI0
aI20
aI45
aNaNaNaNaNaNaNag11
aa(lp132
S'MGT411'
p133
aI75592
aI0
aI50
ag24
aS' 3:00 PM'
p134
aI15
aI0
aI17
aI45
aNaNaNaNaNaNaNag4
aa(lp135
S'MGT411'
p136
aI88057
aI0
aI50
aS'Th'
p137
aS' 9:00 AM'
p138
aI9
aI0
aI11
aI45
aNaNaNaNaNaNaNag4
aa(lp139
S'MGT411'
p140
aI75593
aI36
aI50
aS'Th'
p141
aS'10:30 AM'
p142
aI10
aI30
aI13
aI15
aNaNaNaNaNaNaNag11
aa(lp143
S'MGT420'
p144
aI71720
aI0
aI40
ag24
aS' 6:00 PM'
p145
aI18
aI0
aI20
aI45
aNaNaNaNaNaNaNag4
aa(lp146
S'MGT420'
p147
aI91623
aI23
aI40
ag34
aS' 4:30 PM'
p148
aI16
aI30
aI19
aI15
aNaNaNaNaNaNaNag11
aa(lp149
S'MGT421'
p150
aI82292
aI4
aI36
ag24
aS' 6:00 PM'
p151
aI18
aI0
aI20
aI45
aNaNaNaNaNaNaNag11
aa(lp152
S'MGT423'
p153
aI83966
aI3
aI36
aS'Th'
p154
aS' 4:30 PM'
p155
aI16
aI30
aI19
aI15
aNaNaNaNaNaNaNag11
aa(lp156
S'MGT425'
p157
aI82287
aI3
aI36
aS'T Th'
p158
aS' 1:30 PM'
p159
aI13
aI30
aI14
aI45
aNaNaNaNaNaNaNag11
aa(lp160
S'MGT430'
p161
aI76239
aI23
aI42
ag24
aS' 6:00 PM'
p162
aI18
aI0
aI20
aI45
aNaNaNaNaNaNaNag11
aa(lp163
S'MGT430'
p164
aI76240
aI6
aI42
ag34
aS' 3:00 PM'
p165
aI15
aI0
aI17
aI45
aNaNaNaNaNaNaNag11
aa(lp166
S'MGT430'
p167
aI77727
aI27
aI42
ag96
aS' 6:00 PM'
p168
aI18
aI0
aI20
aI45
aNaNaNaNaNaNaNag11
aa(lp169
S'MGT440'
p170
aI74669
aI11
aI45
aS'M W'
p171
aS' 3:00 PM'
p172
aI15
aI0
aI16
aI15
aNaNaNaNaNaNaNag11
aa(lp173
S'MGT440'
p174
aI74670
aI19
aI45
aS'M W'
p175
aS' 4:30 PM'
p176
aI16
aI30
aI17
aI45
aNaNaNaNaNaNaNag11
aa(lp177
S'MGT445'
p178
aI88194
aI5
aI36
aS'T Th'
p179
aS'12:00 PM'
p180
aI12
aI0
aI13
aI15
aNaNaNaNaNaNaNag11
aa(lp181
S'MGT445'
p182
aI88195
aI22
aI36
aS'T Th'
p183
aS' 4:30 PM'
p184
aI16
aI30
aI17
aI45
aNaNaNaNaNaNaNag11
aa(lp185
S'MGT447'
p186
aI88196
aI19
aI20
ag24
aS'6:00PM'
p187
aI18
aI0
aI21
aI0
ag72
ag72
aNaNag72
aNaNag11
aa(lp188
S'MGT450'
p189
aI73297
aI20
aI25
ag96
aS' 3:00 PM'
p190
aI15
aI0
aI17
aI45
aNaNaNaNaNaNaNag11
aa(lp191
S'MGT450'
p192
aI76441
aI8
aI25
aS'Th'
p193
aS' 3:00 PM'
p194
aI15
aI0
aI17
aI45
aNaNaNaNaNaNaNag11
aa(lp195
S'MGT450'
p196
aI88105
aI16
aI20
ag24
aS' 4:30 PM'
p197
aI16
aI30
aI19
aI15
aNaNaNaNaNaNaNag11
aa(lp198
S'MGT459'
p199
aI74680
aI17
aI40
aS'T Th'
p200
aS' 1:30 PM'
p201
aI13
aI30
aI14
aI45
aNaNaNaNaNaNaNag11
aa(lp202
S'MGT464'
p203
aI71721
aI10
aI15
aS'M W'
p204
aS' 1:30 PM'
p205
aI13
aI30
aI16
aI40
aNaNaNaNaNaNaNag11
aa(lp206
S'MGT484'
p207
aI73320
aI15
aI15
ag3
aNaNaNaNaNaNaNaNaNaNaNaNag11
aa(lp208
S'MGT493'
p209
aI76485
aI12
aI15
ag3
aNaNaNaNaNaNaNaNaNaNaNaNag11
aa(lp210
S'MGT494'
p211
aI88193
aI39
aI45
ag96
aS' 4:30 PM'
p212
aI16
aI30
aI19
aI15
aNaNaNaNaNaNaNag11
aa(lp213
S'MGT494'
p214
aI90019
aI45
aI45
aS'M W'
p215
aS' 4:30 PM'
p216
aI16
aI30
aI17
aI45
aNaNaNaNaNaNaNag11
aa(lp217
S'MGT502'
p218
aI74771
aI50
aI50
ag24
aS' 6:00 PM'
p219
aI18
aI0
aI22
aI0
aNaNaNaNaNaNaNag4
aa(lp220
S'MGT502'
p221
aI74772
aI50
aI50
aS'Th'
p222
aS' 6:00 PM'
p223
aI18
aI0
aI22
aI0
aNaNaNaNaNaNaNag4
aa(lp224
S'MGT502'
p225
aI74777
aI52
aI52
aS'M W'
p226
aS' 8:00 AM'
p227
aI8
aI0
aI10
aI5
aNaNaNaNaNaNaNag4
aa(lp228
S'MGT502'
p229
aI74780
aI52
aI52
aS'M W'
p230
aS'10:20 AM'
p231
aI10
aI20
aI12
aI25
aNaNaNaNaNaNaNag4
aa(lp232
S'MGT502'
p233
aI84093
aI60
aI60
aS'T Th'
p234
aS' 1:30 PM'
p235
aI13
aI30
aI16
aI0
aNaNaNaNaNaNaNag4
aa(lp236
S'MGT502'
p237
aI74774
aI54
aI55
aS'F Sa'
p238
aS' 8:00 AM'
p239
aI8
aI0
aI17
aI0
aNaNaNaNaNaNaNag4
aa(lp240
S'MGT502'
p241
aI75087
aI70
aI70
ag3
aNaNaNaNaNaNaNaNaNaNaNaNag4
aa(lp242
S'MGT502'
p243
aI84734
aI70
aI70
ag3
aNaNaNaNaNaNaNaNaNaNaNaNag4
aa(lp244
S'MGT540'
p245
aI90478
aI22
aI55
aS'F Sa'
p246
aS' 8:00 AM'
p247
aI8
aI0
aI17
aI0
aNaNaNaNaNaNaNag4
aa(lp248
S'MGT540'
p249
aI90444
aI48
aI48
ag3
aNaNaNaNaNaNaNaNaNaNaNaNag11
aa(lp250
S'MGT545'
p251
aI79695
aI16
aI48
ag92
aS'4:30PM'
p252
aI16
aI30
aI18
aI30
aS'Sa'
p253
aS'8:00AM'
p254
aI8
aI0
aS'12:00PM'
p255
aI12
aI0
ag4
aa(lp256
S'MGT545'
p257
aI80341
aI48
aI48
ag3
aNaNaNaNaNaNaNaNaNaNaNaNag4
aa(lp258
S'MGT588'
p259
aI74781
aI52
aI52
aS'T Th'
p260
aS' 8:00 AM'
p261
aI8
aI0
aI10
aI5
aNaNaNaNaNaNaNag4
aa(lp262
S'MGT588'
p263
aI74782
aI52
aI52
aS'T Th'
p264
aS'10:20 AM'
p265
aI10
aI20
aI12
aI25
aNaNaNaNaNaNaNag4
aa(lp266
S'MGT588'
p267
aI84092
aI60
aI60
aS'M W'
p268
aS'10:30 AM'
p269
aI10
aI30
aI11
aI45
aNaNaNaNaNaNaNag4
aa(lp270
S'MGT589'
p271
aI75121
aI69
aI70
ag3
aNaNaNaNaNaNaNaNaNaNaNaNag4
aa(lp272
S'MGT589'
p273
aI75086
aI70
aI70
ag3
aNaNaNaNaNaNaNaNaNaNaNaNag4
aa(lp274
S'MGT591'
p275
aI77828
aI255
aI255
ag3
aNaNaNaNaNaNaNaNaNaNaNaNag4
aa(lp276
S'MGT591'
p277
aI77829
aI85
aI85
ag3
aNaNaNaNaNaNaNaNaNaNaNaNag4
aa(lp278
S'MGT591'
p279
aI74805
aI100
aI100
aS'M T W Th F Sa Su'
p280
aS' 8:00 AM'
p281
aI8
aI0
aI17
aI0
aNaNaNaNaNaNaNag4
aa(lp282
S'MGT594'
p283
aI73737
aI52
aI52
aS'Th'
p284
aS' 1:25 PM'
p285
aI13
aI25
aI14
aI55
aNaNaNaNaNaNaNag4
aa(lp286
S'MGT594'
p287
aI88622
aI10
aI10
ag24
aS'6:00PM'
p288
aI18
aI0
aI21
aI0
ag72
ag72
aNaNag72
aNaNag11
aa(lp289
S'MGT594'
p290
aI75259
aI75
aI75
aS'Sa'
p291
aS' 8:00 AM'
p292
aI8
aI0
aI12
aI0
aNaNaNaNaNaNaNag4
aa(lp293
S'MGT594'
p294
aI76601
aI65
aI65
aS'Sa'
p295
aS' 8:00 AM'
p296
aI8
aI0
aI12
aI0
aNaNaNaNaNaNaNag4
aa(lp297
S'MGT594'
p298
aI76602
aI65
aI65
ag3
aNaNaNaNaNaNaNaNaNaNaNaNag4
aa(lp299
S'MGT594'
p300
aI84094
aI60
aI60
ag34
aS' 1:30 PM'
p301
aI13
aI30
aI16
aI0
aNaNaNaNaNaNaNag4
aa(lp302
S'MGT595'
p303
aI74217
aI30
aI30
ag3
aNaNaNaNaNaNaNaNaNaNaNaNag11
aa(lp304
S'MGT595'
p305
aI75344
aI10
aI10
ag3
aNaNaNaNaNaNaNaNaNaNaNaNag11
aa(lp306
S'MGT791'
p307
aI76379
aI8
aI8
ag34
aS' 9:00 AM'
p308
aI9
aI0
aI11
aI45
aNaNaNaNaNaNaNag4
aa(lp309
S'MGT791'
p310
aI91256
aI5
aI8
ag96
aS'12:00 PM'
p311
aI12
aI0
aI14
aI45
aNaNaNaNaNaNaNag4
aa(lp312
S'MGT791'
p313
aI91676
aI13
aI20
ag3
aNaNaNaNaNaNaNaNaNaNaNaNag4
aa(lp314
S'MGT791'
p315
aI91277
aI36
aI40
ag96
aS' 8:30 AM'
p316
aI8
aI30
aI11
aI15
aNaNaNaNaNaNaNag11
aa(lp317
S'MGT791'
p318
aI91727
aI7
aI8
aS'Th'
p319
aS' 9:00 AM'
p320
aI9
aI0
aI11
aI45
aNaNaNaNaNaNaNag4
aa(lp321
S'MGT791'
p322
aI91815
aI8
aI8
ag92
aS'12:00 PM'
p323
aI12
aI0
aI14
aI45
aNaNaNaNaNaNaNag4
aa(lp324
S'MGT792'
p325
aI74996
aI7
aI10
ag3
aNaNaNaNaNaNaNaNaNaNaNaNag4
aa(lp326
S'MGT799'
p327
aI71722
aI8
aI10
ag3
aNaNaNaNaNaNaNaNaNaNaNaNag4
aa.