(lp0
(lp1
S'MHL140'
p2
aI71723
aI25
aI50
aS'M W F'
p3
aS'10:30 AM'
p4
aI10
aI30
aI11
aI20
aNaNaNaNaNaNaNaS'Not Reserved'
p5
aa(lp6
S'MHL201'
p7
aI83823
aI116
aI160
aS'ONLINE'
p8
aNaNaNaNaNaNaNaNaNaNaNaNag5
aa(lp9
S'MHL294'
p10
aI86814
aI8
aI18
aS'M W'
p11
aS'10:30 AM'
p12
aI10
aI30
aI11
aI45
aNaNaNaNaNaNaNag5
aa(lp13
S'MHL341'
p14
aI71724
aI20
aI80
aS'T Th'
p15
aS'10:30 AM'
p16
aI10
aI30
aI11
aI45
aNaNaNaNaNaNaNag5
aa(lp17
S'MHL344'
p18
aI74155
aI10
aI30
aS'M W'
p19
aS'10:30 AM'
p20
aI10
aI30
aI11
aI45
aNaNaNaNaNaNaNaS'Reserved'
p21
aa(lp22
S'MHL438'
p23
aI78833
aI11
aI15
aS'M W'
p24
aS' 9:00 AM'
p25
aI9
aI0
aI10
aI15
aNaNaNaNaNaNaNag5
aa(lp26
S'MHL440'
p27
aI74650
aI2
aI15
aS'T Th'
p28
aS'10:30 AM'
p29
aI10
aI30
aI11
aI45
aNaNaNaNaNaNaNag5
aa(lp30
S'MHL492'
p31
aI73338
aI30
aI30
ag8
aNaNaNaNaNaNaNaNaNaNaNaNag5
aa(lp32
S'MHL493'
p33
aI73339
aI30
aI30
ag8
aNaNaNaNaNaNaNaNaNaNaNaNag5
aa(lp34
S'MHL499'
p35
aI74190
aI4
aI5
ag8
aNaNaNaNaNaNaNaNaNaNaNaNag5
aa(lp36
S'MHL532'
p37
aI71725
aI4
aI15
aS'T'
p38
aS' 4:30 PM'
p39
aI16
aI30
aI19
aI15
aNaNaNaNaNaNaNag5
aa(lp40
S'MHL590'
p41
aI71726
aI26
aI27
ag8
aNaNaNaNaNaNaNaNaNaNaNaNag5
aa(lp42
S'MHL592'
p43
aI71727
aI26
aI27
ag8
aNaNaNaNaNaNaNaNaNaNaNaNag5
aa(lp44
S'MHL598'
p45
aI78845
aI5
aI15
aS'T Th'
p46
aS'10:30 AM'
p47
aI10
aI30
aI11
aI45
aNaNaNaNaNaNaNag5
aa(lp48
S'MHL598'
p49
aI78834
aI5
aI15
aS'M W'
p50
aS' 9:00 AM'
p51
aI9
aI0
aI10
aI15
aNaNaNaNaNaNaNag5
aa(lp52
S'MHL598'
p53
aI74146
aI0
aI23
aS'M'
p54
aS' 4:30 PM'
p55
aI16
aI30
aI19
aI15
aNaNaNaNaNaNaNag21
aa(lp56
S'MHL598'
p57
aI86815
aI15
aI25
aS'W'
p58
aS' 4:30 PM'
p59
aI16
aI30
aI19
aI15
aNaNaNaNaNaNaNag5
aa(lp60
S'MHL599'
p61
aI71728
aI25
aI27
ag8
aNaNaNaNaNaNaNaNaNaNaNaNag5
aa(lp62
S'MHL670'
p63
aI86817
aI22
aI25
aS'M W F'
p64
aS'12:00 PM'
p65
aI12
aI0
aI12
aI50
aNaNaNaNaNaNaNag5
aa(lp66
S'MHL691'
p67
aI82177
aI0
aI12
aS'Th'
p68
aS' 4:30 PM'
p69
aI16
aI30
aI19
aI15
aNaNaNaNaNaNaNag21
aa.