(lp0
(lp1
S'MIC205'
p2
aI78708
aI19
aI160
aS'T Th'
p3
aS' 6:00 PM'
p4
aI18
aI0
aI19
aI15
aNaNaNaNaNaNaNaS'Not Reserved'
p5
aa(lp6
S'MIC205'
p7
aI81993
aI26
aI72
aS'T Th'
p8
aS' 1:30 PM'
p9
aI13
aI30
aI14
aI45
aNaNaNaNaNaNaNag5
aa(lp10
S'MIC205'
p11
aI72727
aI6
aI120
aS'T Th'
p12
aS' 1:30 PM'
p13
aI13
aI30
aI14
aI45
aNaNaNaNaNaNaNaS'Reserved'
p14
aa(lp15
S'MIC205'
p16
aI74147
aI68
aI120
aS'T Th'
p17
aS' 3:00 PM'
p18
aI15
aI0
aI16
aI15
aNaNaNaNaNaNaNag14
aa(lp19
S'MIC206'
p20
aI73385
aI1
aI16
aS'M W'
p21
aS' 9:00 AM'
p22
aI9
aI0
aI10
aI25
aNaNaNaNaNaNaNag5
aa(lp23
S'MIC206'
p24
aI73386
aI5
aI16
aS'M W'
p25
aS'12:00 PM'
p26
aI12
aI0
aI13
aI25
aNaNaNaNaNaNaNag5
aa(lp27
S'MIC206'
p28
aI73387
aI7
aI16
aS'M W'
p29
aS' 3:00 PM'
p30
aI15
aI0
aI16
aI25
aNaNaNaNaNaNaNag5
aa(lp31
S'MIC206'
p32
aI73388
aI10
aI16
aS'M W'
p33
aS' 6:00 PM'
p34
aI18
aI0
aI19
aI25
aNaNaNaNaNaNaNag5
aa(lp35
S'MIC206'
p36
aI73389
aI3
aI16
aS'M W'
p37
aS'10:30 AM'
p38
aI10
aI30
aI11
aI55
aNaNaNaNaNaNaNag5
aa(lp39
S'MIC206'
p40
aI73390
aI0
aI16
aS'M W'
p41
aS' 1:30 PM'
p42
aI13
aI30
aI14
aI55
aNaNaNaNaNaNaNag14
aa(lp43
S'MIC206'
p44
aI73392
aI2
aI16
aS'T Th'
p45
aS' 9:00 AM'
p46
aI9
aI0
aI10
aI25
aNaNaNaNaNaNaNag5
aa(lp47
S'MIC206'
p48
aI73393
aI0
aI16
aS'T Th'
p49
aS'12:00 PM'
p50
aI12
aI0
aI13
aI25
aNaNaNaNaNaNaNag14
aa(lp51
S'MIC206'
p52
aI73394
aI0
aI16
aS'T Th'
p53
aS' 3:00 PM'
p54
aI15
aI0
aI16
aI25
aNaNaNaNaNaNaNag14
aa(lp55
S'MIC206'
p56
aI80519
aI0
aI16
aS'T Th'
p57
aS'10:30 AM'
p58
aI10
aI30
aI11
aI55
aNaNaNaNaNaNaNag14
aa(lp59
S'MIC206'
p60
aI80520
aI0
aI16
aS'T Th'
p61
aS' 1:30 PM'
p62
aI13
aI30
aI14
aI55
aNaNaNaNaNaNaNag14
aa(lp63
S'MIC206'
p64
aI80676
aI0
aI16
aS'T Th'
p65
aS' 4:30 PM'
p66
aI16
aI30
aI17
aI55
aNaNaNaNaNaNaNag14
aa(lp67
S'MIC206'
p68
aI81994
aI10
aI24
aS'T Th'
p69
aS'10:15 AM'
p70
aI10
aI15
aI11
aI30
aNaNaNaNaNaNaNag5
aa(lp71
S'MIC206'
p72
aI81995
aI3
aI24
aS'T Th'
p73
aS'12:00 PM'
p74
aI12
aI0
aI13
aI15
aNaNaNaNaNaNaNag5
aa(lp75
S'MIC206'
p76
aI84685
aI1
aI24
aS'T Th'
p77
aS' 3:00 PM'
p78
aI15
aI0
aI16
aI15
aNaNaNaNaNaNaNag5
aa(lp79
S'MIC206'
p80
aI72728
aI12
aI20
aS'M W'
p81
aS' 8:00 AM'
p82
aI8
aI0
aI9
aI30
aNaNaNaNaNaNaNag5
aa(lp83
S'MIC206'
p84
aI72729
aI1
aI20
aS'M W'
p85
aS' 9:45 AM'
p86
aI9
aI45
aI11
aI15
aNaNaNaNaNaNaNag14
aa(lp87
S'MIC206'
p88
aI72730
aI5
aI20
aS'M W'
p89
aS'11:30 AM'
p90
aI11
aI30
aI13
aI0
aNaNaNaNaNaNaNag5
aa(lp91
S'MIC206'
p92
aI72731
aI1
aI20
aS'M W'
p93
aS' 1:15 PM'
p94
aI13
aI15
aI14
aI45
aNaNaNaNaNaNaNag14
aa(lp95
S'MIC206'
p96
aI74600
aI6
aI20
aS'M W'
p97
aS' 3:00 PM'
p98
aI15
aI0
aI16
aI30
aNaNaNaNaNaNaNag5
aa(lp99
S'MIC206'
p100
aI73824
aI14
aI20
aS'M W'
p101
aS' 4:45 PM'
p102
aI16
aI45
aI18
aI15
aNaNaNaNaNaNaNag5
aa(lp103
S'MIC206'
p104
aI74148
aI8
aI20
aS'T Th'
p105
aS' 8:00 AM'
p106
aI8
aI0
aI9
aI30
aNaNaNaNaNaNaNag5
aa(lp107
S'MIC206'
p108
aI74149
aI3
aI20
aS'T Th'
p109
aS' 9:45 AM'
p110
aI9
aI45
aI11
aI15
aNaNaNaNaNaNaNag5
aa(lp111
S'MIC206'
p112
aI78880
aI0
aI20
aS'T Th'
p113
aS'11:30 AM'
p114
aI11
aI30
aI13
aI0
aNaNaNaNaNaNaNag14
aa(lp115
S'MIC206'
p116
aI84906
aI2
aI20
aS'T Th'
p117
aS' 1:15 PM'
p118
aI13
aI15
aI14
aI45
aNaNaNaNaNaNaNag5
aa(lp119
S'MIC206'
p120
aI86864
aI0
aI20
aS'T Th'
p121
aS' 3:00 PM'
p122
aI15
aI0
aI16
aI30
aNaNaNaNaNaNaNag14
aa(lp123
S'MIC220'
p124
aI73369
aI56
aI160
aS'M W F'
p125
aS'12:00 PM'
p126
aI12
aI0
aI12
aI50
aNaNaNaNaNaNaNag5
aa(lp127
S'MIC220'
p128
aI83450
aI11
aI30
aS'M W F'
p129
aS'12:00 PM'
p130
aI12
aI0
aI12
aI50
aNaNaNaNaNaNaNag14
aa(lp131
S'MIC302'
p132
aI71729
aI6
aI16
aS'T Th'
p133
aS' 9:00 AM'
p134
aI9
aI0
aI11
aI0
aNaNaNaNaNaNaNag14
aa(lp135
S'MIC302'
p136
aI76865
aI4
aI16
aS'M W'
p137
aS'12:00 PM'
p138
aI12
aI0
aI14
aI0
aNaNaNaNaNaNaNag14
aa(lp139
S'MIC302'
p140
aI71730
aI6
aI16
aS'T Th'
p141
aS'12:00 PM'
p142
aI12
aI0
aI14
aI0
aNaNaNaNaNaNaNag14
aa(lp143
S'MIC314'
p144
aI72803
aI99
aI135
aS'M W'
p145
aS' 6:00 PM'
p146
aI18
aI0
aI19
aI15
aNaNaNaNaNaNaNag5
aa(lp147
S'MIC314'
p148
aI83451
aI9
aI15
aS'M W'
p149
aS' 6:00 PM'
p150
aI18
aI0
aI19
aI15
aNaNaNaNaNaNaNag14
aa(lp151
S'MIC360'
p152
aI71731
aI21
aI60
aS'M W F'
p153
aS' 9:00 AM'
p154
aI9
aI0
aI9
aI50
aNaNaNaNaNaNaNag5
aa(lp155
S'MIC379'
p156
aI79420
aI54
aI96
aS'M W'
p157
aS'10:30 AM'
p158
aI10
aI30
aI11
aI45
aNaNaNaNaNaNaNag5
aa(lp159
S'MIC401'
p160
aI71732
aI27
aI30
aS'Th'
p161
aS' 3:00 PM'
p162
aI15
aI0
aI16
aI15
aNaNaNaNaNaNaNag5
aa(lp163
S'MIC420'
p164
aI71733
aI0
aI87
aS'T Th'
p165
aS' 9:00 AM'
p166
aI9
aI0
aI10
aI15
aNaNaNaNaNaNaNag14
aa(lp167
S'MIC421'
p168
aI75034
aI1
aI32
aS'W'
p169
aS' 1:40 PM'
p170
aI13
aI40
aI19
aI0
aNaNaNaNaNaNaNag5
aa(lp171
S'MIC441'
p172
aI74722
aI27
aI50
aS'T Th'
p173
aS' 1:30 PM'
p174
aI13
aI30
aI14
aI45
aNaNaNaNaNaNaNag5
aa(lp175
S'MIC443'
p176
aI75501
aI38
aI72
aS'M W F'
p177
aS' 1:30 PM'
p178
aI13
aI30
aI14
aI20
aNaNaNaNaNaNaNag5
aa(lp179
S'MIC444'
p180
aI75502
aI13
aI24
aS'M'
p181
aS'10:15 AM'
p182
aI10
aI15
aI13
aI0
aNaNaNaNaNaNaNag5
aa(lp183
S'MIC444'
p184
aI75503
aI4
aI24
ag181
aS' 3:00 PM'
p185
aI15
aI0
aI17
aI45
aNaNaNaNaNaNaNag5
aa(lp186
S'MIC445'
p187
aI75638
aI11
aI30
aS'M W F'
p188
aS'12:00 PM'
p189
aI12
aI0
aI12
aI50
aNaNaNaNaNaNaNag5
aa(lp190
S'MIC446'
p191
aI76082
aI0
aI10
aS'T Th'
p192
aS'10:30 AM'
p193
aI10
aI30
aI13
aI15
aNaNaNaNaNaNaNag14
aa(lp194
S'MIC446'
p195
aI76083
aI5
aI10
aS'M W'
p196
aS' 1:30 PM'
p197
aI13
aI30
aI16
aI15
aNaNaNaNaNaNaNag5
aa(lp198
S'MIC461'
p199
aI79900
aI17
aI20
aS'T Th'
p200
aS' 3:00 PM'
p201
aI15
aI0
aI16
aI15
aNaNaNaNaNaNaNag5
aa(lp202
S'MIC484'
p203
aI73432
aI8
aI8
aS'ONLINE'
p204
aNaNaNaNaNaNaNaNaNaNaNaNag14
aa(lp205
S'MIC485'
p206
aI73704
aI23
aI35
aS'T Th'
p207
aS'12:00 PM'
p208
aI12
aI0
aI13
aI15
aNaNaNaNaNaNaNag5
aa(lp209
S'MIC492'
p210
aI71734
aI30
aI30
ag204
aNaNaNaNaNaNaNaNaNaNaNaNag5
aa(lp211
S'MIC493'
p212
aI71735
aI40
aI40
ag204
aNaNaNaNaNaNaNaNaNaNaNaNag5
aa(lp213
S'MIC494'
p214
aI80403
aI39
aI40
aS'T Th'
p215
aS' 1:30 PM'
p216
aI13
aI30
aI14
aI45
aNaNaNaNaNaNaNag5
aa(lp217
S'MIC494'
p218
aI75423
aI6
aI6
aS'T'
p219
aS' 4:30 PM'
p220
aI16
aI30
aI18
aI30
aNaNaNaNaNaNaNag5
aa(lp221
S'MIC495'
p222
aI71736
aI37
aI40
ag204
aNaNaNaNaNaNaNaNaNaNaNaNag5
aa(lp223
S'MIC496'
p224
aI75555
aI40
aI40
ag204
aNaNaNaNaNaNaNaNaNaNaNaNag5
aa(lp225
S'MIC499'
p226
aI71737
aI30
aI30
ag204
aNaNaNaNaNaNaNaNaNaNaNaNag5
aa(lp227
S'MIC584'
p228
aI85713
aI1
aI1
ag204
aNaNaNaNaNaNaNaNaNaNaNaNag5
aa(lp229
S'MIC590'
p230
aI73341
aI30
aI30
ag204
aNaNaNaNaNaNaNaNaNaNaNaNag5
aa(lp231
S'MIC591'
p232
aI71738
aI25
aI25
aS'F'
p233
aS' 1:30 PM'
p234
aI13
aI30
aI15
aI30
aNaNaNaNaNaNaNag5
aa(lp235
S'MIC591'
p236
aI74297
aI30
aI30
ag204
aNaNaNaNaNaNaNaNaNaNaNaNag5
aa(lp237
S'MIC592'
p238
aI71739
aI30
aI30
ag204
aNaNaNaNaNaNaNaNaNaNaNaNag5
aa(lp239
S'MIC595'
p240
aI71740
aI30
aI30
ag204
aNaNaNaNaNaNaNaNaNaNaNaNag5
aa(lp241
S'MIC598'
p242
aI79901
aI8
aI8
aS'T Th'
p243
aS' 3:00 PM'
p244
aI15
aI0
aI16
aI15
aNaNaNaNaNaNaNag5
aa(lp245
S'MIC598'
p246
aI71741
aI9
aI10
aS'T Th'
p247
aS' 9:00 AM'
p248
aI9
aI0
aI10
aI15
aNaNaNaNaNaNaNag5
aa(lp249
S'MIC598'
p250
aI73701
aI4
aI5
aS'T Th'
p251
aS'12:00 PM'
p252
aI12
aI0
aI13
aI15
aNaNaNaNaNaNaNag5
aa(lp253
S'MIC598'
p254
aI73703
aI15
aI15
ag204
aNaNaNaNaNaNaNaNaNaNaNaNag5
aa(lp255
S'MIC598'
p256
aI80404
aI9
aI10
aS'T Th'
p257
aS' 1:30 PM'
p258
aI13
aI30
aI14
aI45
aNaNaNaNaNaNaNag5
aa(lp259
S'MIC599'
p260
aI73342
aI30
aI30
ag204
aNaNaNaNaNaNaNaNaNaNaNaNag5
aa(lp261
S'MIC790'
p262
aI71742
aI30
aI30
ag204
aNaNaNaNaNaNaNaNaNaNaNaNag5
aa(lp263
S'MIC791'
p264
aI74298
aI30
aI30
ag204
aNaNaNaNaNaNaNaNaNaNaNaNag5
aa(lp265
S'MIC792'
p266
aI71743
aI29
aI30
ag204
aNaNaNaNaNaNaNaNaNaNaNaNag5
aa(lp267
S'MIC795'
p268
aI71744
aI30
aI30
ag204
aNaNaNaNaNaNaNaNaNaNaNaNag5
aa(lp269
S'MIC799'
p270
aI71745
aI29
aI30
ag204
aNaNaNaNaNaNaNaNaNaNaNaNag5
aa.