(lp0
(lp1
S'MIS101'
p2
aI71746
aI39
aI45
aS'T Th'
p3
aS'12:00PM'
p4
aI12
aI0
aI13
aI15
aS'Th'
p5
aS'6:30AM'
p6
aI6
aI30
aS'8:30AM'
p7
aI8
aI30
aS'Not Reserved'
p8
aa(lp9
S'MIS101'
p10
aI71747
aI41
aI45
aS'T Th'
p11
aS'9:00AM'
p12
aI9
aI0
aI10
aI15
aS'Th'
p13
aS'6:30AM'
p14
aI6
aI30
aS'8:30AM'
p15
aI8
aI30
ag8
aa(lp16
S'MIS194'
p17
aI79809
aI158
aI230
aS'M W F'
p18
aS' 6:30 AM'
p19
aI6
aI30
aI7
aI30
aNaNaNaNaNaNaNag8
aa(lp20
S'MIS201'
p21
aI71748
aI20
aI30
aS'T Th'
p22
aS'1:30PM'
p23
aI13
aI30
aI14
aI45
aS'Th'
p24
aS'6:30AM'
p25
aI6
aI30
aS'8:30AM'
p26
aI8
aI30
ag8
aa(lp27
S'MIS201'
p28
aI71749
aI10
aI30
aS'T Th'
p29
aS'10:30AM'
p30
aI10
aI30
aI11
aI45
aS'Th'
p31
aS'6:30AM'
p32
aI6
aI30
aS'8:30AM'
p33
aI8
aI30
ag8
aa(lp34
S'MIS294'
p35
aI73281
aI28
aI30
aS'W'
p36
aS' 6:00 PM'
p37
aI18
aI0
aI20
aI30
aNaNaNaNaNaNaNag8
aa(lp38
S'MIS301'
p39
aI71750
aI8
aI30
aS'T Th'
p40
aS'1:30PM'
p41
aI13
aI30
aI14
aI45
aS'Th'
p42
aS'6:30AM'
p43
aI6
aI30
aS'8:30AM'
p44
aI8
aI30
ag8
aa(lp45
S'MIS301'
p46
aI71751
aI9
aI30
aS'T Th'
p47
aS'10:30AM'
p48
aI10
aI30
aI11
aI45
aS'Th'
p49
aS'6:30AM'
p50
aI6
aI30
aS'8:30AM'
p51
aI8
aI30
ag8
aa(lp52
S'MIS401'
p53
aI71752
aI20
aI25
aS'T Th'
p54
aS'1:30PM'
p55
aI13
aI30
aI14
aI45
aS'Th'
p56
aS'6:30AM'
p57
aI6
aI30
aS'9:00AM'
p58
aI9
aI0
ag8
aa(lp59
S'MIS401'
p60
aI71753
aI2
aI25
aS'T Th'
p61
aS'10:30AM'
p62
aI10
aI30
aI11
aI45
aS'Th'
p63
aS'6:30AM'
p64
aI6
aI30
aS'8:30AM'
p65
aI8
aI30
ag8
aa(lp66
S'MIS410'
p67
aI71754
aI18
aI40
aS'Th'
p68
aS' 4:30 PM'
p69
aI16
aI30
aI19
aI0
aNaNaNaNaNaNaNag8
aa(lp70
S'MIS499'
p71
aI71755
aI5
aI5
aS'M'
p72
aS' 5:00 PM'
p73
aI17
aI0
aI19
aI30
aNaNaNaNaNaNaNag8
aa.