(lp0
(lp1
S'MKT300'
p2
aI74765
aI0
aI250
aS'ONLINE'
p3
aNaNaNaNaNaS'Th'
p4
aNaNaNaNaNaNaS'Reserved'
p5
aa(lp6
S'MKT300'
p7
aI83938
aI4
aI5
ag3
aNaNaNaNaNaNaNaNaNaNaNaNag5
aa(lp8
S'MKT300'
p9
aI70378
aI0
aI260
aS'M W F'
p10
aS'10:30 AM'
p11
aI10
aI30
aI11
aI20
aNaNaNaNaNaNaNag5
aa(lp12
S'MKT300'
p13
aI70379
aI0
aI260
aS'M W F'
p14
aS'12:00 PM'
p15
aI12
aI0
aI12
aI50
aNaNaNaNaNaNaNag5
aa(lp16
S'MKT300'
p17
aI74770
aI45
aI130
aS'W'
p18
aS' 6:00 PM'
p19
aI18
aI0
aI20
aI45
aNaNaNaNaNaNaNaS'Not Reserved'
p20
aa(lp21
S'MKT300'
p22
aI81548
aI50
aI130
ag18
aS' 4:30 PM'
p23
aI16
aI30
aI19
aI15
aNaNaNaNaNaNaNag20
aa(lp24
S'MKT302'
p25
aI75798
aI25
aI40
aS'M W'
p26
aS' 4:30 PM'
p27
aI16
aI30
aI17
aI45
aNaNaNaNaNaNaNag20
aa(lp28
S'MKT302'
p29
aI71757
aI5
aI35
aS'T Th'
p30
aS' 1:30 PM'
p31
aI13
aI30
aI14
aI45
aNaNaNaNaNaNaNag20
aa(lp32
S'MKT302'
p33
aI71758
aI0
aI35
aS'T Th'
p34
aS' 9:00 AM'
p35
aI9
aI0
aI10
aI15
aNaNaNaNaNaNaNag5
aa(lp36
S'MKT302'
p37
aI76169
aI18
aI45
aS'T Th'
p38
aS'12:00 PM'
p39
aI12
aI0
aI13
aI15
aNaNaNaNaNaNaNag20
aa(lp40
S'MKT303'
p41
aI72603
aI0
aI35
aS'T Th'
p42
aS' 3:00 PM'
p43
aI15
aI0
aI16
aI15
aNaNaNaNaNaNaNag5
aa(lp44
S'MKT311'
p45
aI79190
aI0
aI28
aS'Th'
p46
aS' 4:30 PM'
p47
aI16
aI30
aI19
aI15
aNaNaNaNaNaNaNag5
aa(lp48
S'MKT311'
p49
aI90986
aI4
aI40
ag18
aS' 6:00 PM'
p50
aI18
aI0
aI20
aI45
aNaNaNaNaNaNaNag20
aa(lp51
S'MKT352'
p52
aI72983
aI0
aI40
aS'T Th'
p53
aS' 3:00 PM'
p54
aI15
aI0
aI16
aI15
aNaNaNaNaNaNaNag5
aa(lp55
S'MKT352'
p56
aI71761
aI0
aI35
aS'T Th'
p57
aS' 9:00 AM'
p58
aI9
aI0
aI10
aI15
aNaNaNaNaNaNaNag5
aa(lp59
S'MKT352'
p60
aI74783
aI1
aI35
ag18
aS' 6:00 PM'
p61
aI18
aI0
aI20
aI45
aNaNaNaNaNaNaNag20
aa(lp62
S'MKT352'
p63
aI76175
aI0
aI40
aS'T Th'
p64
aS' 1:30 PM'
p65
aI13
aI30
aI14
aI45
aNaNaNaNaNaNaNag5
aa(lp66
S'MKT365'
p67
aI71756
aI55
aI100
aS'T Th'
p68
aS' 9:00 AM'
p69
aI9
aI0
aI10
aI15
aNaNaNaNaNaNaNag20
aa(lp70
S'MKT365'
p71
aI76170
aI29
aI100
aS'T Th'
p72
aS'12:00 PM'
p73
aI12
aI0
aI13
aI15
aNaNaNaNaNaNaNag20
aa(lp74
S'MKT370'
p75
aI74786
aI0
aI45
aS'M'
p76
aS' 6:00 PM'
p77
aI18
aI0
aI20
aI45
aNaNaNaNaNaNaNag5
aa(lp78
S'MKT390'
p79
aI76848
aI0
aI260
aS'T'
p80
aS' 4:30 PM'
p81
aI16
aI30
aI19
aI15
aNaNaNaNaNaNaNag5
aa(lp82
S'MKT391'
p83
aI91019
aI64
aI160
ag3
aNaNaNaNaNaNaNaNaNaNaNaNag5
aa(lp84
S'MKT395'
p85
aI71762
aI183
aI260
aS'T Th'
p86
aS' 3:00 PM'
p87
aI15
aI0
aI16
aI15
aNaNaNaNaNaNaNag20
aa(lp88
S'MKT397'
p89
aI81126
aI194
aI260
ag3
aNaNaNaNaNaNaNaNaNaNaNaNag5
aa(lp90
S'MKT402'
p91
aI71759
aI0
aI40
aS'T Th'
p92
aS'12:00 PM'
p93
aI12
aI0
aI13
aI15
aNaNaNaNaNaNaNag5
aa(lp94
S'MKT402'
p95
aI71760
aI0
aI35
aS'T Th'
p96
aS'10:30 AM'
p97
aI10
aI30
aI11
aI45
aNaNaNaNaNaNaNag5
aa(lp98
S'MKT402'
p99
aI76172
aI0
aI40
aS'T Th'
p100
aS' 4:30 PM'
p101
aI16
aI30
aI17
aI45
aNaNaNaNaNaNaNag5
aa(lp102
S'MKT402'
p103
aI91210
aI30
aI38
ag76
aS' 6:00 PM'
p104
aI18
aI0
aI20
aI45
aNaNaNaNaNaNaNag20
aa(lp105
S'MKT410'
p106
aI75799
aI0
aI50
ag18
aS' 6:00 PM'
p107
aI18
aI0
aI20
aI45
aNaNaNaNaNaNaNag5
aa(lp108
S'MKT425'
p109
aI71763
aI0
aI50
aS'M W'
p110
aS' 3:00 PM'
p111
aI15
aI0
aI16
aI15
aNaNaNaNaNaNaNag5
aa(lp112
S'MKT425'
p113
aI74302
aI17
aI40
ag76
aS' 6:00 PM'
p114
aI18
aI0
aI20
aI45
aNaNaNaNaNaNaNag20
aa(lp115
S'MKT430'
p116
aI79159
aI0
aI12
aS'Th'
p117
aS' 4:30 PM'
p118
aI16
aI30
aI19
aI15
aNaNaNaNaNaNaNag5
aa(lp119
S'MKT431'
p120
aI81127
aI0
aI40
ag80
aS' 6:00 PM'
p121
aI18
aI0
aI20
aI45
aNaNaNaNaNaNaNag5
aa(lp122
S'MKT435'
p123
aI77331
aI0
aI40
ag76
aS' 6:00 PM'
p124
aI18
aI0
aI20
aI45
aNaNaNaNaNaNaNag5
aa(lp125
S'MKT440'
p126
aI78948
aI16
aI50
ag18
aS' 4:30 PM'
p127
aI16
aI30
aI19
aI15
aNaNaNaNaNaNaNag20
aa(lp128
S'MKT441'
p129
aI90822
aI17
aI38
ag18
aS' 6:00 PM'
p130
aI18
aI0
aI20
aI45
aNaNaNaNaNaNaNag20
aa(lp131
S'MKT442'
p132
aI74784
aI0
aI45
aS'T Th'
p133
aS' 3:00 PM'
p134
aI15
aI0
aI16
aI15
aNaNaNaNaNaNaNag5
aa(lp135
S'MKT450'
p136
aI78950
aI10
aI50
ag76
aS' 4:30 PM'
p137
aI16
aI30
aI19
aI15
aNaNaNaNaNaNaNag20
aa(lp138
S'MKT452'
p139
aI76173
aI0
aI40
aS'T Th'
p140
aS'12:00 PM'
p141
aI12
aI0
aI13
aI15
aNaNaNaNaNaNaNag5
aa(lp142
S'MKT455'
p143
aI78947
aI8
aI40
aS'T Th'
p144
aS' 4:30 PM'
p145
aI16
aI30
aI17
aI45
aNaNaNaNaNaNaNag20
aa(lp146
S'MKT455'
p147
aI83729
aI21
aI40
ag80
aS' 6:00 PM'
p148
aI18
aI0
aI20
aI45
aNaNaNaNaNaNaNag20
aa(lp149
S'MKT460'
p150
aI79191
aI0
aI12
ag18
aS' 6:00 PM'
p151
aI18
aI0
aI20
aI45
aNaNaNaNaNaNaNag5
aa(lp152
S'MKT462'
p153
aI71764
aI24
aI40
aS'T Th'
p154
aS' 4:30 PM'
p155
aI16
aI30
aI17
aI45
aNaNaNaNaNaNaNag20
aa(lp156
S'MKT462'
p157
aI71765
aI10
aI40
aS'T Th'
p158
aS'12:00 PM'
p159
aI12
aI0
aI13
aI15
aNaNaNaNaNaNaNag20
aa(lp160
S'MKT465'
p161
aI86361
aI3
aI36
aS'T Th'
p162
aS'12:00 PM'
p163
aI12
aI0
aI13
aI15
aNaNaNaNaNaNaNag20
aa(lp164
S'MKT484'
p165
aI71766
aI39
aI40
ag3
aNaNaNaNaNaNaNaNaNaNaNaNag20
aa(lp166
S'MKT493'
p167
aI71767
aI8
aI10
ag3
aNaNaNaNaNaNaNaNaNaNaNaNag5
aa(lp168
S'MKT494'
p169
aI87517
aI50
aI50
ag76
aS' 3:00 PM'
p170
aI15
aI0
aI16
aI15
aNaNaNaNaNaNaNag20
aa(lp171
S'MKT499'
p172
aI71768
aI10
aI10
ag3
aNaNaNaNaNaNaNaNaNaNaNaNag20
aa(lp173
S'MKT502'
p174
aI91166
aI50
aI50
ag80
aS' 6:00 PM'
p175
aI18
aI0
aI22
aI0
aNaNaNaNaNaNaNag5
aa(lp176
S'MKT502'
p177
aI91167
aI50
aI50
aS'Th'
p178
aS' 6:00 PM'
p179
aI18
aI0
aI22
aI0
aNaNaNaNaNaNaNag5
aa(lp180
S'MKT502'
p181
aI84513
aI54
aI55
aS'F Sa'
p182
aS' 8:00 AM'
p183
aI8
aI0
aI17
aI0
aNaNaNaNaNaNaNag5
aa(lp184
S'MKT502'
p185
aI71769
aI52
aI52
aS'T Th'
p186
aS' 8:00 AM'
p187
aI8
aI0
aI10
aI5
aNaNaNaNaNaNaNag5
aa(lp188
S'MKT502'
p189
aI71770
aI52
aI52
aS'T Th'
p190
aS'10:20 AM'
p191
aI10
aI20
aI12
aI25
aNaNaNaNaNaNaNag5
aa(lp192
S'MKT502'
p193
aI71771
aI70
aI70
ag3
aNaNaNaNaNaNaNaNaNaNaNaNag5
aa(lp194
S'MKT520'
p195
aI90443
aI48
aI48
ag3
aNaNaNaNaNaNaNaNaNaNaNaNag20
aa(lp196
S'MKT520'
p197
aI80347
aI63
aI63
ag3
aNaNaNaNaNaNaNaNaNaNaNaNag5
aa(lp198
S'MKT540'
p199
aI83588
aI39
aI40
aS'M W'
p200
aS' 1:25 PM'
p201
aI13
aI25
aI15
aI30
aNaNaNaNaNaNaNag5
aa(lp202
S'MKT550'
p203
aI80348
aI63
aI63
ag3
aNaNaNaNaNaNaNaNaNaNaNaNag5
aa(lp204
S'MKT560'
p205
aI82854
aI39
aI40
aS'T Th'
p206
aS' 1:25 PM'
p207
aI13
aI25
aI15
aI30
aNaNaNaNaNaNaNag5
aa(lp208
S'MKT584'
p209
aI71772
aI5
aI5
ag3
aNaNaNaNaNaNaNaNaNaNaNaNag20
aa(lp210
S'MKT590'
p211
aI71773
aI5
aI5
ag3
aNaNaNaNaNaNaNaNaNaNaNaNag20
aa(lp212
S'MKT591'
p213
aI90449
aI50
aI50
ag3
aNaNaNaNaNaNaNaNaNaNaNaNag20
aa(lp214
S'MKT592'
p215
aI71774
aI5
aI5
ag3
aNaNaNaNaNaNaNaNaNaNaNaNag20
aa(lp216
S'MKT599'
p217
aI71775
aI5
aI5
ag3
aNaNaNaNaNaNaNaNaNaNaNaNag20
aa(lp218
S'MKT790'
p219
aI71776
aI5
aI5
ag3
aNaNaNaNaNaNaNaNaNaNaNaNag20
aa(lp220
S'MKT791'
p221
aI91767
aI10
aI10
ag3
aNaNaNaNaNaNaNaNaNaNaNaNag20
aa(lp222
S'MKT791'
p223
aI74160
aI7
aI10
ag18
aS' 1:00 PM'
p224
aI13
aI0
aI16
aI0
aNaNaNaNaNaNaNag20
aa(lp225
S'MKT792'
p226
aI71777
aI10
aI10
ag3
aNaNaNaNaNaNaNaNaNaNaNaNag20
aa(lp227
S'MKT795'
p228
aI71778
aI9
aI10
ag3
aNaNaNaNaNaNaNaNaNaNaNaNag20
aa(lp229
S'MKT799'
p230
aI71779
aI19
aI20
ag3
aNaNaNaNaNaNaNaNaNaNaNaNag20
aa.