(lp0
(lp1
S'MLS501'
p2
aI74276
aI12
aI15
aS'ONLINE'
p3
aNaNaNaNaNaNaNaNaNaNaNaNaS'Reserved'
p4
aa(lp5
S'MLS502'
p6
aI83004
aI19
aI25
aS'W'
p7
aS'6:00PM'
p8
aI18
aI0
aI20
aI45
aS''
p9
aS'12:00AM'
p10
aNaNaS'12:00AM'
p11
aNaNaS'Not Reserved'
p12
aa(lp13
S'MLS504'
p14
aI72753
aI9
aI15
aS'M'
p15
aS'6:00PM'
p16
aI18
aI0
aI20
aI45
ag9
aS'12:00AM'
p17
aNaNaS'12:00AM'
p18
aNaNag4
aa(lp19
S'MLS580'
p20
aI71780
aI14
aI15
ag3
aNaNaNaNaNaNaNaNaNaNaNaNag4
aa(lp21
S'MLS580'
p22
aI78499
aI15
aI15
ag3
aNaNaNaNaNaNaNaNaNaNaNaNag4
aa(lp23
S'MLS584'
p24
aI72784
aI14
aI15
ag3
aNaNaNaNaNaNaNaNaNaNaNaNag4
aa(lp25
S'MLS584'
p26
aI78500
aI14
aI15
ag3
aNaNaNaNaNaNaNaNaNaNaNaNag4
aa(lp27
S'MLS590'
p28
aI71781
aI15
aI15
ag3
aNaNaNaNaNaNaNaNaNaNaNaNag4
aa(lp29
S'MLS590'
p30
aI78502
aI13
aI15
ag3
aNaNaNaNaNaNaNaNaNaNaNaNag4
aa(lp31
S'MLS593'
p32
aI71782
aI15
aI15
ag3
aNaNaNaNaNaNaNaNaNaNaNaNag4
aa(lp33
S'MLS593'
p34
aI78504
aI13
aI15
ag3
aNaNaNaNaNaNaNaNaNaNaNaNag4
aa(lp35
S'MLS595'
p36
aI85556
aI3
aI3
ag3
aNaNaNaNaNaNaNaNaNaNaNaNag4
aa(lp37
S'MLS598'
p38
aI83814
aI28
aI30
ag3
aNaNaNaNaNaNaNaNaNaNaNaNag4
aa(lp39
S'MLS598'
p40
aI74054
aI28
aI30
ag3
aNaNaNaNaNaNaNaNaNaNaNaNag4
aa(lp41
S'MLS598'
p42
aI75047
aI15
aI15
ag3
aNaNaNaNaNaNaNaNaNaNaNaNag4
aa(lp43
S'MLS598'
p44
aI83817
aI2
aI3
ag3
aNaNaNaNaNaNaNaNaNaNaNaNag4
aa(lp45
S'MLS598'
p46
aI83917
aI29
aI30
ag3
aNaNaNaNaNaNaNaNaNaNaNaNag4
aa.