(lp0
(lp1
S'MSE208'
p2
aI71783
aI0
aI200
aS'ONLINE'
p3
aNaNaNaNaNaNaNaNaNaNaNaNaS'Reserved'
p4
aa(lp5
S'MSE215'
p6
aI71784
aI1
aI40
aS'M W'
p7
aS' 1:30 PM'
p8
aI13
aI30
aI15
aI30
aNaNaNaNaNaNaNaS'Not Reserved'
p9
aa(lp10
S'MSE250'
p11
aI86367
aI67
aI150
aS'M W'
p12
aS' 9:00 AM'
p13
aI9
aI0
aI10
aI15
aNaNaNaNaNaNaNag9
aa(lp14
S'MSE250'
p15
aI86368
aI7
aI25
aS'T'
p16
aS' 7:30 AM'
p17
aI7
aI30
aI8
aI20
aNaNaNaNaNaNaNag9
aa(lp18
S'MSE250'
p19
aI86369
aI22
aI25
ag16
aS' 7:30 AM'
p20
aI7
aI30
aI8
aI20
aNaNaNaNaNaNaNag9
aa(lp21
S'MSE250'
p22
aI86370
aI0
aI25
aS'Th'
p23
aS' 1:30 PM'
p24
aI13
aI30
aI14
aI20
aNaNaNaNaNaNaNag4
aa(lp25
S'MSE250'
p26
aI86371
aI12
aI25
aS'Th'
p27
aS' 1:30 PM'
p28
aI13
aI30
aI14
aI20
aNaNaNaNaNaNaNag9
aa(lp29
S'MSE250'
p30
aI86372
aI5
aI25
aS'F'
p31
aS'10:30 AM'
p32
aI10
aI30
aI11
aI20
aNaNaNaNaNaNaNag9
aa(lp33
S'MSE250'
p34
aI86373
aI21
aI25
ag31
aS'10:30 AM'
p35
aI10
aI30
aI11
aI20
aNaNaNaNaNaNaNag9
aa(lp36
S'MSE250'
p37
aI71785
aI27
aI150
aS'M W'
p38
aS' 1:30 PM'
p39
aI13
aI30
aI14
aI45
aNaNaNaNaNaNaNag9
aa(lp40
S'MSE250'
p41
aI86374
aI0
aI25
ag16
aS' 1:30 PM'
p42
aI13
aI30
aI14
aI20
aNaNaNaNaNaNaNag4
aa(lp43
S'MSE250'
p44
aI86375
aI0
aI25
ag16
aS' 1:30 PM'
p45
aI13
aI30
aI14
aI20
aNaNaNaNaNaNaNag4
aa(lp46
S'MSE250'
p47
aI86376
aI4
aI25
aS'Th'
p48
aS' 7:30 AM'
p49
aI7
aI30
aI8
aI20
aNaNaNaNaNaNaNag9
aa(lp50
S'MSE250'
p51
aI86377
aI19
aI25
aS'Th'
p52
aS' 7:30 AM'
p53
aI7
aI30
aI8
aI20
aNaNaNaNaNaNaNag9
aa(lp54
S'MSE250'
p55
aI86378
aI0
aI25
ag31
aS'12:00 PM'
p56
aI12
aI0
aI12
aI50
aNaNaNaNaNaNaNag4
aa(lp57
S'MSE250'
p58
aI86379
aI4
aI25
ag31
aS'12:00 PM'
p59
aI12
aI0
aI12
aI50
aNaNaNaNaNaNaNag9
aa(lp60
S'MSE250'
p61
aI86398
aI1
aI68
aS'M W'
p62
aS'10:30 AM'
p63
aI10
aI30
aI11
aI45
aNaNaNaNaNaNaNag9
aa(lp64
S'MSE250'
p65
aI89970
aI1
aI68
ag31
aS'10:30 AM'
p66
aI10
aI30
aI11
aI20
aNaNaNaNaNaNaNag9
aa(lp67
S'MSE301'
p68
aI84334
aI18
aI40
aS'M W'
p69
aS'10:30 AM'
p70
aI10
aI30
aI11
aI45
aNaNaNaNaNaNaNag4
aa(lp71
S'MSE330'
p72
aI71787
aI19
aI48
aS'M W'
p73
aS'12:00 PM'
p74
aI12
aI0
aI13
aI15
aNaNaNaNaNaNaNag4
aa(lp75
S'MSE355'
p76
aI71788
aI26
aI70
aS'T Th'
p77
aS'12:00 PM'
p78
aI12
aI0
aI13
aI15
aNaNaNaNaNaNaNag9
aa(lp79
S'MSE356'
p80
aI70152
aI0
aI17
ag16
aS' 2:00 PM'
p81
aI14
aI0
aI17
aI0
aNaNaNaNaNaNaNag4
aa(lp82
S'MSE356'
p83
aI70153
aI0
aI17
aS'Th'
p84
aS' 2:00 PM'
p85
aI14
aI0
aI17
aI0
aNaNaNaNaNaNaNag4
aa(lp86
S'MSE415'
p87
aI75731
aI9
aI28
aS'T Th'
p88
aS'10:30 AM'
p89
aI10
aI30
aI11
aI45
aNaNaNaNaNaNaNag9
aa(lp90
S'MSE415'
p91
aI86399
aI9
aI28
ag31
aS' 2:30 PM'
p92
aI14
aI30
aI15
aI20
aNaNaNaNaNaNaNag9
aa(lp93
S'MSE440'
p94
aI71789
aI3
aI28
aS'M W'
p95
aS'10:30 AM'
p96
aI10
aI30
aI11
aI45
aNaNaNaNaNaNaNag9
aa(lp97
S'MSE470'
p98
aI71790
aI0
aI18
aS'T Th'
p99
aS' 4:30 PM'
p100
aI16
aI30
aI17
aI45
aNaNaNaNaNaNaNag4
aa(lp101
S'MSE471'
p102
aI71791
aI6
aI29
aS'M W'
p103
aS' 3:00 PM'
p104
aI15
aI0
aI16
aI15
aNaNaNaNaNaNaNag9
aa(lp105
S'MSE482'
p106
aI71792
aI29
aI48
ag31
aS'10:30 AM'
p107
aI10
aI30
aI13
aI30
aNaNaNaNaNaNaNag9
aa(lp108
S'MSE489'
p109
aI90067
aI34
aI48
aS'M'
p110
aS' 4:30 PM'
p111
aI16
aI30
aI17
aI20
aNaNaNaNaNaNaNag9
aa(lp112
S'MSE492'
p113
aI74911
aI30
aI30
ag3
aNaNaNaNaNaNaNaNaNaNaNaNag9
aa(lp114
S'MSE493'
p115
aI74912
aI30
aI30
ag3
aNaNaNaNaNaNaNaNaNaNaNaNag9
aa(lp116
S'MSE494'
p117
aI77663
aI0
aI10
aS'T Th'
p118
aS'12:00 PM'
p119
aI12
aI0
aI13
aI15
aNaNaNaNaNaNaNag4
aa(lp120
S'MSE499'
p121
aI84537
aI30
aI30
ag3
aNaNaNaNaNaNaNaNaNaNaNaNag9
aa(lp122
S'MSE501'
p123
aI77440
aI5
aI10
aS'T Th'
p124
aS'12:00 PM'
p125
aI12
aI0
aI13
aI15
aNaNaNaNaNaNaNag4
aa(lp126
S'MSE502'
p127
aI82584
aI2
aI10
aS'M W'
p128
aS'12:00 PM'
p129
aI12
aI0
aI13
aI15
aNaNaNaNaNaNaNag9
aa(lp130
S'MSE513'
p131
aI71793
aI0
aI17
aS'T Th'
p132
aS' 4:30 PM'
p133
aI16
aI30
aI17
aI45
aNaNaNaNaNaNaNag4
aa(lp134
S'MSE516'
p135
aI71794
aI0
aI14
aS'M W'
p136
aS'10:30 AM'
p137
aI10
aI30
aI11
aI45
aNaNaNaNaNaNaNag4
aa(lp138
S'MSE517'
p139
aI71795
aI6
aI9
aS'M W'
p140
aS' 3:00 PM'
p141
aI15
aI0
aI16
aI15
aNaNaNaNaNaNaNag9
aa(lp142
S'MSE523'
p143
aI73829
aI34
aI50
aS'T Th'
p144
aS' 6:00 PM'
p145
aI18
aI0
aI19
aI15
aNaNaNaNaNaNaNag9
aa(lp146
S'MSE524'
p147
aI74203
aI7
aI28
aS'M W'
p148
aS' 3:00 PM'
p149
aI15
aI0
aI16
aI15
aNaNaNaNaNaNaNag9
aa(lp150
S'MSE526'
p151
aI73830
aI16
aI31
aS'M W F'
p152
aS' 9:00 AM'
p153
aI9
aI0
aI10
aI15
aNaNaNaNaNaNaNag9
aa(lp154
S'MSE550'
p155
aI71796
aI23
aI30
aS'M W'
p156
aS'10:30 AM'
p157
aI10
aI30
aI11
aI45
aNaNaNaNaNaNaNag9
aa(lp158
S'MSE552'
p159
aI72967
aI11
aI24
aS'T Th'
p160
aS' 9:00 AM'
p161
aI9
aI0
aI10
aI15
aNaNaNaNaNaNaNag9
aa(lp162
S'MSE553'
p163
aI91622
aI13
aI16
ag3
aNaNaNaNaNaNaNaNaNaNaNaNag9
aa(lp164
S'MSE571'
p165
aI84628
aI0
aI6
aS'M W'
p166
aS' 5:30 PM'
p167
aI17
aI30
aI18
aI45
aNaNaNaNaNaNaNag4
aa(lp168
S'MSE591'
p169
aI74914
aI32
aI60
ag31
aS' 1:30 PM'
p170
aI13
aI30
aI14
aI45
aNaNaNaNaNaNaNag9
aa(lp171
S'MSE592'
p172
aI74915
aI40
aI40
ag3
aNaNaNaNaNaNaNaNaNaNaNaNag9
aa(lp173
S'MSE593'
p174
aI74916
aI30
aI30
ag3
aNaNaNaNaNaNaNaNaNaNaNaNag9
aa(lp175
S'MSE595'
p176
aI74917
aI30
aI30
ag3
aNaNaNaNaNaNaNaNaNaNaNaNag9
aa(lp177
S'MSE598'
p178
aI76891
aI9
aI16
aS'T Th'
p179
aS'12:00 PM'
p180
aI12
aI0
aI13
aI15
aNaNaNaNaNaNaNag9
aa(lp181
S'MSE598'
p182
aI80047
aI1
aI7
aS'T Th'
p183
aS'10:30 AM'
p184
aI10
aI30
aI11
aI45
aNaNaNaNaNaNaNag9
aa(lp185
S'MSE598'
p186
aI86430
aI1
aI7
ag31
aS' 2:30 PM'
p187
aI14
aI30
aI15
aI20
aNaNaNaNaNaNaNag9
aa(lp188
S'MSE599'
p189
aI74918
aI29
aI30
ag3
aNaNaNaNaNaNaNaNaNaNaNaNag9
aa(lp190
S'MSE792'
p191
aI74919
aI72
aI80
ag3
aNaNaNaNaNaNaNaNaNaNaNaNag9
aa(lp192
S'MSE795'
p193
aI74920
aI30
aI30
ag3
aNaNaNaNaNaNaNaNaNaNaNaNag9
aa(lp194
S'MSE799'
p195
aI74921
aI30
aI30
ag3
aNaNaNaNaNaNaNaNaNaNaNaNag9
aa.