(lp0
(lp1
S'MTC123'
p2
aI71797
aI9
aI10
aS'W F'
p3
aS' 3:00 PM'
p4
aI15
aI0
aI15
aI50
aNaNaNaNaNaNaNaS'Not Reserved'
p5
aa(lp6
S'MTC125'
p7
aI73453
aI112
aI130
aS'M W F'
p8
aS'7:30AM'
p9
aI7
aI30
aI8
aI45
aS'T Th'
p10
aS'7:30AM'
p11
aI7
aI30
aS'8:45AM'
p12
aI8
aI45
ag5
aa(lp13
S'MTC222'
p14
aI73454
aI40
aI120
aS'M W F'
p15
aS'9:00AM'
p16
aI9
aI0
aI10
aI15
aS'T Th'
p17
aS'9:00AM'
p18
aI9
aI0
aS'10:15AM'
p19
aI10
aI15
ag5
aa(lp20
S'MTC315'
p21
aI71798
aI14
aI15
aS'T Th'
p22
aS' 2:00 PM'
p23
aI14
aI0
aI15
aI15
aNaNaNaNaNaNaNag5
aa(lp24
S'MTC320'
p25
aI89844
aI14
aI24
aS'M W'
p26
aS'10:30 AM'
p27
aI10
aI30
aI11
aI20
aNaNaNaNaNaNaNag5
aa(lp28
S'MTC323'
p29
aI71799
aI24
aI30
aS'M'
p30
aS' 3:00 PM'
p31
aI15
aI0
aI15
aI50
aNaNaNaNaNaNaNag5
aa(lp32
S'MTC422'
p33
aI71800
aI9
aI12
aS'T Th'
p34
aS' 9:00 AM'
p35
aI9
aI0
aI10
aI15
aNaNaNaNaNaNaNag5
aa(lp36
S'MTC425'
p37
aI78976
aI10
aI20
aS'M W F'
p38
aS' 9:00 AM'
p39
aI9
aI0
aI9
aI50
aNaNaNaNaNaNaNag5
aa(lp40
S'MTC436'
p41
aI83824
aI0
aI6
aS'T Th'
p42
aS'10:30 AM'
p43
aI10
aI30
aI11
aI45
aNaNaNaNaNaNaNaS'Reserved'
p44
aa(lp45
S'MTC492'
p46
aI72449
aI30
aI30
aS'ONLINE'
p47
aNaNaNaNaNaNaNaNaNaNaNaNag5
aa(lp48
S'MTC493'
p49
aI72450
aI30
aI30
ag47
aNaNaNaNaNaNaNaNaNaNaNaNag5
aa(lp50
S'MTC494'
p51
aI77659
aI10
aI14
aS'T Th'
p52
aS' 4:30 PM'
p53
aI16
aI30
aI17
aI45
aNaNaNaNaNaNaNag5
aa(lp54
S'MTC495'
p55
aI71801
aI28
aI30
ag47
aNaNaNaNaNaNaNaNaNaNaNaNag5
aa(lp56
S'MTC496'
p57
aI71802
aI30
aI30
ag47
aNaNaNaNaNaNaNaNaNaNaNaNag5
aa(lp58
S'MTC499'
p59
aI71803
aI30
aI30
ag47
aNaNaNaNaNaNaNaNaNaNaNaNag5
aa(lp60
S'MTC517'
p61
aI90471
aI13
aI20
aS'M W F'
p62
aS' 9:00 AM'
p63
aI9
aI0
aI9
aI50
aNaNaNaNaNaNaNag5
aa(lp64
S'MTC520'
p65
aI89846
aI17
aI20
aS'M W F'
p66
aS'10:30 AM'
p67
aI10
aI30
aI11
aI20
aNaNaNaNaNaNaNag5
aa(lp68
S'MTC523'
p69
aI71804
aI28
aI30
ag30
aS' 3:00 PM'
p70
aI15
aI0
aI15
aI50
aNaNaNaNaNaNaNag5
aa(lp71
S'MTC540'
p72
aI78878
aI16
aI20
ag30
aS' 6:00 PM'
p73
aI18
aI0
aI20
aI0
aNaNaNaNaNaNaNag5
aa(lp74
S'MTC590'
p75
aI71805
aI30
aI30
ag47
aNaNaNaNaNaNaNaNaNaNaNaNag5
aa(lp76
S'MTC591'
p77
aI89842
aI4
aI12
ag30
aS' 4:30 PM'
p78
aI16
aI30
aI19
aI15
aNaNaNaNaNaNaNag5
aa(lp79
S'MTC591'
p80
aI89843
aI5
aI12
aS'M W F'
p81
aS'10:30 AM'
p82
aI10
aI30
aI11
aI20
aNaNaNaNaNaNaNag5
aa(lp83
S'MTC591'
p84
aI77013
aI4
aI12
ag30
aS' 4:30 PM'
p85
aI16
aI30
aI19
aI15
aNaNaNaNaNaNaNag5
aa(lp86
S'MTC592'
p87
aI71806
aI30
aI30
ag47
aNaNaNaNaNaNaNaNaNaNaNaNag5
aa(lp88
S'MTC598'
p89
aI71807
aI11
aI14
aS'T Th'
p90
aS' 9:00 AM'
p91
aI9
aI0
aI10
aI15
aNaNaNaNaNaNaNag5
aa(lp92
S'MTC598'
p93
aI77015
aI12
aI16
aS'T Th'
p94
aS'10:30 AM'
p95
aI10
aI30
aI11
aI45
aNaNaNaNaNaNaNag5
aa(lp96
S'MTC598'
p97
aI80711
aI12
aI20
aS'M W'
p98
aS' 9:00 AM'
p99
aI9
aI0
aI10
aI15
aNaNaNaNaNaNaNag5
aa(lp100
S'MTC598'
p101
aI82426
aI9
aI20
aS'M W F'
p102
aS' 9:00 AM'
p103
aI9
aI0
aI9
aI50
aNaNaNaNaNaNaNag5
aa(lp104
S'MTC598'
p105
aI77660
aI6
aI13
aS'T Th'
p106
aS' 4:30 PM'
p107
aI16
aI30
aI17
aI45
aNaNaNaNaNaNaNag5
aa(lp108
S'MTC598'
p109
aI71808
aI2
aI6
aS'T Th'
p110
aS'10:30 AM'
p111
aI10
aI30
aI11
aI45
aNaNaNaNaNaNaNag5
aa(lp112
S'MTC598'
p113
aI84712
aI8
aI20
aS'T Th'
p114
aS' 9:00 AM'
p115
aI9
aI0
aI10
aI15
aNaNaNaNaNaNaNag5
aa(lp116
S'MTC599'
p117
aI71809
aI30
aI30
ag47
aNaNaNaNaNaNaNaNaNaNaNaNag5
aa(lp118
S'MTC723'
p119
aI71810
aI26
aI30
ag30
aS' 3:00 PM'
p120
aI15
aI0
aI15
aI50
aNaNaNaNaNaNaNag5
aa(lp121
S'MTC790'
p122
aI73022
aI30
aI30
ag47
aNaNaNaNaNaNaNaNaNaNaNaNag5
aa(lp123
S'MTC799'
p124
aI71811
aI29
aI30
ag47
aNaNaNaNaNaNaNaNaNaNaNaNag5
aa.