(lp0
(lp1
S'MUE101'
p2
aI79747
aI53
aI57
aS'F'
p3
aS' 9:00 AM'
p4
aI9
aI0
aI9
aI50
aNaNaNaNaNaNaNaS'Not Reserved'
p5
aa(lp6
S'MUE101'
p7
aI80425
aI17
aI19
aS'T'
p8
aS' 3:10 PM'
p9
aI15
aI10
aI16
aI0
aNaNaNaNaNaNaNag5
aa(lp10
S'MUE101'
p11
aI80426
aI19
aI19
aS'Th'
p12
aS' 3:10 PM'
p13
aI15
aI10
aI16
aI0
aNaNaNaNaNaNaNag5
aa(lp14
S'MUE101'
p15
aI84730
aI17
aI19
aS'W'
p16
aS' 3:10 PM'
p17
aI15
aI10
aI16
aI0
aNaNaNaNaNaNaNag5
aa(lp18
S'MUE161'
p19
aI71820
aI19
aI40
aS'T Th'
p20
aS'12:00 PM'
p21
aI12
aI0
aI12
aI50
aNaNaNaNaNaNaNaS'Reserved'
p22
aa(lp23
S'MUE194'
p24
aI91026
aI10
aI30
aS'T Th'
p25
aS' 1:00 PM'
p26
aI13
aI0
aI13
aI25
aNaNaNaNaNaNaNag5
aa(lp27
S'MUE261'
p28
aI71822
aI15
aI30
aS'T Th'
p29
aS'10:30 AM'
p30
aI10
aI30
aI11
aI20
aNaNaNaNaNaNaNag5
aa(lp31
S'MUE294'
p32
aI91028
aI14
aI30
aS'T Th'
p33
aS'11:20 AM'
p34
aI11
aI20
aI11
aI50
aNaNaNaNaNaNaNag5
aa(lp35
S'MUE311'
p36
aI70380
aI6
aI30
aS'M W'
p37
aS' 1:30 PM'
p38
aI13
aI30
aI14
aI45
aNaNaNaNaNaNaNag5
aa(lp39
S'MUE317'
p40
aI71825
aI10
aI12
aS'M W F'
p41
aS' 7:30 AM'
p42
aI7
aI30
aI8
aI20
aNaNaNaNaNaNaNag5
aa(lp43
S'MUE319'
p44
aI83825
aI7
aI30
aS'M W F'
p45
aS' 7:30 AM'
p46
aI7
aI30
aI8
aI20
aNaNaNaNaNaNaNag5
aa(lp47
S'MUE327'
p48
aI77498
aI0
aI15
aS'M W F'
p49
aS'10:30 AM'
p50
aI10
aI30
aI11
aI20
aNaNaNaNaNaNaNag22
aa(lp51
S'MUE335'
p52
aI71826
aI11
aI15
aS'M W F'
p53
aS' 7:30 AM'
p54
aI7
aI30
aI8
aI20
aNaNaNaNaNaNaNag5
aa(lp55
S'MUE336'
p56
aI71827
aI5
aI12
aS'M W F'
p57
aS' 7:30 AM'
p58
aI7
aI30
aI8
aI20
aNaNaNaNaNaNaNag5
aa(lp59
S'MUE337'
p60
aI71828
aI4
aI15
aS'M W F'
p61
aS'10:30 AM'
p62
aI10
aI30
aI11
aI20
aNaNaNaNaNaNaNag5
aa(lp63
S'MUE384'
p64
aI71830
aI23
aI30
ag3
aS' 3:00 PM'
p65
aI15
aI0
aI15
aI50
aNaNaNaNaNaNaNag5
aa(lp66
S'MUE385'
p67
aI71831
aI22
aI30
ag3
aS' 3:00 PM'
p68
aI15
aI0
aI15
aI50
aNaNaNaNaNaNaNag5
aa(lp69
S'MUE386'
p70
aI71832
aI28
aI30
ag3
aS' 3:00 PM'
p71
aI15
aI0
aI15
aI50
aNaNaNaNaNaNaNag5
aa(lp72
S'MUE387'
p73
aI71833
aI25
aI30
ag3
aS' 3:00 PM'
p74
aI15
aI0
aI15
aI50
aNaNaNaNaNaNaNag5
aa(lp75
S'MUE388'
p76
aI71834
aI30
aI30
ag3
aS' 3:00 PM'
p77
aI15
aI0
aI15
aI50
aNaNaNaNaNaNaNag5
aa(lp78
S'MUE394'
p79
aI80194
aI12
aI15
aS'M W F'
p80
aS' 7:30 AM'
p81
aI7
aI30
aI8
aI20
aNaNaNaNaNaNaNag5
aa(lp82
S'MUE394'
p83
aI78874
aI17
aI18
aS'M W F'
p84
aS'10:30 AM'
p85
aI10
aI30
aI11
aI20
aNaNaNaNaNaNaNag5
aa(lp86
S'MUE394'
p87
aI82414
aI8
aI12
aS'M W F'
p88
aS'10:30 AM'
p89
aI10
aI30
aI11
aI20
aNaNaNaNaNaNaNag5
aa(lp90
S'MUE413'
p91
aI71823
aI11
aI24
aS'T Th'
p92
aS' 8:30 AM'
p93
aI8
aI30
aI10
aI20
aNaNaNaNaNaNaNag5
aa(lp94
S'MUE415'
p95
aI71824
aI6
aI15
aS'T Th'
p96
aS' 8:30 AM'
p97
aI8
aI30
aI10
aI20
aNaNaNaNaNaNaNag5
aa(lp98
S'MUE436'
p99
aI77150
aI12
aI15
aS'M W'
p100
aS'10:30 AM'
p101
aI10
aI30
aI11
aI20
aNaNaNaNaNaNaNag5
aa(lp102
S'MUE465'
p103
aI80240
aI1
aI15
ag3
aS' 9:00 AM'
p104
aI9
aI0
aI11
aI45
aNaNaNaNaNaNaNag5
aa(lp105
S'MUE467'
p106
aI71829
aI17
aI30
aS'M W'
p107
aS' 9:00 AM'
p108
aI9
aI0
aI10
aI15
aNaNaNaNaNaNaNag5
aa(lp109
S'MUE475'
p110
aI71835
aI26
aI30
ag3
aS'12:00 PM'
p111
aI12
aI0
aI12
aI50
aNaNaNaNaNaNaNag5
aa(lp112
S'MUE476'
p113
aI71836
aI26
aI30
ag3
aS' 2:00 PM'
p114
aI14
aI0
aI14
aI50
aNaNaNaNaNaNaNag5
aa(lp115
S'MUE481'
p116
aI71837
aI10
aI20
aS'T Th'
p117
aS' 8:30 AM'
p118
aI8
aI30
aI10
aI20
aNaNaNaNaNaNaNag5
aa(lp119
S'MUE484'
p120
aI74271
aI15
aI20
aS'ONLINE'
p121
aNaNaNaNaNaNaNaNaNaNaNaNag5
aa(lp122
S'MUE492'
p123
aI71838
aI30
aI30
ag121
aNaNaNaNaNaNaNaNaNaNaNaNag5
aa(lp124
S'MUE492'
p125
aI88350
aI30
aI30
ag121
aNaNaNaNaNaNaNaNaNaNaNaNag5
aa(lp126
S'MUE493'
p127
aI71839
aI29
aI30
ag121
aNaNaNaNaNaNaNaNaNaNaNaNag5
aa(lp128
S'MUE493'
p129
aI88353
aI29
aI30
ag121
aNaNaNaNaNaNaNaNaNaNaNaNag5
aa(lp130
S'MUE494'
p131
aI76327
aI14
aI15
aS'Th'
p132
aS' 7:30 PM'
p133
aI19
aI30
aI21
aI10
aNaNaNaNaNaNaNag5
aa(lp134
S'MUE499'
p135
aI71840
aI30
aI30
ag121
aNaNaNaNaNaNaNaNaNaNaNaNag5
aa(lp136
S'MUE499'
p137
aI86250
aI30
aI30
ag121
aNaNaNaNaNaNaNaNaNaNaNaNag5
aa(lp138
S'MUE536'
p139
aI77151
aI14
aI15
aS'M W'
p140
aS'10:30 AM'
p141
aI10
aI30
aI11
aI20
aNaNaNaNaNaNaNag5
aa(lp142
S'MUE548'
p143
aI71841
aI15
aI20
ag16
aS' 4:30 PM'
p144
aI16
aI30
aI19
aI15
aNaNaNaNaNaNaNag5
aa(lp145
S'MUE550'
p146
aI88375
aI23
aI27
ag16
aS' 4:30 PM'
p147
aI16
aI30
aI19
aI15
aNaNaNaNaNaNaNag5
aa(lp148
S'MUE565'
p149
aI78245
aI14
aI15
ag3
aS' 9:00 AM'
p150
aI9
aI0
aI11
aI45
aNaNaNaNaNaNaNag5
aa(lp151
S'MUE567'
p152
aI76081
aI29
aI30
aS'M W'
p153
aS' 9:00 AM'
p154
aI9
aI0
aI10
aI15
aNaNaNaNaNaNaNag5
aa(lp155
S'MUE579'
p156
aI71842
aI16
aI18
aS'M'
p157
aS' 4:30 PM'
p158
aI16
aI30
aI19
aI15
aNaNaNaNaNaNaNag5
aa(lp159
S'MUE580'
p160
aI71843
aI15
aI15
ag121
aNaNaNaNaNaNaNaNaNaNaNaNag5
aa(lp161
S'MUE580'
p162
aI74272
aI15
aI15
ag121
aNaNaNaNaNaNaNaNaNaNaNaNag5
aa(lp163
S'MUE581'
p164
aI76208
aI30
aI30
aS'M W'
p165
aS' 9:00 AM'
p166
aI9
aI0
aI10
aI15
aNaNaNaNaNaNaNag5
aa(lp167
S'MUE584'
p168
aI71844
aI27
aI30
ag121
aNaNaNaNaNaNaNaNaNaNaNaNag5
aa(lp169
S'MUE586'
p170
aI74191
aI10
aI10
ag3
aS' 4:30 PM'
p171
aI16
aI30
aI17
aI20
aNaNaNaNaNaNaNag5
aa(lp172
S'MUE590'
p173
aI71845
aI56
aI60
ag121
aNaNaNaNaNaNaNaNaNaNaNaNag5
aa(lp174
S'MUE590'
p175
aI86251
aI30
aI30
ag121
aNaNaNaNaNaNaNaNaNaNaNaNag5
aa(lp176
S'MUE598'
p177
aI82411
aI15
aI16
ag8
aS' 4:30 PM'
p178
aI16
aI30
aI19
aI15
aNaNaNaNaNaNaNag5
aa(lp179
S'MUE598'
p180
aI76328
aI14
aI15
aS'Th'
p181
aS' 7:30 PM'
p182
aI19
aI30
aI21
aI10
aNaNaNaNaNaNaNag5
aa(lp183
S'MUE599'
p184
aI74978
aI30
aI30
ag121
aNaNaNaNaNaNaNaNaNaNaNaNag5
aa(lp185
S'MUE599'
p186
aI86253
aI30
aI30
ag121
aNaNaNaNaNaNaNaNaNaNaNaNag5
aa(lp187
S'MUE754'
p188
aI88377
aI13
aI15
aS'Th'
p189
aS' 4:30 PM'
p190
aI16
aI30
aI19
aI15
aNaNaNaNaNaNaNag5
aa(lp191
S'MUE780'
p192
aI71846
aI30
aI30
ag121
aNaNaNaNaNaNaNaNaNaNaNaNag5
aa(lp193
S'MUE784'
p194
aI71847
aI29
aI30
ag121
aNaNaNaNaNaNaNaNaNaNaNaNag5
aa(lp195
S'MUE790'
p196
aI71848
aI50
aI50
ag121
aNaNaNaNaNaNaNaNaNaNaNaNag5
aa(lp197
S'MUE791'
p198
aI71849
aI30
aI30
ag8
aS'12:00 PM'
p199
aI12
aI0
aI12
aI50
aNaNaNaNaNaNaNag5
aa(lp200
S'MUE792'
p201
aI80506
aI8
aI10
ag121
aNaNaNaNaNaNaNaNaNaNaNaNag5
aa(lp202
S'MUE799'
p203
aI71850
aI56
aI60
ag121
aNaNaNaNaNaNaNaNaNaNaNaNag5
aa.