(lp0
(lp1
S'MUP101'
p2
aI79918
aI74
aI76
aS'F'
p3
aS' 9:00 AM'
p4
aI9
aI0
aI9
aI50
aNaNaNaNaNaNaNaS'Not Reserved'
p5
aa(lp6
S'MUP101'
p7
aI79919
aI18
aI19
aS'M'
p8
aS' 4:30 PM'
p9
aI16
aI30
aI17
aI20
aNaNaNaNaNaNaNag5
aa(lp10
S'MUP101'
p11
aI85632
aI18
aI19
aS'W'
p12
aS'12:00 PM'
p13
aI12
aI0
aI12
aI50
aNaNaNaNaNaNaNag5
aa(lp14
S'MUP111'
p15
aI72468
aI7
aI10
ag12
aS'12:00 PM'
p16
aI12
aI0
aI12
aI50
aNaNaNaNaNaNaNag5
aa(lp17
S'MUP111'
p18
aI72470
aI6
aI10
aS'M W'
p19
aS'12:00 PM'
p20
aI12
aI0
aI12
aI50
aNaNaNaNaNaNaNag5
aa(lp21
S'MUP111'
p22
aI72471
aI8
aI10
aS'W Th F'
p23
aS'12:00 PM'
p24
aI12
aI0
aI12
aI50
aNaNaNaNaNaNaNag5
aa(lp25
S'MUP111'
p26
aI72472
aI9
aI10
aS'M W'
p27
aS'12:00PM'
p28
aI12
aI0
aI12
aI50
ag3
aS'12:00PM'
p29
aI12
aI0
aS'12:50PM'
p30
aI12
aI50
ag5
aa(lp31
S'MUP111'
p32
aI72473
aI10
aI10
aS'M W'
p33
aS'12:00PM'
p34
aI12
aI0
aI12
aI50
ag3
aS'12:00PM'
p35
aI12
aI0
aS'12:50PM'
p36
aI12
aI50
ag5
aa(lp37
S'MUP111'
p38
aI73149
aI9
aI10
aS'ONLINE'
p39
aNaNaNaNaNag12
aNaNaNaNaNaNag5
aa(lp40
S'MUP111'
p41
aI72985
aI7
aI10
ag39
aNaNaNaNaNag12
aNaNaNaNaNaNag5
aa(lp42
S'MUP111'
p43
aI77972
aI9
aI10
ag39
aNaNaNaNaNag12
aNaNaNaNaNaNag5
aa(lp44
S'MUP111'
p45
aI72986
aI10
aI10
ag39
aNaNaNaNaNag12
aNaNaNaNaNaNag5
aa(lp46
S'MUP111'
p47
aI72482
aI10
aI10
ag39
aNaNaNaNaNag12
aNaNaNaNaNaNag5
aa(lp48
S'MUP111'
p49
aI72458
aI10
aI10
ag39
aNaNaNaNaNag12
aNaNaNaNaNaNag5
aa(lp50
S'MUP111'
p51
aI72987
aI9
aI10
ag39
aNaNaNaNaNag12
aNaNaNaNaNaNag5
aa(lp52
S'MUP111'
p53
aI72447
aI7
aI10
ag39
aNaNaNaNaNag12
aNaNaNaNaNaNag5
aa(lp54
S'MUP111'
p55
aI72453
aI10
aI10
ag39
aNaNaNaNaNag12
aNaNaNaNaNaNag5
aa(lp56
S'MUP111'
p57
aI72454
aI5
aI10
ag39
aNaNaNaNaNag12
aNaNaNaNaNaNag5
aa(lp58
S'MUP111'
p59
aI72455
aI9
aI10
ag39
aNaNaNaNaNag12
aNaNaNaNaNaNag5
aa(lp60
S'MUP111'
p61
aI72456
aI10
aI10
ag39
aNaNaNaNaNag12
aNaNaNaNaNaNag5
aa(lp62
S'MUP111'
p63
aI72474
aI6
aI10
ag12
aS'11:50AM'
p64
aI11
aI50
aI12
aI40
ag12
aS'12:00PM'
p65
aI12
aI0
aS'12:50PM'
p66
aI12
aI50
ag5
aa(lp67
S'MUP111'
p68
aI72475
aI9
aI10
aS'Th'
p69
aS'12:45PM'
p70
aI12
aI45
aI14
aI45
ag12
aS'12:00PM'
p71
aI12
aI0
aS'12:50PM'
p72
aI12
aI50
ag5
aa(lp73
S'MUP111'
p74
aI72476
aI10
aI10
aS'Th'
p75
aS'3:00PM'
p76
aI15
aI0
aI17
aI0
ag12
aS'12:00PM'
p77
aI12
aI0
aS'12:50PM'
p78
aI12
aI50
ag5
aa(lp79
S'MUP111'
p80
aI72477
aI8
aI10
aS'Th'
p81
aS'3:15PM'
p82
aI15
aI15
aI17
aI15
ag12
aS'12:00PM'
p83
aI12
aI0
aS'12:50PM'
p84
aI12
aI50
ag5
aa(lp85
S'MUP111'
p86
aI72478
aI8
aI10
aS'Th'
p87
aS'1:30PM'
p88
aI13
aI30
aI14
aI45
ag12
aS'12:00PM'
p89
aI12
aI0
aS'12:50PM'
p90
aI12
aI50
ag5
aa(lp91
S'MUP111'
p92
aI72479
aI9
aI10
aS'Th'
p93
aS'1:30PM'
p94
aI13
aI30
aI15
aI0
ag12
aS'12:00PM'
p95
aI12
aI0
aS'12:50PM'
p96
aI12
aI50
ag5
aa(lp97
S'MUP111'
p98
aI72480
aI10
aI10
aS'T'
p99
aS'1:00PM'
p100
aI13
aI0
aI15
aI0
ag12
aS'12:00PM'
p101
aI12
aI0
aS'12:50PM'
p102
aI12
aI50
ag5
aa(lp103
S'MUP111'
p104
aI72481
aI6
aI10
ag39
aNaNaNaNaNag12
aNaNaNaNaNaNag5
aa(lp105
S'MUP111'
p106
aI72483
aI9
aI10
ag99
aS'4:15PM'
p107
aI16
aI15
aI18
aI15
ag12
aS'12:00PM'
p108
aI12
aI0
aS'12:50PM'
p109
aI12
aI50
ag5
aa(lp110
S'MUP111'
p111
aI72459
aI7
aI10
aS'W F'
p112
aS'12:00 PM'
p113
aI12
aI0
aI12
aI50
aNaNaNaNaNaNaNag5
aa(lp114
S'MUP111'
p115
aI81176
aI10
aI10
ag3
aS'12:00PM'
p116
aI12
aI0
aI14
aI0
ag12
aS'12:00PM'
p117
aI12
aI0
aS'12:50PM'
p118
aI12
aI50
ag5
aa(lp119
S'MUP111'
p120
aI72461
aI6
aI10
aS'W F'
p121
aS'12:00 PM'
p122
aI12
aI0
aI12
aI50
aNaNaNaNaNaNaNag5
aa(lp123
S'MUP111'
p124
aI72460
aI7
aI10
aS'W F'
p125
aS'12:00 PM'
p126
aI12
aI0
aI12
aI50
aNaNaNaNaNaNaNag5
aa(lp127
S'MUP111'
p128
aI72462
aI14
aI30
aS'W F'
p129
aS'12:00PM'
p130
aI12
aI0
aI12
aI50
ag12
aS'12:00PM'
p131
aI12
aI0
aS'12:50PM'
p132
aI12
aI50
ag5
aa(lp133
S'MUP111'
p134
aI72463
aI5
aI10
aS'M F'
p135
aS'12:00PM'
p136
aI12
aI0
aI12
aI50
ag12
aS'12:00PM'
p137
aI12
aI0
aS'12:50PM'
p138
aI12
aI50
ag5
aa(lp139
S'MUP111'
p140
aI72464
aI10
aI10
ag3
aS'12:00PM'
p141
aI12
aI0
aI12
aI50
ag12
aS'12:00PM'
p142
aI12
aI0
aS'12:50PM'
p143
aI12
aI50
ag5
aa(lp144
S'MUP111'
p145
aI72465
aI7
aI15
ag8
aS'12:00PM'
p146
aI12
aI0
aI12
aI50
ag12
aS'12:00PM'
p147
aI12
aI0
aS'12:50PM'
p148
aI12
aI50
ag5
aa(lp149
S'MUP111'
p150
aI72466
aI9
aI10
ag12
aS' 3:00 PM'
p151
aI15
aI0
aI16
aI45
aNaNaNaNaNaNaNag5
aa(lp152
S'MUP111'
p153
aI72467
aI9
aI10
ag8
aS'12:00PM'
p154
aI12
aI0
aI12
aI50
ag3
aS'12:00PM'
p155
aI12
aI0
aS'12:50PM'
p156
aI12
aI50
ag5
aa(lp157
S'MUP117'
p158
aI72888
aI28
aI30
aS'T Th'
p159
aS'12:00 PM'
p160
aI12
aI0
aI12
aI50
aNaNaNaNaNaNaNag5
aa(lp161
S'MUP121'
p162
aI71856
aI29
aI30
ag39
aNaNaNaNaNaNaNaNaNaNaNaNag5
aa(lp163
S'MUP121'
p164
aI71857
aI30
aI30
ag39
aNaNaNaNaNaNaNaNaNaNaNaNag5
aa(lp165
S'MUP121'
p166
aI71858
aI30
aI30
ag39
aNaNaNaNaNaNaNaNaNaNaNaNag5
aa(lp167
S'MUP121'
p168
aI71859
aI30
aI30
ag39
aNaNaNaNaNaNaNaNaNaNaNaNag5
aa(lp169
S'MUP121'
p170
aI71860
aI30
aI30
ag39
aNaNaNaNaNaNaNaNaNaNaNaNag5
aa(lp171
S'MUP121'
p172
aI85647
aI9
aI10
ag39
aNaNaNaNaNaNaNaNaNaNaNaNag5
aa(lp173
S'MUP121'
p174
aI85648
aI10
aI10
ag39
aNaNaNaNaNaNaNaNaNaNaNaNag5
aa(lp175
S'MUP121'
p176
aI80938
aI30
aI30
ag39
aNaNaNaNaNaNaNaNaNaNaNaNag5
aa(lp177
S'MUP121'
p178
aI80939
aI30
aI30
ag39
aNaNaNaNaNaNaNaNaNaNaNaNag5
aa(lp179
S'MUP121'
p180
aI80940
aI29
aI30
ag39
aNaNaNaNaNaNaNaNaNaNaNaNag5
aa(lp181
S'MUP121'
p182
aI71862
aI29
aI30
ag39
aNaNaNaNaNaNaNaNaNaNaNaNag5
aa(lp183
S'MUP121'
p184
aI71863
aI30
aI30
ag39
aNaNaNaNaNaNaNaNaNaNaNaNag5
aa(lp185
S'MUP121'
p186
aI71864
aI29
aI30
ag39
aNaNaNaNaNaNaNaNaNaNaNaNag5
aa(lp187
S'MUP121'
p188
aI71865
aI29
aI30
ag39
aNaNaNaNaNaNaNaNaNaNaNaNag5
aa(lp189
S'MUP121'
p190
aI71866
aI29
aI30
ag39
aNaNaNaNaNaNaNaNaNaNaNaNag5
aa(lp191
S'MUP121'
p192
aI90920
aI5
aI5
ag39
aNaNaNaNaNaNaNaNaNaNaNaNag5
aa(lp193
S'MUP121'
p194
aI71861
aI30
aI30
ag12
aS'11:50 AM'
p195
aI11
aI50
aI12
aI40
aNaNaNaNaNaNaNag5
aa(lp196
S'MUP121'
p197
aI72516
aI30
aI30
ag39
aNaNaNaNaNaNaNaNaNaNaNaNag5
aa(lp198
S'MUP121'
p199
aI72517
aI30
aI30
ag39
aNaNaNaNaNaNaNaNaNaNaNaNag5
aa(lp200
S'MUP121'
p201
aI72518
aI30
aI30
ag39
aNaNaNaNaNaNaNaNaNaNaNaNag5
aa(lp202
S'MUP121'
p203
aI72519
aI30
aI30
ag39
aNaNaNaNaNaNaNaNaNaNaNaNag5
aa(lp204
S'MUP121'
p205
aI72520
aI29
aI30
ag39
aNaNaNaNaNaNaNaNaNaNaNaNag5
aa(lp206
S'MUP121'
p207
aI72521
aI30
aI30
ag39
aNaNaNaNaNaNaNaNaNaNaNaNag5
aa(lp208
S'MUP121'
p209
aI72522
aI0
aI2
ag39
aNaNaNaNaNaNaNaNaNaNaNaNaS'Reserved'
p210
aa(lp211
S'MUP121'
p212
aI72523
aI30
aI30
ag39
aNaNaNaNaNaNaNaNaNaNaNaNag5
aa(lp213
S'MUP121'
p214
aI71867
aI30
aI30
ag39
aNaNaNaNaNaNaNaNaNaNaNaNag5
aa(lp215
S'MUP121'
p216
aI71869
aI30
aI30
ag39
aNaNaNaNaNaNaNaNaNaNaNaNag5
aa(lp217
S'MUP121'
p218
aI71868
aI30
aI30
ag39
aNaNaNaNaNaNaNaNaNaNaNaNag5
aa(lp219
S'MUP121'
p220
aI71870
aI27
aI30
ag39
aNaNaNaNaNaNaNaNaNaNaNaNag5
aa(lp221
S'MUP121'
p222
aI71851
aI29
aI30
ag39
aNaNaNaNaNaNaNaNaNaNaNaNag5
aa(lp223
S'MUP121'
p224
aI71852
aI30
aI30
ag39
aNaNaNaNaNaNaNaNaNaNaNaNag5
aa(lp225
S'MUP121'
p226
aI71853
aI5
aI5
ag8
aS'12:00PM'
p227
aI12
aI0
aI12
aI50
ag12
aS'12:00PM'
p228
aI12
aI0
aS'12:50PM'
p229
aI12
aI50
ag5
aa(lp230
S'MUP121'
p231
aI71854
aI30
aI30
ag39
aNaNaNaNaNaNaNaNaNaNaNaNag5
aa(lp232
S'MUP121'
p233
aI71855
aI30
aI30
ag39
aNaNaNaNaNaNaNaNaNaNaNaNag5
aa(lp234
S'MUP127'
p235
aI71885
aI30
aI30
ag12
aS'12:00 PM'
p236
aI12
aI0
aI12
aI50
aNaNaNaNaNaNaNag5
aa(lp237
S'MUP127'
p238
aI71886
aI28
aI30
aS'M W'
p239
aS'12:00 PM'
p240
aI12
aI0
aI12
aI50
aNaNaNaNaNaNaNag5
aa(lp241
S'MUP127'
p242
aI71887
aI28
aI30
aS'W Th F'
p243
aS'12:00 PM'
p244
aI12
aI0
aI12
aI50
aNaNaNaNaNaNaNag5
aa(lp245
S'MUP127'
p246
aI71888
aI28
aI30
aS'M W'
p247
aS'12:00PM'
p248
aI12
aI0
aI12
aI50
ag3
aS'12:00PM'
p249
aI12
aI0
aS'12:50PM'
p250
aI12
aI50
ag5
aa(lp251
S'MUP127'
p252
aI71889
aI30
aI30
aS'M W'
p253
aS'12:00PM'
p254
aI12
aI0
aI12
aI50
ag3
aS'12:00PM'
p255
aI12
aI0
aS'12:50PM'
p256
aI12
aI50
ag5
aa(lp257
S'MUP127'
p258
aI71871
aI29
aI30
ag39
aNaNaNaNaNag12
aNaNaNaNaNaNag5
aa(lp259
S'MUP127'
p260
aI71872
aI29
aI30
ag39
aNaNaNaNaNag12
aNaNaNaNaNaNag5
aa(lp261
S'MUP127'
p262
aI71873
aI28
aI30
ag39
aNaNaNaNaNag12
aNaNaNaNaNaNag5
aa(lp263
S'MUP127'
p264
aI71874
aI28
aI30
ag39
aNaNaNaNaNag12
aNaNaNaNaNaNag5
aa(lp265
S'MUP127'
p266
aI76510
aI10
aI10
ag39
aNaNaNaNaNag12
aNaNaNaNaNaNag5
aa(lp267
S'MUP127'
p268
aI71875
aI29
aI30
ag39
aNaNaNaNaNag12
aNaNaNaNaNaNag5
aa(lp269
S'MUP127'
p270
aI71890
aI28
aI30
ag12
aS'11:50AM'
p271
aI11
aI50
aI12
aI40
ag12
aS'12:00PM'
p272
aI12
aI0
aS'12:50PM'
p273
aI12
aI50
ag5
aa(lp274
S'MUP127'
p275
aI71891
aI28
aI30
aS'Th'
p276
aS'12:45PM'
p277
aI12
aI45
aI14
aI45
ag12
aS'12:00PM'
p278
aI12
aI0
aS'12:50PM'
p279
aI12
aI50
ag5
aa(lp280
S'MUP127'
p281
aI71892
aI28
aI30
aS'Th'
p282
aS'3:00PM'
p283
aI15
aI0
aI17
aI0
ag12
aS'12:00PM'
p284
aI12
aI0
aS'12:50PM'
p285
aI12
aI50
ag5
aa(lp286
S'MUP127'
p287
aI71893
aI28
aI30
aS'Th'
p288
aS'3:15PM'
p289
aI15
aI15
aI17
aI15
ag12
aS'12:00PM'
p290
aI12
aI0
aS'12:50PM'
p291
aI12
aI50
ag5
aa(lp292
S'MUP127'
p293
aI71894
aI29
aI30
aS'Th'
p294
aS'1:30PM'
p295
aI13
aI30
aI14
aI45
ag12
aS'12:00PM'
p296
aI12
aI0
aS'12:50PM'
p297
aI12
aI50
ag5
aa(lp298
S'MUP127'
p299
aI71895
aI28
aI30
aS'Th'
p300
aS'1:00PM'
p301
aI13
aI0
aI15
aI0
ag12
aS'12:00PM'
p302
aI12
aI0
aS'12:50PM'
p303
aI12
aI50
ag5
aa(lp304
S'MUP127'
p305
aI71896
aI26
aI30
ag99
aS'1:00PM'
p306
aI13
aI0
aI15
aI0
ag12
aS'12:00PM'
p307
aI12
aI0
aS'12:50PM'
p308
aI12
aI50
ag5
aa(lp309
S'MUP127'
p310
aI71897
aI30
aI30
ag39
aNaNaNaNaNag12
aNaNaNaNaNaNag5
aa(lp311
S'MUP127'
p312
aI72524
aI30
aI30
ag99
aS'4:15PM'
p313
aI16
aI15
aI18
aI15
ag12
aS'12:00PM'
p314
aI12
aI0
aS'12:50PM'
p315
aI12
aI50
ag5
aa(lp316
S'MUP127'
p317
aI71876
aI27
aI30
aS'W F'
p318
aS'12:00 PM'
p319
aI12
aI0
aI12
aI50
aNaNaNaNaNaNaNag5
aa(lp320
S'MUP127'
p321
aI81178
aI30
aI30
ag3
aS'12:00PM'
p322
aI12
aI0
aI14
aI0
ag12
aS'12:00PM'
p323
aI12
aI0
aS'12:50PM'
p324
aI12
aI50
ag5
aa(lp325
S'MUP127'
p326
aI71878
aI30
aI30
aS'W F'
p327
aS'12:00 PM'
p328
aI12
aI0
aI12
aI50
aNaNaNaNaNaNaNag5
aa(lp329
S'MUP127'
p330
aI71877
aI30
aI30
aS'W F'
p331
aS'12:00 PM'
p332
aI12
aI0
aI12
aI50
aNaNaNaNaNaNaNag5
aa(lp333
S'MUP127'
p334
aI71879
aI29
aI30
aS'W F'
p335
aS'12:00PM'
p336
aI12
aI0
aI12
aI50
ag12
aS'12:00PM'
p337
aI12
aI0
aS'12:50PM'
p338
aI12
aI50
ag5
aa(lp339
S'MUP127'
p340
aI71880
aI8
aI10
aS'M F'
p341
aS'12:00PM'
p342
aI12
aI0
aI12
aI50
ag12
aS'12:00PM'
p343
aI12
aI0
aS'12:50PM'
p344
aI12
aI50
ag5
aa(lp345
S'MUP127'
p346
aI71881
aI7
aI10
ag3
aS'12:00PM'
p347
aI12
aI0
aI12
aI50
ag12
aS'12:00PM'
p348
aI12
aI0
aS'12:50PM'
p349
aI12
aI50
ag5
aa(lp350
S'MUP127'
p351
aI71882
aI4
aI5
ag8
aS'12:00PM'
p352
aI12
aI0
aI12
aI50
ag12
aS'12:00PM'
p353
aI12
aI0
aS'12:50PM'
p354
aI12
aI50
ag5
aa(lp355
S'MUP127'
p356
aI71883
aI9
aI10
ag12
aS' 3:00 PM'
p357
aI15
aI0
aI16
aI45
aNaNaNaNaNaNaNag5
aa(lp358
S'MUP127'
p359
aI71884
aI9
aI10
ag8
aS'12:00PM'
p360
aI12
aI0
aI12
aI50
ag3
aS'12:00PM'
p361
aI12
aI0
aS'12:50PM'
p362
aI12
aI50
ag5
aa(lp363
S'MUP131'
p364
aI73150
aI1
aI12
aS'M W'
p365
aS' 9:00 AM'
p366
aI9
aI0
aI9
aI50
aNaNaNaNaNaNaNag5
aa(lp367
S'MUP131'
p368
aI85394
aI12
aI12
aS'M W'
p369
aS' 3:00 PM'
p370
aI15
aI0
aI15
aI50
aNaNaNaNaNaNaNag5
aa(lp371
S'MUP131'
p372
aI73154
aI12
aI12
aS'M W'
p373
aS' 4:30 PM'
p374
aI16
aI30
aI17
aI20
aNaNaNaNaNaNaNag5
aa(lp375
S'MUP131'
p376
aI71898
aI12
aI12
aS'T Th'
p377
aS' 9:00 AM'
p378
aI9
aI0
aI9
aI50
aNaNaNaNaNaNaNag5
aa(lp379
S'MUP131'
p380
aI73151
aI8
aI12
aS'T Th'
p381
aS'10:30 AM'
p382
aI10
aI30
aI11
aI20
aNaNaNaNaNaNaNag5
aa(lp383
S'MUP131'
p384
aI73152
aI12
aI12
aS'T Th'
p385
aS'10:30 AM'
p386
aI10
aI30
aI11
aI20
aNaNaNaNaNaNaNag5
aa(lp387
S'MUP131'
p388
aI84700
aI11
aI12
aS'T Th'
p389
aS' 4:30 PM'
p390
aI16
aI30
aI17
aI20
aNaNaNaNaNaNaNag5
aa(lp391
S'MUP133'
p392
aI70381
aI0
aI12
aS'T Th'
p393
aS'12:00 PM'
p394
aI12
aI0
aI12
aI50
aNaNaNaNaNaNaNag210
aa(lp395
S'MUP170'
p396
aI86169
aI9
aI15
aS'M T W Th'
p397
aS' 1:30 PM'
p398
aI13
aI30
aI14
aI45
aNaNaNaNaNaNaNag5
aa(lp399
S'MUP209'
p400
aI71899
aI10
aI20
aS'T Th'
p401
aS'12:00 PM'
p402
aI12
aI0
aI12
aI50
aNaNaNaNaNaNaNag5
aa(lp403
S'MUP210'
p404
aI71900
aI0
aI20
aS'T Th'
p405
aS' 9:00 AM'
p406
aI9
aI0
aI9
aI50
aNaNaNaNaNaNaNag210
aa(lp407
S'MUP217'
p408
aI73546
aI9
aI15
aS'T Th'
p409
aS' 1:00 PM'
p410
aI13
aI0
aI13
aI50
aNaNaNaNaNaNaNag5
aa(lp411
S'MUP231'
p412
aI71902
aI9
aI12
aS'M W'
p413
aS' 7:30 AM'
p414
aI7
aI30
aI8
aI20
aNaNaNaNaNaNaNag5
aa(lp415
S'MUP231'
p416
aI88400
aI8
aI12
aS'M W'
p417
aS' 9:00 AM'
p418
aI9
aI0
aI9
aI50
aNaNaNaNaNaNaNag5
aa(lp419
S'MUP231'
p420
aI71903
aI2
aI12
aS'M W'
p421
aS'10:30 AM'
p422
aI10
aI30
aI11
aI20
aNaNaNaNaNaNaNag5
aa(lp423
S'MUP231'
p424
aI88417
aI6
aI12
aS'M W'
p425
aS' 6:00 PM'
p426
aI18
aI0
aI18
aI50
aNaNaNaNaNaNaNag5
aa(lp427
S'MUP231'
p428
aI88401
aI0
aI12
aS'T Th'
p429
aS'12:00 PM'
p430
aI12
aI0
aI12
aI50
aNaNaNaNaNaNaNag210
aa(lp431
S'MUP231'
p432
aI71901
aI6
aI12
aS'T Th'
p433
aS' 1:30 PM'
p434
aI13
aI30
aI14
aI20
aNaNaNaNaNaNaNag5
aa(lp435
S'MUP231'
p436
aI71904
aI0
aI12
aS'T Th'
p437
aS' 4:30 PM'
p438
aI16
aI30
aI17
aI20
aNaNaNaNaNaNaNag210
aa(lp439
S'MUP235'
p440
aI73586
aI10
aI10
aS'T Th'
p441
aS'12:00 PM'
p442
aI12
aI0
aI12
aI50
aNaNaNaNaNaNaNag5
aa(lp443
S'MUP250'
p444
aI71905
aI7
aI20
aS'T Th'
p445
aS' 3:00 PM'
p446
aI15
aI0
aI15
aI50
aNaNaNaNaNaNaNag5
aa(lp447
S'MUP270'
p448
aI86138
aI8
aI15
aS'M T W Th'
p449
aS' 3:00 PM'
p450
aI15
aI0
aI16
aI15
aNaNaNaNaNaNaNag5
aa(lp451
S'MUP311'
p452
aI71920
aI28
aI30
ag12
aS'12:00 PM'
p453
aI12
aI0
aI12
aI50
aNaNaNaNaNaNaNag5
aa(lp454
S'MUP311'
p455
aI71921
aI27
aI30
aS'M W'
p456
aS'12:00 PM'
p457
aI12
aI0
aI12
aI50
aNaNaNaNaNaNaNag5
aa(lp458
S'MUP311'
p459
aI71922
aI28
aI30
aS'W Th F'
p460
aS'12:00 PM'
p461
aI12
aI0
aI12
aI50
aNaNaNaNaNaNaNag5
aa(lp462
S'MUP311'
p463
aI71923
aI25
aI30
aS'M W'
p464
aS'12:00PM'
p465
aI12
aI0
aI12
aI50
ag3
aS'12:00PM'
p466
aI12
aI0
aS'12:50PM'
p467
aI12
aI50
ag5
aa(lp468
S'MUP311'
p469
aI71924
aI29
aI30
aS'M W'
p470
aS'12:00PM'
p471
aI12
aI0
aI12
aI50
ag3
aS'12:00PM'
p472
aI12
aI0
aS'12:50PM'
p473
aI12
aI50
ag5
aa(lp474
S'MUP311'
p475
aI73548
aI9
aI10
ag39
aNaNaNaNaNag12
aNaNaNaNaNaNag5
aa(lp476
S'MUP311'
p477
aI73550
aI30
aI30
ag39
aNaNaNaNaNag12
aNaNaNaNaNaNag5
aa(lp478
S'MUP311'
p479
aI77973
aI30
aI30
ag39
aNaNaNaNaNag12
aNaNaNaNaNaNag5
aa(lp480
S'MUP311'
p481
aI73344
aI9
aI10
ag39
aNaNaNaNaNag12
aNaNaNaNaNaNag5
aa(lp482
S'MUP311'
p483
aI72530
aI9
aI10
ag39
aNaNaNaNaNag12
aNaNaNaNaNaNag5
aa(lp484
S'MUP311'
p485
aI73549
aI29
aI30
ag39
aNaNaNaNaNag12
aNaNaNaNaNaNag5
aa(lp486
S'MUP311'
p487
aI75156
aI30
aI30
ag39
aNaNaNaNaNag12
aNaNaNaNaNaNag5
aa(lp488
S'MUP311'
p489
aI71906
aI30
aI30
ag39
aNaNaNaNaNag12
aNaNaNaNaNaNag5
aa(lp490
S'MUP311'
p491
aI71907
aI30
aI30
ag39
aNaNaNaNaNag12
aNaNaNaNaNaNag5
aa(lp492
S'MUP311'
p493
aI71908
aI30
aI30
ag39
aNaNaNaNaNag12
aNaNaNaNaNaNag5
aa(lp494
S'MUP311'
p495
aI71909
aI28
aI30
ag39
aNaNaNaNaNag12
aNaNaNaNaNaNag5
aa(lp496
S'MUP311'
p497
aI73023
aI10
aI10
ag39
aNaNaNaNaNag12
aNaNaNaNaNaNag5
aa(lp498
S'MUP311'
p499
aI73474
aI30
aI30
ag39
aNaNaNaNaNag12
aNaNaNaNaNaNag5
aa(lp500
S'MUP311'
p501
aI71910
aI30
aI30
ag39
aNaNaNaNaNag12
aNaNaNaNaNaNag5
aa(lp502
S'MUP311'
p503
aI71925
aI29
aI30
ag12
aS'11:50 AM'
p504
aI11
aI50
aI12
aI40
aNaNaNaNaNaNaNag5
aa(lp505
S'MUP311'
p506
aI71927
aI29
aI30
aS'Th'
p507
aS'12:45PM'
p508
aI12
aI45
aI14
aI45
ag12
aS'12:00PM'
p509
aI12
aI0
aS'12:50PM'
p510
aI12
aI50
ag5
aa(lp511
S'MUP311'
p512
aI71928
aI30
aI30
aS'Th'
p513
aS'3:00PM'
p514
aI15
aI0
aI17
aI0
ag12
aS'12:00PM'
p515
aI12
aI0
aS'12:50PM'
p516
aI12
aI50
ag5
aa(lp517
S'MUP311'
p518
aI71929
aI30
aI30
aS'Th'
p519
aS'3:15PM'
p520
aI15
aI15
aI17
aI15
ag12
aS'12:00PM'
p521
aI12
aI0
aS'12:50PM'
p522
aI12
aI50
ag5
aa(lp523
S'MUP311'
p524
aI71930
aI29
aI30
aS'Th'
p525
aS'1:30PM'
p526
aI13
aI30
aI14
aI45
ag12
aS'12:00PM'
p527
aI12
aI0
aS'12:50PM'
p528
aI12
aI50
ag5
aa(lp529
S'MUP311'
p530
aI71931
aI28
aI30
aS'Th'
p531
aS'1:00PM'
p532
aI13
aI0
aI15
aI0
ag12
aS'12:00PM'
p533
aI12
aI0
aS'12:50PM'
p534
aI12
aI50
ag5
aa(lp535
S'MUP311'
p536
aI72528
aI30
aI30
ag99
aS'1:00PM'
p537
aI13
aI0
aI15
aI0
ag12
aS'12:00PM'
p538
aI12
aI0
aS'12:50PM'
p539
aI12
aI50
ag5
aa(lp540
S'MUP311'
p541
aI72529
aI27
aI30
ag39
aNaNaNaNaNag12
aNaNaNaNaNaNag5
aa(lp542
S'MUP311'
p543
aI72531
aI29
aI30
ag99
aS'4:15PM'
p544
aI16
aI15
aI18
aI15
ag12
aS'12:00PM'
p545
aI12
aI0
aS'12:50PM'
p546
aI12
aI50
ag5
aa(lp547
S'MUP311'
p548
aI71911
aI29
aI30
aS'W F'
p549
aS'12:00 PM'
p550
aI12
aI0
aI12
aI50
aNaNaNaNaNaNaNag5
aa(lp551
S'MUP311'
p552
aI81179
aI28
aI30
ag3
aS'12:00 PM'
p553
aI12
aI0
aI14
aI0
aNaNaNaNaNaNaNag5
aa(lp554
S'MUP311'
p555
aI71913
aI25
aI30
aS'W F'
p556
aS'12:00 PM'
p557
aI12
aI0
aI12
aI50
aNaNaNaNaNaNaNag5
aa(lp558
S'MUP311'
p559
aI71912
aI27
aI30
aS'W F'
p560
aS'12:00 PM'
p561
aI12
aI0
aI12
aI50
aNaNaNaNaNaNaNag5
aa(lp562
S'MUP311'
p563
aI71914
aI26
aI30
aS'W F'
p564
aS'12:00PM'
p565
aI12
aI0
aI12
aI50
ag12
aS'12:00PM'
p566
aI12
aI0
aS'12:50PM'
p567
aI12
aI50
ag5
aa(lp568
S'MUP311'
p569
aI71915
aI10
aI10
aS'M F'
p570
aS'12:00PM'
p571
aI12
aI0
aI12
aI50
ag12
aS'12:00PM'
p572
aI12
aI0
aS'12:50PM'
p573
aI12
aI50
ag5
aa(lp574
S'MUP311'
p575
aI71916
aI10
aI10
ag3
aS'12:00PM'
p576
aI12
aI0
aI12
aI50
ag12
aS'12:00PM'
p577
aI12
aI0
aS'12:50PM'
p578
aI12
aI50
ag5
aa(lp579
S'MUP311'
p580
aI71917
aI2
aI6
ag8
aS'12:00PM'
p581
aI12
aI0
aI12
aI50
ag12
aS'12:00PM'
p582
aI12
aI0
aS'12:50PM'
p583
aI12
aI50
ag5
aa(lp584
S'MUP311'
p585
aI71918
aI9
aI10
ag12
aS'3:00PM'
p586
aI15
aI0
aI16
aI45
ag12
aS'12:00PM'
p587
aI12
aI0
aS'12:50PM'
p588
aI12
aI50
ag5
aa(lp589
S'MUP311'
p590
aI71919
aI10
aI10
ag8
aS'12:00PM'
p591
aI12
aI0
aI12
aI50
ag3
aS'12:00PM'
p592
aI12
aI0
aS'12:50PM'
p593
aI12
aI50
ag5
aa(lp594
S'MUP317'
p595
aI73547
aI15
aI15
aS'T Th'
p596
aS' 1:00 PM'
p597
aI13
aI0
aI13
aI50
aNaNaNaNaNaNaNag5
aa(lp598
S'MUP321'
p599
aI71946
aI30
aI30
ag39
aNaNaNaNaNaNaNaNaNaNaNaNag5
aa(lp600
S'MUP321'
p601
aI71947
aI30
aI30
ag39
aNaNaNaNaNaNaNaNaNaNaNaNag5
aa(lp602
S'MUP321'
p603
aI71948
aI30
aI30
ag39
aNaNaNaNaNaNaNaNaNaNaNaNag5
aa(lp604
S'MUP321'
p605
aI73156
aI30
aI30
ag39
aNaNaNaNaNaNaNaNaNaNaNaNag5
aa(lp606
S'MUP321'
p607
aI71949
aI30
aI30
ag39
aNaNaNaNaNaNaNaNaNaNaNaNag5
aa(lp608
S'MUP321'
p609
aI71932
aI30
aI30
ag39
aNaNaNaNaNaNaNaNaNaNaNaNag5
aa(lp610
S'MUP321'
p611
aI71933
aI30
aI30
ag39
aNaNaNaNaNaNaNaNaNaNaNaNag5
aa(lp612
S'MUP321'
p613
aI71934
aI29
aI30
ag39
aNaNaNaNaNaNaNaNaNaNaNaNag5
aa(lp614
S'MUP321'
p615
aI71935
aI29
aI30
ag39
aNaNaNaNaNaNaNaNaNaNaNaNag5
aa(lp616
S'MUP321'
p617
aI71936
aI30
aI30
ag39
aNaNaNaNaNaNaNaNaNaNaNaNag5
aa(lp618
S'MUP321'
p619
aI90921
aI5
aI5
ag39
aNaNaNaNaNaNaNaNaNaNaNaNag5
aa(lp620
S'MUP321'
p621
aI89140
aI30
aI30
ag39
aNaNaNaNaNaNaNaNaNaNaNaNag5
aa(lp622
S'MUP321'
p623
aI72533
aI30
aI30
ag12
aS'11:50 AM'
p624
aI11
aI50
aI12
aI40
aNaNaNaNaNaNaNag5
aa(lp625
S'MUP321'
p626
aI72534
aI30
aI30
ag39
aNaNaNaNaNaNaNaNaNaNaNaNag5
aa(lp627
S'MUP321'
p628
aI72535
aI29
aI30
ag39
aNaNaNaNaNaNaNaNaNaNaNaNag5
aa(lp629
S'MUP321'
p630
aI72536
aI30
aI30
ag39
aNaNaNaNaNaNaNaNaNaNaNaNag5
aa(lp631
S'MUP321'
p632
aI72537
aI30
aI30
ag39
aNaNaNaNaNaNaNaNaNaNaNaNag5
aa(lp633
S'MUP321'
p634
aI72538
aI30
aI30
ag39
aNaNaNaNaNaNaNaNaNaNaNaNag5
aa(lp635
S'MUP321'
p636
aI72539
aI30
aI30
ag39
aNaNaNaNaNaNaNaNaNaNaNaNag5
aa(lp637
S'MUP321'
p638
aI72540
aI0
aI2
ag39
aNaNaNaNaNaNaNaNaNaNaNaNag210
aa(lp639
S'MUP321'
p640
aI72541
aI30
aI30
ag39
aNaNaNaNaNaNaNaNaNaNaNaNag5
aa(lp641
S'MUP321'
p642
aI71937
aI30
aI30
ag39
aNaNaNaNaNaNaNaNaNaNaNaNag5
aa(lp643
S'MUP321'
p644
aI71939
aI30
aI30
ag39
aNaNaNaNaNaNaNaNaNaNaNaNag5
aa(lp645
S'MUP321'
p646
aI71938
aI30
aI30
ag39
aNaNaNaNaNaNaNaNaNaNaNaNag5
aa(lp647
S'MUP321'
p648
aI71940
aI11
aI12
ag39
aNaNaNaNaNaNaNaNaNaNaNaNag5
aa(lp649
S'MUP321'
p650
aI71941
aI30
aI30
ag39
aNaNaNaNaNaNaNaNaNaNaNaNag5
aa(lp651
S'MUP321'
p652
aI71942
aI30
aI30
ag39
aNaNaNaNaNaNaNaNaNaNaNaNag5
aa(lp653
S'MUP321'
p654
aI71943
aI4
aI5
ag8
aS'12:00PM'
p655
aI12
aI0
aI12
aI50
ag12
aS'12:00PM'
p656
aI12
aI0
aS'12:50PM'
p657
aI12
aI50
ag5
aa(lp658
S'MUP321'
p659
aI71944
aI30
aI30
ag39
aNaNaNaNaNaNaNaNaNaNaNaNag5
aa(lp660
S'MUP321'
p661
aI71945
aI30
aI30
ag39
aNaNaNaNaNaNaNaNaNaNaNaNag5
aa(lp662
S'MUP327'
p663
aI71965
aI8
aI10
ag12
aS'12:00 PM'
p664
aI12
aI0
aI12
aI50
aNaNaNaNaNaNaNag5
aa(lp665
S'MUP327'
p666
aI71966
aI30
aI30
aS'M W'
p667
aS'12:00 PM'
p668
aI12
aI0
aI12
aI50
aNaNaNaNaNaNaNag5
aa(lp669
S'MUP327'
p670
aI71967
aI28
aI30
aS'W Th F'
p671
aS'12:00 PM'
p672
aI12
aI0
aI12
aI50
aNaNaNaNaNaNaNag5
aa(lp673
S'MUP327'
p674
aI71968
aI29
aI30
aS'M W'
p675
aS'12:00PM'
p676
aI12
aI0
aI12
aI50
ag3
aS'12:00PM'
p677
aI12
aI0
aS'12:50PM'
p678
aI12
aI50
ag5
aa(lp679
S'MUP327'
p680
aI71969
aI30
aI30
aS'M W'
p681
aS'12:00PM'
p682
aI12
aI0
aI12
aI50
ag3
aS'12:00PM'
p683
aI12
aI0
aS'12:50PM'
p684
aI12
aI50
ag5
aa(lp685
S'MUP327'
p686
aI71950
aI30
aI30
ag39
aNaNaNaNaNag12
aNaNaNaNaNaNag5
aa(lp687
S'MUP327'
p688
aI71951
aI30
aI30
ag39
aNaNaNaNaNag12
aNaNaNaNaNaNag5
aa(lp689
S'MUP327'
p690
aI71952
aI30
aI30
ag39
aNaNaNaNaNag12
aNaNaNaNaNaNag5
aa(lp691
S'MUP327'
p692
aI71953
aI30
aI30
ag39
aNaNaNaNaNag12
aNaNaNaNaNaNag5
aa(lp693
S'MUP327'
p694
aI71954
aI30
aI30
ag39
aNaNaNaNaNag12
aNaNaNaNaNaNag5
aa(lp695
S'MUP327'
p696
aI71970
aI29
aI30
ag12
aS'11:50 AM'
p697
aI11
aI50
aI12
aI40
aNaNaNaNaNaNaNag5
aa(lp698
S'MUP327'
p699
aI71971
aI29
aI30
aS'Th'
p700
aS'12:45PM'
p701
aI12
aI45
aI14
aI45
ag12
aS'12:00PM'
p702
aI12
aI0
aS'12:50PM'
p703
aI12
aI50
ag5
aa(lp704
S'MUP327'
p705
aI71972
aI29
aI30
aS'Th'
p706
aS'3:00PM'
p707
aI15
aI0
aI17
aI0
ag12
aS'12:00PM'
p708
aI12
aI0
aS'12:50PM'
p709
aI12
aI50
ag5
aa(lp710
S'MUP327'
p711
aI71973
aI28
aI30
aS'Th'
p712
aS'3:15PM'
p713
aI15
aI15
aI17
aI15
ag12
aS'12:00PM'
p714
aI12
aI0
aS'12:50PM'
p715
aI12
aI50
ag5
aa(lp716
S'MUP327'
p717
aI72544
aI29
aI30
aS'Th'
p718
aS'1:30PM'
p719
aI13
aI30
aI14
aI45
ag12
aS'12:00PM'
p720
aI12
aI0
aS'12:50PM'
p721
aI12
aI50
ag5
aa(lp722
S'MUP327'
p723
aI72545
aI29
aI30
aS'Th'
p724
aS'1:00PM'
p725
aI13
aI0
aI15
aI0
ag12
aS'12:00PM'
p726
aI12
aI0
aS'12:50PM'
p727
aI12
aI50
ag5
aa(lp728
S'MUP327'
p729
aI72546
aI30
aI30
ag99
aS'1:00PM'
p730
aI13
aI0
aI15
aI0
ag12
aS'12:00PM'
p731
aI12
aI0
aS'12:50PM'
p732
aI12
aI50
ag5
aa(lp733
S'MUP327'
p734
aI72547
aI29
aI30
ag39
aNaNaNaNaNag12
aNaNaNaNaNaNag5
aa(lp735
S'MUP327'
p736
aI72548
aI9
aI10
ag99
aS'4:15PM'
p737
aI16
aI15
aI18
aI15
ag12
aS'12:00PM'
p738
aI12
aI0
aS'12:50PM'
p739
aI12
aI50
ag5
aa(lp740
S'MUP327'
p741
aI71955
aI25
aI30
aS'W F'
p742
aS'12:00 PM'
p743
aI12
aI0
aI12
aI50
aNaNaNaNaNaNaNag5
aa(lp744
S'MUP327'
p745
aI71956
aI30
aI30
ag3
aS'12:00 PM'
p746
aI12
aI0
aI14
aI0
aNaNaNaNaNaNaNag5
aa(lp747
S'MUP327'
p748
aI71958
aI29
aI30
aS'W F'
p749
aS'12:00 PM'
p750
aI12
aI0
aI12
aI50
aNaNaNaNaNaNaNag5
aa(lp751
S'MUP327'
p752
aI71957
aI28
aI30
aS'W F'
p753
aS'12:00 PM'
p754
aI12
aI0
aI12
aI50
aNaNaNaNaNaNaNag5
aa(lp755
S'MUP327'
p756
aI71959
aI8
aI10
aS'W F'
p757
aS'12:00PM'
p758
aI12
aI0
aI12
aI50
ag12
aS'12:00PM'
p759
aI12
aI0
aS'12:50PM'
p760
aI12
aI50
ag5
aa(lp761
S'MUP327'
p762
aI71960
aI9
aI10
aS'M F'
p763
aS'12:00PM'
p764
aI12
aI0
aI12
aI50
ag12
aS'12:00PM'
p765
aI12
aI0
aS'12:50PM'
p766
aI12
aI50
ag5
aa(lp767
S'MUP327'
p768
aI71961
aI8
aI10
ag3
aS'12:00PM'
p769
aI12
aI0
aI12
aI50
ag12
aS'12:00PM'
p770
aI12
aI0
aS'12:50PM'
p771
aI12
aI50
ag5
aa(lp772
S'MUP327'
p773
aI71962
aI5
aI5
ag8
aS'12:00PM'
p774
aI12
aI0
aI12
aI50
ag12
aS'12:00PM'
p775
aI12
aI0
aS'12:50PM'
p776
aI12
aI50
ag5
aa(lp777
S'MUP327'
p778
aI71963
aI10
aI10
ag12
aS'3:00PM'
p779
aI15
aI0
aI16
aI45
ag12
aS'12:00PM'
p780
aI12
aI0
aS'12:50PM'
p781
aI12
aI50
ag5
aa(lp782
S'MUP327'
p783
aI71964
aI9
aI10
ag8
aS'12:00PM'
p784
aI12
aI0
aI12
aI50
ag3
aS'12:00PM'
p785
aI12
aI0
aS'12:50PM'
p786
aI12
aI50
ag5
aa(lp787
S'MUP337'
p788
aI71975
aI30
aI30
ag39
aNaNaNaNaNaNaNaNaNaNaNaNag5
aa(lp789
S'MUP337'
p790
aI71974
aI30
aI30
ag39
aNaNaNaNaNaNaNaNaNaNaNaNag5
aa(lp791
S'MUP370'
p792
aI82118
aI12
aI15
ag3
aS' 1:30 PM'
p793
aI13
aI30
aI14
aI45
aNaNaNaNaNaNaNag5
aa(lp794
S'MUP373'
p795
aI71977
aI29
aI30
ag8
aS' 7:00 PM'
p796
aI19
aI0
aI22
aI0
aNaNaNaNaNaNaNag5
aa(lp797
S'MUP373'
p798
aI71979
aI29
aI30
ag99
aS' 7:00 PM'
p799
aI19
aI0
aI22
aI0
aNaNaNaNaNaNaNag5
aa(lp800
S'MUP373'
p801
aI77586
aI10
aI10
ag39
aNaNaNaNaNaNaNaNaNaNaNaNag5
aa(lp802
S'MUP373'
p803
aI77587
aI10
aI10
ag39
aNaNaNaNaNaNaNaNaNaNaNaNag5
aa(lp804
S'MUP374'
p805
aI71981
aI23
aI30
aS'T Th'
p806
aS' 4:30 PM'
p807
aI16
aI30
aI17
aI20
aNaNaNaNaNaNaNag5
aa(lp808
S'MUP374'
p809
aI71982
aI28
aI30
ag39
aNaNaNaNaNaNaNaNaNaNaNaNag5
aa(lp810
S'MUP385'
p811
aI71998
aI15
aI15
aS'T Th'
p812
aS'11:50 AM'
p813
aI11
aI50
aI12
aI40
aNaNaNaNaNaNaNag5
aa(lp814
S'MUP385'
p815
aI91852
aI10
aI10
aS'M W'
p816
aS' 3:00 PM'
p817
aI15
aI0
aI16
aI0
aNaNaNaNaNaNaNag5
aa(lp818
S'MUP385'
p819
aI71999
aI11
aI15
aS'T Th'
p820
aS' 4:30 PM'
p821
aI16
aI30
aI17
aI45
aNaNaNaNaNaNaNag5
aa(lp822
S'MUP388'
p823
aI72006
aI30
aI30
ag99
aS'11:45AM'
p824
aI11
aI45
aI12
aI45
ag99
aS'1:00PM'
p825
aI13
aI0
aS'1:30PM'
p826
aI13
aI30
ag5
aa(lp827
S'MUP442'
p828
aI86260
aI112
aI150
aS'T Th'
p829
aS' 1:00 PM'
p830
aI13
aI0
aI15
aI0
aNaNaNaNaNaNaNag5
aa(lp831
S'MUP442'
p832
aI80035
aI135
aI150
aS'M W F'
p833
aS' 1:00 PM'
p834
aI13
aI0
aI14
aI45
aNaNaNaNaNaNaNag5
aa(lp835
S'MUP442'
p836
aI82102
aI68
aI100
aS'M W F'
p837
aS' 1:00 PM'
p838
aI13
aI0
aI14
aI45
aNaNaNaNaNaNaNag5
aa(lp839
S'MUP443'
p840
aI79699
aI74
aI100
aS'T Th'
p841
aS' 1:00 PM'
p842
aI13
aI0
aI15
aI0
aNaNaNaNaNaNaNag5
aa(lp843
S'MUP443'
p844
aI86706
aI98
aI100
aS'M T W Th'
p845
aS' 3:05 PM'
p846
aI15
aI5
aI16
aI20
aNaNaNaNaNaNaNag5
aa(lp847
S'MUP449'
p848
aI79753
aI2
aI5
ag99
aS' 3:00 PM'
p849
aI15
aI0
aI17
aI0
aNaNaNaNaNaNaNag5
aa(lp850
S'MUP450'
p851
aI77174
aI95
aI100
ag99
aS' 7:30 PM'
p852
aI19
aI30
aI21
aI30
aNaNaNaNaNaNaNag5
aa(lp853
S'MUP451'
p854
aI72569
aI28
aI30
ag39
aNaNaNaNaNaNaNaNaNaNaNaNag5
aa(lp855
S'MUP451'
p856
aI72570
aI30
aI30
ag39
aNaNaNaNaNaNaNaNaNaNaNaNag5
aa(lp857
S'MUP451'
p858
aI72571
aI30
aI30
ag39
aNaNaNaNaNaNaNaNaNaNaNaNag5
aa(lp859
S'MUP451'
p860
aI72771
aI30
aI30
ag39
aNaNaNaNaNaNaNaNaNaNaNaNag5
aa(lp861
S'MUP451'
p862
aI89138
aI28
aI30
aS'T Th'
p863
aS' 2:00 PM'
p864
aI14
aI0
aI15
aI0
aNaNaNaNaNaNaNag5
aa(lp865
S'MUP451'
p866
aI88345
aI14
aI15
aS'M F'
p867
aS'11:50 AM'
p868
aI11
aI50
aI12
aI40
aNaNaNaNaNaNaNag5
aa(lp869
S'MUP451'
p870
aI75658
aI14
aI15
ag8
aS' 3:05 PM'
p871
aI15
aI5
aI17
aI5
aNaNaNaNaNaNaNag5
aa(lp872
S'MUP451'
p873
aI75659
aI14
aI15
ag3
aS'10:15 AM'
p874
aI10
aI15
aI11
aI30
aNaNaNaNaNaNaNag5
aa(lp875
S'MUP451'
p876
aI73692
aI10
aI10
ag39
aNaNaNaNaNaNaNaNaNaNaNaNag5
aa(lp877
S'MUP451'
p878
aI72568
aI10
aI10
ag8
aS' 4:00 PM'
p879
aI16
aI0
aI18
aI0
aNaNaNaNaNaNaNag5
aa(lp880
S'MUP451'
p881
aI72567
aI20
aI20
ag39
aNaNaNaNaNaNaNaNaNaNaNaNag5
aa(lp882
S'MUP453'
p883
aI86983
aI23
aI30
ag12
aS' 4:30 PM'
p884
aI16
aI30
aI18
aI30
aNaNaNaNaNaNaNag5
aa(lp885
S'MUP455'
p886
aI77179
aI91
aI100
aS'M W'
p887
aS' 4:30 PM'
p888
aI16
aI30
aI17
aI45
aNaNaNaNaNaNaNag5
aa(lp889
S'MUP457'
p890
aI77182
aI63
aI100
aS'M W'
p891
aS' 4:30 PM'
p892
aI16
aI30
aI17
aI45
aNaNaNaNaNaNaNag5
aa(lp893
S'MUP459'
p894
aI86140
aI61
aI95
aS'T Th'
p895
aS' 6:00 PM'
p896
aI18
aI0
aI19
aI15
aNaNaNaNaNaNaNag210
aa(lp897
S'MUP459'
p898
aI86141
aI6
aI45
aS'T Th'
p899
aS' 6:00 PM'
p900
aI18
aI0
aI19
aI15
aNaNaNaNaNaNaNag5
aa(lp901
S'MUP460'
p902
aI79757
aI7
aI20
ag12
aS' 3:05 PM'
p903
aI15
aI5
aI17
aI5
aNaNaNaNaNaNaNag5
aa(lp904
S'MUP461'
p905
aI76077
aI273
aI400
ag3
aS'4:00PM'
p906
aI16
aI0
aI18
aI0
aS'M W'
p907
aS'4:00PM'
p908
aI16
aI0
aS'6:00PM'
p909
aI18
aI0
ag5
aa(lp910
S'MUP470'
p911
aI79749
aI16
aI20
aS'T Th'
p912
aS' 9:00 AM'
p913
aI9
aI0
aI10
aI15
aNaNaNaNaNaNaNag5
aa(lp914
S'MUP471'
p915
aI71976
aI14
aI15
ag3
aS' 3:00 PM'
p916
aI15
aI0
aI16
aI15
aNaNaNaNaNaNaNag5
aa(lp917
S'MUP476'
p918
aI71983
aI8
aI10
aS'T Th'
p919
aS' 8:00 AM'
p920
aI8
aI0
aI8
aI50
aNaNaNaNaNaNaNag5
aa(lp921
S'MUP479'
p922
aI71994
aI30
aI30
ag39
aNaNaNaNaNaNaNaNaNaNaNaNag5
aa(lp923
S'MUP479'
p924
aI71991
aI15
aI20
ag39
aNaNaNaNaNaNaNaNaNaNaNaNag5
aa(lp925
S'MUP479'
p926
aI71993
aI28
aI30
ag39
aNaNaNaNaNaNaNaNaNaNaNaNag5
aa(lp927
S'MUP479'
p928
aI83890
aI30
aI30
ag39
aNaNaNaNaNaNaNaNaNaNaNaNag5
aa(lp929
S'MUP479'
p930
aI80521
aI30
aI30
ag39
aNaNaNaNaNaNaNaNaNaNaNaNag5
aa(lp931
S'MUP479'
p932
aI73142
aI32
aI40
aS'M F'
p933
aS'12:00 PM'
p934
aI12
aI0
aI12
aI50
aNaNaNaNaNaNaNag5
aa(lp935
S'MUP479'
p936
aI71989
aI31
aI40
aS'W F'
p937
aS' 3:00 PM'
p938
aI15
aI0
aI16
aI50
aNaNaNaNaNaNaNag5
aa(lp939
S'MUP479'
p940
aI71997
aI30
aI30
ag39
aNaNaNaNaNaNaNaNaNaNaNaNag5
aa(lp941
S'MUP479'
p942
aI71986
aI26
aI30
ag39
aNaNaNaNaNaNaNaNaNaNaNaNag5
aa(lp943
S'MUP479'
p944
aI82404
aI27
aI30
ag99
aS' 4:30 PM'
p945
aI16
aI30
aI17
aI30
aNaNaNaNaNaNaNag5
aa(lp946
S'MUP479'
p947
aI71992
aI30
aI30
ag39
aNaNaNaNaNaNaNaNaNaNaNaNag5
aa(lp948
S'MUP479'
p949
aI71987
aI30
aI30
ag39
aNaNaNaNaNaNaNaNaNaNaNaNag5
aa(lp950
S'MUP479'
p951
aI71984
aI22
aI30
ag3
aS'12:00 PM'
p952
aI12
aI0
aI14
aI0
aNaNaNaNaNaNaNag5
aa(lp953
S'MUP479'
p954
aI77976
aI14
aI15
ag8
aS' 7:30 PM'
p955
aI19
aI30
aI21
aI0
aNaNaNaNaNaNaNag5
aa(lp956
S'MUP479'
p957
aI71996
aI29
aI30
ag39
aNaNaNaNaNaNaNaNaNaNaNaNag5
aa(lp958
S'MUP479'
p959
aI72484
aI30
aI30
ag39
aNaNaNaNaNaNaNaNaNaNaNaNag5
aa(lp960
S'MUP479'
p961
aI71990
aI12
aI15
ag39
aNaNaNaNaNaNaNaNaNaNaNaNag5
aa(lp962
S'MUP479'
p963
aI80969
aI28
aI30
ag12
aS' 4:45 PM'
p964
aI16
aI45
aI17
aI45
aNaNaNaNaNaNaNag5
aa(lp965
S'MUP479'
p966
aI77889
aI49
aI50
ag39
aNaNaNaNaNaNaNaNaNaNaNaNag5
aa(lp967
S'MUP479'
p968
aI71995
aI49
aI50
aS'M W'
p969
aS' 6:00 PM'
p970
aI18
aI0
aI19
aI0
aNaNaNaNaNaNaNag5
aa(lp971
S'MUP479'
p972
aI71985
aI50
aI50
aS'M W'
p973
aS' 6:00 PM'
p974
aI18
aI0
aI19
aI0
aNaNaNaNaNaNaNag5
aa(lp975
S'MUP479'
p976
aI71988
aI48
aI50
aS'M W'
p977
aS' 6:00 PM'
p978
aI18
aI0
aI19
aI0
aNaNaNaNaNaNaNag5
aa(lp979
S'MUP481'
p980
aI72009
aI30
aI30
ag39
aNaNaNaNaNaNaNaNaNaNaNaNag5
aa(lp981
S'MUP481'
p982
aI72010
aI30
aI30
ag39
aNaNaNaNaNaNaNaNaNaNaNaNag5
aa(lp983
S'MUP481'
p984
aI72572
aI29
aI30
ag99
aS'12:00 PM'
p985
aI12
aI0
aI12
aI50
aNaNaNaNaNaNaNag5
aa(lp986
S'MUP481'
p987
aI72573
aI30
aI30
ag39
aNaNaNaNaNaNaNaNaNaNaNaNag5
aa(lp988
S'MUP481'
p989
aI72776
aI10
aI10
ag39
aNaNaNaNaNaNaNaNaNaNaNaNag5
aa(lp990
S'MUP481'
p991
aI72574
aI9
aI10
ag99
aS' 2:00 PM'
p992
aI14
aI0
aI16
aI0
aNaNaNaNaNaNaNag5
aa(lp993
S'MUP481'
p994
aI72008
aI10
aI10
ag99
aS' 3:00 PM'
p995
aI15
aI0
aI17
aI0
aNaNaNaNaNaNaNag5
aa(lp996
S'MUP481'
p997
aI89151
aI9
aI10
aS'Th'
p998
aS' 7:30 AM'
p999
aI7
aI30
aI9
aI30
aNaNaNaNaNaNaNag5
aa(lp1000
S'MUP484'
p1001
aI74255
aI2
aI2
ag39
aNaNaNaNaNaNaNaNaNaNaNaNag5
aa(lp1002
S'MUP486'
p1003
aI72000
aI30
aI30
ag8
aS' 3:00 PM'
p1004
aI15
aI0
aI16
aI50
aNaNaNaNaNaNaNag5
aa(lp1005
S'MUP486'
p1006
aI72001
aI30
aI30
aS'M W'
p1007
aS' 1:30 PM'
p1008
aI13
aI30
aI15
aI0
aNaNaNaNaNaNaNag5
aa(lp1009
S'MUP486'
p1010
aI72002
aI30
aI30
aS'T Th'
p1011
aS' 3:15 PM'
p1012
aI15
aI15
aI16
aI45
aNaNaNaNaNaNaNag5
aa(lp1013
S'MUP487'
p1014
aI72011
aI27
aI30
aS'Th'
p1015
aS'12:00 PM'
p1016
aI12
aI0
aI13
aI30
aNaNaNaNaNaNaNag5
aa(lp1017
S'MUP489'
p1018
aI72005
aI12
aI13
ag12
aS' 4:30 PM'
p1019
aI16
aI30
aI18
aI0
aNaNaNaNaNaNaNag5
aa(lp1020
S'MUP489'
p1021
aI72003
aI13
aI15
ag8
aS' 4:30 PM'
p1022
aI16
aI30
aI18
aI0
aNaNaNaNaNaNaNag5
aa(lp1023
S'MUP489'
p1024
aI77878
aI14
aI15
ag8
aS' 7:30 PM'
p1025
aI19
aI30
aI20
aI45
aNaNaNaNaNaNaNag5
aa(lp1026
S'MUP489'
p1027
aI72004
aI11
aI15
aS'T Th'
p1028
aS' 3:00 PM'
p1029
aI15
aI0
aI16
aI15
aNaNaNaNaNaNaNag5
aa(lp1030
S'MUP492'
p1031
aI72012
aI30
aI30
ag39
aNaNaNaNaNaNaNaNaNaNaNaNag5
aa(lp1032
S'MUP493'
p1033
aI72485
aI30
aI30
ag39
aNaNaNaNaNaNaNaNaNaNaNaNag5
aa(lp1034
S'MUP494'
p1035
aI80512
aI28
aI30
ag99
aS' 4:30 PM'
p1036
aI16
aI30
aI19
aI15
aNaNaNaNaNaNaNag210
aa(lp1037
S'MUP494'
p1038
aI72013
aI5
aI5
ag39
aNaNaNaNaNaNaNaNaNaNaNaNag5
aa(lp1039
S'MUP494'
p1040
aI75252
aI30
aI30
ag39
aNaNaNaNaNaNaNaNaNaNaNaNag5
aa(lp1041
S'MUP494'
p1042
aI75018
aI126
aI150
aS'T Th'
p1043
aS' 7:30 PM'
p1044
aI19
aI30
aI21
aI0
aNaNaNaNaNaNaNag5
aa(lp1045
S'MUP495'
p1046
aI81186
aI190
aI200
ag39
aNaNaNaNaNaNaNaNaNaNaNaNag5
aa(lp1047
S'MUP496'
p1048
aI81187
aI195
aI200
ag39
aNaNaNaNaNaNaNaNaNaNaNaNag5
aa(lp1049
S'MUP499'
p1050
aI72952
aI50
aI50
ag39
aNaNaNaNaNaNaNaNaNaNaNaNag5
aa(lp1051
S'MUP507'
p1052
aI88418
aI9
aI12
aS'M W'
p1053
aS' 1:30 PM'
p1054
aI13
aI30
aI14
aI20
aNaNaNaNaNaNaNag5
aa(lp1055
S'MUP509'
p1056
aI72014
aI4
aI4
ag39
aNaNaNaNaNaNaNaNaNaNaNaNag5
aa(lp1057
S'MUP511'
p1058
aI72028
aI30
aI30
ag12
aS'12:00 PM'
p1059
aI12
aI0
aI12
aI50
aNaNaNaNaNaNaNag5
aa(lp1060
S'MUP511'
p1061
aI72029
aI30
aI30
aS'M W'
p1062
aS'12:00 PM'
p1063
aI12
aI0
aI12
aI50
aNaNaNaNaNaNaNag5
aa(lp1064
S'MUP511'
p1065
aI72030
aI30
aI30
aS'W Th F'
p1066
aS'12:00 PM'
p1067
aI12
aI0
aI12
aI50
aNaNaNaNaNaNaNag5
aa(lp1068
S'MUP511'
p1069
aI72031
aI30
aI30
aS'M W'
p1070
aS'12:00PM'
p1071
aI12
aI0
aI12
aI50
ag3
aS'12:00PM'
p1072
aI12
aI0
aS'12:50PM'
p1073
aI12
aI50
ag5
aa(lp1074
S'MUP511'
p1075
aI72032
aI30
aI30
aS'M W'
p1076
aS'12:00PM'
p1077
aI12
aI0
aI12
aI50
ag3
aS'12:00PM'
p1078
aI12
aI0
aS'12:50PM'
p1079
aI12
aI50
ag5
aa(lp1080
S'MUP511'
p1081
aI72015
aI30
aI30
ag39
aNaNaNaNaNaNaNaNaNaNaNaNag5
aa(lp1082
S'MUP511'
p1083
aI72016
aI30
aI30
ag39
aNaNaNaNaNaNaNaNaNaNaNaNag5
aa(lp1084
S'MUP511'
p1085
aI72038
aI30
aI30
ag39
aNaNaNaNaNaNaNaNaNaNaNaNag5
aa(lp1086
S'MUP511'
p1087
aI72039
aI30
aI30
ag39
aNaNaNaNaNaNaNaNaNaNaNaNag5
aa(lp1088
S'MUP511'
p1089
aI72017
aI30
aI30
ag39
aNaNaNaNaNaNaNaNaNaNaNaNag5
aa(lp1090
S'MUP511'
p1091
aI72018
aI30
aI30
ag39
aNaNaNaNaNaNaNaNaNaNaNaNag5
aa(lp1092
S'MUP511'
p1093
aI72040
aI30
aI30
ag39
aNaNaNaNaNaNaNaNaNaNaNaNag5
aa(lp1094
S'MUP511'
p1095
aI72033
aI30
aI30
ag12
aS'11:50 AM'
p1096
aI11
aI50
aI12
aI40
aNaNaNaNaNaNaNag5
aa(lp1097
S'MUP511'
p1098
aI72034
aI30
aI30
aS'Th'
p1099
aS' 1:00 PM'
p1100
aI13
aI0
aI15
aI0
aNaNaNaNaNaNaNag5
aa(lp1101
S'MUP511'
p1102
aI72035
aI30
aI30
aS'Th'
p1103
aS' 3:00 PM'
p1104
aI15
aI0
aI17
aI0
aNaNaNaNaNaNaNag5
aa(lp1105
S'MUP511'
p1106
aI72036
aI30
aI30
aS'Th'
p1107
aS' 3:15 PM'
p1108
aI15
aI15
aI17
aI15
aNaNaNaNaNaNaNag5
aa(lp1109
S'MUP511'
p1110
aI72037
aI30
aI30
aS'Th'
p1111
aS' 1:30 PM'
p1112
aI13
aI30
aI14
aI45
aNaNaNaNaNaNaNag5
aa(lp1113
S'MUP511'
p1114
aI72575
aI30
aI30
aS'Th'
p1115
aS' 1:30 PM'
p1116
aI13
aI30
aI15
aI0
aNaNaNaNaNaNaNag5
aa(lp1117
S'MUP511'
p1118
aI72576
aI30
aI30
ag99
aS' 1:00 PM'
p1119
aI13
aI0
aI15
aI0
aNaNaNaNaNaNaNag5
aa(lp1120
S'MUP511'
p1121
aI72577
aI30
aI30
ag39
aNaNaNaNaNaNaNaNaNaNaNaNag5
aa(lp1122
S'MUP511'
p1123
aI73217
aI29
aI30
ag99
aS' 4:15 PM'
p1124
aI16
aI15
aI18
aI15
aNaNaNaNaNaNaNag5
aa(lp1125
S'MUP511'
p1126
aI72019
aI30
aI30
aS'W F'
p1127
aS'12:00 PM'
p1128
aI12
aI0
aI12
aI50
aNaNaNaNaNaNaNag5
aa(lp1129
S'MUP511'
p1130
aI85494
aI8
aI10
ag3
aS'12:00 PM'
p1131
aI12
aI0
aI14
aI0
aNaNaNaNaNaNaNag5
aa(lp1132
S'MUP511'
p1133
aI72021
aI27
aI30
aS'W F'
p1134
aS'12:00 PM'
p1135
aI12
aI0
aI12
aI50
aNaNaNaNaNaNaNag5
aa(lp1136
S'MUP511'
p1137
aI72020
aI26
aI30
aS'W F'
p1138
aS'12:00 PM'
p1139
aI12
aI0
aI12
aI50
aNaNaNaNaNaNaNag5
aa(lp1140
S'MUP511'
p1141
aI72022
aI30
aI30
aS'W F'
p1142
aS'12:00PM'
p1143
aI12
aI0
aI12
aI50
ag12
aS'12:00PM'
p1144
aI12
aI0
aS'12:50PM'
p1145
aI12
aI50
ag5
aa(lp1146
S'MUP511'
p1147
aI72023
aI30
aI30
aS'M F'
p1148
aS'12:00 PM'
p1149
aI12
aI0
aI12
aI50
aNaNaNaNaNaNaNag5
aa(lp1150
S'MUP511'
p1151
aI72024
aI30
aI30
ag3
aS'12:00 PM'
p1152
aI12
aI0
aI12
aI50
aNaNaNaNaNaNaNag5
aa(lp1153
S'MUP511'
p1154
aI72025
aI5
aI5
ag8
aS'12:00PM'
p1155
aI12
aI0
aI12
aI50
ag12
aS'12:00PM'
p1156
aI12
aI0
aS'12:50PM'
p1157
aI12
aI50
ag5
aa(lp1158
S'MUP511'
p1159
aI72026
aI30
aI30
ag12
aS' 3:00 PM'
p1160
aI15
aI0
aI16
aI45
aNaNaNaNaNaNaNag5
aa(lp1161
S'MUP511'
p1162
aI72027
aI30
aI30
ag8
aS'12:00PM'
p1163
aI12
aI0
aI12
aI50
ag3
aS'12:00PM'
p1164
aI12
aI0
aS'12:50PM'
p1165
aI12
aI50
ag5
aa(lp1166
S'MUP517'
p1167
aI73585
aI30
aI30
aS'T Th'
p1168
aS' 1:00 PM'
p1169
aI13
aI0
aI13
aI50
aNaNaNaNaNaNaNag5
aa(lp1170
S'MUP521'
p1171
aI72057
aI30
aI30
ag12
aS'11:50 AM'
p1172
aI11
aI50
aI12
aI40
aNaNaNaNaNaNaNag5
aa(lp1173
S'MUP521'
p1174
aI72058
aI30
aI30
ag39
aNaNaNaNaNaNaNaNaNaNaNaNag5
aa(lp1175
S'MUP521'
p1176
aI72059
aI30
aI30
ag39
aNaNaNaNaNaNaNaNaNaNaNaNag5
aa(lp1177
S'MUP521'
p1178
aI72060
aI30
aI30
ag39
aNaNaNaNaNaNaNaNaNaNaNaNag5
aa(lp1179
S'MUP521'
p1180
aI72061
aI30
aI30
ag39
aNaNaNaNaNaNaNaNaNaNaNaNag5
aa(lp1181
S'MUP521'
p1182
aI85620
aI10
aI10
ag39
aNaNaNaNaNaNaNaNaNaNaNaNag5
aa(lp1183
S'MUP521'
p1184
aI85621
aI10
aI10
ag39
aNaNaNaNaNaNaNaNaNaNaNaNag5
aa(lp1185
S'MUP521'
p1186
aI72041
aI29
aI30
ag39
aNaNaNaNaNaNaNaNaNaNaNaNag5
aa(lp1187
S'MUP521'
p1188
aI72042
aI30
aI30
ag39
aNaNaNaNaNaNaNaNaNaNaNaNag5
aa(lp1189
S'MUP521'
p1190
aI72043
aI30
aI30
ag39
aNaNaNaNaNaNaNaNaNaNaNaNag5
aa(lp1191
S'MUP521'
p1192
aI72044
aI30
aI30
ag39
aNaNaNaNaNaNaNaNaNaNaNaNag5
aa(lp1193
S'MUP521'
p1194
aI72046
aI30
aI30
ag39
aNaNaNaNaNaNaNaNaNaNaNaNag5
aa(lp1195
S'MUP521'
p1196
aI72047
aI30
aI30
ag39
aNaNaNaNaNaNaNaNaNaNaNaNag5
aa(lp1197
S'MUP521'
p1198
aI72045
aI29
aI30
ag39
aNaNaNaNaNaNaNaNaNaNaNaNag5
aa(lp1199
S'MUP521'
p1200
aI89142
aI5
aI5
ag39
aNaNaNaNaNaNaNaNaNaNaNaNag5
aa(lp1201
S'MUP521'
p1202
aI72062
aI30
aI30
ag12
aS'11:50 AM'
p1203
aI11
aI50
aI12
aI40
aNaNaNaNaNaNaNag5
aa(lp1204
S'MUP521'
p1205
aI72063
aI30
aI30
ag39
aNaNaNaNaNaNaNaNaNaNaNaNag5
aa(lp1206
S'MUP521'
p1207
aI72064
aI30
aI30
ag39
aNaNaNaNaNaNaNaNaNaNaNaNag5
aa(lp1208
S'MUP521'
p1209
aI72065
aI30
aI30
ag39
aNaNaNaNaNaNaNaNaNaNaNaNag5
aa(lp1210
S'MUP521'
p1211
aI72066
aI30
aI30
ag39
aNaNaNaNaNaNaNaNaNaNaNaNag5
aa(lp1212
S'MUP521'
p1213
aI72067
aI30
aI30
ag39
aNaNaNaNaNaNaNaNaNaNaNaNag5
aa(lp1214
S'MUP521'
p1215
aI72578
aI30
aI30
ag39
aNaNaNaNaNaNaNaNaNaNaNaNag5
aa(lp1216
S'MUP521'
p1217
aI72579
aI2
aI2
ag39
aNaNaNaNaNaNaNaNaNaNaNaNag5
aa(lp1218
S'MUP521'
p1219
aI72580
aI30
aI30
ag39
aNaNaNaNaNaNaNaNaNaNaNaNag5
aa(lp1220
S'MUP521'
p1221
aI72048
aI30
aI30
ag39
aNaNaNaNaNaNaNaNaNaNaNaNag5
aa(lp1222
S'MUP521'
p1223
aI85710
aI10
aI10
ag39
aNaNaNaNaNaNaNaNaNaNaNaNag5
aa(lp1224
S'MUP521'
p1225
aI72050
aI30
aI30
ag39
aNaNaNaNaNaNaNaNaNaNaNaNag5
aa(lp1226
S'MUP521'
p1227
aI72049
aI30
aI30
ag39
aNaNaNaNaNaNaNaNaNaNaNaNag5
aa(lp1228
S'MUP521'
p1229
aI72051
aI30
aI30
ag39
aNaNaNaNaNaNaNaNaNaNaNaNag5
aa(lp1230
S'MUP521'
p1231
aI72052
aI30
aI30
ag39
aNaNaNaNaNaNaNaNaNaNaNaNag5
aa(lp1232
S'MUP521'
p1233
aI72053
aI29
aI30
ag39
aNaNaNaNaNaNaNaNaNaNaNaNag5
aa(lp1234
S'MUP521'
p1235
aI72054
aI5
aI5
ag8
aS'12:00PM'
p1236
aI12
aI0
aI12
aI50
ag12
aS'12:00PM'
p1237
aI12
aI0
aS'12:50PM'
p1238
aI12
aI50
ag5
aa(lp1239
S'MUP521'
p1240
aI72055
aI28
aI30
ag39
aNaNaNaNaNaNaNaNaNaNaNaNag5
aa(lp1241
S'MUP521'
p1242
aI72056
aI30
aI30
ag39
aNaNaNaNaNaNaNaNaNaNaNaNag5
aa(lp1243
S'MUP527'
p1244
aI72097
aI5
aI5
ag12
aS'12:00 PM'
p1245
aI12
aI0
aI12
aI50
aNaNaNaNaNaNaNag5
aa(lp1246
S'MUP527'
p1247
aI72068
aI29
aI30
aS'M W'
p1248
aS'12:00 PM'
p1249
aI12
aI0
aI12
aI50
aNaNaNaNaNaNaNag5
aa(lp1250
S'MUP527'
p1251
aI72069
aI28
aI30
aS'W Th F'
p1252
aS'12:00 PM'
p1253
aI12
aI0
aI12
aI50
aNaNaNaNaNaNaNag5
aa(lp1254
S'MUP527'
p1255
aI72070
aI30
aI30
aS'M W'
p1256
aS'12:00PM'
p1257
aI12
aI0
aI12
aI50
ag3
aS'12:00PM'
p1258
aI12
aI0
aS'12:50PM'
p1259
aI12
aI50
ag5
aa(lp1260
S'MUP527'
p1261
aI72071
aI30
aI30
aS'M W'
p1262
aS'12:00PM'
p1263
aI12
aI0
aI12
aI50
ag3
aS'12:00PM'
p1264
aI12
aI0
aS'12:50PM'
p1265
aI12
aI50
ag5
aa(lp1266
S'MUP527'
p1267
aI75291
aI20
aI20
ag39
aNaNaNaNaNaNaNaNaNaNaNaNag5
aa(lp1268
S'MUP527'
p1269
aI72080
aI30
aI30
ag39
aNaNaNaNaNaNaNaNaNaNaNaNag5
aa(lp1270
S'MUP527'
p1271
aI72081
aI30
aI30
ag39
aNaNaNaNaNaNaNaNaNaNaNaNag5
aa(lp1272
S'MUP527'
p1273
aI72082
aI30
aI30
ag39
aNaNaNaNaNaNaNaNaNaNaNaNag5
aa(lp1274
S'MUP527'
p1275
aI72083
aI30
aI30
ag39
aNaNaNaNaNaNaNaNaNaNaNaNag5
aa(lp1276
S'MUP527'
p1277
aI72085
aI30
aI30
ag39
aNaNaNaNaNaNaNaNaNaNaNaNag5
aa(lp1278
S'MUP527'
p1279
aI72086
aI30
aI30
ag39
aNaNaNaNaNaNaNaNaNaNaNaNag5
aa(lp1280
S'MUP527'
p1281
aI72084
aI30
aI30
ag39
aNaNaNaNaNaNaNaNaNaNaNaNag5
aa(lp1282
S'MUP527'
p1283
aI72072
aI29
aI30
ag12
aS'11:50 AM'
p1284
aI11
aI50
aI12
aI40
aNaNaNaNaNaNaNag5
aa(lp1285
S'MUP527'
p1286
aI72073
aI27
aI30
aS'Th'
p1287
aS' 1:00 PM'
p1288
aI13
aI0
aI15
aI0
aNaNaNaNaNaNaNag5
aa(lp1289
S'MUP527'
p1290
aI72074
aI29
aI30
aS'Th'
p1291
aS' 3:00 PM'
p1292
aI15
aI0
aI17
aI0
aNaNaNaNaNaNaNag5
aa(lp1293
S'MUP527'
p1294
aI72075
aI27
aI30
aS'Th'
p1295
aS' 3:15 PM'
p1296
aI15
aI15
aI17
aI15
aNaNaNaNaNaNaNag5
aa(lp1297
S'MUP527'
p1298
aI72076
aI29
aI30
aS'Th'
p1299
aS' 1:30 PM'
p1300
aI13
aI30
aI14
aI45
aNaNaNaNaNaNaNag5
aa(lp1301
S'MUP527'
p1302
aI72077
aI30
aI30
aS'Th'
p1303
aS' 1:30 PM'
p1304
aI13
aI30
aI15
aI0
aNaNaNaNaNaNaNag5
aa(lp1305
S'MUP527'
p1306
aI72078
aI29
aI30
ag99
aS' 1:00 PM'
p1307
aI13
aI0
aI15
aI0
aNaNaNaNaNaNaNag5
aa(lp1308
S'MUP527'
p1309
aI72079
aI30
aI30
ag39
aNaNaNaNaNaNaNaNaNaNaNaNag5
aa(lp1310
S'MUP527'
p1311
aI72581
aI30
aI30
ag99
aS' 4:15 PM'
p1312
aI16
aI15
aI18
aI15
aNaNaNaNaNaNaNag5
aa(lp1313
S'MUP527'
p1314
aI72087
aI29
aI30
aS'W F'
p1315
aS'12:00 PM'
p1316
aI12
aI0
aI12
aI50
aNaNaNaNaNaNaNag5
aa(lp1317
S'MUP527'
p1318
aI72088
aI5
aI5
ag3
aS'12:00 PM'
p1319
aI12
aI0
aI14
aI0
aNaNaNaNaNaNaNag5
aa(lp1320
S'MUP527'
p1321
aI72090
aI28
aI30
aS'W F'
p1322
aS'12:00 PM'
p1323
aI12
aI0
aI12
aI50
aNaNaNaNaNaNaNag5
aa(lp1324
S'MUP527'
p1325
aI72089
aI29
aI30
aS'W F'
p1326
aS'12:00 PM'
p1327
aI12
aI0
aI12
aI50
aNaNaNaNaNaNaNag5
aa(lp1328
S'MUP527'
p1329
aI72091
aI30
aI30
aS'W F'
p1330
aS'12:00PM'
p1331
aI12
aI0
aI12
aI50
ag12
aS'12:00PM'
p1332
aI12
aI0
aS'12:50PM'
p1333
aI12
aI50
ag5
aa(lp1334
S'MUP527'
p1335
aI72092
aI8
aI10
aS'M F'
p1336
aS'12:00 PM'
p1337
aI12
aI0
aI12
aI50
aNaNaNaNaNaNaNag5
aa(lp1338
S'MUP527'
p1339
aI72093
aI8
aI10
ag3
aS'12:00 PM'
p1340
aI12
aI0
aI12
aI50
aNaNaNaNaNaNaNag5
aa(lp1341
S'MUP527'
p1342
aI72094
aI7
aI10
ag8
aS'12:00PM'
p1343
aI12
aI0
aI12
aI50
ag12
aS'12:00PM'
p1344
aI12
aI0
aS'12:50PM'
p1345
aI12
aI50
ag5
aa(lp1346
S'MUP527'
p1347
aI72095
aI9
aI10
ag12
aS' 3:00 PM'
p1348
aI15
aI0
aI16
aI45
aNaNaNaNaNaNaNag5
aa(lp1349
S'MUP527'
p1350
aI72096
aI8
aI10
ag8
aS'12:00PM'
p1351
aI12
aI0
aI12
aI50
ag3
aS'12:00PM'
p1352
aI12
aI0
aS'12:50PM'
p1353
aI12
aI50
ag5
aa(lp1354
S'MUP527'
p1355
aI72582
aI30
aI30
ag39
aNaNaNaNaNaNaNaNaNaNaNaNag5
aa(lp1356
S'MUP527'
p1357
aI82105
aI5
aI5
ag39
aNaNaNaNaNaNaNaNaNaNaNaNag5
aa(lp1358
S'MUP527'
p1359
aI72583
aI4
aI4
ag39
aNaNaNaNaNaNaNaNaNaNaNaNag5
aa(lp1360
S'MUP540'
p1361
aI82453
aI19
aI20
ag3
aS'10:30 AM'
p1362
aI10
aI30
aI11
aI45
aNaNaNaNaNaNaNag5
aa(lp1363
S'MUP541'
p1364
aI86986
aI17
aI20
aS'M W'
p1365
aS' 1:30 PM'
p1366
aI13
aI30
aI14
aI45
aNaNaNaNaNaNaNag5
aa(lp1367
S'MUP542'
p1368
aI86261
aI97
aI100
aS'T Th'
p1369
aS' 1:00 PM'
p1370
aI13
aI0
aI15
aI0
aNaNaNaNaNaNaNag5
aa(lp1371
S'MUP542'
p1372
aI78422
aI80
aI100
aS'M W F'
p1373
aS' 1:00 PM'
p1374
aI13
aI0
aI14
aI45
aNaNaNaNaNaNaNag5
aa(lp1375
S'MUP542'
p1376
aI82103
aI89
aI100
aS'M W F'
p1377
aS' 1:00 PM'
p1378
aI13
aI0
aI14
aI45
aNaNaNaNaNaNaNag5
aa(lp1379
S'MUP543'
p1380
aI86707
aI99
aI100
aS'T Th'
p1381
aS' 1:00 PM'
p1382
aI13
aI0
aI15
aI0
aNaNaNaNaNaNaNag5
aa(lp1383
S'MUP543'
p1384
aI80303
aI90
aI100
aS'M T W Th'
p1385
aS' 3:05 PM'
p1386
aI15
aI5
aI16
aI20
aNaNaNaNaNaNaNag5
aa(lp1387
S'MUP549'
p1388
aI79754
aI7
aI10
ag99
aS' 3:00 PM'
p1389
aI15
aI0
aI17
aI0
aNaNaNaNaNaNaNag5
aa(lp1390
S'MUP550'
p1391
aI77178
aI99
aI100
ag99
aS' 7:30 PM'
p1392
aI19
aI30
aI21
aI30
aNaNaNaNaNaNaNag5
aa(lp1393
S'MUP551'
p1394
aI72587
aI30
aI30
ag39
aNaNaNaNaNaNaNaNaNaNaNaNag5
aa(lp1395
S'MUP551'
p1396
aI72588
aI30
aI30
ag39
aNaNaNaNaNaNaNaNaNaNaNaNag5
aa(lp1397
S'MUP551'
p1398
aI72589
aI30
aI30
ag39
aNaNaNaNaNaNaNaNaNaNaNaNag5
aa(lp1399
S'MUP551'
p1400
aI72778
aI30
aI30
ag39
aNaNaNaNaNaNaNaNaNaNaNaNag5
aa(lp1401
S'MUP551'
p1402
aI88347
aI13
aI15
aS'M F'
p1403
aS'11:50 AM'
p1404
aI11
aI50
aI12
aI40
aNaNaNaNaNaNaNag5
aa(lp1405
S'MUP551'
p1406
aI75660
aI15
aI15
ag8
aS' 3:05 PM'
p1407
aI15
aI5
aI17
aI5
aNaNaNaNaNaNaNag5
aa(lp1408
S'MUP551'
p1409
aI75661
aI15
aI15
ag3
aS'10:15 AM'
p1410
aI10
aI15
aI11
aI30
aNaNaNaNaNaNaNag5
aa(lp1411
S'MUP551'
p1412
aI73665
aI9
aI10
ag39
aNaNaNaNaNaNaNaNaNaNaNaNag5
aa(lp1413
S'MUP551'
p1414
aI72586
aI9
aI10
ag8
aS' 4:00 PM'
p1415
aI16
aI0
aI18
aI0
aNaNaNaNaNaNaNag5
aa(lp1416
S'MUP551'
p1417
aI90516
aI9
aI10
ag39
aNaNaNaNaNaNaNaNaNaNaNaNag5
aa(lp1418
S'MUP554'
p1419
aI77737
aI12
aI15
aS'T Th'
p1420
aS'10:30 AM'
p1421
aI10
aI30
aI11
aI45
aNaNaNaNaNaNaNag5
aa(lp1422
S'MUP555'
p1423
aI77180
aI30
aI30
aS'M W'
p1424
aS' 4:30 PM'
p1425
aI16
aI30
aI17
aI45
aNaNaNaNaNaNaNag5
aa(lp1426
S'MUP557'
p1427
aI77181
aI100
aI100
aS'M W'
p1428
aS' 4:30 PM'
p1429
aI16
aI30
aI17
aI45
aNaNaNaNaNaNaNag5
aa(lp1430
S'MUP560'
p1431
aI79752
aI17
aI20
ag12
aS' 3:05 PM'
p1432
aI15
aI5
aI17
aI5
aNaNaNaNaNaNaNag5
aa(lp1433
S'MUP561'
p1434
aI76459
aI50
aI50
ag3
aS'4:00PM'
p1435
aI16
aI0
aI18
aI0
aS'M W'
p1436
aS'4:00PM'
p1437
aI16
aI0
aS'6:00PM'
p1438
aI18
aI0
ag5
aa(lp1439
S'MUP566'
p1440
aI79748
aI8
aI10
aS'T Th'
p1441
aS' 9:00 AM'
p1442
aI9
aI0
aI10
aI15
aNaNaNaNaNaNaNag5
aa(lp1443
S'MUP570'
p1444
aI88270
aI6
aI7
aS'M W F'
p1445
aS'10:30 AM'
p1446
aI10
aI30
aI11
aI20
aNaNaNaNaNaNaNag5
aa(lp1447
S'MUP570'
p1448
aI73248
aI7
aI10
aS'M W F'
p1449
aS'10:30 AM'
p1450
aI10
aI30
aI11
aI20
aNaNaNaNaNaNaNag5
aa(lp1451
S'MUP571'
p1452
aI73249
aI14
aI15
aS'M W'
p1453
aS' 9:00 AM'
p1454
aI9
aI0
aI10
aI15
aNaNaNaNaNaNaNag5
aa(lp1455
S'MUP571'
p1456
aI73250
aI11
aI15
ag3
aS' 3:00 PM'
p1457
aI15
aI0
aI16
aI15
aNaNaNaNaNaNaNag5
aa(lp1458
S'MUP573'
p1459
aI73251
aI29
aI30
ag8
aS' 7:00 PM'
p1460
aI19
aI0
aI22
aI0
aNaNaNaNaNaNaNag5
aa(lp1461
S'MUP573'
p1462
aI73253
aI30
aI30
ag99
aS' 7:00 PM'
p1463
aI19
aI0
aI22
aI0
aNaNaNaNaNaNaNag5
aa(lp1464
S'MUP573'
p1465
aI77588
aI10
aI10
ag39
aNaNaNaNaNaNaNaNaNaNaNaNag5
aa(lp1466
S'MUP573'
p1467
aI77589
aI10
aI10
ag39
aNaNaNaNaNaNaNaNaNaNaNaNag5
aa(lp1468
S'MUP574'
p1469
aI73255
aI29
aI30
aS'T Th'
p1470
aS' 4:30 PM'
p1471
aI16
aI30
aI17
aI20
aNaNaNaNaNaNaNag5
aa(lp1472
S'MUP574'
p1473
aI73256
aI28
aI30
ag39
aNaNaNaNaNaNaNaNaNaNaNaNag5
aa(lp1474
S'MUP576'
p1475
aI73219
aI9
aI10
aS'T Th'
p1476
aS' 8:00 AM'
p1477
aI8
aI0
aI8
aI50
aNaNaNaNaNaNaNag5
aa(lp1478
S'MUP579'
p1479
aI73262
aI30
aI30
ag39
aNaNaNaNaNaNaNaNaNaNaNaNag5
aa(lp1480
S'MUP579'
p1481
aI73258
aI20
aI20
ag39
aNaNaNaNaNaNaNaNaNaNaNaNag5
aa(lp1482
S'MUP579'
p1483
aI73261
aI30
aI30
ag39
aNaNaNaNaNaNaNaNaNaNaNaNag5
aa(lp1484
S'MUP579'
p1485
aI76638
aI30
aI30
ag39
aNaNaNaNaNaNaNaNaNaNaNaNag5
aa(lp1486
S'MUP579'
p1487
aI80951
aI30
aI30
ag39
aNaNaNaNaNaNaNaNaNaNaNaNag5
aa(lp1488
S'MUP579'
p1489
aI80522
aI30
aI30
ag39
aNaNaNaNaNaNaNaNaNaNaNaNag5
aa(lp1490
S'MUP579'
p1491
aI73144
aI20
aI20
aS'M F'
p1492
aS'12:00 PM'
p1493
aI12
aI0
aI12
aI50
aNaNaNaNaNaNaNag5
aa(lp1494
S'MUP579'
p1495
aI73145
aI19
aI20
aS'W F'
p1496
aS' 3:00 PM'
p1497
aI15
aI0
aI16
aI50
aNaNaNaNaNaNaNag5
aa(lp1498
S'MUP579'
p1499
aI73265
aI30
aI30
ag39
aNaNaNaNaNaNaNaNaNaNaNaNag5
aa(lp1500
S'MUP579'
p1501
aI73143
aI28
aI30
ag39
aNaNaNaNaNaNaNaNaNaNaNaNag5
aa(lp1502
S'MUP579'
p1503
aI73475
aI29
aI30
aS'Th'
p1504
aS' 8:40 AM'
p1505
aI8
aI40
aI10
aI20
aNaNaNaNaNaNaNag5
aa(lp1506
S'MUP579'
p1507
aI73259
aI29
aI30
ag99
aS' 4:30 PM'
p1508
aI16
aI30
aI17
aI30
aNaNaNaNaNaNaNag5
aa(lp1509
S'MUP579'
p1510
aI73260
aI30
aI30
ag39
aNaNaNaNaNaNaNaNaNaNaNaNag5
aa(lp1511
S'MUP579'
p1512
aI73268
aI29
aI30
ag39
aNaNaNaNaNaNaNaNaNaNaNaNag5
aa(lp1513
S'MUP579'
p1514
aI73266
aI28
aI30
ag3
aS'11:50AM'
p1515
aI11
aI50
aI13
aI45
ag3
aS'11:50AM'
p1516
aI11
aI50
aS'2:30PM'
p1517
aI14
aI30
ag5
aa(lp1518
S'MUP579'
p1519
aI77977
aI15
aI15
ag8
aS' 7:30 PM'
p1520
aI19
aI30
aI21
aI0
aNaNaNaNaNaNaNag5
aa(lp1521
S'MUP579'
p1522
aI73264
aI27
aI30
ag39
aNaNaNaNaNaNaNaNaNaNaNaNag5
aa(lp1523
S'MUP579'
p1524
aI72780
aI20
aI20
ag39
aNaNaNaNaNaNaNaNaNaNaNaNag5
aa(lp1525
S'MUP579'
p1526
aI73257
aI28
aI30
ag39
aNaNaNaNaNaNaNaNaNaNaNaNag5
aa(lp1527
S'MUP579'
p1528
aI80970
aI28
aI30
ag12
aS' 4:45 PM'
p1529
aI16
aI45
aI17
aI45
aNaNaNaNaNaNaNag5
aa(lp1530
S'MUP579'
p1531
aI73263
aI30
aI30
aS'M W'
p1532
aS' 6:00 PM'
p1533
aI18
aI0
aI19
aI0
aNaNaNaNaNaNaNag5
aa(lp1534
S'MUP579'
p1535
aI73267
aI30
aI30
aS'M W'
p1536
aS' 6:00 PM'
p1537
aI18
aI0
aI19
aI0
aNaNaNaNaNaNaNag5
aa(lp1538
S'MUP579'
p1539
aI73269
aI30
aI30
aS'M W'
p1540
aS' 6:00 PM'
p1541
aI18
aI0
aI19
aI0
aNaNaNaNaNaNaNag5
aa(lp1542
S'MUP581'
p1543
aI73280
aI30
aI30
ag39
aNaNaNaNaNaNaNaNaNaNaNaNag5
aa(lp1544
S'MUP581'
p1545
aI72590
aI30
aI30
ag39
aNaNaNaNaNaNaNaNaNaNaNaNag5
aa(lp1546
S'MUP581'
p1547
aI72591
aI30
aI30
ag99
aS'12:00 PM'
p1548
aI12
aI0
aI12
aI50
aNaNaNaNaNaNaNag5
aa(lp1549
S'MUP581'
p1550
aI72592
aI30
aI30
ag39
aNaNaNaNaNaNaNaNaNaNaNaNag5
aa(lp1551
S'MUP581'
p1552
aI72779
aI10
aI10
ag39
aNaNaNaNaNaNaNaNaNaNaNaNag5
aa(lp1553
S'MUP581'
p1554
aI72593
aI9
aI10
ag99
aS' 2:00 PM'
p1555
aI14
aI0
aI16
aI0
aNaNaNaNaNaNaNag5
aa(lp1556
S'MUP581'
p1557
aI73279
aI9
aI10
ag99
aS' 3:00 PM'
p1558
aI15
aI0
aI17
aI0
aNaNaNaNaNaNaNag5
aa(lp1559
S'MUP581'
p1560
aI80157
aI10
aI10
aS'Th'
p1561
aS' 7:30 AM'
p1562
aI7
aI30
aI9
aI30
aNaNaNaNaNaNaNag5
aa(lp1563
S'MUP585'
p1564
aI73220
aI12
aI12
aS'T Th'
p1565
aS'11:50 AM'
p1566
aI11
aI50
aI12
aI40
aNaNaNaNaNaNaNag5
aa(lp1567
S'MUP585'
p1568
aI91853
aI10
aI10
aS'M W'
p1569
aS' 3:00 PM'
p1570
aI15
aI0
aI16
aI0
aNaNaNaNaNaNaNag5
aa(lp1571
S'MUP585'
p1572
aI73221
aI15
aI15
aS'T Th'
p1573
aS' 4:30 PM'
p1574
aI16
aI30
aI17
aI45
aNaNaNaNaNaNaNag5
aa(lp1575
S'MUP586'
p1576
aI73146
aI30
aI30
ag8
aS' 3:00 PM'
p1577
aI15
aI0
aI16
aI50
aNaNaNaNaNaNaNag5
aa(lp1578
S'MUP586'
p1579
aI73147
aI30
aI30
aS'M W'
p1580
aS' 1:30 PM'
p1581
aI13
aI30
aI15
aI0
aNaNaNaNaNaNaNag5
aa(lp1582
S'MUP586'
p1583
aI73148
aI30
aI30
aS'T Th'
p1584
aS' 3:15 PM'
p1585
aI15
aI15
aI16
aI45
aNaNaNaNaNaNaNag5
aa(lp1586
S'MUP587'
p1587
aI73276
aI8
aI8
ag12
aS' 4:30 PM'
p1588
aI16
aI30
aI18
aI0
aNaNaNaNaNaNaNag5
aa(lp1589
S'MUP587'
p1590
aI73274
aI6
aI7
ag8
aS' 4:30 PM'
p1591
aI16
aI30
aI18
aI0
aNaNaNaNaNaNaNag5
aa(lp1592
S'MUP587'
p1593
aI77879
aI15
aI15
ag8
aS' 7:30 PM'
p1594
aI19
aI30
aI20
aI45
aNaNaNaNaNaNaNag210
aa(lp1595
S'MUP587'
p1596
aI73275
aI4
aI5
aS'T Th'
p1597
aS' 3:00 PM'
p1598
aI15
aI0
aI16
aI15
aNaNaNaNaNaNaNag5
aa(lp1599
S'MUP588'
p1600
aI73277
aI19
aI20
ag99
aS'11:45AM'
p1601
aI11
aI45
aI12
aI45
ag99
aS'1:00PM'
p1602
aI13
aI0
aS'1:30PM'
p1603
aI13
aI30
ag5
aa(lp1604
S'MUP590'
p1605
aI73243
aI49
aI50
ag39
aNaNaNaNaNaNaNaNaNaNaNaNag5
aa(lp1606
S'MUP591'
p1607
aI73693
aI30
aI30
ag39
aNaNaNaNaNaNaNaNaNaNaNaNag5
aa(lp1608
S'MUP591'
p1609
aI91448
aI5
aI5
aS'M W'
p1610
aS'10:30 AM'
p1611
aI10
aI30
aI11
aI45
aNaNaNaNaNaNaNag5
aa(lp1612
S'MUP596'
p1613
aI81188
aI94
aI100
ag39
aNaNaNaNaNaNaNaNaNaNaNaNag5
aa(lp1614
S'MUP596'
p1615
aI72782
aI30
aI30
ag39
aNaNaNaNaNaNaNaNaNaNaNaNag5
aa(lp1616
S'MUP596'
p1617
aI80223
aI15
aI15
ag39
aNaNaNaNaNaNaNaNaNaNaNaNag5
aa(lp1618
S'MUP597'
p1619
aI81189
aI93
aI100
ag39
aNaNaNaNaNaNaNaNaNaNaNaNag5
aa(lp1620
S'MUP597'
p1621
aI80224
aI15
aI15
ag39
aNaNaNaNaNaNaNaNaNaNaNaNag5
aa(lp1622
S'MUP597'
p1623
aI73010
aI30
aI30
ag39
aNaNaNaNaNaNaNaNaNaNaNaNag5
aa(lp1624
S'MUP598'
p1625
aI80880
aI9
aI10
ag99
aS' 4:30 PM'
p1626
aI16
aI30
aI19
aI15
aNaNaNaNaNaNaNag5
aa(lp1627
S'MUP598'
p1628
aI72099
aI16
aI20
ag3
aS'12:55 PM'
p1629
aI12
aI55
aI14
aI50
aNaNaNaNaNaNaNag5
aa(lp1630
S'MUP598'
p1631
aI72100
aI4
aI10
ag39
aNaNaNaNaNaNaNaNaNaNaNaNag5
aa(lp1632
S'MUP598'
p1633
aI75253
aI30
aI30
ag39
aNaNaNaNaNaNaNaNaNaNaNaNag5
aa(lp1634
S'MUP598'
p1635
aI73694
aI10
aI10
ag39
aNaNaNaNaNaNaNaNaNaNaNaNag5
aa(lp1636
S'MUP598'
p1637
aI75212
aI100
aI100
aS'T Th'
p1638
aS' 7:30 PM'
p1639
aI19
aI30
aI21
aI0
aNaNaNaNaNaNaNag5
aa(lp1640
S'MUP599'
p1641
aI73244
aI30
aI30
ag39
aNaNaNaNaNaNaNaNaNaNaNaNag5
aa(lp1642
S'MUP684'
p1643
aI74256
aI2
aI2
ag39
aNaNaNaNaNaNaNaNaNaNaNaNag5
aa(lp1644
S'MUP727'
p1645
aI72118
aI27
aI30
ag12
aS'12:00 PM'
p1646
aI12
aI0
aI12
aI50
aNaNaNaNaNaNaNag5
aa(lp1647
S'MUP727'
p1648
aI72119
aI29
aI30
aS'M W'
p1649
aS'12:00 PM'
p1650
aI12
aI0
aI12
aI50
aNaNaNaNaNaNaNag5
aa(lp1651
S'MUP727'
p1652
aI72120
aI30
aI30
aS'W Th F'
p1653
aS'12:00 PM'
p1654
aI12
aI0
aI12
aI50
aNaNaNaNaNaNaNag5
aa(lp1655
S'MUP727'
p1656
aI72121
aI30
aI30
aS'M W'
p1657
aS'12:00PM'
p1658
aI12
aI0
aI12
aI50
ag3
aS'12:00PM'
p1659
aI12
aI0
aS'12:50PM'
p1660
aI12
aI50
ag5
aa(lp1661
S'MUP727'
p1662
aI72122
aI30
aI30
aS'M W'
p1663
aS'12:00PM'
p1664
aI12
aI0
aI12
aI50
ag3
aS'12:00PM'
p1665
aI12
aI0
aS'12:50PM'
p1666
aI12
aI50
ag5
aa(lp1667
S'MUP727'
p1668
aI72101
aI29
aI30
ag39
aNaNaNaNaNaNaNaNaNaNaNaNag5
aa(lp1669
S'MUP727'
p1670
aI72102
aI29
aI30
ag39
aNaNaNaNaNaNaNaNaNaNaNaNag5
aa(lp1671
S'MUP727'
p1672
aI72103
aI27
aI30
ag39
aNaNaNaNaNaNaNaNaNaNaNaNag5
aa(lp1673
S'MUP727'
p1674
aI72104
aI30
aI30
ag39
aNaNaNaNaNaNaNaNaNaNaNaNag5
aa(lp1675
S'MUP727'
p1676
aI72107
aI29
aI30
ag39
aNaNaNaNaNaNaNaNaNaNaNaNag5
aa(lp1677
S'MUP727'
p1678
aI72108
aI28
aI30
ag39
aNaNaNaNaNaNaNaNaNaNaNaNag5
aa(lp1679
S'MUP727'
p1680
aI72106
aI30
aI30
ag39
aNaNaNaNaNaNaNaNaNaNaNaNag5
aa(lp1681
S'MUP727'
p1682
aI72123
aI28
aI30
ag12
aS'11:50 AM'
p1683
aI11
aI50
aI12
aI40
aNaNaNaNaNaNaNag5
aa(lp1684
S'MUP727'
p1685
aI72124
aI30
aI30
aS'Th'
p1686
aS' 1:00 PM'
p1687
aI13
aI0
aI15
aI0
aNaNaNaNaNaNaNag5
aa(lp1688
S'MUP727'
p1689
aI72125
aI29
aI30
aS'Th'
p1690
aS' 3:00 PM'
p1691
aI15
aI0
aI17
aI0
aNaNaNaNaNaNaNag5
aa(lp1692
S'MUP727'
p1693
aI72126
aI29
aI30
aS'Th'
p1694
aS' 3:15 PM'
p1695
aI15
aI15
aI17
aI15
aNaNaNaNaNaNaNag5
aa(lp1696
S'MUP727'
p1697
aI72127
aI29
aI30
aS'Th'
p1698
aS' 1:30 PM'
p1699
aI13
aI30
aI14
aI45
aNaNaNaNaNaNaNag5
aa(lp1700
S'MUP727'
p1701
aI72128
aI29
aI30
aS'Th'
p1702
aS' 1:30 PM'
p1703
aI13
aI30
aI15
aI0
aNaNaNaNaNaNaNag5
aa(lp1704
S'MUP727'
p1705
aI72129
aI29
aI30
ag99
aS' 1:00 PM'
p1706
aI13
aI0
aI15
aI0
aNaNaNaNaNaNaNag5
aa(lp1707
S'MUP727'
p1708
aI72130
aI28
aI30
ag39
aNaNaNaNaNaNaNaNaNaNaNaNag5
aa(lp1709
S'MUP727'
p1710
aI72131
aI30
aI30
ag99
aS' 4:15 PM'
p1711
aI16
aI15
aI18
aI15
aNaNaNaNaNaNaNag5
aa(lp1712
S'MUP727'
p1713
aI72109
aI9
aI10
aS'W F'
p1714
aS'12:00 PM'
p1715
aI12
aI0
aI12
aI50
aNaNaNaNaNaNaNag5
aa(lp1716
S'MUP727'
p1717
aI72110
aI10
aI10
ag3
aS'12:00 PM'
p1718
aI12
aI0
aI14
aI0
aNaNaNaNaNaNaNag5
aa(lp1719
S'MUP727'
p1720
aI72112
aI26
aI30
aS'W F'
p1721
aS'12:00 PM'
p1722
aI12
aI0
aI12
aI50
aNaNaNaNaNaNaNag5
aa(lp1723
S'MUP727'
p1724
aI72111
aI27
aI30
aS'W F'
p1725
aS'12:00 PM'
p1726
aI12
aI0
aI12
aI50
aNaNaNaNaNaNaNag5
aa(lp1727
S'MUP727'
p1728
aI72113
aI29
aI30
aS'W F'
p1729
aS'12:00PM'
p1730
aI12
aI0
aI12
aI50
ag12
aS'12:00PM'
p1731
aI12
aI0
aS'12:50PM'
p1732
aI12
aI50
ag5
aa(lp1733
S'MUP727'
p1734
aI72114
aI8
aI10
aS'M F'
p1735
aS'12:00 PM'
p1736
aI12
aI0
aI12
aI50
aNaNaNaNaNaNaNag5
aa(lp1737
S'MUP727'
p1738
aI72105
aI9
aI10
ag3
aS'12:00 PM'
p1739
aI12
aI0
aI12
aI50
aNaNaNaNaNaNaNag5
aa(lp1740
S'MUP727'
p1741
aI72115
aI6
aI10
ag8
aS'12:00PM'
p1742
aI12
aI0
aI12
aI50
ag12
aS'12:00PM'
p1743
aI12
aI0
aS'12:50PM'
p1744
aI12
aI50
ag5
aa(lp1745
S'MUP727'
p1746
aI72116
aI8
aI10
ag12
aS' 3:00 PM'
p1747
aI15
aI0
aI16
aI45
aNaNaNaNaNaNaNag5
aa(lp1748
S'MUP727'
p1749
aI72117
aI8
aI10
ag8
aS'12:00PM'
p1750
aI12
aI0
aI12
aI50
ag3
aS'12:00PM'
p1751
aI12
aI0
aS'12:50PM'
p1752
aI12
aI50
ag5
aa(lp1753
S'MUP727'
p1754
aI73695
aI10
aI10
ag39
aNaNaNaNaNaNaNaNaNaNaNaNag5
aa(lp1755
S'MUP727'
p1756
aI72783
aI29
aI30
ag39
aNaNaNaNaNaNaNaNaNaNaNaNag5
aa(lp1757
S'MUP727'
p1758
aI72585
aI30
aI30
ag39
aNaNaNaNaNaNaNaNaNaNaNaNag5
aa(lp1759
S'MUP727'
p1760
aI72584
aI4
aI4
ag39
aNaNaNaNaNaNaNaNaNaNaNaNag5
aa(lp1761
S'MUP784'
p1762
aI74067
aI20
aI20
ag39
aNaNaNaNaNaNaNaNaNaNaNaNag5
aa(lp1763
S'MUP790'
p1764
aI80438
aI50
aI50
ag39
aNaNaNaNaNaNaNaNaNaNaNaNag5
aa(lp1765
S'MUP792'
p1766
aI73246
aI98
aI125
ag39
aNaNaNaNaNaNaNaNaNaNaNaNag5
aa(lp1767
S'MUP796'
p1768
aI73247
aI178
aI200
ag39
aNaNaNaNaNaNaNaNaNaNaNaNag5
aa(lp1769
S'MUP799'
p1770
aI73245
aI100
aI100
ag39
aNaNaNaNaNaNaNaNaNaNaNaNag5
aa.