(lp0
(lp1
S'NAN511'
p2
aI73560
aI8
aI12
aS'M W F'
p3
aS' 9:00 AM'
p4
aI9
aI0
aI10
aI15
aNaNaNaNaNaNaNaS'Not Reserved'
p5
aa(lp6
S'NAN542'
p7
aI73880
aI4
aI7
aS'M W'
p8
aS' 1:30 PM'
p9
aI13
aI30
aI14
aI45
aNaNaNaNaNaNaNag5
aa(lp10
S'NAN552'
p11
aI73561
aI3
aI5
aS'T Th'
p12
aS' 9:00 AM'
p13
aI9
aI0
aI10
aI15
aNaNaNaNaNaNaNag5
aa(lp14
S'NAN571'
p15
aI73881
aI3
aI12
aS'M W'
p16
aS' 5:30 PM'
p17
aI17
aI30
aI18
aI45
aNaNaNaNaNaNaNag5
aa(lp18
S'NAN591'
p19
aI73562
aI13
aI15
aS'M W'
p20
aS'11:45 AM'
p21
aI11
aI45
aI12
aI35
aNaNaNaNaNaNaNag5
aa(lp22
S'NAN593'
p23
aI73827
aI20
aI24
aS'ONLINE'
p24
aNaNaNaNaNaNaNaNaNaNaNaNag5
aa(lp25
S'NAN598'
p26
aI73828
aI0
aI3
aS'T Th'
p27
aS'12:00 PM'
p28
aI12
aI0
aI13
aI15
aNaNaNaNaNaNaNaS'Reserved'
p29
aa(lp30
S'NAN598'
p31
aI78984
aI4
aI4
aS'T Th'
p32
aS' 9:00 AM'
p33
aI9
aI0
aI10
aI15
aNaNaNaNaNaNaNag5
aa.