(lp0
(lp1
S'NAV101'
p2
aI75493
aI20
aI24
aS'M W'
p3
aS' 9:00 AM'
p4
aI9
aI0
aI10
aI15
aNaNaNaNaNaNaNaS'Not Reserved'
p5
aa(lp6
S'NAV101'
p7
aI78337
aI24
aI24
aS'M W'
p8
aS'12:00 PM'
p9
aI12
aI0
aI13
aI15
aNaNaNaNaNaNaNag5
aa(lp10
S'NAV194'
p11
aI80532
aI127
aI150
aS'M W'
p12
aS' 5:45 AM'
p13
aI5
aI45
aI6
aI45
aNaNaNaNaNaNaNag5
aa(lp14
S'NAV194'
p15
aI75260
aI99
aI150
aS'T'
p16
aS' 6:00 AM'
p17
aI6
aI0
aI8
aI0
aNaNaNaNaNaNaNag5
aa(lp18
S'NAV194'
p19
aI80835
aI0
aI0
ag16
aS' 6:00 AM'
p20
aI6
aI0
aI8
aI0
aNaNaNaNaNaNaNaS'Reserved'
p21
aa(lp22
S'NAV294'
p23
aI78334
aI8
aI24
aS'M W'
p24
aS'10:30 AM'
p25
aI10
aI30
aI11
aI45
aNaNaNaNaNaNaNag5
aa(lp26
S'NAV294'
p27
aI80180
aI15
aI24
aS'M W'
p28
aS' 1:30 PM'
p29
aI13
aI30
aI14
aI45
aNaNaNaNaNaNaNag5
aa(lp30
S'NAV301'
p31
aI91054
aI11
aI24
aS'T Th'
p32
aS' 9:00 AM'
p33
aI9
aI0
aI10
aI15
aNaNaNaNaNaNaNag5
aa(lp34
S'NAV301'
p35
aI91055
aI22
aI24
aS'T Th'
p36
aS'12:00 PM'
p37
aI12
aI0
aI13
aI15
aNaNaNaNaNaNaNag5
aa(lp38
S'NAV401'
p39
aI86189
aI20
aI24
aS'T Th'
p40
aS'10:30 AM'
p41
aI10
aI30
aI11
aI45
aNaNaNaNaNaNaNag5
aa(lp42
S'NAV401'
p43
aI86190
aI14
aI24
aS'T Th'
p44
aS' 1:30 PM'
p45
aI13
aI30
aI14
aI45
aNaNaNaNaNaNaNag5
aa(lp46
S'NAV403'
p47
aI91104
aI7
aI10
aS'M W'
p48
aS'12:00 PM'
p49
aI12
aI0
aI13
aI15
aNaNaNaNaNaNaNag5
aa(lp50
S'NAV499'
p51
aI84506
aI3
aI3
aS'M W F'
p52
aS' 6:00 PM'
p53
aI18
aI0
aI18
aI50
aNaNaNaNaNaNaNag5
aa.