(lp0
(lp1
S'NEU555'
p2
aI77447
aI6
aI8
aS'T Th'
p3
aS' 1:30 PM'
p4
aI13
aI30
aI16
aI15
aNaNaNaNaNaNaNaS'Not Reserved'
p5
aa(lp6
S'NEU555'
p7
aI77429
aI1
aI1
aS'T Th'
p8
aS' 1:30 PM'
p9
aI13
aI30
aI16
aI15
aNaNaNaNaNaNaNag5
aa(lp10
S'NEU555'
p11
aI77430
aI1
aI1
aS'T Th'
p12
aS' 1:30 PM'
p13
aI13
aI30
aI16
aI15
aNaNaNaNaNaNaNag5
aa(lp14
S'NEU555'
p15
aI77431
aI1
aI1
aS'T Th'
p16
aS' 1:30 PM'
p17
aI13
aI30
aI16
aI30
aNaNaNaNaNaNaNag5
aa(lp18
S'NEU555'
p19
aI77432
aI1
aI1
aS'T Th'
p20
aS' 1:30 PM'
p21
aI13
aI30
aI16
aI30
aNaNaNaNaNaNaNag5
aa(lp22
S'NEU558'
p23
aI77773
aI36
aI37
aS'W'
p24
aS' 4:30 PM'
p25
aI16
aI30
aI17
aI45
aNaNaNaNaNaNaNag5
aa(lp26
S'NEU591'
p27
aI82389
aI9
aI10
aS'M'
p28
aS' 4:40 PM'
p29
aI16
aI40
aI17
aI40
aNaNaNaNaNaNaNag5
aa(lp30
S'NEU591'
p31
aI80776
aI20
aI20
aS'Th'
p32
aS' 4:30 PM'
p33
aI16
aI30
aI17
aI30
aNaNaNaNaNaNaNag5
aa(lp34
S'NEU790'
p35
aI75581
aI30
aI30
aS'ONLINE'
p36
aNaNaNaNaNaNaNaNaNaNaNaNag5
aa(lp37
S'NEU792'
p38
aI75582
aI30
aI30
ag36
aNaNaNaNaNaNaNaNaNaNaNaNag5
aa(lp39
S'NEU795'
p40
aI75584
aI30
aI30
ag36
aNaNaNaNaNaNaNaNaNaNaNaNag5
aa(lp41
S'NEU799'
p42
aI75583
aI30
aI30
ag36
aNaNaNaNaNaNaNaNaNaNaNaNag5
aa.