(lp0
(lp1
S'NLM160'
p2
aI73813
aI55
aI80
aS'M W F'
p3
aS'10:30 AM'
p4
aI10
aI30
aI11
aI20
aNaNaNaNaNaNaNaS'Not Reserved'
p5
aa(lp6
S'NLM160'
p7
aI75752
aI33
aI50
aS'T Th'
p8
aS' 3:00 PM'
p9
aI15
aI0
aI16
aI15
aNaNaNaNaNaNaNag5
aa(lp10
S'NLM220'
p11
aI72133
aI39
aI60
aS'M W F'
p12
aS'12:00 PM'
p13
aI12
aI0
aI12
aI50
aNaNaNaNaNaNaNag5
aa(lp14
S'NLM220'
p15
aI80487
aI24
aI60
aS'T Th'
p16
aS' 4:30 PM'
p17
aI16
aI30
aI17
aI45
aNaNaNaNaNaNaNag5
aa(lp18
S'NLM235'
p19
aI84199
aI39
aI40
aS'W'
p20
aS' 6:00 PM'
p21
aI18
aI0
aI20
aI45
aNaNaNaNaNaNaNag5
aa(lp22
S'NLM300'
p23
aI72134
aI36
aI65
ag20
aS' 6:00 PM'
p24
aI18
aI0
aI20
aI45
aNaNaNaNaNaNaNag5
aa(lp25
S'NLM300'
p26
aI90856
aI12
aI50
aS'T'
p27
aS' 6:00 PM'
p28
aI18
aI0
aI20
aI30
aNaNaNaNaNaNaNag5
aa(lp29
S'NLM310'
p30
aI75256
aI47
aI100
aS'ONLINE'
p31
aNaNaNaNaNaNaNaNaNaNaNaNaS'Reserved'
p32
aa(lp33
S'NLM320'
p34
aI72135
aI5
aI35
aS'M'
p35
aS' 4:30 PM'
p36
aI16
aI30
aI17
aI20
aNaNaNaNaNaNaNag5
aa(lp37
S'NLM320'
p38
aI90192
aI35
aI35
ag35
aS' 6:00 PM'
p39
aI18
aI0
aI18
aI50
aNaNaNaNaNaNaNag5
aa(lp40
S'NLM380'
p41
aI88208
aI25
aI40
aS'T Th'
p42
aS' 3:00 PM'
p43
aI15
aI0
aI16
aI15
aNaNaNaNaNaNaNag5
aa(lp44
S'NLM402'
p45
aI72630
aI8
aI35
aS'M W'
p46
aS' 3:00 PM'
p47
aI15
aI0
aI16
aI15
aNaNaNaNaNaNaNag5
aa(lp48
S'NLM410'
p49
aI73508
aI10
aI36
aS'T Th'
p50
aS' 1:30 PM'
p51
aI13
aI30
aI14
aI45
aNaNaNaNaNaNaNag5
aa(lp52
S'NLM410'
p53
aI91477
aI29
aI30
ag31
aNaNaNaNaNaNaNaNaNaNaNaNag32
aa(lp54
S'NLM420'
p55
aI90144
aI18
aI35
ag20
aS' 4:30 PM'
p56
aI16
aI30
aI17
aI20
aNaNaNaNaNaNaNag5
aa(lp57
S'NLM430'
p58
aI77415
aI3
aI40
aS'Th'
p59
aS' 6:00 PM'
p60
aI18
aI0
aI20
aI45
aNaNaNaNaNaNaNag5
aa(lp61
S'NLM435'
p62
aI85958
aI0
aI1
ag31
aNaNaNaNaNaNaNaNaNaNaNaNag32
aa(lp63
S'NLM463'
p64
aI72137
aI20
aI20
ag31
aNaNaNaNaNaNaNaNaNaNaNaNag32
aa(lp65
S'NLM463'
p66
aI72787
aI10
aI10
ag31
aNaNaNaNaNaNaNaNaNaNaNaNag32
aa(lp67
S'NLM484'
p68
aI80868
aI5
aI5
ag31
aNaNaNaNaNaNaNaNaNaNaNaNag5
aa(lp69
S'NLM492'
p70
aI74965
aI3
aI5
ag31
aNaNaNaNaNaNaNaNaNaNaNaNag5
aa(lp71
S'NLM493'
p72
aI75937
aI4
aI5
ag31
aNaNaNaNaNaNaNaNaNaNaNaNag5
aa(lp73
S'NLM499'
p74
aI72800
aI5
aI5
ag31
aNaNaNaNaNaNaNaNaNaNaNaNag5
aa(lp75
S'NLM510'
p76
aI72138
aI8
aI24
ag27
aS' 6:00 PM'
p77
aI18
aI0
aI20
aI45
aNaNaNaNaNaNaNag5
aa(lp78
S'NLM520'
p79
aI72878
aI4
aI24
ag20
aS' 6:00 PM'
p80
aI18
aI0
aI20
aI45
aNaNaNaNaNaNaNag5
aa(lp81
S'NLM525'
p82
aI80494
aI11
aI24
ag35
aS' 6:00 PM'
p83
aI18
aI0
aI20
aI45
aNaNaNaNaNaNaNag5
aa(lp84
S'NLM540'
p85
aI88358
aI19
aI30
ag35
aS' 6:00 PM'
p86
aI18
aI0
aI20
aI45
aNaNaNaNaNaNaNag5
aa(lp87
S'NLM545'
p88
aI76805
aI12
aI24
aS'Th'
p89
aS' 6:00 PM'
p90
aI18
aI0
aI20
aI45
aNaNaNaNaNaNaNag5
aa(lp91
S'NLM550'
p92
aI88368
aI16
aI24
ag27
aS' 6:00 PM'
p93
aI18
aI0
aI20
aI30
aNaNaNaNaNaNaNag5
aa(lp94
S'NLM562'
p95
aI73515
aI24
aI34
ag31
aNaNaNaNaNaNaNaNaNaNaNaNag32
aa(lp96
S'NLM565'
p97
aI75249
aI0
aI27
ag31
aNaNaNaNaNaNaNaNaNaNaNaNag32
aa(lp98
S'NLM572'
p99
aI79437
aI9
aI22
ag31
aNaNaNaNaNaNaNaNaNaNaNaNag32
aa(lp100
S'NLM590'
p101
aI72139
aI5
aI5
ag31
aNaNaNaNaNaNaNaNaNaNaNaNag5
aa(lp102
S'NLM592'
p103
aI75286
aI5
aI5
ag31
aNaNaNaNaNaNaNaNaNaNaNaNag5
aa(lp104
S'NLM595'
p105
aI80899
aI1
aI1
ag31
aNaNaNaNaNaNaNaNaNaNaNaNag5
aa(lp106
S'NLM620'
p107
aI72747
aI24
aI24
ag20
aS' 6:00 PM'
p108
aI18
aI0
aI20
aI45
aNaNaNaNaNaNaNag5
aa.