(lp0
(lp1
S'NTR100'
p2
aI86017
aI22
aI40
aS'ONLINE'
p3
aNaNaNaNaNaNaNaNaNaNaNaNaS'Reserved'
p4
aa(lp5
S'NTR100'
p6
aI74512
aI11
aI40
ag3
aNaNaNaNaNaNaNaNaNaNaNaNag4
aa(lp7
S'NTR100'
p8
aI74513
aI89
aI120
aS'T Th'
p9
aS' 1:30 PM'
p10
aI13
aI30
aI14
aI45
aNaNaNaNaNaNaNaS'Not Reserved'
p11
aa(lp12
S'NTR142'
p13
aI74514
aI56
aI126
ag3
aNaNaNaNaNaNaNaNaNaNaNaNag4
aa(lp14
S'NTR142'
p15
aI74515
aI9
aI18
aS'F'
p16
aS'10:15 AM'
p17
aI10
aI15
aI12
aI45
aNaNaNaNaNaNaNag11
aa(lp18
S'NTR142'
p19
aI74516
aI3
aI18
aS'T'
p20
aS'10:15 AM'
p21
aI10
aI15
aI12
aI45
aNaNaNaNaNaNaNag11
aa(lp22
S'NTR142'
p23
aI74517
aI7
aI18
ag20
aS' 2:30 PM'
p24
aI14
aI30
aI17
aI0
aNaNaNaNaNaNaNag11
aa(lp25
S'NTR142'
p26
aI75898
aI2
aI18
aS'W'
p27
aS'10:15 AM'
p28
aI10
aI15
aI12
aI45
aNaNaNaNaNaNaNag11
aa(lp29
S'NTR142'
p30
aI75899
aI12
aI18
ag27
aS' 2:30 PM'
p31
aI14
aI30
aI17
aI0
aNaNaNaNaNaNaNag11
aa(lp32
S'NTR142'
p33
aI76437
aI15
aI18
aS'Th'
p34
aS'10:15 AM'
p35
aI10
aI15
aI12
aI45
aNaNaNaNaNaNaNag11
aa(lp36
S'NTR142'
p37
aI76543
aI15
aI18
aS'Th'
p38
aS' 2:30 PM'
p39
aI14
aI30
aI17
aI0
aNaNaNaNaNaNaNag11
aa(lp40
S'NTR142'
p41
aI86194
aI11
aI18
ag16
aS' 2:30 PM'
p42
aI14
aI30
aI17
aI0
aNaNaNaNaNaNaNag11
aa(lp43
S'NTR150'
p44
aI74520
aI73
aI115
aS'M'
p45
aS' 1:30 PM'
p46
aI13
aI30
aI14
aI45
aNaNaNaNaNaNaNag11
aa(lp47
S'NTR241'
p48
aI74522
aI38
aI80
aS'W F'
p49
aS' 1:30 PM'
p50
aI13
aI30
aI14
aI45
aNaNaNaNaNaNaNag11
aa(lp51
S'NTR241'
p52
aI74521
aI39
aI120
aS'T Th'
p53
aS' 3:00 PM'
p54
aI15
aI0
aI16
aI15
aNaNaNaNaNaNaNag11
aa(lp55
S'NTR241'
p56
aI75564
aI27
aI100
aS'M W'
p57
aS'12:00 PM'
p58
aI12
aI0
aI13
aI15
aNaNaNaNaNaNaNag11
aa(lp59
S'NTR241'
p60
aI77137
aI0
aI40
ag3
aNaNaNaNaNaNaNaNaNaNaNaNag4
aa(lp61
S'NTR241'
p62
aI77200
aI30
aI80
aS'T Th'
p63
aS' 9:00 AM'
p64
aI9
aI0
aI10
aI15
aNaNaNaNaNaNaNag11
aa(lp65
S'NTR241'
p66
aI77201
aI11
aI84
aS'T Th'
p67
aS'12:00 PM'
p68
aI12
aI0
aI13
aI15
aNaNaNaNaNaNaNag11
aa(lp69
S'NTR300'
p70
aI74518
aI37
aI50
ag27
aS'3:00PM'
p71
aI15
aI0
aI16
aI15
aS''
p72
ag72
aNaNag72
aNaNag11
aa(lp73
S'NTR320'
p74
aI74523
aI1
aI30
ag3
aNaNaNaNaNaNaNaNaNaNaNaNag4
aa(lp75
S'NTR320'
p76
aI80511
aI34
aI40
ag3
aNaNaNaNaNaNaNaNaNaNaNaNag4
aa(lp77
S'NTR340'
p78
aI74530
aI0
aI80
ag20
aS'3:00PM'
p79
aI15
aI0
aI16
aI15
ag72
ag72
aNaNag72
aNaNag4
aa(lp80
S'NTR340'
p81
aI74702
aI29
aI80
aS'Th'
p82
aS'3:00PM'
p83
aI15
aI0
aI16
aI15
ag72
ag72
aNaNag72
aNaNag11
aa(lp84
S'NTR341'
p85
aI74531
aI25
aI70
aS'T Th'
p86
aS' 1:30 PM'
p87
aI13
aI30
aI14
aI45
aNaNaNaNaNaNaNag11
aa(lp88
S'NTR341'
p89
aI74532
aI42
aI70
aS'T Th'
p90
aS' 9:00 AM'
p91
aI9
aI0
aI10
aI15
aNaNaNaNaNaNaNag11
aa(lp92
S'NTR341'
p93
aI77135
aI34
aI70
aS'T Th'
p94
aS'10:30 AM'
p95
aI10
aI30
aI11
aI45
aNaNaNaNaNaNaNag11
aa(lp96
S'NTR343'
p97
aI74533
aI30
aI60
ag45
aS'12:00PM'
p98
aI12
aI0
aI12
aI50
ag72
ag72
aNaNag72
aNaNag11
aa(lp99
S'NTR343'
p100
aI75591
aI29
aI60
ag45
aS'1:30PM'
p101
aI13
aI30
aI14
aI20
ag72
ag72
aNaNag72
aNaNag11
aa(lp102
S'NTR344'
p103
aI75258
aI4
aI45
ag3
aNaNaNaNaNaNaNaNaNaNaNaNag4
aa(lp104
S'NTR344'
p105
aI74534
aI37
aI70
aS'Th'
p106
aS'12:00PM'
p107
aI12
aI0
aI13
aI15
ag72
ag72
aNaNag72
aNaNag11
aa(lp108
S'NTR345'
p109
aI74535
aI31
aI45
aS'M W F'
p110
aS' 9:00 AM'
p111
aI9
aI0
aI9
aI50
aNaNaNaNaNaNaNag4
aa(lp112
S'NTR345'
p113
aI77619
aI12
aI45
aS'M W F'
p114
aS'10:30 AM'
p115
aI10
aI30
aI11
aI20
aNaNaNaNaNaNaNag4
aa(lp116
S'NTR348'
p117
aI84440
aI0
aI20
ag3
aNaNaNaNaNaNaNaNaNaNaNaNag4
aa(lp118
S'NTR348'
p119
aI77337
aI33
aI40
ag3
aNaNaNaNaNaNaNaNaNaNaNaNag4
aa(lp120
S'NTR348'
p121
aI84441
aI5
aI18
ag3
aNaNaNaNaNaNaNaNaNaNaNaNag4
aa(lp122
S'NTR348'
p123
aI75680
aI34
aI40
ag3
aNaNaNaNaNaNaNaNaNaNaNaNag4
aa(lp124
S'NTR350'
p125
aI75625
aI0
aI60
ag16
aS'1:30PM'
p126
aI13
aI30
aI14
aI45
ag72
ag72
aNaNag72
aNaNag4
aa(lp127
S'NTR351'
p128
aI77169
aI0
aI40
ag3
aNaNaNaNaNaNaNaNaNaNaNaNag4
aa(lp129
S'NTR351'
p130
aI74536
aI17
aI40
aS'M W F'
p131
aS'12:00 PM'
p132
aI12
aI0
aI12
aI50
aNaNaNaNaNaNaNag4
aa(lp133
S'NTR351'
p134
aI77423
aI0
aI35
ag3
aNaNaNaNaNaNaNaNaNaNaNaNag4
aa(lp135
S'NTR353'
p136
aI82615
aI59
aI70
ag16
aS'12:00PM'
p137
aI12
aI0
aI13
aI15
ag72
aS'12:00AM'
p138
aNaNaS'12:00AM'
p139
aNaNag11
aa(lp140
S'NTR400'
p141
aI74537
aI41
aI100
ag16
aS'10:30AM'
p142
aI10
aI30
aI11
aI45
ag72
ag72
aNaNag72
aNaNag11
aa(lp143
S'NTR401'
p144
aI75565
aI25
aI45
ag3
aNaNaNaNaNaNaNaNaNaNaNaNag4
aa(lp145
S'NTR440'
p146
aI74557
aI8
aI70
aS'T Th'
p147
aS'10:30 AM'
p148
aI10
aI30
aI11
aI45
aNaNaNaNaNaNaNag11
aa(lp149
S'NTR440'
p150
aI77219
aI2
aI5
aS'T Th'
p151
aS'10:30 AM'
p152
aI10
aI30
aI11
aI45
aNaNaNaNaNaNaNag4
aa(lp153
S'NTR440'
p154
aI82297
aI20
aI60
aS'M W'
p155
aS' 3:00 PM'
p156
aI15
aI0
aI16
aI15
aNaNaNaNaNaNaNag11
aa(lp157
S'NTR441'
p158
aI74558
aI48
aI70
aS'T Th'
p159
aS'10:30 AM'
p160
aI10
aI30
aI11
aI45
aNaNaNaNaNaNaNag11
aa(lp161
S'NTR441'
p162
aI75589
aI34
aI70
aS'T Th'
p163
aS'12:00 PM'
p164
aI12
aI0
aI13
aI15
aNaNaNaNaNaNaNag11
aa(lp165
S'NTR441'
p166
aI77227
aI0
aI2
aS'T Th'
p167
aS'12:00 PM'
p168
aI12
aI0
aI13
aI15
aNaNaNaNaNaNaNag4
aa(lp169
S'NTR441'
p170
aI77226
aI1
aI2
aS'T Th'
p171
aS'10:30 AM'
p172
aI10
aI30
aI11
aI45
aNaNaNaNaNaNaNag4
aa(lp173
S'NTR444'
p174
aI74559
aI7
aI70
aS'T Th'
p175
aS' 3:00 PM'
p176
aI15
aI0
aI16
aI15
aNaNaNaNaNaNaNag11
aa(lp177
S'NTR444'
p178
aI74744
aI48
aI70
aS'T Th'
p179
aS' 4:30 PM'
p180
aI16
aI30
aI17
aI45
aNaNaNaNaNaNaNag11
aa(lp181
S'NTR445'
p182
aI74560
aI13
aI50
aS'W F'
p183
aS'12:00 PM'
p184
aI12
aI0
aI12
aI50
aNaNaNaNaNaNaNag11
aa(lp185
S'NTR445'
p186
aI77206
aI0
aI12
ag20
aS' 7:30 AM'
p187
aI7
aI30
aI10
aI20
aNaNaNaNaNaNaNag4
aa(lp188
S'NTR445'
p189
aI77207
aI0
aI12
ag27
aS' 7:30 AM'
p190
aI7
aI30
aI10
aI20
aNaNaNaNaNaNaNag4
aa(lp191
S'NTR445'
p192
aI77208
aI9
aI12
aS'Th'
p193
aS' 7:30 AM'
p194
aI7
aI30
aI10
aI20
aNaNaNaNaNaNaNag11
aa(lp195
S'NTR445'
p196
aI77209
aI2
aI12
ag16
aS' 7:30 AM'
p197
aI7
aI30
aI10
aI20
aNaNaNaNaNaNaNag11
aa(lp198
S'NTR445'
p199
aI75566
aI13
aI50
aS'W F'
p200
aS' 1:30 PM'
p201
aI13
aI30
aI14
aI20
aNaNaNaNaNaNaNag11
aa(lp202
S'NTR445'
p203
aI77638
aI7
aI12
ag20
aS'10:40 AM'
p204
aI10
aI40
aI13
aI30
aNaNaNaNaNaNaNag11
aa(lp205
S'NTR445'
p206
aI77639
aI0
aI12
ag27
aS'10:40 AM'
p207
aI10
aI40
aI13
aI30
aNaNaNaNaNaNaNag4
aa(lp208
S'NTR445'
p209
aI77640
aI4
aI12
aS'Th'
p210
aS'10:40 AM'
p211
aI10
aI40
aI13
aI30
aNaNaNaNaNaNaNag11
aa(lp212
S'NTR445'
p213
aI77641
aI0
aI12
ag16
aS'10:40 AM'
p214
aI10
aI40
aI13
aI30
aNaNaNaNaNaNaNag4
aa(lp215
S'NTR446'
p216
aI74561
aI26
aI100
aS'T Th'
p217
aS' 1:30 PM'
p218
aI13
aI30
aI14
aI45
aNaNaNaNaNaNaNag11
aa(lp219
S'NTR446'
p220
aI74562
aI12
aI25
ag45
aS' 7:30 AM'
p221
aI7
aI30
aI10
aI15
aNaNaNaNaNaNaNag11
aa(lp222
S'NTR446'
p223
aI74563
aI0
aI25
ag27
aS' 7:30 AM'
p224
aI7
aI30
aI10
aI15
aNaNaNaNaNaNaNag4
aa(lp225
S'NTR446'
p226
aI74564
aI14
aI50
ag16
aS' 7:30 AM'
p227
aI7
aI30
aI10
aI15
aNaNaNaNaNaNaNag11
aa(lp228
S'NTR448'
p229
aI74565
aI28
aI89
ag16
aS'12:00PM'
p230
aI12
aI0
aI13
aI15
ag72
ag72
aNaNag72
aNaNag11
aa(lp231
S'NTR448'
p232
aI77473
aI12
aI50
ag45
aS'3:00PM'
p233
aI15
aI0
aI16
aI15
ag72
ag72
aNaNag72
aNaNag11
aa(lp234
S'NTR450'
p235
aI74745
aI48
aI84
aS'M W'
p236
aS'10:30 AM'
p237
aI10
aI30
aI11
aI45
aNaNaNaNaNaNaNag11
aa(lp238
S'NTR450'
p239
aI82654
aI16
aI80
aS'M W'
p240
aS'12:00 PM'
p241
aI12
aI0
aI13
aI15
aNaNaNaNaNaNaNag11
aa(lp242
S'NTR453'
p243
aI82604
aI0
aI23
ag3
aNaNaNaNaNaNaNaNaNaNaNaNag4
aa(lp244
S'NTR457'
p245
aI75945
aI17
aI60
ag27
aS'1:30PM'
p246
aI13
aI30
aI14
aI45
ag72
ag72
aNaNag72
aNaNag11
aa(lp247
S'NTR460'
p248
aI82779
aI29
aI40
ag20
aS'12:00PM'
p249
aI12
aI0
aI13
aI15
ag72
ag72
aNaNag72
aNaNag11
aa(lp250
S'NTR492'
p251
aI75073
aI9
aI10
ag3
aNaNaNaNaNaNaNaNaNaNaNaNag4
aa(lp252
S'NTR493'
p253
aI74566
aI8
aI10
ag3
aNaNaNaNaNaNaNaNaNaNaNaNag4
aa(lp254
S'NTR494'
p255
aI80514
aI18
aI20
ag20
aS'12:00PM'
p256
aI12
aI0
aI13
aI15
ag72
ag72
aNaNag72
aNaNag11
aa(lp257
S'NTR494'
p258
aI80525
aI20
aI20
aS'Th'
p259
aS'12:00PM'
p260
aI12
aI0
aI13
aI15
ag72
ag72
aNaNag72
aNaNag11
aa(lp261
S'NTR498'
p262
aI84456
aI12
aI20
ag16
aS' 9:00 AM'
p263
aI9
aI0
aI9
aI50
aNaNaNaNaNaNaNag11
aa(lp264
S'NTR499'
p265
aI74567
aI20
aI20
ag3
aNaNaNaNaNaNaNaNaNaNaNaNag11
aa(lp266
S'NTR500'
p267
aI74579
aI29
aI30
ag20
aS'4:30PM'
p268
aI16
aI30
aI19
aI15
ag72
ag72
aNaNag72
aNaNag4
aa(lp269
S'NTR500'
p270
aI82616
aI20
aI20
ag3
aNaNaNaNaNaNaNaNaNaNaNaNag4
aa(lp271
S'NTR501'
p272
aI83006
aI24
aI30
ag20
aS'4:30PM'
p273
aI16
aI30
aI19
aI15
ag72
ag72
aNaNag72
aNaNag4
aa(lp274
S'NTR503'
p275
aI82614
aI23
aI24
aS'T Th'
p276
aS' 3:00 PM'
p277
aI15
aI0
aI16
aI15
aNaNaNaNaNaNaNag4
aa(lp278
S'NTR532'
p279
aI91629
aI18
aI20
ag45
aS'1:30PM'
p280
aI13
aI30
aI14
aI45
ag72
ag72
aNaNag72
aNaNag4
aa(lp281
S'NTR540'
p282
aI74568
aI5
aI5
aS'T Th'
p283
aS'10:30 AM'
p284
aI10
aI30
aI11
aI45
aNaNaNaNaNaNaNag4
aa(lp285
S'NTR541'
p286
aI74569
aI3
aI3
aS'T Th'
p287
aS'10:30 AM'
p288
aI10
aI30
aI11
aI45
aNaNaNaNaNaNaNag4
aa(lp289
S'NTR541'
p290
aI75590
aI3
aI3
aS'T Th'
p291
aS'12:00 PM'
p292
aI12
aI0
aI13
aI15
aNaNaNaNaNaNaNag4
aa(lp293
S'NTR544'
p294
aI74570
aI1
aI2
aS'T Th'
p295
aS' 3:00 PM'
p296
aI15
aI0
aI16
aI15
aNaNaNaNaNaNaNag4
aa(lp297
S'NTR544'
p298
aI74746
aI2
aI2
aS'T Th'
p299
aS' 4:30 PM'
p300
aI16
aI30
aI17
aI45
aNaNaNaNaNaNaNag4
aa(lp301
S'NTR548'
p302
aI74571
aI4
aI4
ag45
aS'3:00PM'
p303
aI15
aI0
aI16
aI15
ag72
ag72
aNaNag72
aNaNag4
aa(lp304
S'NTR550'
p305
aI74578
aI2
aI2
aS'M W'
p306
aS'10:30 AM'
p307
aI10
aI30
aI11
aI45
aNaNaNaNaNaNaNag4
aa(lp308
S'NTR580'
p309
aI74572
aI7
aI16
ag3
aNaNaNaNaNaNaNaNaNaNaNaNag11
aa(lp310
S'NTR580'
p311
aI82646
aI0
aI3
ag3
aNaNaNaNaNaNaNaNaNaNaNaNag4
aa(lp312
S'NTR590'
p313
aI78231
aI5
aI5
ag3
aNaNaNaNaNaNaNaNaNaNaNaNag4
aa(lp314
S'NTR592'
p315
aI74573
aI10
aI10
ag3
aNaNaNaNaNaNaNaNaNaNaNaNag4
aa(lp316
S'NTR593'
p317
aI74321
aI6
aI10
ag3
aNaNaNaNaNaNaNaNaNaNaNaNag4
aa(lp318
S'NTR598'
p319
aI75345
aI11
aI15
ag3
aNaNaNaNaNaNaNaNaNaNaNaNag4
aa(lp320
S'NTR598'
p321
aI80527
aI11
aI15
ag3
aNaNaNaNaNaNaNaNaNaNaNaNag4
aa(lp322
S'NTR598'
p323
aI82617
aI15
aI15
ag3
aNaNaNaNaNaNaNaNaNaNaNaNag4
aa(lp324
S'NTR599'
p325
aI74574
aI28
aI30
ag3
aNaNaNaNaNaNaNaNaNaNaNaNag4
aa(lp326
S'NTR690'
p327
aI75111
aI5
aI5
ag3
aNaNaNaNaNaNaNaNaNaNaNaNag4
aa(lp328
S'NTR691'
p329
aI74465
aI14
aI18
ag45
aS' 3:00 PM'
p330
aI15
aI0
aI15
aI50
aNaNaNaNaNaNaNag4
aa(lp331
S'NTR692'
p332
aI74822
aI28
aI30
ag3
aNaNaNaNaNaNaNaNaNaNaNaNag4
aa(lp333
S'NTR784'
p334
aI74575
aI5
aI5
ag3
aNaNaNaNaNaNaNaNaNaNaNaNag4
aa(lp335
S'NTR792'
p336
aI74576
aI19
aI20
ag3
aNaNaNaNaNaNaNaNaNaNaNaNag4
aa(lp337
S'NTR799'
p338
aI74577
aI10
aI10
ag3
aNaNaNaNaNaNaNaNaNaNaNaNag4
aa.