(lp0
(lp1
S'NUR310'
p2
aI72605
aI0
aI40
aS'M'
p3
aS'7:30AM'
p4
aI7
aI30
aI9
aI15
aS'F'
p5
aS'7:30AM'
p6
aI7
aI30
aS'9:15AM'
p7
aI9
aI15
aS'Reserved'
p8
aa(lp9
S'NUR310'
p10
aI82232
aI4
aI40
ag3
aS'7:30AM'
p11
aI7
aI30
aI9
aI15
ag5
aS'7:30AM'
p12
aI7
aI30
aS'9:15AM'
p13
aI9
aI15
aS'Not Reserved'
p14
aa(lp15
S'NUR311'
p16
aI72621
aI0
aI40
aS'W'
p17
aS' 7:30 AM'
p18
aI7
aI30
aI10
aI15
aNaNaNaNaNaNaNag8
aa(lp19
S'NUR311'
p20
aI82233
aI5
aI40
ag17
aS' 7:30 AM'
p21
aI7
aI30
aI10
aI15
aNaNaNaNaNaNaNag14
aa(lp22
S'NUR312'
p23
aI76647
aI0
aI40
ag3
aS'10:30 AM'
p24
aI10
aI30
aI12
aI20
aNaNaNaNaNaNaNag8
aa(lp25
S'NUR312'
p26
aI82235
aI4
aI40
ag3
aS'10:30 AM'
p27
aI10
aI30
aI12
aI20
aNaNaNaNaNaNaNag14
aa(lp28
S'NUR313'
p29
aI76648
aI35
aI35
ag3
aS'7:30AM'
p30
aI7
aI30
aI10
aI15
aS'T'
p31
aS'7:30AM'
p32
aI7
aI30
aS'10:15AM'
p33
aI10
aI15
ag14
aa(lp34
S'NUR313'
p35
aI88734
aI35
aI35
ag3
aS'7:30AM'
p36
aI7
aI30
aI10
aI15
ag31
aS'7:30AM'
p37
aI7
aI30
aS'10:15AM'
p38
aI10
aI15
ag14
aa(lp39
S'NUR313'
p40
aI88735
aI8
aI35
ag3
aS'7:30AM'
p41
aI7
aI30
aI10
aI15
ag31
aS'7:30AM'
p42
aI7
aI30
aS'10:15AM'
p43
aI10
aI15
ag14
aa(lp44
S'NUR313'
p45
aI88736
aI10
aI35
ag3
aS'7:30AM'
p46
aI7
aI30
aI10
aI15
ag31
aS'7:30AM'
p47
aI7
aI30
aS'10:15AM'
p48
aI10
aI15
ag14
aa(lp49
S'NUR315'
p50
aI72143
aI0
aI30
ag31
aS'12:00 PM'
p51
aI12
aI0
aI14
aI50
aNaNaNaNaNaNaNag8
aa(lp52
S'NUR315'
p53
aI74988
aI5
aI30
ag31
aS'12:00 PM'
p54
aI12
aI0
aI14
aI50
aNaNaNaNaNaNaNag14
aa(lp55
S'NUR315'
p56
aI76343
aI30
aI30
ag31
aS'12:00 PM'
p57
aI12
aI0
aI14
aI50
aNaNaNaNaNaNaNag14
aa(lp58
S'NUR315'
p59
aI79032
aI30
aI30
ag31
aS'12:00 PM'
p60
aI12
aI0
aI14
aI50
aNaNaNaNaNaNaNag14
aa(lp61
S'NUR315'
p62
aI90493
aI14
aI14
aS'ONLINE'
p63
aNaNaNaNaNaNaNaNaNaNaNaNag14
aa(lp64
S'NUR316'
p65
aI76711
aI4
aI35
ag3
aS'7:30AM'
p66
aI7
aI30
aI10
aI15
ag31
aS'7:30AM'
p67
aI7
aI30
aS'10:15AM'
p68
aI10
aI15
ag14
aa(lp69
S'NUR316'
p70
aI88737
aI10
aI35
ag3
aS'7:30AM'
p71
aI7
aI30
aI10
aI15
ag31
aS'7:30AM'
p72
aI7
aI30
aS'10:15AM'
p73
aI10
aI15
ag14
aa(lp74
S'NUR316'
p75
aI88738
aI35
aI35
ag3
aS'7:30AM'
p76
aI7
aI30
aI10
aI15
ag31
aS'7:30AM'
p77
aI7
aI30
aS'10:15AM'
p78
aI10
aI15
ag14
aa(lp79
S'NUR316'
p80
aI88744
aI34
aI35
ag3
aS'7:30AM'
p81
aI7
aI30
aI10
aI15
ag31
aS'7:30AM'
p82
aI7
aI30
aS'10:15AM'
p83
aI10
aI15
ag14
aa(lp84
S'NUR320'
p85
aI74982
aI0
aI10
aS'T Th'
p86
aS' 7:30 AM'
p87
aI7
aI30
aI16
aI0
aNaNaNaNaNaNaNag8
aa(lp88
S'NUR320'
p89
aI74983
aI0
aI10
ag63
aNaNaNaNaNaNaNaNaNaNaNaNag8
aa(lp90
S'NUR320'
p91
aI74984
aI0
aI10
ag63
aNaNaNaNaNaNaNaNaNaNaNaNag8
aa(lp92
S'NUR320'
p93
aI74985
aI0
aI10
aS'T Th'
p94
aS' 7:30 AM'
p95
aI7
aI30
aI16
aI0
aNaNaNaNaNaNaNag8
aa(lp96
S'NUR320'
p97
aI74986
aI5
aI10
ag63
aNaNaNaNaNaNaNaNaNaNaNaNag14
aa(lp98
S'NUR320'
p99
aI74987
aI0
aI10
ag63
aNaNaNaNaNaNaNaNaNaNaNaNag8
aa(lp100
S'NUR320'
p101
aI89109
aI0
aI10
ag63
aNaNaNaNaNaNaNaNaNaNaNaNag8
aa(lp102
S'NUR320'
p103
aI89110
aI2
aI10
ag63
aNaNaNaNaNaNaNaNaNaNaNaNag14
aa(lp104
S'NUR323'
p105
aI77043
aI10
aI10
aS'W Th F'
p106
aS' 6:30 AM'
p107
aI6
aI30
aI16
aI0
aNaNaNaNaNaNaNag14
aa(lp108
S'NUR323'
p109
aI77045
aI10
aI10
ag63
aNaNaNaNaNaNaNaNaNaNaNaNag14
aa(lp110
S'NUR323'
p111
aI77048
aI10
aI10
ag63
aNaNaNaNaNaNaNaNaNaNaNaNag14
aa(lp112
S'NUR323'
p113
aI77050
aI10
aI10
ag63
aNaNaNaNaNaNaNaNaNaNaNaNag14
aa(lp114
S'NUR323'
p115
aI77052
aI10
aI10
ag63
aNaNaNaNaNaNaNaNaNaNaNaNag14
aa(lp116
S'NUR323'
p117
aI80118
aI10
aI10
ag63
aNaNaNaNaNaNaNaNaNaNaNaNag14
aa(lp118
S'NUR323'
p119
aI84048
aI10
aI10
ag63
aNaNaNaNaNaNaNaNaNaNaNaNag14
aa(lp120
S'NUR323'
p121
aI77042
aI1
aI10
aS'W Th F'
p122
aS' 6:30 AM'
p123
aI6
aI30
aI16
aI0
aNaNaNaNaNaNaNag14
aa(lp124
S'NUR323'
p125
aI77044
aI1
aI10
ag63
aNaNaNaNaNaNaNaNaNaNaNaNag14
aa(lp126
S'NUR323'
p127
aI77046
aI1
aI10
ag63
aNaNaNaNaNaNaNaNaNaNaNaNag14
aa(lp128
S'NUR323'
p129
aI77047
aI1
aI10
ag63
aNaNaNaNaNaNaNaNaNaNaNaNag14
aa(lp130
S'NUR323'
p131
aI77049
aI3
aI10
ag63
aNaNaNaNaNaNaNaNaNaNaNaNag14
aa(lp132
S'NUR323'
p133
aI77051
aI1
aI10
ag63
aNaNaNaNaNaNaNaNaNaNaNaNag14
aa(lp134
S'NUR324'
p135
aI79033
aI0
aI10
aS'W Th F'
p136
aS' 6:30 AM'
p137
aI6
aI30
aI16
aI0
aNaNaNaNaNaNaNag8
aa(lp138
S'NUR324'
p139
aI79035
aI1
aI10
ag63
aNaNaNaNaNaNaNaNaNaNaNaNag14
aa(lp140
S'NUR324'
p141
aI79037
aI1
aI10
ag63
aNaNaNaNaNaNaNaNaNaNaNaNag14
aa(lp142
S'NUR324'
p143
aI79039
aI1
aI10
ag63
aNaNaNaNaNaNaNaNaNaNaNaNag14
aa(lp144
S'NUR324'
p145
aI79041
aI3
aI10
ag63
aNaNaNaNaNaNaNaNaNaNaNaNag14
aa(lp146
S'NUR324'
p147
aI79043
aI1
aI10
ag63
aNaNaNaNaNaNaNaNaNaNaNaNag14
aa(lp148
S'NUR324'
p149
aI86191
aI10
aI10
ag63
aNaNaNaNaNaNaNaNaNaNaNaNag14
aa(lp150
S'NUR324'
p151
aI79034
aI10
aI10
aS'W Th F'
p152
aS' 6:30 AM'
p153
aI6
aI30
aI16
aI0
aNaNaNaNaNaNaNag14
aa(lp154
S'NUR324'
p155
aI79036
aI10
aI10
ag63
aNaNaNaNaNaNaNaNaNaNaNaNag14
aa(lp156
S'NUR324'
p157
aI79038
aI10
aI10
ag63
aNaNaNaNaNaNaNaNaNaNaNaNag14
aa(lp158
S'NUR324'
p159
aI79040
aI10
aI10
ag63
aNaNaNaNaNaNaNaNaNaNaNaNag14
aa(lp160
S'NUR324'
p161
aI79042
aI10
aI10
ag63
aNaNaNaNaNaNaNaNaNaNaNaNag14
aa(lp162
S'NUR324'
p163
aI79044
aI10
aI10
ag63
aNaNaNaNaNaNaNaNaNaNaNaNag14
aa(lp164
S'NUR324'
p165
aI84049
aI10
aI10
ag63
aNaNaNaNaNaNaNaNaNaNaNaNag14
aa(lp166
S'NUR330'
p167
aI72622
aI0
aI40
ag5
aS'10:30 AM'
p168
aI10
aI30
aI13
aI5
aNaNaNaNaNaNaNag8
aa(lp169
S'NUR330'
p170
aI82237
aI4
aI40
ag5
aS'10:30 AM'
p171
aI10
aI30
aI13
aI5
aNaNaNaNaNaNaNag14
aa(lp172
S'NUR384'
p173
aI79074
aI8
aI35
ag63
aNaNaNaNaNaNaNaNaNaNaNaNag14
aa(lp174
S'NUR384'
p175
aI79075
aI9
aI35
ag63
aNaNaNaNaNaNaNaNaNaNaNaNag14
aa(lp176
S'NUR384'
p177
aI79097
aI48
aI48
ag63
aNaNaNaNaNaNaNaNaNaNaNaNag14
aa(lp178
S'NUR384'
p179
aI79073
aI32
aI35
ag63
aNaNaNaNaNaNaNaNaNaNaNaNag14
aa(lp180
S'NUR384'
p181
aI79076
aI35
aI35
ag63
aNaNaNaNaNaNaNaNaNaNaNaNag14
aa(lp182
S'NUR410'
p183
aI76649
aI14
aI45
ag3
aS' 7:30 AM'
p184
aI7
aI30
aI10
aI20
aNaNaNaNaNaNaNag14
aa(lp185
S'NUR410'
p186
aI82129
aI1
aI45
ag3
aS' 7:30 AM'
p187
aI7
aI30
aI10
aI20
aNaNaNaNaNaNaNag14
aa(lp188
S'NUR410'
p189
aI90706
aI4
aI30
ag63
aNaNaNaNaNaNaNaNaNaNaNaNag14
aa(lp190
S'NUR411'
p191
aI77062
aI11
aI45
ag3
aS'10:30AM'
p192
aI10
aI30
aI13
aI15
ag17
aS'10:30AM'
p193
aI10
aI30
aS'1:15PM'
p194
aI13
aI15
ag14
aa(lp195
S'NUR411'
p196
aI91174
aI2
aI20
aS'M W'
p197
aS'10:30 AM'
p198
aI10
aI30
aI13
aI15
aNaNaNaNaNaNaNag14
aa(lp199
S'NUR411'
p200
aI88788
aI23
aI45
ag3
aS'10:30AM'
p201
aI10
aI30
aI13
aI15
ag17
aS'10:30AM'
p202
aI10
aI30
aS'1:15PM'
p203
aI13
aI15
ag14
aa(lp204
S'NUR411'
p205
aI90708
aI3
aI30
ag63
aNaNaNaNaNaNaNaNaNaNaNaNag14
aa(lp206
S'NUR412'
p207
aI79050
aI23
aI45
ag3
aS'10:30AM'
p208
aI10
aI30
aI13
aI15
ag17
aS'10:30AM'
p209
aI10
aI30
aS'1:15PM'
p210
aI13
aI15
ag14
aa(lp211
S'NUR412'
p212
aI90709
aI3
aI30
ag63
aNaNaNaNaNaNaNaNaNaNaNaNag14
aa(lp213
S'NUR412'
p214
aI88789
aI11
aI45
ag3
aS'10:30AM'
p215
aI10
aI30
aI13
aI15
ag17
aS'10:30AM'
p216
aI10
aI30
aS'1:15PM'
p217
aI13
aI15
ag14
aa(lp218
S'NUR412'
p219
aI91175
aI2
aI20
aS'M W'
p220
aS'10:30 AM'
p221
aI10
aI30
aI13
aI15
aNaNaNaNaNaNaNag14
aa(lp222
S'NUR413'
p223
aI72144
aI26
aI65
ag3
aS'7:30AM'
p224
aI7
aI30
aI11
aI25
ag31
aS'7:30AM'
p225
aI7
aI30
aS'11:25AM'
p226
aI11
aI25
ag14
aa(lp227
S'NUR416'
p228
aI79090
aI48
aI48
ag5
aS'12:00 PM'
p229
aI12
aI0
aI15
aI0
aNaNaNaNaNaNaNag14
aa(lp230
S'NUR418'
p231
aI79077
aI48
aI48
aS'Th'
p232
aS'7:30AM'
p233
aI7
aI30
aI10
aI20
ag5
aS'7:30AM'
p234
aI7
aI30
aS'10:20AM'
p235
aI10
aI20
ag14
aa(lp236
S'NUR419'
p237
aI82887
aI48
aI48
ag63
aNaNaNaNaNaNaNaNaNaNaNaNag14
aa(lp238
S'NUR420'
p239
aI76697
aI1
aI10
ag63
aNaNaNaNaNaNaNaNaNaNaNaNag14
aa(lp240
S'NUR420'
p241
aI76698
aI1
aI10
ag63
aNaNaNaNaNaNaNaNaNaNaNaNag14
aa(lp242
S'NUR420'
p243
aI76699
aI1
aI10
ag63
aNaNaNaNaNaNaNaNaNaNaNaNag14
aa(lp244
S'NUR420'
p245
aI77064
aI1
aI10
ag63
aNaNaNaNaNaNaNaNaNaNaNaNag14
aa(lp246
S'NUR420'
p247
aI77065
aI7
aI10
ag63
aNaNaNaNaNaNaNaNaNaNaNaNag14
aa(lp248
S'NUR420'
p249
aI77066
aI0
aI10
ag63
aNaNaNaNaNaNaNaNaNaNaNaNag8
aa(lp250
S'NUR420'
p251
aI84047
aI2
aI10
ag63
aNaNaNaNaNaNaNaNaNaNaNaNag14
aa(lp252
S'NUR420'
p253
aI90711
aI1
aI10
ag63
aNaNaNaNaNaNaNaNaNaNaNaNag14
aa(lp254
S'NUR420'
p255
aI90712
aI3
aI10
ag63
aNaNaNaNaNaNaNaNaNaNaNaNag14
aa(lp256
S'NUR420'
p257
aI90713
aI0
aI10
ag63
aNaNaNaNaNaNaNaNaNaNaNaNag8
aa(lp258
S'NUR420'
p259
aI82133
aI0
aI10
ag63
aNaNaNaNaNaNaNaNaNaNaNaNag8
aa(lp260
S'NUR420'
p261
aI82134
aI2
aI10
ag63
aNaNaNaNaNaNaNaNaNaNaNaNag14
aa(lp262
S'NUR421'
p263
aI76700
aI1
aI10
ag63
aNaNaNaNaNaNaNaNaNaNaNaNag14
aa(lp264
S'NUR421'
p265
aI76701
aI1
aI10
ag63
aNaNaNaNaNaNaNaNaNaNaNaNag14
aa(lp266
S'NUR421'
p267
aI76702
aI1
aI10
ag63
aNaNaNaNaNaNaNaNaNaNaNaNag14
aa(lp268
S'NUR421'
p269
aI84045
aI2
aI10
ag63
aNaNaNaNaNaNaNaNaNaNaNaNag14
aa(lp270
S'NUR421'
p271
aI82135
aI0
aI10
ag63
aNaNaNaNaNaNaNaNaNaNaNaNag8
aa(lp272
S'NUR421'
p273
aI82136
aI2
aI10
ag63
aNaNaNaNaNaNaNaNaNaNaNaNag14
aa(lp274
S'NUR421'
p275
aI76703
aI1
aI10
ag63
aNaNaNaNaNaNaNaNaNaNaNaNag14
aa(lp276
S'NUR421'
p277
aI76704
aI7
aI10
ag63
aNaNaNaNaNaNaNaNaNaNaNaNag14
aa(lp278
S'NUR421'
p279
aI76705
aI0
aI10
ag63
aNaNaNaNaNaNaNaNaNaNaNaNag8
aa(lp280
S'NUR421'
p281
aI90714
aI0
aI10
ag63
aNaNaNaNaNaNaNaNaNaNaNaNag8
aa(lp282
S'NUR421'
p283
aI90715
aI3
aI10
ag63
aNaNaNaNaNaNaNaNaNaNaNaNag14
aa(lp284
S'NUR421'
p285
aI90716
aI0
aI10
ag63
aNaNaNaNaNaNaNaNaNaNaNaNag8
aa(lp286
S'NUR422'
p287
aI77070
aI1
aI10
ag63
aNaNaNaNaNaNaNaNaNaNaNaNag14
aa(lp288
S'NUR422'
p289
aI77071
aI8
aI10
ag63
aNaNaNaNaNaNaNaNaNaNaNaNag14
aa(lp290
S'NUR422'
p291
aI77072
aI0
aI10
ag63
aNaNaNaNaNaNaNaNaNaNaNaNag8
aa(lp292
S'NUR422'
p293
aI90717
aI0
aI10
ag63
aNaNaNaNaNaNaNaNaNaNaNaNag8
aa(lp294
S'NUR422'
p295
aI90718
aI3
aI10
ag63
aNaNaNaNaNaNaNaNaNaNaNaNag14
aa(lp296
S'NUR422'
p297
aI90719
aI0
aI10
ag63
aNaNaNaNaNaNaNaNaNaNaNaNag8
aa(lp298
S'NUR422'
p299
aI76707
aI2
aI10
ag63
aNaNaNaNaNaNaNaNaNaNaNaNag14
aa(lp300
S'NUR422'
p301
aI76708
aI1
aI10
ag63
aNaNaNaNaNaNaNaNaNaNaNaNag14
aa(lp302
S'NUR422'
p303
aI82101
aI1
aI10
ag63
aNaNaNaNaNaNaNaNaNaNaNaNag14
aa(lp304
S'NUR422'
p305
aI84046
aI2
aI10
ag63
aNaNaNaNaNaNaNaNaNaNaNaNag14
aa(lp306
S'NUR422'
p307
aI82137
aI0
aI10
ag63
aNaNaNaNaNaNaNaNaNaNaNaNag8
aa(lp308
S'NUR422'
p309
aI82138
aI2
aI10
ag63
aNaNaNaNaNaNaNaNaNaNaNaNag14
aa(lp310
S'NUR423'
p311
aI79107
aI4
aI10
ag63
aNaNaNaNaNaNaNaNaNaNaNaNag14
aa(lp312
S'NUR423'
p313
aI79108
aI3
aI10
ag63
aNaNaNaNaNaNaNaNaNaNaNaNag14
aa(lp314
S'NUR423'
p315
aI79109
aI2
aI10
ag63
aNaNaNaNaNaNaNaNaNaNaNaNag14
aa(lp316
S'NUR423'
p317
aI79110
aI6
aI10
ag63
aNaNaNaNaNaNaNaNaNaNaNaNag14
aa(lp318
S'NUR423'
p319
aI79111
aI3
aI10
ag63
aNaNaNaNaNaNaNaNaNaNaNaNag14
aa(lp320
S'NUR423'
p321
aI90702
aI3
aI10
ag63
aNaNaNaNaNaNaNaNaNaNaNaNag14
aa(lp322
S'NUR430'
p323
aI73647
aI26
aI65
ag63
aNaNaNaNaNaNaNaNaNaNaNaNag14
aa(lp324
S'NUR431'
p325
aI72140
aI7
aI28
ag31
aS'12:30 PM'
p326
aI12
aI30
aI15
aI15
aNaNaNaNaNaNaNag14
aa(lp327
S'NUR431'
p328
aI74194
aI10
aI28
ag31
aS'12:00 PM'
p329
aI12
aI0
aI14
aI45
aNaNaNaNaNaNaNag14
aa(lp330
S'NUR431'
p331
aI77461
aI48
aI48
aS'Th'
p332
aS'12:00 PM'
p333
aI12
aI0
aI14
aI45
aNaNaNaNaNaNaNag14
aa(lp334
S'NUR476'
p335
aI79092
aI9
aI9
ag63
aNaNaNaNaNaNaNaNaNaNaNaNag14
aa(lp336
S'NUR476'
p337
aI79093
aI9
aI9
ag63
aNaNaNaNaNaNaNaNaNaNaNaNag14
aa(lp338
S'NUR476'
p339
aI79094
aI9
aI9
ag63
aNaNaNaNaNaNaNaNaNaNaNaNag14
aa(lp340
S'NUR476'
p341
aI79095
aI9
aI9
ag63
aNaNaNaNaNaNaNaNaNaNaNaNag14
aa(lp342
S'NUR476'
p343
aI86183
aI8
aI8
ag63
aNaNaNaNaNaNaNaNaNaNaNaNag14
aa(lp344
S'NUR478'
p345
aI79079
aI8
aI8
ag63
aNaNaNaNaNaNaNaNaNaNaNaNag14
aa(lp346
S'NUR478'
p347
aI79080
aI8
aI8
ag63
aNaNaNaNaNaNaNaNaNaNaNaNag14
aa(lp348
S'NUR478'
p349
aI79081
aI8
aI8
ag63
aNaNaNaNaNaNaNaNaNaNaNaNag14
aa(lp350
S'NUR478'
p351
aI79082
aI8
aI8
ag63
aNaNaNaNaNaNaNaNaNaNaNaNag14
aa(lp352
S'NUR478'
p353
aI79083
aI8
aI8
ag63
aNaNaNaNaNaNaNaNaNaNaNaNag14
aa(lp354
S'NUR478'
p355
aI86192
aI8
aI8
ag63
aNaNaNaNaNaNaNaNaNaNaNaNag14
aa(lp356
S'NUR479'
p357
aI79085
aI8
aI8
ag63
aNaNaNaNaNaNaNaNaNaNaNaNag14
aa(lp358
S'NUR479'
p359
aI79086
aI8
aI8
ag63
aNaNaNaNaNaNaNaNaNaNaNaNag14
aa(lp360
S'NUR479'
p361
aI79087
aI8
aI8
ag63
aNaNaNaNaNaNaNaNaNaNaNaNag14
aa(lp362
S'NUR479'
p363
aI79088
aI8
aI8
ag63
aNaNaNaNaNaNaNaNaNaNaNaNag14
aa(lp364
S'NUR479'
p365
aI82146
aI8
aI8
ag63
aNaNaNaNaNaNaNaNaNaNaNaNag14
aa(lp366
S'NUR479'
p367
aI86185
aI8
aI8
ag63
aNaNaNaNaNaNaNaNaNaNaNaNag14
aa(lp368
S'NUR492'
p369
aI72141
aI7
aI10
ag63
aNaNaNaNaNaNaNaNaNaNaNaNag14
aa(lp370
S'NUR493'
p371
aI72142
aI10
aI10
ag63
aNaNaNaNaNaNaNaNaNaNaNaNag14
aa(lp372
S'NUR499'
p373
aI91564
aI2
aI5
ag63
aNaNaNaNaNaNaNaNaNaNaNaNag14
aa(lp374
S'NUR501'
p375
aI91531
aI30
aI30
aS'Th'
p376
aS'2:30PM'
p377
aI14
aI30
aI17
aI30
aS''
p378
ag378
aNaNag378
aNaNag14
aa(lp379
S'NUR580'
p380
aI72963
aI1
aI7
ag63
aNaNaNaNaNaNaNaNaNaNaNaNag8
aa(lp381
S'NUR593'
p382
aI83619
aI20
aI20
ag63
aNaNaNaNaNaNaNaNaNaNaNaNag14
aa(lp383
S'NUR593'
p384
aI84335
aI1
aI1
ag63
aNaNaNaNaNaNaNaNaNaNaNaNag14
aa(lp385
S'NUR595'
p386
aI75381
aI25
aI25
ag63
aNaNaNaNaNaNaNaNaNaNaNaNag14
aa(lp387
S'NUR595'
p388
aI80922
aI1
aI1
ag63
aNaNaNaNaNaNaNaNaNaNaNaNag14
aa(lp389
S'NUR598'
p390
aI89538
aI24
aI24
aS'M W'
p391
aS'9:00AM'
p392
aI9
aI0
aI10
aI15
ag378
ag378
aNaNag378
aNaNag14
aa(lp393
S'NUR598'
p394
aI89540
aI24
aI24
ag31
aS'9:00AM'
p395
aI9
aI0
aI10
aI15
aS'Th'
p396
aS'9:00AM'
p397
aI9
aI0
aS'10:15AM'
p398
aI10
aI15
ag14
aa(lp399
S'NUR601'
p400
aI91360
aI1
aI10
aS'Th'
p401
aS'10:00AM'
p402
aI10
aI0
aI12
aI0
ag378
ag378
aNaNag378
aNaNag14
aa(lp403
S'NUR604'
p404
aI72976
aI8
aI12
ag17
aS'1:30PM'
p405
aI13
aI30
aI16
aI30
ag378
ag378
aNaNag378
aNaNag14
aa(lp406
S'NUR605'
p407
aI74925
aI9
aI12
ag63
aNaNaNaNaNaNaNaNaNaNaNaNag14
aa(lp408
S'NUR606'
p409
aI91361
aI8
aI10
ag17
aS'10:00AM'
p410
aI10
aI0
aI12
aI0
ag378
ag378
aNaNag378
aNaNag14
aa(lp411
S'NUR608'
p412
aI73648
aI12
aI18
aS'Th'
p413
aS'9:00AM'
p414
aI9
aI0
aI12
aI0
ag378
ag378
aNaNag378
aNaNag14
aa(lp415
S'NUR613'
p416
aI91362
aI13
aI15
ag63
aNaNaNaNaNaNaNaNaNaNaNaNag14
aa(lp417
S'NUR617'
p418
aI91364
aI12
aI15
aS'Th'
p419
aS'1:00PM'
p420
aI13
aI0
aI16
aI0
ag378
ag378
aNaNag378
aNaNag14
aa(lp421
S'NUR618'
p422
aI91363
aI18
aI20
ag17
aS'1:00PM'
p423
aI13
aI0
aI16
aI0
ag378
ag378
aNaNag378
aNaNag14
aa(lp424
S'NUR628'
p425
aI91795
aI30
aI30
ag63
aNaNaNaNaNaNaNaNaNaNaNaNag14
aa(lp426
S'NUR630'
p427
aI91359
aI10
aI10
ag63
aNaNaNaNaNaNaNaNaNaNaNaNag14
aa(lp428
S'NUR671'
p429
aI74236
aI18
aI20
ag5
aS'8:00AM'
p430
aI8
aI0
aI16
aI30
ag378
ag378
aNaNag378
aNaNag14
aa(lp431
S'NUR672'
p432
aI77449
aI18
aI24
ag63
aNaNaNaNaNaNaNaNaNaNaNaNag8
aa(lp433
S'NUR680'
p434
aI91374
aI13
aI15
ag63
aNaNaNaNaNaNaNaNaNaNaNaNag14
aa(lp435
S'NUR691'
p436
aI84356
aI15
aI15
ag63
aNaNaNaNaNaNaNaNaNaNaNaNag14
aa(lp437
S'NUR691'
p438
aI78101
aI14
aI14
ag63
aNaNaNaNaNaNaNaNaNaNaNaNag14
aa(lp439
S'NUR691'
p440
aI84558
aI6
aI6
ag63
aNaNaNaNaNaNaNaNaNaNaNaNag14
aa(lp441
S'NUR692'
p442
aI75359
aI3
aI3
ag63
aNaNaNaNaNaNaNaNaNaNaNaNag14
aa(lp443
S'NUR692'
p444
aI84675
aI3
aI3
ag63
aNaNaNaNaNaNaNaNaNaNaNaNag14
aa(lp445
S'NUR692'
p446
aI84676
aI3
aI3
ag63
aNaNaNaNaNaNaNaNaNaNaNaNag14
aa(lp447
S'NUR692'
p448
aI84677
aI3
aI3
ag63
aNaNaNaNaNaNaNaNaNaNaNaNag14
aa(lp449
S'NUR799'
p450
aI80976
aI5
aI5
ag63
aNaNaNaNaNaNaNaNaNaNaNaNag14
aa(lp451
S'NUR799'
p452
aI86038
aI3
aI3
ag63
aNaNaNaNaNaNaNaNaNaNaNaNag14
aa(lp453
S'NUR799'
p454
aI73040
aI10
aI10
ag63
aNaNaNaNaNaNaNaNaNaNaNaNag14
aa(lp455
S'NUR799'
p456
aI80786
aI4
aI4
ag63
aNaNaNaNaNaNaNaNaNaNaNaNag14
aa(lp457
S'NUR799'
p458
aI80810
aI2
aI2
ag63
aNaNaNaNaNaNaNaNaNaNaNaNag14
aa(lp459
S'NUR799'
p460
aI80816
aI2
aI2
ag63
aNaNaNaNaNaNaNaNaNaNaNaNag14
aa(lp461
S'NUR799'
p462
aI80839
aI3
aI3
ag63
aNaNaNaNaNaNaNaNaNaNaNaNag14
aa(lp463
S'NUR799'
p464
aI80966
aI2
aI2
ag63
aNaNaNaNaNaNaNaNaNaNaNaNag14
aa(lp465
S'NUR799'
p466
aI84282
aI5
aI5
ag63
aNaNaNaNaNaNaNaNaNaNaNaNag14
aa(lp467
S'NUR799'
p468
aI84290
aI4
aI4
ag63
aNaNaNaNaNaNaNaNaNaNaNaNag14
aa(lp469
S'NUR799'
p470
aI84581
aI2
aI2
ag63
aNaNaNaNaNaNaNaNaNaNaNaNag14
aa(lp471
S'NUR799'
p472
aI85618
aI1
aI2
ag63
aNaNaNaNaNaNaNaNaNaNaNaNag14
aa.