(lp0
(lp1
S'OBS593'
p2
aI91802
aI50
aI50
aS'ONLINE'
p3
aNaNaNaNaNaNaNaNaNaNaNaNaS'Reserved'
p4
aa(lp5
S'OBS598'
p6
aI84285
aI12
aI14
aS'Th'
p7
aS' 4:30 PM'
p8
aI16
aI30
aI19
aI15
aNaNaNaNaNaNaNag4
aa.