(lp0
(lp1
S'OGL200'
p2
aI84605
aI3
aI5
aS'ONLINE'
p3
aNaNaNaNaNaNaNaNaNaNaNaNaS'Reserved'
p4
aa(lp5
S'OGL240'
p6
aI82551
aI1
aI5
ag3
aNaNaNaNaNaNaNaNaNaNaNaNag4
aa(lp7
S'OGL240'
p8
aI79645
aI5
aI5
ag3
aNaNaNaNaNaNaNaNaNaNaNaNag4
aa(lp9
S'OGL321'
p10
aI91724
aI1
aI5
ag3
aNaNaNaNaNaNaNaNaNaNaNaNag4
aa(lp11
S'OGL321'
p12
aI90429
aI30
aI30
aS'M'
p13
aS' 6:00 PM'
p14
aI18
aI0
aI20
aI45
aNaNaNaNaNaNaNag4
aa(lp15
S'OGL360'
p16
aI91725
aI1
aI5
ag3
aNaNaNaNaNaNaNaNaNaNaNaNag4
aa(lp17
S'OGL360'
p18
aI90428
aI30
aI30
aS'Th'
p19
aS' 6:00 PM'
p20
aI18
aI0
aI20
aI45
aNaNaNaNaNaNaNag4
aa.