(lp0
(lp1
S'OMT343'
p2
aI72145
aI26
aI50
aS'T Th'
p3
aS'10:30 AM'
p4
aI10
aI30
aI11
aI45
aNaNaNaNaNaNaNaS'Reserved'
p5
aa(lp6
S'OMT394'
p7
aI91147
aI40
aI40
aS'F'
p8
aS' 9:00 AM'
p9
aI9
aI0
aI9
aI50
aNaNaNaNaNaNaNaS'Not Reserved'
p10
aa(lp11
S'OMT440'
p12
aI77453
aI23
aI40
aS'M W'
p13
aS' 9:00 AM'
p14
aI9
aI0
aI10
aI15
aNaNaNaNaNaNaNag10
aa(lp15
S'OMT480'
p16
aI83508
aI13
aI30
aS'M W F'
p17
aS' 1:30 PM'
p18
aI13
aI30
aI14
aI20
aNaNaNaNaNaNaNag10
aa(lp19
S'OMT484'
p20
aI89501
aI10
aI10
aS'ONLINE'
p21
aNaNaNaNaNaNaNaNaNaNaNaNag10
aa(lp22
S'OMT503'
p23
aI74760
aI8
aI10
aS'T'
p24
aS'4:30PM'
p25
aI16
aI30
aI19
aI15
aS''
p26
ag26
aNaNag26
aNaNag10
aa(lp27
S'OMT520'
p28
aI79771
aI8
aI10
ag24
aS'4:30PM'
p29
aI16
aI30
aI19
aI15
ag26
ag26
aNaNag26
aNaNag10
aa(lp30
S'OMT549'
p31
aI80048
aI15
aI24
aS'M'
p32
aS' 4:30 PM'
p33
aI16
aI30
aI19
aI15
aNaNaNaNaNaNaNag10
aa(lp34
S'OMT560'
p35
aI89506
aI28
aI30
aS'Th'
p36
aS' 4:30 PM'
p37
aI16
aI30
aI19
aI15
aNaNaNaNaNaNaNag10
aa(lp38
S'OMT570'
p39
aI90359
aI7
aI10
aS'W'
p40
aS'4:30PM'
p41
aI16
aI30
aI19
aI15
ag26
ag26
aNaNag26
aNaNag10
aa.