(lp0
(lp1
S'PAF200'
p2
aI91809
aI23
aI25
aS'ONLINE'
p3
aNaNaNaNaNaNaNaNaNaNaNaNaS'Reserved'
p4
aa(lp5
S'PAF200'
p6
aI75686
aI16
aI60
aS'M W'
p7
aS' 3:00 PM'
p8
aI15
aI0
aI16
aI15
aNaNaNaNaNaNaNaS'Not Reserved'
p9
aa(lp10
S'PAF200'
p11
aI75687
aI85
aI120
aS'T Th'
p12
aS' 1:30 PM'
p13
aI13
aI30
aI14
aI45
aNaNaNaNaNaNaNag9
aa(lp14
S'PAF201'
p15
aI75688
aI54
aI70
aS'T Th'
p16
aS' 3:00 PM'
p17
aI15
aI0
aI16
aI15
aNaNaNaNaNaNaNag9
aa(lp18
S'PAF201'
p19
aI75689
aI43
aI80
aS'M W'
p20
aS' 4:30 PM'
p21
aI16
aI30
aI17
aI45
aNaNaNaNaNaNaNag9
aa(lp22
S'PAF300'
p23
aI72147
aI97
aI120
aS'T Th'
p24
aS'10:30 AM'
p25
aI10
aI30
aI11
aI45
aNaNaNaNaNaNaNag9
aa(lp26
S'PAF300'
p27
aI75272
aI26
aI80
ag3
aNaNaNaNaNaNaNaNaNaNaNaNag9
aa(lp28
S'PAF301'
p29
aI72149
aI36
aI60
aS'Th'
p30
aS' 6:00 PM'
p31
aI18
aI0
aI20
aI45
aNaNaNaNaNaNaNag9
aa(lp32
S'PAF302'
p33
aI79267
aI23
aI40
aS'T Th'
p34
aS' 3:00 PM'
p35
aI15
aI0
aI16
aI15
aNaNaNaNaNaNaNag9
aa(lp36
S'PAF311'
p37
aI89314
aI102
aI120
aS'T'
p38
aS'6:00PM'
p39
aI18
aI0
aI20
aI45
aS''
p40
ag40
aNaNag40
aNaNag9
aa(lp41
S'PAF311'
p42
aI76071
aI79
aI120
ag3
aNaNaNaNaNaS'W'
p43
aNaNaNaNaNaNag9
aa(lp44
S'PAF311'
p45
aI73815
aI0
aI80
ag3
aNaNaNaNaNaNaNaNaNaNaNaNag4
aa(lp46
S'PAF340'
p47
aI72148
aI13
aI80
ag3
aNaNaNaNaNaNaNaNaNaNaNaNag9
aa(lp48
S'PAF360'
p49
aI84165
aI18
aI40
ag3
aNaNaNaNaNaNaNaNaNaNaNaNag4
aa(lp50
S'PAF400'
p51
aI77235
aI11
aI40
ag3
aNaNaNaNaNaNaNaNaNaNaNaNag4
aa(lp52
S'PAF410'
p53
aI76616
aI92
aI120
ag3
aNaNaNaNaNag43
aNaNaNaNaNaNag9
aa(lp54
S'PAF410'
p55
aI89315
aI105
aI120
ag38
aS'6:00PM'
p56
aI18
aI0
aI20
aI45
ag40
ag40
aNaNag40
aNaNag9
aa(lp57
S'PAF410'
p58
aI73814
aI0
aI80
ag3
aNaNaNaNaNaNaNaNaNaNaNaNag4
aa(lp59
S'PAF420'
p60
aI77516
aI37
aI80
ag3
aNaNaNaNaNaNaNaNaNaNaNaNag9
aa(lp61
S'PAF421'
p62
aI82661
aI9
aI15
ag3
aNaNaNaNaNaNaNaNaNaNaNaNag9
aa(lp63
S'PAF424'
p64
aI89317
aI31
aI40
ag3
aNaNaNaNaNaNaNaNaNaNaNaNag4
aa(lp65
S'PAF460'
p66
aI72150
aI23
aI80
aS'M W'
p67
aS' 4:30 PM'
p68
aI16
aI30
aI17
aI45
aNaNaNaNaNaNaNag9
aa(lp69
S'PAF468'
p70
aI89318
aI33
aI40
ag3
aNaNaNaNaNaNaNaNaNaNaNaNag4
aa(lp71
S'PAF469'
p72
aI89319
aI22
aI40
ag3
aNaNaNaNaNaNaNaNaNaNaNaNag4
aa(lp73
S'PAF484'
p74
aI75690
aI19
aI20
ag3
aNaNaNaNaNaNaNaNaNaNaNaNag9
aa(lp75
S'PAF494'
p76
aI84162
aI23
aI25
ag3
aNaNaNaNaNaNaNaNaNaNaNaNag4
aa(lp77
S'PAF499'
p78
aI72151
aI5
aI5
ag3
aNaNaNaNaNaNaNaNaNaNaNaNag9
aa(lp79
S'PAF501'
p80
aI72152
aI14
aI24
aS'M'
p81
aS' 6:00 PM'
p82
aI18
aI0
aI20
aI45
aNaNaNaNaNaNaNag9
aa(lp83
S'PAF501'
p84
aI79233
aI14
aI25
ag3
aNaNaNaNaNaNaNaNaNaNaNaNag4
aa(lp85
S'PAF502'
p86
aI72153
aI3
aI24
ag81
aS' 6:00 PM'
p87
aI18
aI0
aI20
aI45
aNaNaNaNaNaNaNag9
aa(lp88
S'PAF502'
p89
aI72154
aI0
aI25
ag3
aNaNaNaNaNaNaNaNaNaNaNaNag4
aa(lp90
S'PAF503'
p91
aI72155
aI3
aI24
ag38
aS' 6:00 PM'
p92
aI18
aI0
aI20
aI45
aNaNaNaNaNaNaNag9
aa(lp93
S'PAF503'
p94
aI75910
aI18
aI24
aS'F Sa Su'
p95
aS'9:00AM'
p96
aI9
aI0
aI17
aI0
aS'F Sa Su'
p97
aS'9:00AM'
p98
aI9
aI0
aS'5:00PM'
p99
aI17
aI0
ag9
aa(lp100
S'PAF504'
p101
aI72156
aI8
aI24
ag43
aS' 6:00 PM'
p102
aI18
aI0
aI20
aI45
aNaNaNaNaNaNaNag9
aa(lp103
S'PAF504'
p104
aI72157
aI8
aI25
ag3
aNaNaNaNaNaNaNaNaNaNaNaNag4
aa(lp105
S'PAF505'
p106
aI79238
aI0
aI25
ag3
aNaNaNaNaNaNaNaNaNaNaNaNag4
aa(lp107
S'PAF505'
p108
aI75841
aI23
aI24
aS'F Sa'
p109
aS'9:00AM'
p110
aI9
aI0
aI17
aI0
aS'Sa Su'
p111
aS'9:00AM'
p112
aI9
aI0
aS'5:00PM'
p113
aI17
aI0
ag9
aa(lp114
S'PAF506'
p115
aI75834
aI12
aI24
ag38
aS'6:00PM'
p116
aI18
aI0
aI20
aI45
ag40
ag40
aNaNag40
aNaNag9
aa(lp117
S'PAF506'
p118
aI72158
aI15
aI24
aS'Th'
p119
aS' 6:00 PM'
p120
aI18
aI0
aI20
aI45
aNaNaNaNaNaNaNag9
aa(lp121
S'PAF507'
p122
aI72159
aI17
aI24
ag38
aS'6:00PM'
p123
aI18
aI0
aI20
aI45
ag40
ag40
aNaNag40
aNaNag9
aa(lp124
S'PAF507'
p125
aI79248
aI0
aI25
ag3
aNaNaNaNaNaNaNaNaNaNaNaNag4
aa(lp126
S'PAF508'
p127
aI72160
aI15
aI24
aS'Th'
p128
aS' 6:00 PM'
p129
aI18
aI0
aI20
aI45
aNaNaNaNaNaNaNag9
aa(lp130
S'PAF508'
p131
aI72161
aI18
aI24
aS'F Sa Su'
p132
aS'9:00AM'
p133
aI9
aI0
aI17
aI0
aS'F Sa Su'
p134
aS'9:00AM'
p135
aI9
aI0
aS'5:00PM'
p136
aI17
aI0
ag9
aa(lp137
S'PAF509'
p138
aI72838
aI0
aI24
aS'F Sa Su'
p139
aS'9:00AM'
p140
aI9
aI0
aI17
aI0
aS'F Sa Su'
p141
aS'9:00AM'
p142
aI9
aI0
aS'5:00PM'
p143
aI17
aI0
ag4
aa(lp144
S'PAF523'
p145
aI72162
aI11
aI24
ag43
aS' 6:00 PM'
p146
aI18
aI0
aI20
aI45
aNaNaNaNaNaNaNag9
aa(lp147
S'PAF534'
p148
aI73333
aI2
aI24
aS'Th'
p149
aS' 6:00 PM'
p150
aI18
aI0
aI20
aI45
aNaNaNaNaNaNaNag9
aa(lp151
S'PAF540'
p152
aI72710
aI11
aI24
ag43
aS' 6:00 PM'
p153
aI18
aI0
aI20
aI45
aNaNaNaNaNaNaNag9
aa(lp154
S'PAF545'
p155
aI89677
aI21
aI24
ag38
aS' 6:00 PM'
p156
aI18
aI0
aI20
aI45
aNaNaNaNaNaNaNag9
aa(lp157
S'PAF546'
p158
aI77915
aI11
aI25
ag3
aNaNaNaNaNaNaNaNaNaNaNaNag4
aa(lp159
S'PAF548'
p160
aI79321
aI18
aI24
aS'F Sa Su'
p161
aS'9:00AM'
p162
aI9
aI0
aI17
aI0
aS'F Sa Su'
p163
aS'9:00AM'
p164
aI9
aI0
aS'5:00PM'
p165
aI17
aI0
ag9
aa(lp166
S'PAF565'
p167
aI89675
aI22
aI24
ag38
aS' 6:00 PM'
p168
aI18
aI0
aI20
aI45
aNaNaNaNaNaNaNag9
aa(lp169
S'PAF571'
p170
aI74743
aI20
aI24
aS'Th'
p171
aS' 6:00 PM'
p172
aI18
aI0
aI20
aI45
aNaNaNaNaNaNaNag9
aa(lp173
S'PAF573'
p174
aI72711
aI18
aI24
ag81
aS' 6:00 PM'
p175
aI18
aI0
aI20
aI45
aNaNaNaNaNaNaNag9
aa(lp176
S'PAF574'
p177
aI72712
aI13
aI24
aS'Th'
p178
aS' 6:00 PM'
p179
aI18
aI0
aI20
aI45
aNaNaNaNaNaNaNag9
aa(lp180
S'PAF584'
p181
aI72773
aI10
aI10
ag3
aNaNaNaNaNaNaNaNaNaNaNaNag9
aa(lp182
S'PAF590'
p183
aI72164
aI5
aI5
ag3
aNaNaNaNaNaNaNaNaNaNaNaNag9
aa(lp184
S'PAF591'
p185
aI84704
aI10
aI25
ag3
aNaNaNaNaNaNaNaNaNaNaNaNag4
aa(lp186
S'PAF591'
p187
aI72713
aI16
aI25
ag3
aNaNaNaNaNaNaNaNaNaNaNaNag4
aa(lp188
S'PAF591'
p189
aI79332
aI23
aI24
aS'Th'
p190
aS' 6:00 PM'
p191
aI18
aI0
aI20
aI45
aNaNaNaNaNaNaNag9
aa(lp192
S'PAF591'
p193
aI89667
aI20
aI24
aS'F Sa Su'
p194
aS'9:00AM'
p195
aI9
aI0
aI17
aI0
aS'F Sa Su'
p196
aS'9:00AM'
p197
aI9
aI0
aS'5:00PM'
p198
aI17
aI0
ag9
aa(lp199
S'PAF591'
p200
aI79335
aI15
aI25
ag3
aNaNaNaNaNaNaNaNaNaNaNaNag4
aa(lp201
S'PAF591'
p202
aI84705
aI24
aI24
ag38
aS' 4:30 PM'
p203
aI16
aI30
aI19
aI15
aNaNaNaNaNaNaNag9
aa(lp204
S'PAF591'
p205
aI91283
aI4
aI5
aS'Th'
p206
aS' 3:00 PM'
p207
aI15
aI0
aI17
aI45
aNaNaNaNaNaNaNag9
aa(lp208
S'PAF595'
p209
aI72165
aI2
aI2
ag3
aNaNaNaNaNaNaNaNaNaNaNaNag9
aa(lp210
S'PAF602'
p211
aI72166
aI20
aI20
aS'Th'
p212
aS' 3:00 PM'
p213
aI15
aI0
aI17
aI45
aNaNaNaNaNaNaNag9
aa(lp214
S'PAF603'
p215
aI83376
aI20
aI20
ag38
aS' 3:00 PM'
p216
aI15
aI0
aI17
aI45
aNaNaNaNaNaNaNag9
aa(lp217
S'PAF610'
p218
aI82784
aI18
aI20
ag81
aS' 6:00 PM'
p219
aI18
aI0
aI20
aI45
aNaNaNaNaNaNaNag9
aa(lp220
S'PAF790'
p221
aI72167
aI10
aI10
ag3
aNaNaNaNaNaNaNaNaNaNaNaNag9
aa(lp222
S'PAF792'
p223
aI72168
aI10
aI10
ag3
aNaNaNaNaNaNaNaNaNaNaNaNag9
aa(lp224
S'PAF795'
p225
aI72169
aI10
aI10
ag3
aNaNaNaNaNaNaNaNaNaNaNaNag9
aa(lp226
S'PAF799'
p227
aI72170
aI14
aI15
ag3
aNaNaNaNaNaNaNaNaNaNaNaNag9
aa.