(lp0
(lp1
S'PBH100'
p2
aI82665
aI44
aI50
aS'T Th'
p3
aS'10:30 AM'
p4
aI10
aI30
aI11
aI45
aNaNaNaNaNaNaNaS'Reserved'
p5
aa(lp6
S'PBH294'
p7
aI90472
aI31
aI32
aS'M W'
p8
aS' 1:30 PM'
p9
aI13
aI30
aI14
aI45
aNaNaNaNaNaNaNaS'Not Reserved'
p10
aa(lp11
S'PBH300'
p12
aI88645
aI5
aI7
aS'T Th'
p13
aS'10:30 AM'
p14
aI10
aI30
aI11
aI45
aNaNaNaNaNaNaNag10
aa(lp15
S'PBH444'
p16
aI89859
aI1
aI1
aS'ONLINE'
p17
aNaNaNaNaNaNaNaNaNaNaNaNag10
aa.