(lp0
(lp1
S'PHI101'
p2
aI85492
aI0
aI25
aS'ONLINE'
p3
aNaNaNaNaNaNaNaNaNaNaNaNaS'Reserved'
p4
aa(lp5
S'PHI101'
p6
aI90102
aI10
aI25
ag3
aNaNaNaNaNaNaNaNaNaNaNaNag4
aa(lp7
S'PHI101'
p8
aI72171
aI108
aI160
aS'T Th'
p9
aS' 1:30 PM'
p10
aI13
aI30
aI14
aI45
aNaNaNaNaNaNaNaS'Not Reserved'
p11
aa(lp12
S'PHI101'
p13
aI72172
aI388
aI438
aS'T Th'
p14
aS' 9:00 AM'
p15
aI9
aI0
aI10
aI15
aNaNaNaNaNaNaNag11
aa(lp16
S'PHI101'
p17
aI82746
aI74
aI100
ag3
aNaNaNaNaNaNaNaNaNaNaNaNag4
aa(lp18
S'PHI101'
p19
aI82885
aI224
aI250
aS'M W'
p20
aS' 4:30 PM'
p21
aI16
aI30
aI17
aI45
aNaNaNaNaNaNaNag11
aa(lp22
S'PHI101'
p23
aI70385
aI37
aI45
aS'M W F'
p24
aS'10:30 AM'
p25
aI10
aI30
aI11
aI20
aNaNaNaNaNaNaNag11
aa(lp26
S'PHI101'
p27
aI89311
aI24
aI24
aS'T Th'
p28
aS' 7:30 AM'
p29
aI7
aI30
aI10
aI15
aNaNaNaNaNaNaNag4
aa(lp30
S'PHI101'
p31
aI77596
aI25
aI30
aS'T'
p32
aS'10:30AM'
p33
aI10
aI30
aI11
aI45
aS''
p34
ag34
aNaNag34
aNaNag11
aa(lp35
S'PHI101'
p36
aI73239
aI29
aI36
aS'T Th'
p37
aS'10:30 AM'
p38
aI10
aI30
aI11
aI45
aNaNaNaNaNaNaNag4
aa(lp39
S'PHI101'
p40
aI73869
aI25
aI36
aS'T Th'
p41
aS'12:00 PM'
p42
aI12
aI0
aI13
aI15
aNaNaNaNaNaNaNag4
aa(lp43
S'PHI101'
p44
aI75189
aI22
aI36
aS'T Th'
p45
aS'10:30 AM'
p46
aI10
aI30
aI11
aI45
aNaNaNaNaNaNaNag4
aa(lp47
S'PHI101'
p48
aI77959
aI0
aI24
aS'M W'
p49
aS' 1:30 PM'
p50
aI13
aI30
aI14
aI45
aNaNaNaNaNaNaNag4
aa(lp51
S'PHI101'
p52
aI78046
aI28
aI40
aS'M W'
p53
aS' 4:30 PM'
p54
aI16
aI30
aI17
aI45
aNaNaNaNaNaNaNag4
aa(lp55
S'PHI101'
p56
aI78118
aI20
aI24
aS'T Th'
p57
aS' 9:00 AM'
p58
aI9
aI0
aI10
aI15
aNaNaNaNaNaNaNag4
aa(lp59
S'PHI101'
p60
aI83910
aI19
aI24
aS'T Th'
p61
aS' 3:00 PM'
p62
aI15
aI0
aI16
aI15
aNaNaNaNaNaNaNag4
aa(lp63
S'PHI101'
p64
aI85450
aI7
aI24
aS'T Th'
p65
aS'12:00 PM'
p66
aI12
aI0
aI13
aI15
aNaNaNaNaNaNaNag4
aa(lp67
S'PHI103'
p68
aI90199
aI43
aI50
ag3
aNaNaNaNaNaNaNaNaNaNaNaNag4
aa(lp69
S'PHI103'
p70
aI70383
aI55
aI100
ag3
aNaNaNaNaNaNaNaNaNaNaNaNag4
aa(lp71
S'PHI103'
p72
aI78837
aI23
aI70
aS'T Th'
p73
aS'12:00 PM'
p74
aI12
aI0
aI13
aI15
aNaNaNaNaNaNaNag11
aa(lp75
S'PHI103'
p76
aI74459
aI27
aI30
aS'Th'
p77
aS'10:30AM'
p78
aI10
aI30
aI11
aI45
ag34
ag34
aNaNag34
aNaNag11
aa(lp79
S'PHI103'
p80
aI82857
aI23
aI36
aS'T Th'
p81
aS' 1:30 PM'
p82
aI13
aI30
aI14
aI45
aNaNaNaNaNaNaNag11
aa(lp83
S'PHI105'
p84
aI82751
aI51
aI55
ag3
aNaNaNaNaNaNaNaNaNaNaNaNag4
aa(lp85
S'PHI105'
p86
aI70384
aI197
aI220
aS'T Th'
p87
aS'12:00 PM'
p88
aI12
aI0
aI13
aI15
aNaNaNaNaNaNaNag11
aa(lp89
S'PHI105'
p90
aI76553
aI113
aI125
aS'M W'
p91
aS' 3:00 PM'
p92
aI15
aI0
aI16
aI15
aNaNaNaNaNaNaNag11
aa(lp93
S'PHI105'
p94
aI77970
aI30
aI40
ag3
aNaNaNaNaNaNaNaNaNaNaNaNag4
aa(lp95
S'PHI120'
p96
aI77969
aI15
aI30
ag3
aNaNaNaNaNaNaNaNaNaNaNaNag4
aa(lp97
S'PHI191'
p98
aI73911
aI19
aI19
aS'F'
p99
aS' 9:00 AM'
p100
aI9
aI0
aI9
aI50
aNaNaNaNaNaNaNag4
aa(lp101
S'PHI191'
p102
aI89803
aI18
aI19
aS'W'
p103
aS' 1:30 PM'
p104
aI13
aI30
aI14
aI30
aNaNaNaNaNaNaNag4
aa(lp105
S'PHI194'
p106
aI80456
aI12
aI12
ag99
aS'12:00 PM'
p107
aI12
aI0
aI12
aI50
aNaNaNaNaNaNaNag11
aa(lp108
S'PHI300'
p109
aI72173
aI3
aI20
ag32
aS' 4:30 PM'
p110
aI16
aI30
aI19
aI15
aNaNaNaNaNaNaNag11
aa(lp111
S'PHI304'
p112
aI76886
aI60
aI100
ag32
aS' 6:00 PM'
p113
aI18
aI0
aI20
aI45
aNaNaNaNaNaNaNag11
aa(lp114
S'PHI306'
p115
aI90104
aI29
aI55
ag3
aNaNaNaNaNaNaNaNaNaNaNaNag4
aa(lp116
S'PHI306'
p117
aI74519
aI21
aI45
ag3
aNaNaNaNaNaNaNaNaNaNaNaNag4
aa(lp118
S'PHI306'
p119
aI82858
aI21
aI36
aS'M W'
p120
aS' 3:00 PM'
p121
aI15
aI0
aI16
aI15
aNaNaNaNaNaNaNag11
aa(lp122
S'PHI310'
p123
aI82763
aI31
aI55
ag3
aNaNaNaNaNaNaNaNaNaNaNaNag4
aa(lp124
S'PHI310'
p125
aI91194
aI13
aI25
aS'T Th'
p126
aS' 4:30 PM'
p127
aI16
aI30
aI17
aI45
aNaNaNaNaNaNaNag11
aa(lp128
S'PHI314'
p129
aI82764
aI26
aI50
ag3
aNaNaNaNaNaNaNaNaNaNaNaNag4
aa(lp130
S'PHI314'
p131
aI84693
aI49
aI55
ag3
aNaNaNaNaNaNaNaNaNaNaNaNag4
aa(lp132
S'PHI314'
p133
aI77661
aI31
aI75
aS'T Th'
p134
aS'12:00 PM'
p135
aI12
aI0
aI13
aI15
aNaNaNaNaNaNaNag11
aa(lp136
S'PHI314'
p137
aI78473
aI17
aI65
ag3
aNaNaNaNaNaNaNaNaNaNaNaNag4
aa(lp138
S'PHI318'
p139
aI91605
aI33
aI38
aS'T Th'
p140
aS'12:00 PM'
p141
aI12
aI0
aI13
aI15
aNaNaNaNaNaNaNag11
aa(lp142
S'PHI318'
p143
aI86230
aI29
aI40
aS'Th'
p144
aS' 6:00 PM'
p145
aI18
aI0
aI20
aI45
aNaNaNaNaNaNaNag11
aa(lp146
S'PHI320'
p147
aI74649
aI6
aI47
aS'M'
p148
aS'1:30PM'
p149
aI13
aI30
aI14
aI45
ag34
aS'12:00AM'
p150
aNaNaS'12:00AM'
p151
aNaNag4
aa(lp152
S'PHI320'
p153
aI82766
aI0
aI55
ag3
aNaNaNaNaNaNaNaNaNaNaNaNag4
aa(lp154
S'PHI320'
p155
aI86229
aI23
aI30
ag103
aS' 6:00 PM'
p156
aI18
aI0
aI20
aI45
aNaNaNaNaNaNaNag11
aa(lp157
S'PHI326'
p158
aI77595
aI9
aI40
ag3
aNaNaNaNaNaNaNaNaNaNaNaNag4
aa(lp159
S'PHI328'
p160
aI83224
aI26
aI50
ag3
aNaNaNaNaNaNaNaNaNaNaNaNag4
aa(lp161
S'PHI331'
p162
aI89710
aI20
aI48
aS'T Th'
p163
aS' 3:00 PM'
p164
aI15
aI0
aI16
aI15
aNaNaNaNaNaNaNag11
aa(lp165
S'PHI332'
p166
aI77407
aI23
aI45
aS'T Th'
p167
aS' 9:00 AM'
p168
aI9
aI0
aI10
aI15
aNaNaNaNaNaNaNag11
aa(lp169
S'PHI333'
p170
aI83226
aI44
aI60
ag3
aNaNaNaNaNaNaNaNaNaNaNaNag4
aa(lp171
S'PHI333'
p172
aI89711
aI7
aI48
aS'T Th'
p173
aS'10:30 AM'
p174
aI10
aI30
aI11
aI45
aNaNaNaNaNaNaNag11
aa(lp175
S'PHI335'
p176
aI90907
aI24
aI70
aS'M W'
p177
aS' 9:00 AM'
p178
aI9
aI0
aI10
aI15
aNaNaNaNaNaNaNag11
aa(lp179
S'PHI336'
p180
aI82771
aI13
aI30
ag3
aNaNaNaNaNaNaNaNaNaNaNaNag4
aa(lp181
S'PHI336'
p182
aI89713
aI25
aI48
aS'M W'
p183
aS' 3:00 PM'
p184
aI15
aI0
aI16
aI15
aNaNaNaNaNaNaNag11
aa(lp185
S'PHI336'
p186
aI86231
aI38
aI40
aS'M W'
p187
aS' 7:30 PM'
p188
aI19
aI30
aI20
aI45
aNaNaNaNaNaNaNag11
aa(lp189
S'PHI337'
p190
aI89714
aI26
aI48
aS'T Th'
p191
aS' 9:00 AM'
p192
aI9
aI0
aI10
aI15
aNaNaNaNaNaNaNag11
aa(lp193
S'PHI347'
p194
aI89716
aI38
aI48
aS'T Th'
p195
aS'12:00 PM'
p196
aI12
aI0
aI13
aI15
aNaNaNaNaNaNaNag11
aa(lp197
S'PHI360'
p198
aI86232
aI32
aI40
ag32
aS' 4:30 PM'
p199
aI16
aI30
aI19
aI15
aNaNaNaNaNaNaNag11
aa(lp200
S'PHI406'
p201
aI75588
aI17
aI30
aS'M W'
p202
aS' 3:00 PM'
p203
aI15
aI0
aI16
aI15
aNaNaNaNaNaNaNag11
aa(lp204
S'PHI411'
p205
aI86234
aI22
aI35
ag103
aS' 4:30 PM'
p206
aI16
aI30
aI19
aI15
aNaNaNaNaNaNaNag11
aa(lp207
S'PHI412'
p208
aI86235
aI32
aI35
aS'T Th'
p209
aS' 6:00 PM'
p210
aI18
aI0
aI19
aI15
aNaNaNaNaNaNaNag11
aa(lp211
S'PHI420'
p212
aI78054
aI0
aI12
aS'Th'
p213
aS' 3:00 PM'
p214
aI15
aI0
aI17
aI45
aNaNaNaNaNaNaNag4
aa(lp215
S'PHI420'
p216
aI79089
aI2
aI12
ag148
aS' 3:00 PM'
p217
aI15
aI0
aI17
aI45
aNaNaNaNaNaNaNag11
aa(lp218
S'PHI420'
p219
aI83798
aI6
aI12
ag32
aS'11:00 AM'
p220
aI11
aI0
aI13
aI45
aNaNaNaNaNaNaNag11
aa(lp221
S'PHI420'
p222
aI79098
aI11
aI12
ag103
aS' 3:00 PM'
p223
aI15
aI0
aI17
aI50
aNaNaNaNaNaNaNag11
aa(lp224
S'PHI421'
p225
aI86236
aI38
aI40
ag32
aS' 6:00 PM'
p226
aI18
aI0
aI20
aI45
aNaNaNaNaNaNaNag11
aa(lp227
S'PHI492'
p228
aI91010
aI30
aI30
ag3
aNaNaNaNaNaNaNaNaNaNaNaNag11
aa(lp229
S'PHI521'
p230
aI89723
aI4
aI8
ag103
aS' 3:00 PM'
p231
aI15
aI0
aI17
aI50
aNaNaNaNaNaNaNag11
aa(lp232
S'PHI524'
p233
aI89724
aI4
aI8
ag3
aNaNaNaNaNaNaNaNaNaNaNaNag11
aa(lp234
S'PHI572'
p235
aI91136
aI8
aI12
ag32
aS'11:00 AM'
p236
aI11
aI0
aI13
aI45
aNaNaNaNaNaNaNag11
aa(lp237
S'PHI576'
p238
aI89732
aI1
aI8
aS'Th'
p239
aS' 3:00 PM'
p240
aI15
aI0
aI17
aI30
aNaNaNaNaNaNaNag11
aa(lp241
S'PHI584'
p242
aI91422
aI29
aI30
ag3
aNaNaNaNaNaNaNaNaNaNaNaNag11
aa(lp243
S'PHI595'
p244
aI86010
aI5
aI5
ag3
aNaNaNaNaNaNaNaNaNaNaNaNag11
aa(lp245
S'PHI599'
p246
aI91845
aI29
aI30
ag3
aNaNaNaNaNaNaNaNaNaNaNaNag11
aa(lp247
S'PHI795'
p248
aI72178
aI10
aI10
ag3
aNaNaNaNaNaNaNaNaNaNaNaNag11
aa.