(lp0
(lp1
S'PHS110'
p2
aI72179
aI47
aI72
aS'T Th'
p3
aS'10:30 AM'
p4
aI10
aI30
aI11
aI45
aNaNaNaNaNaNaNaS'Not Reserved'
p5
aa(lp6
S'PHS110'
p7
aI72180
aI11
aI24
aS'M'
p8
aS'10:00 AM'
p9
aI10
aI0
aI11
aI50
aNaNaNaNaNaNaNag5
aa(lp10
S'PHS110'
p11
aI72181
aI18
aI24
ag8
aS'12:00 PM'
p12
aI12
aI0
aI13
aI50
aNaNaNaNaNaNaNag5
aa(lp13
S'PHS110'
p14
aI72182
aI18
aI24
ag8
aS' 2:00 PM'
p15
aI14
aI0
aI15
aI50
aNaNaNaNaNaNaNag5
aa(lp16
S'PHS110'
p17
aI73518
aI17
aI19
aS'T Th'
p18
aS'12:00 PM'
p19
aI12
aI0
aI13
aI15
aNaNaNaNaNaNaNaS'Reserved'
p20
aa(lp21
S'PHS110'
p22
aI74848
aI17
aI19
aS'T Th'
p23
aS' 1:30 PM'
p24
aI13
aI30
aI14
aI45
aNaNaNaNaNaNaNag5
aa(lp25
S'PHS208'
p26
aI72183
aI0
aI200
aS'ONLINE'
p27
aNaNaNaNaNaNaNaNaNaNaNaNag20
aa(lp28
S'PHS590'
p29
aI78175
aI10
aI10
ag27
aNaNaNaNaNaNaNaNaNaNaNaNag5
aa(lp30
S'PHS593'
p31
aI75599
aI10
aI10
ag27
aNaNaNaNaNaNaNaNaNaNaNaNag20
aa.