(lp0
(lp1
S'PHY101'
p2
aI72207
aI47
aI120
aS'T Th'
p3
aS' 9:00 AM'
p4
aI9
aI0
aI10
aI15
aNaNaNaNaNaNaNaS'Reserved'
p5
aa(lp6
S'PHY101'
p7
aI73380
aI14
aI24
aS'M'
p8
aS' 8:00 AM'
p9
aI8
aI0
aI9
aI50
aNaNaNaNaNaNaNaS'Not Reserved'
p10
aa(lp11
S'PHY101'
p12
aI73455
aI10
aI24
ag8
aS'12:00 PM'
p13
aI12
aI0
aI13
aI50
aNaNaNaNaNaNaNag10
aa(lp14
S'PHY101'
p15
aI73456
aI5
aI24
aS'T'
p16
aS'10:25 AM'
p17
aI10
aI25
aI12
aI15
aNaNaNaNaNaNaNag10
aa(lp18
S'PHY101'
p19
aI73457
aI14
aI24
ag16
aS'12:25 PM'
p20
aI12
aI25
aI14
aI15
aNaNaNaNaNaNaNag10
aa(lp21
S'PHY101'
p22
aI73458
aI4
aI24
aS'W'
p23
aS' 2:00 PM'
p24
aI14
aI0
aI15
aI50
aNaNaNaNaNaNaNag10
aa(lp25
S'PHY101'
p26
aI75572
aI20
aI30
ag8
aS' 9:00 AM'
p27
aI9
aI0
aI9
aI50
aNaNaNaNaNaNaNag10
aa(lp28
S'PHY101'
p29
aI75573
aI6
aI30
ag23
aS'10:30 AM'
p30
aI10
aI30
aI11
aI20
aNaNaNaNaNaNaNag10
aa(lp31
S'PHY101'
p32
aI75574
aI19
aI30
aS'F'
p33
aS' 9:00 AM'
p34
aI9
aI0
aI9
aI50
aNaNaNaNaNaNaNag10
aa(lp35
S'PHY101'
p36
aI75575
aI2
aI30
ag16
aS' 1:30 PM'
p37
aI13
aI30
aI14
aI20
aNaNaNaNaNaNaNag10
aa(lp38
S'PHY101'
p39
aI72208
aI42
aI120
aS'T Th'
p40
aS'10:30 AM'
p41
aI10
aI30
aI11
aI45
aNaNaNaNaNaNaNag5
aa(lp42
S'PHY101'
p43
aI73459
aI18
aI24
ag8
aS'10:00 AM'
p44
aI10
aI0
aI11
aI50
aNaNaNaNaNaNaNag10
aa(lp45
S'PHY101'
p46
aI73460
aI13
aI24
ag8
aS' 2:00 PM'
p47
aI14
aI0
aI15
aI50
aNaNaNaNaNaNaNag10
aa(lp48
S'PHY101'
p49
aI73461
aI0
aI24
ag16
aS' 2:25 PM'
p50
aI14
aI25
aI16
aI15
aNaNaNaNaNaNaNag5
aa(lp51
S'PHY101'
p52
aI73462
aI3
aI24
ag23
aS'10:00 AM'
p53
aI10
aI0
aI11
aI50
aNaNaNaNaNaNaNag10
aa(lp54
S'PHY101'
p55
aI75571
aI8
aI24
ag23
aS'12:00 PM'
p56
aI12
aI0
aI13
aI50
aNaNaNaNaNaNaNag10
aa(lp57
S'PHY101'
p58
aI75576
aI9
aI30
ag8
aS'10:30 AM'
p59
aI10
aI30
aI11
aI20
aNaNaNaNaNaNaNag10
aa(lp60
S'PHY101'
p61
aI75577
aI11
aI30
ag23
aS' 9:00 AM'
p62
aI9
aI0
aI9
aI50
aNaNaNaNaNaNaNag10
aa(lp63
S'PHY101'
p64
aI75578
aI22
aI30
ag33
aS'10:30 AM'
p65
aI10
aI30
aI11
aI20
aNaNaNaNaNaNaNag10
aa(lp66
S'PHY101'
p67
aI75579
aI0
aI30
aS'Th'
p68
aS' 1:30 PM'
p69
aI13
aI30
aI14
aI20
aNaNaNaNaNaNaNag5
aa(lp70
S'PHY101'
p71
aI70386
aI26
aI48
aS'M W'
p72
aS' 4:30 PM'
p73
aI16
aI30
aI17
aI45
aNaNaNaNaNaNaNag10
aa(lp74
S'PHY101'
p75
aI73359
aI16
aI24
ag8
aS' 1:30 PM'
p76
aI13
aI30
aI16
aI15
aNaNaNaNaNaNaNag10
aa(lp77
S'PHY101'
p78
aI73360
aI10
aI24
ag8
aS' 6:00 PM'
p79
aI18
aI0
aI20
aI45
aNaNaNaNaNaNaNag10
aa(lp80
S'PHY101'
p81
aI81507
aI25
aI48
aS'T Th'
p82
aS' 9:00 AM'
p83
aI9
aI0
aI10
aI15
aNaNaNaNaNaNaNag10
aa(lp84
S'PHY101'
p85
aI81509
aI19
aI24
aS'Th'
p86
aS' 3:00 PM'
p87
aI15
aI0
aI16
aI50
aNaNaNaNaNaNaNag10
aa(lp88
S'PHY101'
p89
aI81510
aI6
aI24
aS'Th'
p90
aS'12:00 PM'
p91
aI12
aI0
aI13
aI50
aNaNaNaNaNaNaNag10
aa(lp92
S'PHY111'
p93
aI72209
aI32
aI196
aS'M W F'
p94
aS'10:30 AM'
p95
aI10
aI30
aI11
aI20
aNaNaNaNaNaNaNag5
aa(lp96
S'PHY111'
p97
aI73398
aI1
aI28
ag16
aS' 9:00 AM'
p98
aI9
aI0
aI9
aI50
aNaNaNaNaNaNaNag10
aa(lp99
S'PHY111'
p100
aI73399
aI6
aI28
aS'Th'
p101
aS' 9:00 AM'
p102
aI9
aI0
aI9
aI50
aNaNaNaNaNaNaNag10
aa(lp103
S'PHY111'
p104
aI73400
aI0
aI28
ag16
aS' 1:30 PM'
p105
aI13
aI30
aI14
aI30
aNaNaNaNaNaNaNag5
aa(lp106
S'PHY111'
p107
aI73401
aI1
aI28
aS'Th'
p108
aS' 1:30 PM'
p109
aI13
aI30
aI14
aI20
aNaNaNaNaNaNaNag10
aa(lp110
S'PHY111'
p111
aI73402
aI0
aI28
ag8
aS'12:00 PM'
p112
aI12
aI0
aI12
aI50
aNaNaNaNaNaNaNag5
aa(lp113
S'PHY111'
p114
aI73403
aI2
aI28
ag23
aS'12:00 PM'
p115
aI12
aI0
aI12
aI50
aNaNaNaNaNaNaNag10
aa(lp116
S'PHY111'
p117
aI73404
aI22
aI28
ag33
aS'12:00 PM'
p118
aI12
aI0
aI12
aI50
aNaNaNaNaNaNaNag10
aa(lp119
S'PHY111'
p120
aI72210
aI10
aI196
aS'M W F'
p121
aS'12:00 PM'
p122
aI12
aI0
aI12
aI50
aNaNaNaNaNaNaNag5
aa(lp123
S'PHY111'
p124
aI73405
aI0
aI28
ag16
aS' 9:00 AM'
p125
aI9
aI0
aI9
aI50
aNaNaNaNaNaNaNag5
aa(lp126
S'PHY111'
p127
aI73406
aI6
aI28
aS'Th'
p128
aS' 9:00 AM'
p129
aI9
aI0
aI9
aI50
aNaNaNaNaNaNaNag10
aa(lp130
S'PHY111'
p131
aI73407
aI1
aI28
ag16
aS'10:30 AM'
p132
aI10
aI30
aI11
aI20
aNaNaNaNaNaNaNag10
aa(lp133
S'PHY111'
p134
aI73408
aI1
aI28
aS'Th'
p135
aS'10:30 AM'
p136
aI10
aI30
aI11
aI20
aNaNaNaNaNaNaNag10
aa(lp137
S'PHY111'
p138
aI73409
aI0
aI28
ag16
aS'12:00 PM'
p139
aI12
aI0
aI12
aI50
aNaNaNaNaNaNaNag5
aa(lp140
S'PHY111'
p141
aI73410
aI2
aI28
aS'Th'
p142
aS'12:00 PM'
p143
aI12
aI0
aI12
aI50
aNaNaNaNaNaNaNag10
aa(lp144
S'PHY111'
p145
aI73411
aI0
aI28
aS'Th'
p146
aS' 1:30 PM'
p147
aI13
aI30
aI14
aI20
aNaNaNaNaNaNaNag5
aa(lp148
S'PHY111'
p149
aI83311
aI107
aI196
aS'M W F'
p150
aS' 7:30 AM'
p151
aI7
aI30
aI8
aI20
aNaNaNaNaNaNaNag10
aa(lp152
S'PHY111'
p153
aI83547
aI0
aI28
ag8
aS' 9:00 AM'
p154
aI9
aI0
aI9
aI50
aNaNaNaNaNaNaNag5
aa(lp155
S'PHY111'
p156
aI83548
aI5
aI28
ag23
aS' 9:00 AM'
p157
aI9
aI0
aI9
aI50
aNaNaNaNaNaNaNag10
aa(lp158
S'PHY111'
p159
aI83593
aI13
aI28
ag33
aS' 9:00 AM'
p160
aI9
aI0
aI9
aI50
aNaNaNaNaNaNaNag10
aa(lp161
S'PHY111'
p162
aI83594
aI15
aI28
ag8
aS'10:30 AM'
p163
aI10
aI30
aI11
aI20
aNaNaNaNaNaNaNag10
aa(lp164
S'PHY111'
p165
aI83595
aI18
aI28
ag33
aS'10:30 AM'
p166
aI10
aI30
aI11
aI20
aNaNaNaNaNaNaNag10
aa(lp167
S'PHY111'
p168
aI70387
aI44
aI120
aS'M W'
p169
aS' 4:30 PM'
p170
aI16
aI30
aI17
aI45
aNaNaNaNaNaNaNag10
aa(lp171
S'PHY111'
p172
aI81511
aI84
aI120
aS'M W F'
p173
aS'12:00 PM'
p174
aI12
aI0
aI12
aI50
aNaNaNaNaNaNaNag5
aa(lp175
S'PHY111'
p176
aI81512
aI19
aI30
ag8
aS'10:30 AM'
p177
aI10
aI30
aI11
aI20
aNaNaNaNaNaNaNag10
aa(lp178
S'PHY111'
p179
aI81513
aI16
aI30
ag23
aS'10:30 AM'
p180
aI10
aI30
aI11
aI20
aNaNaNaNaNaNaNag10
aa(lp181
S'PHY111'
p182
aI81514
aI28
aI30
ag33
aS' 1:30 PM'
p183
aI13
aI30
aI14
aI20
aNaNaNaNaNaNaNag10
aa(lp184
S'PHY111'
p185
aI87032
aI21
aI30
ag23
aS' 1:30 PM'
p186
aI13
aI30
aI14
aI20
aNaNaNaNaNaNaNag10
aa(lp187
S'PHY111'
p188
aI75903
aI20
aI140
aS'M W'
p189
aS' 3:00 PM'
p190
aI15
aI0
aI16
aI15
aNaNaNaNaNaNaNag5
aa(lp191
S'PHY111'
p192
aI75924
aI12
aI60
ag16
aS' 9:00 AM'
p193
aI9
aI0
aI10
aI15
aNaNaNaNaNaNaNag10
aa(lp194
S'PHY111'
p195
aI75925
aI8
aI80
ag16
aS'10:30 AM'
p196
aI10
aI30
aI11
aI45
aNaNaNaNaNaNaNag10
aa(lp197
S'PHY112'
p198
aI72211
aI17
aI120
aS'M W F'
p199
aS'10:30 AM'
p200
aI10
aI30
aI11
aI20
aNaNaNaNaNaNaNag10
aa(lp201
S'PHY112'
p202
aI72213
aI0
aI30
ag16
aS' 3:00 PM'
p203
aI15
aI0
aI15
aI50
aNaNaNaNaNaNaNag5
aa(lp204
S'PHY112'
p205
aI72214
aI0
aI30
aS'Th'
p206
aS' 3:00 PM'
p207
aI15
aI0
aI15
aI50
aNaNaNaNaNaNaNag5
aa(lp208
S'PHY112'
p209
aI72215
aI0
aI30
ag16
aS' 4:30 PM'
p210
aI16
aI30
aI17
aI20
aNaNaNaNaNaNaNag5
aa(lp211
S'PHY112'
p212
aI72790
aI17
aI30
aS'Th'
p213
aS' 4:30 PM'
p214
aI16
aI30
aI17
aI20
aNaNaNaNaNaNaNag10
aa(lp215
S'PHY112'
p216
aI72212
aI143
aI196
aS'M W F'
p217
aS' 9:00 AM'
p218
aI9
aI0
aI9
aI50
aNaNaNaNaNaNaNag10
aa(lp219
S'PHY112'
p220
aI90546
aI25
aI28
ag33
aS' 3:00 PM'
p221
aI15
aI0
aI15
aI50
aNaNaNaNaNaNaNag10
aa(lp222
S'PHY112'
p223
aI90552
aI7
aI28
ag23
aS'10:30 AM'
p224
aI10
aI30
aI11
aI20
aNaNaNaNaNaNaNag10
aa(lp225
S'PHY112'
p226
aI90553
aI17
aI28
ag8
aS'12:00 PM'
p227
aI12
aI0
aI12
aI50
aNaNaNaNaNaNaNag10
aa(lp228
S'PHY112'
p229
aI90554
aI26
aI28
ag33
aS'12:00 PM'
p230
aI12
aI0
aI12
aI50
aNaNaNaNaNaNaNag10
aa(lp231
S'PHY112'
p232
aI90555
aI20
aI28
ag8
aS' 4:30 PM'
p233
aI16
aI30
aI17
aI20
aNaNaNaNaNaNaNag10
aa(lp234
S'PHY112'
p235
aI90556
aI24
aI28
ag23
aS'10:30 AM'
p236
aI10
aI30
aI11
aI20
aNaNaNaNaNaNaNag10
aa(lp237
S'PHY112'
p238
aI90557
aI24
aI28
ag33
aS' 1:30 PM'
p239
aI13
aI30
aI14
aI20
aNaNaNaNaNaNaNag10
aa(lp240
S'PHY112'
p241
aI81516
aI23
aI72
aS'M W F'
p242
aS' 9:00 AM'
p243
aI9
aI0
aI9
aI50
aNaNaNaNaNaNaNag5
aa(lp244
S'PHY112'
p245
aI81517
aI0
aI28
ag8
aS' 1:30 PM'
p246
aI13
aI30
aI14
aI20
aNaNaNaNaNaNaNag5
aa(lp247
S'PHY112'
p248
aI81519
aI27
aI28
ag33
aS' 1:30 PM'
p249
aI13
aI30
aI14
aI20
aNaNaNaNaNaNaNag10
aa(lp250
S'PHY112'
p251
aI81521
aI8
aI28
ag33
aS'10:30 AM'
p252
aI10
aI30
aI11
aI20
aNaNaNaNaNaNaNag10
aa(lp253
S'PHY112'
p254
aI77022
aI24
aI80
aS'M W'
p255
aS' 4:30 PM'
p256
aI16
aI30
aI17
aI45
aNaNaNaNaNaNaNag5
aa(lp257
S'PHY112'
p258
aI77023
aI19
aI60
ag16
aS' 1:30 PM'
p259
aI13
aI30
aI14
aI45
aNaNaNaNaNaNaNag10
aa(lp260
S'PHY112'
p261
aI89439
aI5
aI20
ag16
aS' 3:00 PM'
p262
aI15
aI0
aI16
aI15
aNaNaNaNaNaNaNag10
aa(lp263
S'PHY113'
p264
aI72806
aI5
aI24
ag8
aS' 8:00 AM'
p265
aI8
aI0
aI9
aI50
aNaNaNaNaNaNaNag10
aa(lp266
S'PHY113'
p267
aI72807
aI2
aI24
ag8
aS'10:00 AM'
p268
aI10
aI0
aI11
aI50
aNaNaNaNaNaNaNag10
aa(lp269
S'PHY113'
p270
aI72808
aI0
aI24
ag8
aS'12:00 PM'
p271
aI12
aI0
aI13
aI50
aNaNaNaNaNaNaNag5
aa(lp272
S'PHY113'
p273
aI72809
aI0
aI24
ag8
aS' 2:00 PM'
p274
aI14
aI0
aI15
aI50
aNaNaNaNaNaNaNag5
aa(lp275
S'PHY113'
p276
aI72810
aI3
aI24
ag8
aS' 4:00 PM'
p277
aI16
aI0
aI17
aI50
aNaNaNaNaNaNaNag10
aa(lp278
S'PHY113'
p279
aI72811
aI19
aI24
ag8
aS' 6:00 PM'
p280
aI18
aI0
aI19
aI50
aNaNaNaNaNaNaNag10
aa(lp281
S'PHY113'
p282
aI72812
aI0
aI24
ag16
aS' 8:25 AM'
p283
aI8
aI25
aI10
aI15
aNaNaNaNaNaNaNag5
aa(lp284
S'PHY113'
p285
aI72813
aI0
aI24
ag16
aS'10:25 AM'
p286
aI10
aI25
aI12
aI15
aNaNaNaNaNaNaNag5
aa(lp287
S'PHY113'
p288
aI72814
aI0
aI24
ag16
aS'12:25 PM'
p289
aI12
aI25
aI14
aI15
aNaNaNaNaNaNaNag5
aa(lp290
S'PHY113'
p291
aI72815
aI0
aI24
ag16
aS' 2:25 PM'
p292
aI14
aI25
aI16
aI15
aNaNaNaNaNaNaNag5
aa(lp293
S'PHY113'
p294
aI72816
aI6
aI24
ag16
aS' 4:25 PM'
p295
aI16
aI25
aI18
aI15
aNaNaNaNaNaNaNag10
aa(lp296
S'PHY113'
p297
aI72817
aI20
aI24
ag33
aS' 8:00 AM'
p298
aI8
aI0
aI9
aI50
aNaNaNaNaNaNaNag10
aa(lp299
S'PHY113'
p300
aI72818
aI1
aI24
ag33
aS'10:00 AM'
p301
aI10
aI0
aI11
aI50
aNaNaNaNaNaNaNag10
aa(lp302
S'PHY113'
p303
aI72819
aI7
aI24
ag33
aS'12:00 PM'
p304
aI12
aI0
aI13
aI50
aNaNaNaNaNaNaNag10
aa(lp305
S'PHY113'
p306
aI72820
aI0
aI24
ag33
aS' 2:00 PM'
p307
aI14
aI0
aI15
aI50
aNaNaNaNaNaNaNag5
aa(lp308
S'PHY113'
p309
aI72821
aI20
aI24
ag33
aS' 4:00 PM'
p310
aI16
aI0
aI17
aI50
aNaNaNaNaNaNaNag10
aa(lp311
S'PHY113'
p312
aI76681
aI23
aI24
ag33
aS' 6:00 PM'
p313
aI18
aI0
aI19
aI50
aNaNaNaNaNaNaNag10
aa(lp314
S'PHY113'
p315
aI73004
aI4
aI24
aS'Th'
p316
aS'10:25 AM'
p317
aI10
aI25
aI12
aI15
aNaNaNaNaNaNaNag10
aa(lp318
S'PHY113'
p319
aI76682
aI0
aI24
aS'Th'
p320
aS'12:25 PM'
p321
aI12
aI25
aI14
aI15
aNaNaNaNaNaNaNag5
aa(lp322
S'PHY113'
p323
aI76683
aI2
aI24
aS'Th'
p324
aS' 2:25 PM'
p325
aI14
aI25
aI16
aI15
aNaNaNaNaNaNaNag10
aa(lp326
S'PHY113'
p327
aI76684
aI17
aI24
aS'Th'
p328
aS' 4:25 PM'
p329
aI16
aI25
aI18
aI15
aNaNaNaNaNaNaNag10
aa(lp330
S'PHY113'
p331
aI76686
aI19
aI48
aS'ONLINE'
p332
aNaNaNaNaNaNaNaNaNaNaNaNag5
aa(lp333
S'PHY113'
p334
aI72697
aI18
aI24
ag16
aS'10:30 AM'
p335
aI10
aI30
aI13
aI15
aNaNaNaNaNaNaNag10
aa(lp336
S'PHY113'
p337
aI78471
aI12
aI24
ag16
aS' 3:15 PM'
p338
aI15
aI15
aI18
aI0
aNaNaNaNaNaNaNag10
aa(lp339
S'PHY113'
p340
aI81455
aI4
aI24
ag23
aS'10:15 AM'
p341
aI10
aI15
aI13
aI0
aNaNaNaNaNaNaNag10
aa(lp342
S'PHY113'
p343
aI74648
aI0
aI24
ag23
aS' 1:30 PM'
p344
aI13
aI30
aI16
aI15
aNaNaNaNaNaNaNag5
aa(lp345
S'PHY113'
p346
aI76757
aI12
aI24
ag23
aS' 6:30 PM'
p347
aI18
aI30
aI21
aI15
aNaNaNaNaNaNaNag10
aa(lp348
S'PHY113'
p349
aI81523
aI18
aI24
aS'Th'
p350
aS'12:00 PM'
p351
aI12
aI0
aI13
aI50
aNaNaNaNaNaNaNag5
aa(lp352
S'PHY113'
p353
aI81527
aI18
aI24
aS'Th'
p354
aS' 3:00 PM'
p355
aI15
aI0
aI16
aI50
aNaNaNaNaNaNaNag5
aa(lp356
S'PHY113'
p357
aI81530
aI19
aI24
ag16
aS' 9:00 AM'
p358
aI9
aI0
aI10
aI50
aNaNaNaNaNaNaNag5
aa(lp359
S'PHY113'
p360
aI87036
aI21
aI24
ag16
aS'12:00 PM'
p361
aI12
aI0
aI13
aI50
aNaNaNaNaNaNaNag5
aa(lp362
S'PHY113'
p363
aI81531
aI16
aI24
ag8
aS' 3:00 PM'
p364
aI15
aI0
aI16
aI50
aNaNaNaNaNaNaNag5
aa(lp365
S'PHY113'
p366
aI75921
aI0
aI24
ag16
aS' 1:30 PM'
p367
aI13
aI30
aI16
aI0
aNaNaNaNaNaNaNag5
aa(lp368
S'PHY113'
p369
aI75922
aI3
aI24
ag16
aS' 4:15 PM'
p370
aI16
aI15
aI18
aI45
aNaNaNaNaNaNaNag5
aa(lp371
S'PHY113'
p372
aI75923
aI9
aI24
ag16
aS' 7:00 PM'
p373
aI19
aI0
aI21
aI30
aNaNaNaNaNaNaNag5
aa(lp374
S'PHY113'
p375
aI84907
aI0
aI24
ag23
aS'10:30 AM'
p376
aI10
aI30
aI13
aI0
aNaNaNaNaNaNaNag5
aa(lp377
S'PHY114'
p378
aI72822
aI4
aI24
ag16
aS' 8:25 AM'
p379
aI8
aI25
aI10
aI15
aNaNaNaNaNaNaNag10
aa(lp380
S'PHY114'
p381
aI72823
aI11
aI24
ag16
aS'10:25 AM'
p382
aI10
aI25
aI12
aI15
aNaNaNaNaNaNaNag10
aa(lp383
S'PHY114'
p384
aI72824
aI19
aI24
ag16
aS'12:25 PM'
p385
aI12
aI25
aI14
aI15
aNaNaNaNaNaNaNag10
aa(lp386
S'PHY114'
p387
aI72825
aI7
aI24
ag16
aS' 2:25 PM'
p388
aI14
aI25
aI16
aI15
aNaNaNaNaNaNaNag10
aa(lp389
S'PHY114'
p390
aI72826
aI17
aI24
ag23
aS' 8:00 AM'
p391
aI8
aI0
aI9
aI50
aNaNaNaNaNaNaNag10
aa(lp392
S'PHY114'
p393
aI72827
aI13
aI24
ag23
aS'10:00 AM'
p394
aI10
aI0
aI11
aI50
aNaNaNaNaNaNaNag10
aa(lp395
S'PHY114'
p396
aI72828
aI0
aI24
ag23
aS'12:00 PM'
p397
aI12
aI0
aI13
aI50
aNaNaNaNaNaNaNag5
aa(lp398
S'PHY114'
p399
aI74168
aI9
aI24
ag23
aS' 2:00 PM'
p400
aI14
aI0
aI15
aI50
aNaNaNaNaNaNaNag10
aa(lp401
S'PHY114'
p402
aI75054
aI18
aI24
aS'Th'
p403
aS' 8:25 AM'
p404
aI8
aI25
aI10
aI15
aNaNaNaNaNaNaNag10
aa(lp405
S'PHY114'
p406
aI75115
aI18
aI24
aS'Th'
p407
aS'10:25 AM'
p408
aI10
aI25
aI12
aI15
aNaNaNaNaNaNaNag10
aa(lp409
S'PHY114'
p410
aI75116
aI17
aI24
aS'Th'
p411
aS'12:25 PM'
p412
aI12
aI25
aI14
aI15
aNaNaNaNaNaNaNag10
aa(lp413
S'PHY114'
p414
aI76472
aI11
aI24
aS'Th'
p415
aS' 2:25 PM'
p416
aI14
aI25
aI16
aI15
aNaNaNaNaNaNaNag10
aa(lp417
S'PHY114'
p418
aI76657
aI12
aI48
ag332
aNaNaNaNaNaNaNaNaNaNaNaNag5
aa(lp419
S'PHY114'
p420
aI81532
aI8
aI24
ag8
aS' 3:00 PM'
p421
aI15
aI0
aI16
aI50
aNaNaNaNaNaNaNag5
aa(lp422
S'PHY114'
p423
aI81534
aI14
aI24
ag16
aS' 3:00 PM'
p424
aI15
aI0
aI16
aI50
aNaNaNaNaNaNaNag5
aa(lp425
S'PHY114'
p426
aI81535
aI2
aI24
ag16
aS'12:00 PM'
p427
aI12
aI0
aI13
aI50
aNaNaNaNaNaNaNag5
aa(lp428
S'PHY114'
p429
aI77024
aI13
aI24
ag16
aS' 8:00 AM'
p430
aI8
aI0
aI10
aI30
aNaNaNaNaNaNaNag5
aa(lp431
S'PHY114'
p432
aI77025
aI1
aI24
ag16
aS'10:45 AM'
p433
aI10
aI45
aI13
aI15
aNaNaNaNaNaNaNag5
aa(lp434
S'PHY121'
p435
aI76661
aI7
aI196
aS'T Th'
p436
aS' 1:30 PM'
p437
aI13
aI30
aI14
aI45
aNaNaNaNaNaNaNag5
aa(lp438
S'PHY121'
p439
aI76665
aI0
aI28
ag8
aS'12:00 PM'
p440
aI12
aI0
aI12
aI50
aNaNaNaNaNaNaNag5
aa(lp441
S'PHY121'
p442
aI76667
aI0
aI28
ag23
aS'12:00 PM'
p443
aI12
aI0
aI12
aI50
aNaNaNaNaNaNaNag5
aa(lp444
S'PHY121'
p445
aI76668
aI2
aI28
ag33
aS'12:00 PM'
p446
aI12
aI0
aI12
aI50
aNaNaNaNaNaNaNag10
aa(lp447
S'PHY121'
p448
aI76669
aI0
aI28
ag8
aS' 9:00 AM'
p449
aI9
aI0
aI9
aI50
aNaNaNaNaNaNaNag5
aa(lp450
S'PHY121'
p451
aI76670
aI1
aI28
ag23
aS' 3:00 PM'
p452
aI15
aI0
aI15
aI50
aNaNaNaNaNaNaNag10
aa(lp453
S'PHY121'
p454
aI76671
aI3
aI28
ag33
aS' 9:00 AM'
p455
aI9
aI0
aI9
aI50
aNaNaNaNaNaNaNag10
aa(lp456
S'PHY121'
p457
aI76672
aI1
aI28
ag8
aS'10:30 AM'
p458
aI10
aI30
aI11
aI20
aNaNaNaNaNaNaNag10
aa(lp459
S'PHY121'
p460
aI76662
aI62
aI196
aS'T Th'
p461
aS' 3:00 PM'
p462
aI15
aI0
aI16
aI15
aNaNaNaNaNaNaNag5
aa(lp463
S'PHY121'
p464
aI76666
aI6
aI28
ag33
aS' 1:30 PM'
p465
aI13
aI30
aI14
aI20
aNaNaNaNaNaNaNag10
aa(lp466
S'PHY121'
p467
aI76673
aI2
aI28
ag8
aS' 1:30 PM'
p468
aI13
aI30
aI14
aI20
aNaNaNaNaNaNaNag10
aa(lp469
S'PHY121'
p470
aI76674
aI0
aI28
ag23
aS' 1:30 PM'
p471
aI13
aI30
aI14
aI20
aNaNaNaNaNaNaNag5
aa(lp472
S'PHY121'
p473
aI76675
aI0
aI28
ag8
aS' 3:00 PM'
p474
aI15
aI0
aI15
aI50
aNaNaNaNaNaNaNag5
aa(lp475
S'PHY121'
p476
aI76676
aI10
aI28
ag23
aS' 9:00 AM'
p477
aI9
aI0
aI9
aI50
aNaNaNaNaNaNaNag10
aa(lp478
S'PHY121'
p479
aI76677
aI24
aI28
ag33
aS' 3:00 PM'
p480
aI15
aI0
aI15
aI50
aNaNaNaNaNaNaNag10
aa(lp481
S'PHY121'
p482
aI76678
aI20
aI28
ag23
aS'10:30 AM'
p483
aI10
aI30
aI11
aI20
aNaNaNaNaNaNaNag10
aa(lp484
S'PHY121'
p485
aI76663
aI17
aI24
aS'M W F'
p486
aS' 9:00 AM'
p487
aI9
aI0
aI10
aI50
aNaNaNaNaNaNaNag5
aa(lp488
S'PHY121'
p489
aI76664
aI180
aI200
ag332
aNaNaNaNaNaNaNaNaNaNaNaNag5
aa(lp490
S'PHY121'
p491
aI83317
aI51
aI72
aS'M W'
p492
aS' 1:30 PM'
p493
aI13
aI30
aI14
aI45
aNaNaNaNaNaNaNag5
aa(lp494
S'PHY121'
p495
aI83349
aI18
aI24
ag33
aS' 9:00 AM'
p496
aI9
aI0
aI9
aI50
aNaNaNaNaNaNaNag10
aa(lp497
S'PHY121'
p498
aI83733
aI21
aI24
ag33
aS'10:30 AM'
p499
aI10
aI30
aI11
aI20
aNaNaNaNaNaNaNag10
aa(lp500
S'PHY121'
p501
aI83734
aI12
aI24
ag33
aS'12:00 PM'
p502
aI12
aI0
aI12
aI50
aNaNaNaNaNaNaNag10
aa(lp503
S'PHY121'
p504
aI83320
aI59
aI72
aS'M W'
p505
aS' 3:00 PM'
p506
aI15
aI0
aI16
aI15
aNaNaNaNaNaNaNag5
aa(lp507
S'PHY121'
p508
aI83743
aI18
aI24
ag33
aS'10:30 AM'
p509
aI10
aI30
aI11
aI20
aNaNaNaNaNaNaNag10
aa(lp510
S'PHY121'
p511
aI83744
aI20
aI24
ag33
aS'12:00 PM'
p512
aI12
aI0
aI12
aI50
aNaNaNaNaNaNaNag10
aa(lp513
S'PHY121'
p514
aI83745
aI21
aI24
ag33
aS' 1:30 PM'
p515
aI13
aI30
aI14
aI20
aNaNaNaNaNaNaNag10
aa(lp516
S'PHY121'
p517
aI85777
aI50
aI72
aS'T Th'
p518
aS' 4:45 PM'
p519
aI16
aI45
aI18
aI0
aNaNaNaNaNaNaNag5
aa(lp520
S'PHY121'
p521
aI90543
aI12
aI24
ag16
aS' 3:00 PM'
p522
aI15
aI0
aI15
aI50
aNaNaNaNaNaNaNag10
aa(lp523
S'PHY121'
p524
aI90544
aI20
aI24
aS'Th'
p525
aS'10:30 AM'
p526
aI10
aI30
aI11
aI20
aNaNaNaNaNaNaNag10
aa(lp527
S'PHY121'
p528
aI90545
aI18
aI24
ag23
aS' 9:00 AM'
p529
aI9
aI0
aI9
aI50
aNaNaNaNaNaNaNag10
aa(lp530
S'PHY121'
p531
aI90299
aI20
aI72
aS'T Th'
p532
aS' 9:00 AM'
p533
aI9
aI0
aI10
aI15
aNaNaNaNaNaNaNag5
aa(lp534
S'PHY121'
p535
aI90525
aI6
aI24
ag8
aS' 9:00 AM'
p536
aI9
aI0
aI9
aI50
aNaNaNaNaNaNaNag10
aa(lp537
S'PHY121'
p538
aI90526
aI7
aI24
ag23
aS' 3:00 PM'
p539
aI15
aI0
aI15
aI50
aNaNaNaNaNaNaNag10
aa(lp540
S'PHY121'
p541
aI90527
aI7
aI24
aS'Th'
p542
aS' 3:00 PM'
p543
aI15
aI0
aI15
aI50
aNaNaNaNaNaNaNag10
aa(lp544
S'PHY121'
p545
aI81536
aI50
aI81
aS'T Th'
p546
aS'12:00 PM'
p547
aI12
aI0
aI13
aI15
aNaNaNaNaNaNaNag5
aa(lp548
S'PHY121'
p549
aI81537
aI21
aI27
ag23
aS'12:00 PM'
p550
aI12
aI0
aI12
aI50
aNaNaNaNaNaNaNag10
aa(lp551
S'PHY121'
p552
aI81540
aI20
aI27
ag33
aS'12:00 PM'
p553
aI12
aI0
aI12
aI50
aNaNaNaNaNaNaNag10
aa(lp554
S'PHY121'
p555
aI84228
aI9
aI27
ag8
aS' 1:30 PM'
p556
aI13
aI30
aI14
aI20
aNaNaNaNaNaNaNag10
aa(lp557
S'PHY121'
p558
aI90291
aI8
aI60
aS'T Th'
p559
aS'12:00 PM'
p560
aI12
aI0
aI13
aI15
aNaNaNaNaNaNaNag5
aa(lp561
S'PHY121'
p562
aI81539
aI7
aI30
ag8
aS'12:00 PM'
p563
aI12
aI0
aI12
aI50
aNaNaNaNaNaNaNag10
aa(lp564
S'PHY121'
p565
aI84229
aI1
aI30
ag23
aS' 1:30 PM'
p566
aI13
aI30
aI14
aI20
aNaNaNaNaNaNaNag10
aa(lp567
S'PHY122'
p568
aI70154
aI13
aI24
ag8
aS' 8:00 AM'
p569
aI8
aI0
aI9
aI50
aNaNaNaNaNaNaNag10
aa(lp570
S'PHY122'
p571
aI70155
aI0
aI24
ag8
aS'10:00 AM'
p572
aI10
aI0
aI11
aI50
aNaNaNaNaNaNaNag5
aa(lp573
S'PHY122'
p574
aI72184
aI0
aI24
ag8
aS'12:00 PM'
p575
aI12
aI0
aI13
aI50
aNaNaNaNaNaNaNag5
aa(lp576
S'PHY122'
p577
aI72185
aI1
aI24
ag8
aS' 2:00 PM'
p578
aI14
aI0
aI15
aI50
aNaNaNaNaNaNaNag10
aa(lp579
S'PHY122'
p580
aI72186
aI7
aI24
ag8
aS' 4:00 PM'
p581
aI16
aI0
aI17
aI50
aNaNaNaNaNaNaNag10
aa(lp582
S'PHY122'
p583
aI72187
aI11
aI24
ag8
aS' 6:00 PM'
p584
aI18
aI0
aI19
aI50
aNaNaNaNaNaNaNag10
aa(lp585
S'PHY122'
p586
aI72188
aI20
aI24
ag16
aS' 8:25 AM'
p587
aI8
aI25
aI10
aI15
aNaNaNaNaNaNaNag10
aa(lp588
S'PHY122'
p589
aI72189
aI0
aI24
ag16
aS'10:25 AM'
p590
aI10
aI25
aI12
aI15
aNaNaNaNaNaNaNag5
aa(lp591
S'PHY122'
p592
aI72190
aI4
aI24
ag16
aS'12:25 PM'
p593
aI12
aI25
aI14
aI15
aNaNaNaNaNaNaNag10
aa(lp594
S'PHY122'
p595
aI72191
aI16
aI24
ag16
aS' 2:25 PM'
p596
aI14
aI25
aI16
aI15
aNaNaNaNaNaNaNag10
aa(lp597
S'PHY122'
p598
aI72192
aI4
aI24
ag16
aS' 4:25 PM'
p599
aI16
aI25
aI18
aI15
aNaNaNaNaNaNaNag10
aa(lp600
S'PHY122'
p601
aI72193
aI19
aI24
ag23
aS' 8:00 AM'
p602
aI8
aI0
aI9
aI50
aNaNaNaNaNaNaNag10
aa(lp603
S'PHY122'
p604
aI72194
aI0
aI24
ag23
aS'10:00 AM'
p605
aI10
aI0
aI11
aI50
aNaNaNaNaNaNaNag5
aa(lp606
S'PHY122'
p607
aI73414
aI0
aI24
ag23
aS'12:00 PM'
p608
aI12
aI0
aI13
aI50
aNaNaNaNaNaNaNag5
aa(lp609
S'PHY122'
p610
aI73415
aI2
aI24
ag23
aS' 2:00 PM'
p611
aI14
aI0
aI15
aI50
aNaNaNaNaNaNaNag10
aa(lp612
S'PHY122'
p613
aI73416
aI5
aI24
ag23
aS' 4:00 PM'
p614
aI16
aI0
aI17
aI50
aNaNaNaNaNaNaNag10
aa(lp615
S'PHY122'
p616
aI76687
aI24
aI24
ag16
aS' 8:00 AM'
p617
aI8
aI0
aI9
aI50
aNaNaNaNaNaNaNag10
aa(lp618
S'PHY122'
p619
aI76688
aI11
aI24
ag16
aS'10:00 AM'
p620
aI10
aI0
aI11
aI50
aNaNaNaNaNaNaNag10
aa(lp621
S'PHY122'
p622
aI76689
aI18
aI24
ag16
aS'12:00 PM'
p623
aI12
aI0
aI13
aI50
aNaNaNaNaNaNaNag10
aa(lp624
S'PHY122'
p625
aI76690
aI18
aI24
ag16
aS' 2:00 PM'
p626
aI14
aI0
aI15
aI50
aNaNaNaNaNaNaNag10
aa(lp627
S'PHY122'
p628
aI76691
aI12
aI24
ag16
aS' 4:00 PM'
p629
aI16
aI0
aI17
aI50
aNaNaNaNaNaNaNag10
aa(lp630
S'PHY122'
p631
aI76692
aI20
aI24
ag332
aNaNaNaNaNaNaNaNaNaNaNaNag5
aa(lp632
S'PHY122'
p633
aI76693
aI21
aI24
ag16
aS' 6:00 PM'
p634
aI18
aI0
aI19
aI50
aNaNaNaNaNaNaNag10
aa(lp635
S'PHY122'
p636
aI76694
aI24
aI24
ag16
aS' 6:25 PM'
p637
aI18
aI25
aI20
aI15
aNaNaNaNaNaNaNag10
aa(lp638
S'PHY122'
p639
aI76695
aI22
aI24
ag23
aS' 6:00 PM'
p640
aI18
aI0
aI19
aI50
aNaNaNaNaNaNaNag10
aa(lp641
S'PHY122'
p642
aI80884
aI20
aI24
aS'Th'
p643
aS' 8:25 AM'
p644
aI8
aI25
aI10
aI15
aNaNaNaNaNaNaNag10
aa(lp645
S'PHY122'
p646
aI85420
aI11
aI24
aS'Th'
p647
aS'10:25 AM'
p648
aI10
aI25
aI12
aI15
aNaNaNaNaNaNaNag10
aa(lp649
S'PHY122'
p650
aI90962
aI23
aI24
ag23
aS' 8:00 AM'
p651
aI8
aI0
aI9
aI50
aNaNaNaNaNaNaNag10
aa(lp652
S'PHY122'
p653
aI90963
aI8
aI24
ag23
aS'10:00 AM'
p654
aI10
aI0
aI11
aI50
aNaNaNaNaNaNaNag10
aa(lp655
S'PHY122'
p656
aI90965
aI11
aI24
ag23
aS'12:00 PM'
p657
aI12
aI0
aI13
aI50
aNaNaNaNaNaNaNag10
aa(lp658
S'PHY122'
p659
aI90966
aI18
aI24
ag23
aS' 2:00 PM'
p660
aI14
aI0
aI15
aI50
aNaNaNaNaNaNaNag10
aa(lp661
S'PHY122'
p662
aI90967
aI18
aI24
ag23
aS' 4:00 PM'
p663
aI16
aI0
aI17
aI50
aNaNaNaNaNaNaNag10
aa(lp664
S'PHY122'
p665
aI90968
aI23
aI24
ag23
aS' 6:00 PM'
p666
aI18
aI0
aI19
aI50
aNaNaNaNaNaNaNag10
aa(lp667
S'PHY122'
p668
aI90969
aI15
aI24
aS'Th'
p669
aS'12:25 PM'
p670
aI12
aI25
aI14
aI15
aNaNaNaNaNaNaNag10
aa(lp671
S'PHY122'
p672
aI90970
aI19
aI24
aS'Th'
p673
aS' 2:25 PM'
p674
aI14
aI25
aI16
aI15
aNaNaNaNaNaNaNag10
aa(lp675
S'PHY122'
p676
aI90971
aI15
aI24
aS'Th'
p677
aS' 4:25 PM'
p678
aI16
aI25
aI18
aI15
aNaNaNaNaNaNaNag10
aa(lp679
S'PHY122'
p680
aI90972
aI24
aI24
aS'Th'
p681
aS' 6:25 PM'
p682
aI18
aI25
aI20
aI15
aNaNaNaNaNaNaNag10
aa(lp683
S'PHY122'
p684
aI81541
aI21
aI24
ag23
aS' 3:00 PM'
p685
aI15
aI0
aI16
aI50
aNaNaNaNaNaNaNag5
aa(lp686
S'PHY122'
p687
aI87040
aI15
aI24
ag23
aS' 3:00 PM'
p688
aI15
aI0
aI16
aI50
aNaNaNaNaNaNaNag5
aa(lp689
S'PHY122'
p690
aI81543
aI17
aI24
ag8
aS'12:00 PM'
p691
aI12
aI0
aI13
aI50
aNaNaNaNaNaNaNag5
aa(lp692
S'PHY122'
p693
aI83495
aI18
aI24
ag8
aS' 9:00 AM'
p694
aI9
aI0
aI10
aI50
aNaNaNaNaNaNaNag5
aa(lp695
S'PHY122'
p696
aI84225
aI6
aI24
ag16
aS' 3:00 PM'
p697
aI15
aI0
aI16
aI50
aNaNaNaNaNaNaNag5
aa(lp698
S'PHY122'
p699
aI84226
aI20
aI24
ag23
aS'12:00 PM'
p700
aI12
aI0
aI13
aI50
aNaNaNaNaNaNaNag5
aa(lp701
S'PHY122'
p702
aI84227
aI21
aI24
ag33
aS' 3:00 PM'
p703
aI15
aI0
aI16
aI50
aNaNaNaNaNaNaNag5
aa(lp704
S'PHY131'
p705
aI72195
aI3
aI196
aS'T Th'
p706
aS' 9:00 AM'
p707
aI9
aI0
aI10
aI15
aNaNaNaNaNaNaNag5
aa(lp708
S'PHY131'
p709
aI73419
aI0
aI28
ag8
aS' 9:00 AM'
p710
aI9
aI0
aI9
aI50
aNaNaNaNaNaNaNag5
aa(lp711
S'PHY131'
p712
aI73420
aI0
aI28
ag23
aS' 9:00 AM'
p713
aI9
aI0
aI9
aI50
aNaNaNaNaNaNaNag5
aa(lp714
S'PHY131'
p715
aI73421
aI0
aI28
ag33
aS' 9:00 AM'
p716
aI9
aI0
aI9
aI50
aNaNaNaNaNaNaNag5
aa(lp717
S'PHY131'
p718
aI73422
aI1
aI28
ag8
aS' 3:00 PM'
p719
aI15
aI0
aI15
aI50
aNaNaNaNaNaNaNag10
aa(lp720
S'PHY131'
p721
aI73423
aI0
aI28
ag23
aS' 3:00 PM'
p722
aI15
aI0
aI15
aI50
aNaNaNaNaNaNaNag5
aa(lp723
S'PHY131'
p724
aI73424
aI2
aI28
ag33
aS' 3:00 PM'
p725
aI15
aI0
aI15
aI50
aNaNaNaNaNaNaNag10
aa(lp726
S'PHY131'
p727
aI73425
aI0
aI28
ag8
aS'10:30 AM'
p728
aI10
aI30
aI11
aI20
aNaNaNaNaNaNaNag5
aa(lp729
S'PHY131'
p730
aI72196
aI3
aI196
aS'T Th'
p731
aS'10:30 AM'
p732
aI10
aI30
aI11
aI45
aNaNaNaNaNaNaNag5
aa(lp733
S'PHY131'
p734
aI73426
aI0
aI28
ag8
aS'12:00 PM'
p735
aI12
aI0
aI12
aI50
aNaNaNaNaNaNaNag5
aa(lp736
S'PHY131'
p737
aI73427
aI0
aI28
ag23
aS'12:00 PM'
p738
aI12
aI0
aI12
aI50
aNaNaNaNaNaNaNag5
aa(lp739
S'PHY131'
p740
aI73428
aI0
aI28
ag33
aS'12:00 PM'
p741
aI12
aI0
aI12
aI50
aNaNaNaNaNaNaNag5
aa(lp742
S'PHY131'
p743
aI73429
aI0
aI28
ag8
aS' 4:30 PM'
p744
aI16
aI30
aI17
aI20
aNaNaNaNaNaNaNag5
aa(lp745
S'PHY131'
p746
aI73430
aI0
aI28
ag23
aS' 4:30 PM'
p747
aI16
aI30
aI17
aI20
aNaNaNaNaNaNaNag5
aa(lp748
S'PHY131'
p749
aI74177
aI3
aI28
ag33
aS' 4:30 PM'
p750
aI16
aI30
aI17
aI20
aNaNaNaNaNaNaNag10
aa(lp751
S'PHY131'
p752
aI78753
aI0
aI28
ag23
aS'10:30 AM'
p753
aI10
aI30
aI11
aI20
aNaNaNaNaNaNaNag5
aa(lp754
S'PHY131'
p755
aI73417
aI7
aI196
aS'T Th'
p756
aS'12:00 PM'
p757
aI12
aI0
aI13
aI15
aNaNaNaNaNaNaNag5
aa(lp758
S'PHY131'
p759
aI78754
aI0
aI28
ag8
aS'10:30 AM'
p760
aI10
aI30
aI11
aI20
aNaNaNaNaNaNaNag5
aa(lp761
S'PHY131'
p762
aI78755
aI0
aI28
ag23
aS'10:30 AM'
p763
aI10
aI30
aI11
aI20
aNaNaNaNaNaNaNag5
aa(lp764
S'PHY131'
p765
aI78756
aI1
aI28
ag33
aS'10:30 AM'
p766
aI10
aI30
aI11
aI20
aNaNaNaNaNaNaNag10
aa(lp767
S'PHY131'
p768
aI78757
aI1
aI28
ag8
aS' 1:30 PM'
p769
aI13
aI30
aI14
aI20
aNaNaNaNaNaNaNag10
aa(lp770
S'PHY131'
p771
aI78758
aI0
aI28
ag33
aS'10:30 AM'
p772
aI10
aI30
aI11
aI20
aNaNaNaNaNaNaNag5
aa(lp773
S'PHY131'
p774
aI78759
aI0
aI28
ag23
aS' 1:30 PM'
p775
aI13
aI30
aI14
aI20
aNaNaNaNaNaNaNag5
aa(lp776
S'PHY131'
p777
aI78760
aI5
aI28
ag33
aS' 1:30 PM'
p778
aI13
aI30
aI14
aI20
aNaNaNaNaNaNaNag10
aa(lp779
S'PHY131'
p780
aI73418
aI0
aI260
ag332
aNaNaNaNaNaNaNaNaNaNaNaNag5
aa(lp781
S'PHY131'
p782
aI83312
aI54
aI196
aS'T Th'
p783
aS' 7:30 AM'
p784
aI7
aI30
aI8
aI45
aNaNaNaNaNaNaNag5
aa(lp785
S'PHY131'
p786
aI83764
aI19
aI28
ag8
aS' 7:30 AM'
p787
aI7
aI30
aI8
aI20
aNaNaNaNaNaNaNag10
aa(lp788
S'PHY131'
p789
aI83765
aI17
aI28
ag23
aS' 7:30 AM'
p790
aI7
aI30
aI8
aI20
aNaNaNaNaNaNaNag10
aa(lp791
S'PHY131'
p792
aI83766
aI17
aI28
ag33
aS' 7:30 AM'
p793
aI7
aI30
aI8
aI20
aNaNaNaNaNaNaNag10
aa(lp794
S'PHY131'
p795
aI83767
aI0
aI28
ag8
aS' 9:00 AM'
p796
aI9
aI0
aI9
aI50
aNaNaNaNaNaNaNag5
aa(lp797
S'PHY131'
p798
aI83768
aI0
aI28
ag23
aS' 9:00 AM'
p799
aI9
aI0
aI9
aI50
aNaNaNaNaNaNaNag5
aa(lp800
S'PHY131'
p801
aI83769
aI0
aI28
ag33
aS' 9:00 AM'
p802
aI9
aI0
aI9
aI50
aNaNaNaNaNaNaNag5
aa(lp803
S'PHY131'
p804
aI83770
aI1
aI28
ag8
aS'12:00 PM'
p805
aI12
aI0
aI12
aI50
aNaNaNaNaNaNaNag10
aa(lp806
S'PHY131'
p807
aI81544
aI0
aI48
aS'T Th'
p808
aS' 9:00 AM'
p809
aI9
aI0
aI10
aI15
aNaNaNaNaNaNaNag5
aa(lp810
S'PHY131'
p811
aI83497
aI0
aI24
ag16
aS' 3:00 PM'
p812
aI15
aI0
aI15
aI50
aNaNaNaNaNaNaNag5
aa(lp813
S'PHY131'
p814
aI84230
aI6
aI30
aS'Th'
p815
aS' 3:00 PM'
p816
aI15
aI0
aI15
aI50
aNaNaNaNaNaNaNag10
aa(lp817
S'PHY132'
p818
aI72197
aI13
aI24
ag8
aS' 8:00 AM'
p819
aI8
aI0
aI9
aI50
aNaNaNaNaNaNaNag10
aa(lp820
S'PHY132'
p821
aI72198
aI0
aI24
ag8
aS'10:00 AM'
p822
aI10
aI0
aI11
aI50
aNaNaNaNaNaNaNag5
aa(lp823
S'PHY132'
p824
aI72199
aI0
aI24
ag8
aS'12:00 PM'
p825
aI12
aI0
aI13
aI50
aNaNaNaNaNaNaNag5
aa(lp826
S'PHY132'
p827
aI72200
aI0
aI24
ag8
aS' 2:00 PM'
p828
aI14
aI0
aI15
aI50
aNaNaNaNaNaNaNag5
aa(lp829
S'PHY132'
p830
aI72201
aI0
aI24
ag8
aS' 4:00 PM'
p831
aI16
aI0
aI17
aI50
aNaNaNaNaNaNaNag5
aa(lp832
S'PHY132'
p833
aI76696
aI0
aI24
ag8
aS' 6:00 PM'
p834
aI18
aI0
aI19
aI50
aNaNaNaNaNaNaNag5
aa(lp835
S'PHY132'
p836
aI72202
aI5
aI24
ag16
aS' 8:25 AM'
p837
aI8
aI25
aI10
aI15
aNaNaNaNaNaNaNag10
aa(lp838
S'PHY132'
p839
aI72203
aI0
aI24
ag16
aS'10:25 AM'
p840
aI10
aI25
aI12
aI15
aNaNaNaNaNaNaNag5
aa(lp841
S'PHY132'
p842
aI72204
aI0
aI24
ag16
aS'12:25 PM'
p843
aI12
aI25
aI14
aI15
aNaNaNaNaNaNaNag5
aa(lp844
S'PHY132'
p845
aI72205
aI0
aI24
ag16
aS' 2:25 PM'
p846
aI14
aI25
aI16
aI15
aNaNaNaNaNaNaNag5
aa(lp847
S'PHY132'
p848
aI72206
aI0
aI24
ag16
aS' 4:25 PM'
p849
aI16
aI25
aI18
aI15
aNaNaNaNaNaNaNag5
aa(lp850
S'PHY132'
p851
aI72894
aI17
aI24
ag16
aS' 6:25 PM'
p852
aI18
aI25
aI20
aI15
aNaNaNaNaNaNaNag10
aa(lp853
S'PHY132'
p854
aI73006
aI8
aI24
ag23
aS' 8:00 AM'
p855
aI8
aI0
aI9
aI50
aNaNaNaNaNaNaNag10
aa(lp856
S'PHY132'
p857
aI73007
aI0
aI24
ag23
aS'10:00 AM'
p858
aI10
aI0
aI11
aI50
aNaNaNaNaNaNaNag5
aa(lp859
S'PHY132'
p860
aI73008
aI0
aI24
ag23
aS'12:00 PM'
p861
aI12
aI0
aI13
aI50
aNaNaNaNaNaNaNag5
aa(lp862
S'PHY132'
p863
aI73446
aI0
aI24
ag23
aS' 2:00 PM'
p864
aI14
aI0
aI15
aI50
aNaNaNaNaNaNaNag5
aa(lp865
S'PHY132'
p866
aI73447
aI0
aI24
ag23
aS' 4:00 PM'
p867
aI16
aI0
aI17
aI50
aNaNaNaNaNaNaNag5
aa(lp868
S'PHY132'
p869
aI73448
aI0
aI24
ag23
aS' 6:00 PM'
p870
aI18
aI0
aI19
aI50
aNaNaNaNaNaNaNag5
aa(lp871
S'PHY132'
p872
aI73449
aI14
aI24
aS'Th'
p873
aS' 8:25 AM'
p874
aI8
aI25
aI10
aI15
aNaNaNaNaNaNaNag10
aa(lp875
S'PHY132'
p876
aI73450
aI0
aI24
aS'Th'
p877
aS'10:25 AM'
p878
aI10
aI25
aI12
aI15
aNaNaNaNaNaNaNag5
aa(lp879
S'PHY132'
p880
aI76340
aI0
aI24
aS'Th'
p881
aS'12:25 PM'
p882
aI12
aI25
aI14
aI15
aNaNaNaNaNaNaNag5
aa(lp883
S'PHY132'
p884
aI76341
aI0
aI24
aS'Th'
p885
aS' 2:25 PM'
p886
aI14
aI25
aI16
aI15
aNaNaNaNaNaNaNag5
aa(lp887
S'PHY132'
p888
aI76453
aI4
aI24
aS'Th'
p889
aS' 4:25 PM'
p890
aI16
aI25
aI18
aI15
aNaNaNaNaNaNaNag10
aa(lp891
S'PHY132'
p892
aI77441
aI24
aI24
aS'Th'
p893
aS' 6:25 PM'
p894
aI18
aI25
aI20
aI15
aNaNaNaNaNaNaNag10
aa(lp895
S'PHY132'
p896
aI77442
aI16
aI24
aS'Th'
p897
aS' 8:25 AM'
p898
aI8
aI25
aI10
aI15
aNaNaNaNaNaNaNag10
aa(lp899
S'PHY132'
p900
aI77443
aI0
aI24
aS'Th'
p901
aS'10:25 AM'
p902
aI10
aI25
aI12
aI15
aNaNaNaNaNaNaNag5
aa(lp903
S'PHY132'
p904
aI77444
aI0
aI24
aS'Th'
p905
aS'12:25 PM'
p906
aI12
aI25
aI14
aI15
aNaNaNaNaNaNaNag5
aa(lp907
S'PHY132'
p908
aI77445
aI0
aI24
aS'Th'
p909
aS' 2:25 PM'
p910
aI14
aI25
aI16
aI15
aNaNaNaNaNaNaNag5
aa(lp911
S'PHY132'
p912
aI78853
aI5
aI24
aS'Th'
p913
aS' 4:25 PM'
p914
aI16
aI25
aI18
aI15
aNaNaNaNaNaNaNag10
aa(lp915
S'PHY132'
p916
aI78854
aI21
aI24
aS'Th'
p917
aS' 6:25 PM'
p918
aI18
aI25
aI20
aI15
aNaNaNaNaNaNaNag10
aa(lp919
S'PHY132'
p920
aI78855
aI8
aI24
ag33
aS' 8:00 AM'
p921
aI8
aI0
aI9
aI50
aNaNaNaNaNaNaNag10
aa(lp922
S'PHY132'
p923
aI78856
aI0
aI24
ag33
aS'10:00 AM'
p924
aI10
aI0
aI11
aI50
aNaNaNaNaNaNaNag5
aa(lp925
S'PHY132'
p926
aI78857
aI0
aI24
ag33
aS' 2:00 PM'
p927
aI14
aI0
aI15
aI50
aNaNaNaNaNaNaNag5
aa(lp928
S'PHY132'
p929
aI78858
aI2
aI24
ag33
aS' 4:00 PM'
p930
aI16
aI0
aI17
aI50
aNaNaNaNaNaNaNag10
aa(lp931
S'PHY132'
p932
aI78859
aI22
aI24
ag33
aS' 6:00 PM'
p933
aI18
aI0
aI19
aI50
aNaNaNaNaNaNaNag10
aa(lp934
S'PHY132'
p935
aI90973
aI24
aI24
ag16
aS' 8:25 AM'
p936
aI8
aI25
aI10
aI15
aNaNaNaNaNaNaNag10
aa(lp937
S'PHY132'
p938
aI90974
aI0
aI24
ag16
aS'10:25 AM'
p939
aI10
aI25
aI12
aI15
aNaNaNaNaNaNaNag5
aa(lp940
S'PHY132'
p941
aI90975
aI0
aI24
ag16
aS'12:25 PM'
p942
aI12
aI25
aI14
aI15
aNaNaNaNaNaNaNag5
aa(lp943
S'PHY132'
p944
aI90976
aI0
aI24
ag16
aS' 2:25 PM'
p945
aI14
aI25
aI16
aI15
aNaNaNaNaNaNaNag5
aa(lp946
S'PHY132'
p947
aI90977
aI6
aI24
ag16
aS' 4:25 PM'
p948
aI16
aI25
aI18
aI15
aNaNaNaNaNaNaNag10
aa(lp949
S'PHY132'
p950
aI90978
aI20
aI24
ag16
aS' 6:25 PM'
p951
aI18
aI25
aI20
aI15
aNaNaNaNaNaNaNag10
aa(lp952
S'PHY132'
p953
aI90979
aI1
aI24
ag23
aS'12:00 PM'
p954
aI12
aI0
aI13
aI50
aNaNaNaNaNaNaNag10
aa(lp955
S'PHY132'
p956
aI81545
aI0
aI24
ag33
aS' 9:00 AM'
p957
aI9
aI0
aI10
aI50
aNaNaNaNaNaNaNag5
aa(lp958
S'PHY132'
p959
aI84231
aI0
aI24
ag33
aS' 3:00 PM'
p960
aI15
aI0
aI16
aI50
aNaNaNaNaNaNaNag5
aa(lp961
S'PHY150'
p962
aI73513
aI27
aI30
aS'M W F'
p963
aS'11:30 AM'
p964
aI11
aI30
aI13
aI20
aNaNaNaNaNaNaNag5
aa(lp965
S'PHY151'
p966
aI72216
aI22
aI60
aS'M W F'
p967
aS'11:15 AM'
p968
aI11
aI15
aI13
aI5
aNaNaNaNaNaNaNag10
aa(lp969
S'PHY191'
p970
aI73581
aI18
aI19
ag8
aS' 1:30 PM'
p971
aI13
aI30
aI14
aI20
aNaNaNaNaNaNaNag5
aa(lp972
S'PHY191'
p973
aI80801
aI18
aI19
ag33
aS' 2:30 PM'
p974
aI14
aI30
aI15
aI20
aNaNaNaNaNaNaNag5
aa(lp975
S'PHY201'
p976
aI76660
aI11
aI40
aS'T Th'
p977
aS' 9:00 AM'
p978
aI9
aI0
aI11
aI5
aNaNaNaNaNaNaNag5
aa(lp979
S'PHY241'
p980
aI72217
aI52
aI120
aS'M W F'
p981
aS' 3:00 PM'
p982
aI15
aI0
aI15
aI50
aNaNaNaNaNaNaNag10
aa(lp983
S'PHY241'
p984
aI72218
aI7
aI24
ag16
aS' 1:30 PM'
p985
aI13
aI30
aI14
aI20
aNaNaNaNaNaNaNag10
aa(lp986
S'PHY241'
p987
aI72219
aI16
aI24
aS'Th'
p988
aS' 1:30 PM'
p989
aI13
aI30
aI14
aI20
aNaNaNaNaNaNaNag10
aa(lp990
S'PHY241'
p991
aI72220
aI10
aI24
ag16
aS' 3:00 PM'
p992
aI15
aI0
aI15
aI50
aNaNaNaNaNaNaNag10
aa(lp993
S'PHY241'
p994
aI77912
aI11
aI24
aS'Th'
p995
aS' 3:00 PM'
p996
aI15
aI0
aI15
aI50
aNaNaNaNaNaNaNag10
aa(lp997
S'PHY241'
p998
aI78318
aI8
aI24
ag33
aS'10:30 AM'
p999
aI10
aI30
aI11
aI20
aNaNaNaNaNaNaNag10
aa(lp1000
S'PHY252'
p1001
aI73859
aI2
aI37
aS'M W'
p1002
aS' 3:00 PM'
p1003
aI15
aI0
aI16
aI50
aNaNaNaNaNaNaNag5
aa(lp1004
S'PHY252'
p1005
aI75595
aI0
aI18
ag33
aS' 2:00 PM'
p1006
aI14
aI0
aI15
aI50
aNaNaNaNaNaNaNag5
aa(lp1007
S'PHY252'
p1008
aI75596
aI2
aI19
ag33
aS' 4:00 PM'
p1009
aI16
aI0
aI17
aI50
aNaNaNaNaNaNaNag10
aa(lp1010
S'PHY302'
p1011
aI72221
aI0
aI45
aS'T Th'
p1012
aS'11:15 AM'
p1013
aI11
aI15
aI13
aI20
aNaNaNaNaNaNaNag5
aa(lp1014
S'PHY310'
p1015
aI72222
aI15
aI75
aS'M W F'
p1016
aS'12:00 PM'
p1017
aI12
aI0
aI12
aI50
aNaNaNaNaNaNaNag5
aa(lp1018
S'PHY314'
p1019
aI72223
aI0
aI60
aS'T Th'
p1020
aS' 9:00 AM'
p1021
aI9
aI0
aI10
aI15
aNaNaNaNaNaNaNag5
aa(lp1022
S'PHY321'
p1023
aI81546
aI0
aI30
aS'T Th'
p1024
aS' 9:00 AM'
p1025
aI9
aI0
aI10
aI15
aNaNaNaNaNaNaNag5
aa(lp1026
S'PHY321'
p1027
aI83496
aI4
aI30
aS'M W'
p1028
aS' 3:00 PM'
p1029
aI15
aI0
aI16
aI15
aNaNaNaNaNaNaNag10
aa(lp1030
S'PHY331'
p1031
aI83670
aI0
aI24
aS'T Th'
p1032
aS' 9:00 AM'
p1033
aI9
aI0
aI10
aI15
aNaNaNaNaNaNaNag5
aa(lp1034
S'PHY333'
p1035
aI72224
aI0
aI20
ag16
aS'12:00PM'
p1036
aI12
aI0
aI12
aI50
aS'Th'
p1037
aS'12:00PM'
p1038
aI12
aI0
aS'3:00PM'
p1039
aI15
aI0
ag5
aa(lp1040
S'PHY334'
p1041
aI75072
aI6
aI6
ag16
aS' 9:00 AM'
p1042
aI9
aI0
aI11
aI50
aNaNaNaNaNaNaNag10
aa(lp1043
S'PHY334'
p1044
aI75597
aI5
aI6
aS'Th'
p1045
aS' 9:00 AM'
p1046
aI9
aI0
aI11
aI50
aNaNaNaNaNaNaNag10
aa(lp1047
S'PHY334'
p1048
aI75598
aI1
aI6
ag16
aS'12:00 PM'
p1049
aI12
aI0
aI14
aI50
aNaNaNaNaNaNaNag10
aa(lp1050
S'PHY334'
p1051
aI76655
aI0
aI6
aS'Th'
p1052
aS'12:00 PM'
p1053
aI12
aI0
aI14
aI50
aNaNaNaNaNaNaNag5
aa(lp1054
S'PHY334'
p1055
aI78783
aI0
aI6
ag16
aS' 3:00 PM'
p1056
aI15
aI0
aI17
aI50
aNaNaNaNaNaNaNag5
aa(lp1057
S'PHY334'
p1058
aI78784
aI0
aI6
aS'Th'
p1059
aS' 3:00 PM'
p1060
aI15
aI0
aI17
aI50
aNaNaNaNaNaNaNag5
aa(lp1061
S'PHY361'
p1062
aI77506
aI9
aI24
aS'T Th'
p1063
aS'10:30 AM'
p1064
aI10
aI30
aI11
aI45
aNaNaNaNaNaNaNag10
aa(lp1065
S'PHY412'
p1066
aI72225
aI0
aI40
aS'M W'
p1067
aS'10:30 AM'
p1068
aI10
aI30
aI11
aI45
aNaNaNaNaNaNaNag5
aa(lp1069
S'PHY416'
p1070
aI72226
aI3
aI30
aS'T Th'
p1071
aS' 9:00 AM'
p1072
aI9
aI0
aI10
aI15
aNaNaNaNaNaNaNag10
aa(lp1073
S'PHY441'
p1074
aI72227
aI42
aI75
aS'M W F'
p1075
aS' 1:30 PM'
p1076
aI13
aI30
aI14
aI20
aNaNaNaNaNaNaNag10
aa(lp1077
S'PHY472'
p1078
aI83220
aI5
aI6
ag23
aS' 8:00 AM'
p1079
aI8
aI0
aI11
aI0
aNaNaNaNaNaNaNag10
aa(lp1080
S'PHY481'
p1081
aI72228
aI3
aI6
aS'M W F'
p1082
aS' 9:00 AM'
p1083
aI9
aI0
aI10
aI15
aNaNaNaNaNaNaNag10
aa(lp1084
S'PHY492'
p1085
aI83431
aI30
aI30
ag332
aNaNaNaNaNaNaNaNaNaNaNaNag10
aa(lp1086
S'PHY493'
p1087
aI76659
aI5
aI5
ag332
aNaNaNaNaNaNaNaNaNaNaNaNag10
aa(lp1088
S'PHY495'
p1089
aI72229
aI30
aI30
ag332
aNaNaNaNaNaNaNaNaNaNaNaNag10
aa(lp1090
S'PHY498'
p1091
aI77260
aI12
aI25
aS'T Th'
p1092
aS' 1:30 PM'
p1093
aI13
aI30
aI14
aI45
aNaNaNaNaNaNaNag10
aa(lp1094
S'PHY499'
p1095
aI72230
aI21
aI25
ag332
aNaNaNaNaNaNaNaNaNaNaNaNag10
aa(lp1096
S'PHY499'
p1097
aI84655
aI5
aI5
ag332
aNaNaNaNaNaNaNaNaNaNaNaNag10
aa(lp1098
S'PHY500'
p1099
aI73019
aI30
aI30
ag332
aNaNaNaNaNaNaNaNaNaNaNaNag5
aa(lp1100
S'PHY511'
p1101
aI72231
aI7
aI10
aS'M W F'
p1102
aS' 9:00 AM'
p1103
aI9
aI0
aI10
aI15
aNaNaNaNaNaNaNag5
aa(lp1104
S'PHY521'
p1105
aI72232
aI27
aI34
aS'T Th'
p1106
aS' 1:30 PM'
p1107
aI13
aI30
aI14
aI45
aNaNaNaNaNaNaNag10
aa(lp1108
S'PHY523'
p1109
aI76215
aI2
aI15
aS'T Th'
p1110
aS' 9:00 AM'
p1111
aI9
aI0
aI10
aI15
aNaNaNaNaNaNaNag10
aa(lp1112
S'PHY541'
p1113
aI73452
aI27
aI35
aS'T Th'
p1114
aS'10:30 AM'
p1115
aI10
aI30
aI11
aI45
aNaNaNaNaNaNaNag5
aa(lp1116
S'PHY542'
p1117
aI74116
aI12
aI14
aS'M W'
p1118
aS' 1:30 PM'
p1119
aI13
aI30
aI14
aI45
aNaNaNaNaNaNaNag5
aa(lp1120
S'PHY552'
p1121
aI72233
aI15
aI15
aS'T Th'
p1122
aS' 9:00 AM'
p1123
aI9
aI0
aI10
aI15
aNaNaNaNaNaNaNag10
aa(lp1124
S'PHY553'
p1125
aI72234
aI6
aI6
ag332
aNaNaNaNaNaNaNaNaNaNaNaNag5
aa(lp1126
S'PHY571'
p1127
aI73516
aI5
aI6
aS'M W'
p1128
aS' 5:30 PM'
p1129
aI17
aI30
aI18
aI45
aNaNaNaNaNaNaNag5
aa(lp1130
S'PHY581'
p1131
aI77261
aI21
aI24
aS'T Th'
p1132
aS'12:00 PM'
p1133
aI12
aI0
aI13
aI15
aNaNaNaNaNaNaNag5
aa(lp1134
S'PHY590'
p1135
aI72236
aI10
aI10
ag332
aNaNaNaNaNaNaNaNaNaNaNaNag10
aa(lp1136
S'PHY598'
p1137
aI77855
aI10
aI10
aS'W F'
p1138
aS' 1:30 PM'
p1139
aI13
aI30
aI14
aI45
aNaNaNaNaNaNaNag10
aa(lp1140
S'PHY700'
p1141
aI76658
aI30
aI30
ag332
aNaNaNaNaNaNaNaNaNaNaNaNag10
aa(lp1142
S'PHY790'
p1143
aI72237
aI10
aI10
ag332
aNaNaNaNaNaNaNaNaNaNaNaNag10
aa(lp1144
S'PHY792'
p1145
aI72238
aI119
aI120
aS'T Th'
p1146
aS' 3:00 PM'
p1147
aI15
aI0
aI16
aI0
aNaNaNaNaNaNaNag10
aa(lp1148
S'PHY795'
p1149
aI72239
aI12
aI12
ag332
aNaNaNaNaNaNaNaNaNaNaNaNag10
aa(lp1150
S'PHY799'
p1151
aI72240
aI29
aI30
ag332
aNaNaNaNaNaNaNaNaNaNaNaNag10
aa.