(lp0
(lp1
S'PLB302'
p2
aI75162
aI41
aI50
aS'M W F'
p3
aS'10:30 AM'
p4
aI10
aI30
aI11
aI20
aNaNaNaNaNaNaNaS'Not Reserved'
p5
aa(lp6
S'PLB306'
p7
aI74603
aI20
aI24
aS'M W F'
p8
aS' 9:00 AM'
p9
aI9
aI0
aI9
aI50
aNaNaNaNaNaNaNag5
aa(lp10
S'PLB306'
p11
aI74604
aI20
aI24
aS'W'
p12
aS' 1:30 PM'
p13
aI13
aI30
aI16
aI15
aNaNaNaNaNaNaNag5
aa(lp14
S'PLB308'
p15
aI78710
aI0
aI48
aS'T Th'
p16
aS' 1:30 PM'
p17
aI13
aI30
aI14
aI45
aNaNaNaNaNaNaNaS'Reserved'
p18
aa(lp19
S'PLB308'
p20
aI78711
aI0
aI24
aS'M'
p21
aS' 9:00 AM'
p22
aI9
aI0
aI11
aI45
aNaNaNaNaNaNaNag18
aa(lp23
S'PLB308'
p24
aI78712
aI0
aI24
ag12
aS' 9:00 AM'
p25
aI9
aI0
aI11
aI45
aNaNaNaNaNaNaNag18
aa(lp26
S'PLB350'
p27
aI88319
aI17
aI24
aS'M W'
p28
aS' 7:30 AM'
p29
aI7
aI30
aI8
aI45
aNaNaNaNaNaNaNag5
aa(lp30
S'PLB350'
p31
aI90333
aI24
aI24
aS'W F'
p32
aS'12:00 PM'
p33
aI12
aI0
aI14
aI45
aNaNaNaNaNaNaNag5
aa(lp34
S'PLB350'
p35
aI90334
aI17
aI24
aS'W F'
p36
aS' 9:00 AM'
p37
aI9
aI0
aI11
aI45
aNaNaNaNaNaNaNag5
aa(lp38
S'PLB414'
p39
aI90620
aI10
aI20
aS'T'
p40
aS'3:00PM'
p41
aI15
aI0
aI16
aI15
aS''
p42
ag42
aNaNag42
aNaNag5
aa(lp43
S'PLB484'
p44
aI72241
aI20
aI20
aS'ONLINE'
p45
aNaNaNaNaNaNaNaNaNaNaNaNag18
aa(lp46
S'PLB492'
p47
aI75546
aI30
aI30
ag45
aNaNaNaNaNaNaNaNaNaNaNaNag5
aa(lp48
S'PLB493'
p49
aI75548
aI40
aI40
ag45
aNaNaNaNaNaNaNaNaNaNaNaNag5
aa(lp50
S'PLB495'
p51
aI75551
aI40
aI40
ag45
aNaNaNaNaNaNaNaNaNaNaNaNag5
aa(lp52
S'PLB496'
p53
aI75552
aI40
aI40
ag45
aNaNaNaNaNaNaNaNaNaNaNaNag5
aa(lp54
S'PLB499'
p55
aI72242
aI30
aI30
ag45
aNaNaNaNaNaNaNaNaNaNaNaNag5
aa(lp56
S'PLB583'
p57
aI80972
aI29
aI30
ag45
aNaNaNaNaNaNaNaNaNaNaNaNag5
aa(lp58
S'PLB584'
p59
aI80973
aI30
aI30
ag45
aNaNaNaNaNaNaNaNaNaNaNaNag5
aa(lp60
S'PLB590'
p61
aI72243
aI30
aI30
ag45
aNaNaNaNaNaNaNaNaNaNaNaNag5
aa(lp62
S'PLB591'
p63
aI72244
aI25
aI25
aS'F'
p64
aS' 1:30 PM'
p65
aI13
aI30
aI15
aI30
aNaNaNaNaNaNaNag5
aa(lp66
S'PLB591'
p67
aI91598
aI13
aI15
ag40
aS' 4:00 PM'
p68
aI16
aI0
aI17
aI20
aNaNaNaNaNaNaNag5
aa(lp69
S'PLB592'
p70
aI72245
aI29
aI30
ag45
aNaNaNaNaNaNaNaNaNaNaNaNag5
aa(lp71
S'PLB595'
p72
aI72246
aI30
aI30
ag45
aNaNaNaNaNaNaNaNaNaNaNaNag5
aa(lp73
S'PLB599'
p74
aI72247
aI99
aI100
ag45
aNaNaNaNaNaNaNaNaNaNaNaNag5
aa(lp75
S'PLB790'
p76
aI72248
aI100
aI100
ag45
aNaNaNaNaNaNaNaNaNaNaNaNag5
aa(lp77
S'PLB792'
p78
aI75421
aI100
aI100
ag45
aNaNaNaNaNaNaNaNaNaNaNaNag5
aa(lp79
S'PLB795'
p80
aI72249
aI100
aI100
ag45
aNaNaNaNaNaNaNaNaNaNaNaNag5
aa(lp81
S'PLB799'
p82
aI72250
aI100
aI100
ag45
aNaNaNaNaNaNaNaNaNaNaNaNag5
aa.