(lp0
(lp1
S'PLC101'
p2
aI73207
aI13
aI20
aS'T Th'
p3
aS'6:00PM'
p4
aI18
aI0
aI19
aI15
aS''
p5
ag5
aNaNag5
aNaNaS'Not Reserved'
p6
aa(lp7
S'PLC201'
p8
aI73208
aI15
aI20
aS'T Th'
p9
aS'7:30PM'
p10
aI19
aI30
aI20
aI45
ag5
ag5
aNaNag5
aNaNag6
aa(lp11
S'PLC311'
p12
aI90058
aI9
aI10
aS'ONLINE'
p13
aNaNaNaNaNaNaNaNaNaNaNaNag6
aa(lp14
S'PLC494'
p15
aI90059
aI9
aI10
ag13
aNaNaNaNaNaNaNaNaNaNaNaNag6
aa.