(lp0
(lp1
S'PRM120'
p2
aI72633
aI1
aI50
aS'ONLINE'
p3
aNaNaNaNaNaNaNaNaNaNaNaNaS'Reserved'
p4
aa(lp5
S'PRM120'
p6
aI91149
aI22
aI30
ag3
aNaNaNaNaNaNaNaNaNaNaNaNag4
aa(lp7
S'PRM120'
p8
aI72645
aI51
aI70
aS'T'
p9
aS'10:30AM'
p10
aI10
aI30
aI11
aI45
aS''
p11
aS'12:00AM'
p12
aNaNaS'12:00AM'
p13
aNaNaS'Not Reserved'
p14
aa(lp15
S'PRM120'
p16
aI75338
aI63
aI80
aS'M W F'
p17
aS'12:00 PM'
p18
aI12
aI0
aI12
aI50
aNaNaNaNaNaNaNag14
aa(lp19
S'PRM201'
p20
aI89761
aI26
aI30
ag3
aNaNaNaNaNaNaNaNaNaNaNaNag14
aa(lp21
S'PRM303'
p22
aI72647
aI10
aI50
aS'T Th'
p23
aS' 1:30 PM'
p24
aI13
aI30
aI14
aI45
aNaNaNaNaNaNaNag14
aa(lp25
S'PRM304'
p26
aI72648
aI39
aI60
aS'T Th'
p27
aS'12:00 PM'
p28
aI12
aI0
aI13
aI15
aNaNaNaNaNaNaNag14
aa(lp29
S'PRM315'
p30
aI72649
aI8
aI24
aS'T Th'
p31
aS' 3:00 PM'
p32
aI15
aI0
aI16
aI15
aNaNaNaNaNaNaNag14
aa(lp33
S'PRM340'
p34
aI72650
aI0
aI60
aS'Th'
p35
aS' 6:00 PM'
p36
aI18
aI0
aI20
aI45
aNaNaNaNaNaNaNag4
aa(lp37
S'PRM364'
p38
aI72651
aI23
aI60
ag3
aNaNaNaNaNaNaNaNaNaNaNaNag4
aa(lp39
S'PRM370'
p40
aI72653
aI11
aI24
aS'M W'
p41
aS' 3:00 PM'
p42
aI15
aI0
aI16
aI15
aNaNaNaNaNaNaNag14
aa(lp43
S'PRM380'
p44
aI88380
aI41
aI60
ag3
aNaNaNaNaNaNaNaNaNaNaNaNag4
aa(lp45
S'PRM380'
p46
aI79789
aI41
aI60
aS'M W'
p47
aS' 4:30 PM'
p48
aI16
aI30
aI17
aI45
aNaNaNaNaNaNaNag14
aa(lp49
S'PRM384'
p50
aI77404
aI19
aI20
aS'M'
p51
aS'10:30 AM'
p52
aI10
aI30
aI11
aI45
aNaNaNaNaNaNaNag14
aa(lp53
S'PRM400'
p54
aI72654
aI8
aI20
aS'W'
p55
aS' 6:00 PM'
p56
aI18
aI0
aI20
aI45
aNaNaNaNaNaNaNag14
aa(lp57
S'PRM402'
p58
aI72631
aI13
aI25
aS'M W'
p59
aS' 3:00 PM'
p60
aI15
aI0
aI16
aI15
aNaNaNaNaNaNaNag14
aa(lp61
S'PRM413'
p62
aI78207
aI1
aI6
aS'M W F'
p63
aS'12:00 PM'
p64
aI12
aI0
aI12
aI50
aNaNaNaNaNaNaNag14
aa(lp65
S'PRM422'
p66
aI75765
aI51
aI80
ag55
aS' 6:00 PM'
p67
aI18
aI0
aI20
aI30
aNaNaNaNaNaNaNag14
aa(lp68
S'PRM423'
p69
aI77236
aI44
aI80
ag9
aS' 6:00 PM'
p70
aI18
aI0
aI20
aI30
aNaNaNaNaNaNaNag14
aa(lp71
S'PRM427'
p72
aI77237
aI60
aI80
aS'Th'
p73
aS' 6:00 PM'
p74
aI18
aI0
aI20
aI45
aNaNaNaNaNaNaNag14
aa(lp75
S'PRM455'
p76
aI79326
aI19
aI30
aS'Th'
p77
aS' 4:30 PM'
p78
aI16
aI30
aI19
aI15
aNaNaNaNaNaNaNag14
aa(lp79
S'PRM463'
p80
aI72796
aI20
aI20
ag3
aNaNaNaNaNaNaNaNaNaNaNaNag4
aa(lp81
S'PRM463'
p82
aI72797
aI10
aI10
ag3
aNaNaNaNaNaNaNaNaNaNaNaNag4
aa(lp83
S'PRM475'
p84
aI72793
aI5
aI36
ag3
aNaNaNaNaNaNaNaNaNaNaNaNag14
aa(lp85
S'PRM484'
p86
aI77403
aI19
aI20
ag55
aS'10:30 AM'
p87
aI10
aI30
aI11
aI45
aNaNaNaNaNaNaNag14
aa(lp88
S'PRM486'
p89
aI72656
aI35
aI65
aS'M W'
p90
aS' 3:00 PM'
p91
aI15
aI0
aI16
aI15
aNaNaNaNaNaNaNag14
aa(lp92
S'PRM486'
p93
aI73857
aI18
aI65
aS'T Th'
p94
aS' 9:00 AM'
p95
aI9
aI0
aI10
aI15
aNaNaNaNaNaNaNag14
aa(lp96
S'PRM486'
p97
aI91016
aI17
aI65
ag55
aS' 6:00 PM'
p98
aI18
aI0
aI20
aI45
aNaNaNaNaNaNaNag14
aa(lp99
S'PRM492'
p100
aI75386
aI5
aI5
ag3
aNaNaNaNaNaNaNaNaNaNaNaNag14
aa(lp101
S'PRM493'
p102
aI75962
aI5
aI5
ag3
aNaNaNaNaNaNaNaNaNaNaNaNag14
aa(lp103
S'PRM494'
p104
aI91392
aI20
aI25
aS'Th'
p105
aS' 4:30 PM'
p106
aI16
aI30
aI19
aI15
aNaNaNaNaNaNaNag14
aa(lp107
S'PRM499'
p108
aI72801
aI5
aI5
ag3
aNaNaNaNaNaNaNaNaNaNaNaNag14
aa.