(lp0
(lp1
S'PSB501'
p2
aI86731
aI9
aI20
aS'T'
p3
aS' 4:30 PM'
p4
aI16
aI30
aI19
aI45
aNaNaNaNaNaNaNaS'Reserved'
p5
aa(lp6
S'PSB510'
p7
aI86732
aI9
aI20
aS'Th'
p8
aS' 6:00 PM'
p9
aI18
aI0
aI20
aI30
aNaNaNaNaNaNaNag5
aa(lp10
S'PSB520'
p11
aI86733
aI9
aI20
aS'W'
p12
aS' 4:30 PM'
p13
aI16
aI30
aI19
aI45
aNaNaNaNaNaNaNag5
aa(lp14
S'PSB580'
p15
aI86734
aI9
aI20
aS'M'
p16
aS' 7:30 AM'
p17
aI7
aI30
aI8
aI45
aNaNaNaNaNaNaNag5
aa.