(lp0
(lp1
S'PSY101'
p2
aI78474
aI303
aI458
aS'T Th'
p3
aS' 1:30 PM'
p4
aI13
aI30
aI14
aI45
aNaNaNaNaNaNaNaS'Not Reserved'
p5
aa(lp6
S'PSY101'
p7
aI78475
aI95
aI190
aS'T Th'
p8
aS' 9:00 AM'
p9
aI9
aI0
aI10
aI15
aNaNaNaNaNaNaNag5
aa(lp10
S'PSY101'
p11
aI78476
aI142
aI200
aS'M W F'
p12
aS' 9:00 AM'
p13
aI9
aI0
aI9
aI50
aNaNaNaNaNaNaNag5
aa(lp14
S'PSY101'
p15
aI78477
aI124
aI200
aS'M W F'
p16
aS'10:30 AM'
p17
aI10
aI30
aI11
aI20
aNaNaNaNaNaNaNag5
aa(lp18
S'PSY101'
p19
aI78478
aI0
aI75
aS'T Th'
p20
aS'10:30 AM'
p21
aI10
aI30
aI11
aI45
aNaNaNaNaNaNaNaS'Reserved'
p22
aa(lp23
S'PSY101'
p24
aI78479
aI0
aI75
aS'T Th'
p25
aS'12:00 PM'
p26
aI12
aI0
aI13
aI15
aNaNaNaNaNaNaNag22
aa(lp27
S'PSY101'
p28
aI78480
aI0
aI200
aS'ONLINE'
p29
aNaNaNaNaNaNaNaNaNaNaNaNag22
aa(lp30
S'PSY101'
p31
aI78481
aI186
aI200
ag29
aNaNaNaNaNaNaNaNaNaNaNaNag22
aa(lp32
S'PSY101'
p33
aI78482
aI0
aI25
aS'T Th'
p34
aS' 9:00 AM'
p35
aI9
aI0
aI10
aI15
aNaNaNaNaNaNaNag22
aa(lp36
S'PSY101'
p37
aI85651
aI350
aI458
aS'T Th'
p38
aS'12:00 PM'
p39
aI12
aI0
aI13
aI15
aNaNaNaNaNaNaNag5
aa(lp40
S'PSY101'
p41
aI86654
aI163
aI458
aS'M W'
p42
aS' 3:00 PM'
p43
aI15
aI0
aI16
aI15
aNaNaNaNaNaNaNag5
aa(lp44
S'PSY101'
p45
aI86655
aI353
aI458
aS'M W'
p46
aS' 4:30 PM'
p47
aI16
aI30
aI17
aI45
aNaNaNaNaNaNaNag5
aa(lp48
S'PSY101'
p49
aI86663
aI0
aI25
aS'T Th'
p50
aS'10:30 AM'
p51
aI10
aI30
aI11
aI45
aNaNaNaNaNaNaNag22
aa(lp52
S'PSY101'
p53
aI78743
aI125
aI150
aS'M W F'
p54
aS'10:30 AM'
p55
aI10
aI30
aI11
aI20
aNaNaNaNaNaNaNag5
aa(lp56
S'PSY101'
p57
aI78744
aI23
aI60
aS'T Th'
p58
aS' 1:30 PM'
p59
aI13
aI30
aI14
aI45
aNaNaNaNaNaNaNag5
aa(lp60
S'PSY101'
p61
aI80059
aI69
aI81
aS'T Th'
p62
aS'10:30 AM'
p63
aI10
aI30
aI11
aI45
aNaNaNaNaNaNaNag5
aa(lp64
S'PSY101'
p65
aI80060
aI49
aI100
aS'T Th'
p66
aS' 3:00 PM'
p67
aI15
aI0
aI16
aI15
aNaNaNaNaNaNaNag5
aa(lp68
S'PSY101'
p69
aI86349
aI51
aI81
aS'T Th'
p70
aS' 4:30 PM'
p71
aI16
aI30
aI17
aI45
aNaNaNaNaNaNaNag5
aa(lp72
S'PSY101'
p73
aI86350
aI96
aI100
aS'M W'
p74
aS' 4:30 PM'
p75
aI16
aI30
aI17
aI45
aNaNaNaNaNaNaNag5
aa(lp76
S'PSY101'
p77
aI78882
aI142
aI168
aS'T Th'
p78
aS'10:30 AM'
p79
aI10
aI30
aI11
aI45
aNaNaNaNaNaNaNag22
aa(lp80
S'PSY101'
p81
aI78883
aI131
aI168
aS'T Th'
p82
aS'12:00 PM'
p83
aI12
aI0
aI13
aI15
aNaNaNaNaNaNaNag22
aa(lp84
S'PSY101'
p85
aI78885
aI73
aI80
aS'M W F'
p86
aS'10:30 AM'
p87
aI10
aI30
aI11
aI20
aNaNaNaNaNaNaNag22
aa(lp88
S'PSY101'
p89
aI78886
aI10
aI20
aS'T Th'
p90
aS' 9:00 AM'
p91
aI9
aI0
aI10
aI15
aNaNaNaNaNaNaNag22
aa(lp92
S'PSY101'
p93
aI88633
aI75
aI75
aS'Th'
p94
aS'1:30PM'
p95
aI13
aI30
aI14
aI45
aS''
p96
ag96
aNaNag96
aNaNag22
aa(lp97
S'PSY191'
p98
aI90697
aI16
aI20
aS'W'
p99
aS' 1:30 PM'
p100
aI13
aI30
aI16
aI15
aNaNaNaNaNaNaNag5
aa(lp101
S'PSY222'
p102
aI78483
aI137
aI190
aS'T Th'
p103
aS'12:00 PM'
p104
aI12
aI0
aI13
aI15
aNaNaNaNaNaNaNag5
aa(lp105
S'PSY222'
p106
aI78484
aI145
aI190
aS'T Th'
p107
aS' 1:30 PM'
p108
aI13
aI30
aI14
aI45
aNaNaNaNaNaNaNag5
aa(lp109
S'PSY230'
p110
aI72284
aI5
aI50
aS'M W'
p111
aS' 3:00 PM'
p112
aI15
aI0
aI16
aI15
aNaNaNaNaNaNaNag5
aa(lp113
S'PSY230'
p114
aI73683
aI18
aI50
aS'M W'
p115
aS' 3:00 PM'
p116
aI15
aI0
aI16
aI15
aNaNaNaNaNaNaNag5
aa(lp117
S'PSY230'
p118
aI75515
aI4
aI50
aS'T Th'
p119
aS' 3:00 PM'
p120
aI15
aI0
aI16
aI15
aNaNaNaNaNaNaNag5
aa(lp121
S'PSY230'
p122
aI75516
aI1
aI50
aS'T Th'
p123
aS'12:00 PM'
p124
aI12
aI0
aI13
aI15
aNaNaNaNaNaNaNag5
aa(lp125
S'PSY230'
p126
aI75517
aI19
aI45
aS'T Th'
p127
aS' 9:00 AM'
p128
aI9
aI0
aI10
aI15
aNaNaNaNaNaNaNag5
aa(lp129
S'PSY230'
p130
aI82240
aI44
aI50
aS'M W F'
p131
aS' 9:00 AM'
p132
aI9
aI0
aI9
aI50
aNaNaNaNaNaNaNag5
aa(lp133
S'PSY230'
p134
aI86664
aI46
aI50
aS'M W F'
p135
aS'10:30 AM'
p136
aI10
aI30
aI11
aI20
aNaNaNaNaNaNaNag5
aa(lp137
S'PSY230'
p138
aI75614
aI9
aI40
aS'M W F'
p139
aS'12:00 PM'
p140
aI12
aI0
aI12
aI50
aNaNaNaNaNaNaNag5
aa(lp141
S'PSY230'
p142
aI76837
aI17
aI70
aS'M W'
p143
aS' 3:00 PM'
p144
aI15
aI0
aI16
aI15
aNaNaNaNaNaNaNag5
aa(lp145
S'PSY244'
p146
aI78485
aI11
aI39
aS'T'
p147
aS' 4:30 PM'
p148
aI16
aI30
aI17
aI45
aNaNaNaNaNaNaNag5
aa(lp149
S'PSY244'
p150
aI78486
aI0
aI3
aS'M W'
p151
aS' 8:45 AM'
p152
aI8
aI45
aI11
aI45
aNaNaNaNaNaNaNag22
aa(lp153
S'PSY244'
p154
aI78487
aI0
aI3
aS'M W'
p155
aS' 9:15 AM'
p156
aI9
aI15
aI12
aI15
aNaNaNaNaNaNaNag22
aa(lp157
S'PSY244'
p158
aI78488
aI2
aI3
aS'W F'
p159
aS' 8:45 AM'
p160
aI8
aI45
aI11
aI45
aNaNaNaNaNaNaNag5
aa(lp161
S'PSY244'
p162
aI78489
aI0
aI3
aS'W F'
p163
aS' 9:15 AM'
p164
aI9
aI15
aI12
aI15
aNaNaNaNaNaNaNag22
aa(lp165
S'PSY244'
p166
aI78490
aI0
aI3
aS'M W'
p167
aS'12:15 PM'
p168
aI12
aI15
aI15
aI30
aNaNaNaNaNaNaNag22
aa(lp169
S'PSY244'
p170
aI78491
aI0
aI3
aS'T Th'
p171
aS'12:15 PM'
p172
aI12
aI15
aI15
aI30
aNaNaNaNaNaNaNag22
aa(lp173
S'PSY244'
p174
aI78524
aI0
aI3
aS'T Th'
p175
aS' 8:45 AM'
p176
aI8
aI45
aI11
aI45
aNaNaNaNaNaNaNag22
aa(lp177
S'PSY244'
p178
aI78545
aI2
aI3
aS'T Th'
p179
aS' 9:15 AM'
p180
aI9
aI15
aI12
aI15
aNaNaNaNaNaNaNag5
aa(lp181
S'PSY244'
p182
aI78546
aI0
aI2
aS'M W'
p183
aS'11:00 AM'
p184
aI11
aI0
aI14
aI0
aNaNaNaNaNaNaNag22
aa(lp185
S'PSY244'
p186
aI78548
aI1
aI1
aS'W F'
p187
aS'11:00 AM'
p188
aI11
aI0
aI14
aI0
aNaNaNaNaNaNaNag5
aa(lp189
S'PSY244'
p190
aI78549
aI0
aI2
aS'T Th'
p191
aS'11:00 AM'
p192
aI11
aI0
aI14
aI0
aNaNaNaNaNaNaNag22
aa(lp193
S'PSY244'
p194
aI78555
aI0
aI1
aS'M F'
p195
aS' 9:15 AM'
p196
aI9
aI15
aI12
aI15
aNaNaNaNaNaNaNag22
aa(lp197
S'PSY244'
p198
aI78556
aI1
aI2
aS'M F'
p199
aS' 1:00 PM'
p200
aI13
aI0
aI16
aI0
aNaNaNaNaNaNaNag5
aa(lp201
S'PSY244'
p202
aI80357
aI0
aI1
aS'M W'
p203
aS' 1:00 PM'
p204
aI13
aI0
aI16
aI0
aNaNaNaNaNaNaNag22
aa(lp205
S'PSY244'
p206
aI83255
aI2
aI2
aS'W F'
p207
aS'12:15 PM'
p208
aI12
aI15
aI15
aI30
aNaNaNaNaNaNaNag5
aa(lp209
S'PSY244'
p210
aI83256
aI0
aI1
aS'M F'
p211
aS' 8:45 AM'
p212
aI8
aI45
aI11
aI45
aNaNaNaNaNaNaNag22
aa(lp213
S'PSY244'
p214
aI83257
aI1
aI1
aS'M F'
p215
aS'12:15 PM'
p216
aI12
aI15
aI15
aI30
aNaNaNaNaNaNaNag5
aa(lp217
S'PSY244'
p218
aI83258
aI2
aI2
aS'W F'
p219
aS' 1:00 PM'
p220
aI13
aI0
aI16
aI0
aNaNaNaNaNaNaNag5
aa(lp221
S'PSY290'
p222
aI72285
aI26
aI100
aS'T Th'
p223
aS' 1:30 PM'
p224
aI13
aI30
aI14
aI45
aNaNaNaNaNaNaNag5
aa(lp225
S'PSY290'
p226
aI72286
aI0
aI25
aS'T Th'
p227
aS'12:00 PM'
p228
aI12
aI0
aI13
aI15
aNaNaNaNaNaNaNag22
aa(lp229
S'PSY290'
p230
aI72287
aI0
aI25
aS'T Th'
p231
aS' 3:00 PM'
p232
aI15
aI0
aI16
aI15
aNaNaNaNaNaNaNag22
aa(lp233
S'PSY290'
p234
aI72288
aI1
aI25
aS'M W'
p235
aS'12:00 PM'
p236
aI12
aI0
aI13
aI15
aNaNaNaNaNaNaNag5
aa(lp237
S'PSY290'
p238
aI72290
aI3
aI75
aS'T Th'
p239
aS' 3:00 PM'
p240
aI15
aI0
aI16
aI15
aNaNaNaNaNaNaNag5
aa(lp241
S'PSY290'
p242
aI72291
aI2
aI25
aS'T Th'
p243
aS' 4:30 PM'
p244
aI16
aI30
aI17
aI45
aNaNaNaNaNaNaNag5
aa(lp245
S'PSY290'
p246
aI72292
aI1
aI25
aS'M W'
p247
aS' 1:30 PM'
p248
aI13
aI30
aI14
aI45
aNaNaNaNaNaNaNag5
aa(lp249
S'PSY290'
p250
aI72775
aI0
aI25
aS'M W'
p251
aS' 3:00 PM'
p252
aI15
aI0
aI16
aI15
aNaNaNaNaNaNaNag22
aa(lp253
S'PSY290'
p254
aI73033
aI0
aI75
aS'T Th'
p255
aS'12:00 PM'
p256
aI12
aI0
aI13
aI15
aNaNaNaNaNaNaNag22
aa(lp257
S'PSY290'
p258
aI73034
aI0
aI25
aS'T Th'
p259
aS'10:30 AM'
p260
aI10
aI30
aI11
aI45
aNaNaNaNaNaNaNag22
aa(lp261
S'PSY290'
p262
aI73035
aI0
aI25
aS'T Th'
p263
aS' 1:30 PM'
p264
aI13
aI30
aI14
aI45
aNaNaNaNaNaNaNag22
aa(lp265
S'PSY290'
p266
aI75519
aI0
aI25
aS'M W'
p267
aS'10:30 AM'
p268
aI10
aI30
aI11
aI45
aNaNaNaNaNaNaNag22
aa(lp269
S'PSY290'
p270
aI74671
aI11
aI48
aS'M W'
p271
aS' 4:30 PM'
p272
aI16
aI30
aI17
aI45
aNaNaNaNaNaNaNag5
aa(lp273
S'PSY290'
p274
aI74673
aI0
aI24
aS'M'
p275
aS' 6:00 PM'
p276
aI18
aI0
aI20
aI45
aNaNaNaNaNaNaNag22
aa(lp277
S'PSY290'
p278
aI75615
aI11
aI24
ag99
aS' 6:00 PM'
p279
aI18
aI0
aI20
aI45
aNaNaNaNaNaNaNag5
aa(lp280
S'PSY290'
p281
aI76910
aI4
aI24
aS'T Th'
p282
aS'10:30 AM'
p283
aI10
aI30
aI11
aI45
aNaNaNaNaNaNaNag5
aa(lp284
S'PSY290'
p285
aI82100
aI4
aI24
ag29
aNaNaNaNaNaS'Th'
p286
aNaNaNaNaNaNag5
aa(lp287
S'PSY294'
p288
aI83777
aI13
aI20
ag275
aS' 2:00 PM'
p289
aI14
aI0
aI14
aI50
aNaNaNaNaNaNaNag5
aa(lp290
S'PSY294'
p291
aI85413
aI5
aI5
ag29
aNaNaNaNaNaNaNaNaNaNaNaNag5
aa(lp292
S'PSY304'
p293
aI78551
aI5
aI60
ag29
aNaNaNaNaNaNaNaNaNaNaNaNag5
aa(lp294
S'PSY304'
p295
aI78750
aI3
aI32
aS'M W'
p296
aS' 3:00 PM'
p297
aI15
aI0
aI16
aI15
aNaNaNaNaNaNaNag5
aa(lp298
S'PSY304'
p299
aI79961
aI0
aI30
ag29
aNaNaNaNaNaNaNaNaNaNaNaNag22
aa(lp300
S'PSY315'
p301
aI78554
aI52
aI100
aS'M W'
p302
aS' 3:00 PM'
p303
aI15
aI0
aI16
aI15
aNaNaNaNaNaNaNag5
aa(lp304
S'PSY315'
p305
aI82644
aI82
aI100
aS'M W'
p306
aS' 4:30 PM'
p307
aI16
aI30
aI17
aI45
aNaNaNaNaNaNaNag5
aa(lp308
S'PSY315'
p309
aI78751
aI0
aI60
ag29
aNaNaNaNaNaNaNaNaNaNaNaNag22
aa(lp310
S'PSY320'
p311
aI70391
aI32
aI50
aS'T Th'
p312
aS' 7:30 AM'
p313
aI7
aI30
aI8
aI45
aNaNaNaNaNaNaNag5
aa(lp314
S'PSY320'
p315
aI72777
aI5
aI39
aS'T Th'
p316
aS'10:30 AM'
p317
aI10
aI30
aI11
aI45
aNaNaNaNaNaNaNag5
aa(lp318
S'PSY320'
p319
aI78585
aI0
aI39
aS'T Th'
p320
aS'12:00 PM'
p321
aI12
aI0
aI13
aI15
aNaNaNaNaNaNaNag22
aa(lp322
S'PSY320'
p323
aI86668
aI2
aI50
ag29
aNaNaNaNaNaNaNaNaNaNaNaNag22
aa(lp324
S'PSY320'
p325
aI86671
aI24
aI50
aS'T Th'
p326
aS' 1:30 PM'
p327
aI13
aI30
aI14
aI45
aNaNaNaNaNaNaNag5
aa(lp328
S'PSY320'
p329
aI74472
aI45
aI80
ag29
aNaNaNaNaNaNaNaNaNaNaNaNag22
aa(lp330
S'PSY323'
p331
aI72293
aI0
aI35
aS'T Th'
p332
aS'12:00 PM'
p333
aI12
aI0
aI13
aI15
aNaNaNaNaNaNaNag22
aa(lp334
S'PSY323'
p335
aI73036
aI16
aI60
ag29
aNaNaNaNaNaNaNaNaNaNaNaNag22
aa(lp336
S'PSY323'
p337
aI86672
aI29
aI40
aS'T Th'
p338
aS'10:30 AM'
p339
aI10
aI30
aI11
aI45
aNaNaNaNaNaNaNag5
aa(lp340
S'PSY323'
p341
aI86673
aI45
aI50
aS'M W F'
p342
aS'10:30 AM'
p343
aI10
aI30
aI11
aI20
aNaNaNaNaNaNaNag5
aa(lp344
S'PSY323'
p345
aI90015
aI45
aI50
aS'M W F'
p346
aS' 1:30 PM'
p347
aI13
aI30
aI14
aI20
aNaNaNaNaNaNaNag5
aa(lp348
S'PSY323'
p349
aI86630
aI27
aI60
ag147
aS' 6:00 PM'
p350
aI18
aI0
aI20
aI45
aNaNaNaNaNaNaNag5
aa(lp351
S'PSY323'
p352
aI70390
aI12
aI20
ag147
aS'12:00PM'
p353
aI12
aI0
aI13
aI15
ag96
ag96
aNaNag96
aNaNag5
aa(lp354
S'PSY324'
p355
aI75617
aI0
aI50
aS'T Th'
p356
aS'10:30 AM'
p357
aI10
aI30
aI11
aI45
aNaNaNaNaNaNaNag22
aa(lp358
S'PSY324'
p359
aI80538
aI13
aI45
aS'T Th'
p360
aS'12:00 PM'
p361
aI12
aI0
aI13
aI15
aNaNaNaNaNaNaNag5
aa(lp362
S'PSY324'
p363
aI81422
aI42
aI50
aS'M W F'
p364
aS' 9:00 AM'
p365
aI9
aI0
aI9
aI50
aNaNaNaNaNaNaNag5
aa(lp366
S'PSY324'
p367
aI75616
aI50
aI60
aS'M W F'
p368
aS'10:30 AM'
p369
aI10
aI30
aI11
aI20
aNaNaNaNaNaNaNag5
aa(lp370
S'PSY325'
p371
aI75677
aI33
aI100
aS'T Th'
p372
aS' 9:00 AM'
p373
aI9
aI0
aI10
aI15
aNaNaNaNaNaNaNag5
aa(lp374
S'PSY325'
p375
aI80539
aI0
aI65
ag29
aNaNaNaNaNaNaNaNaNaNaNaNag22
aa(lp376
S'PSY325'
p377
aI74687
aI25
aI60
aS'T Th'
p378
aS'12:00 PM'
p379
aI12
aI0
aI13
aI15
aNaNaNaNaNaNaNag5
aa(lp380
S'PSY330'
p381
aI72294
aI0
aI40
aS'M W'
p382
aS' 1:30 PM'
p383
aI13
aI30
aI14
aI45
aNaNaNaNaNaNaNag22
aa(lp384
S'PSY330'
p385
aI74452
aI0
aI40
ag99
aS' 3:00 PM'
p386
aI15
aI0
aI15
aI30
aNaNaNaNaNaNaNag22
aa(lp387
S'PSY330'
p388
aI76866
aI27
aI40
aS'T Th'
p389
aS' 9:00 AM'
p390
aI9
aI0
aI10
aI15
aNaNaNaNaNaNaNag5
aa(lp391
S'PSY330'
p392
aI76867
aI27
aI40
aS'F'
p393
aS' 8:15 AM'
p394
aI8
aI15
aI8
aI45
aNaNaNaNaNaNaNag5
aa(lp395
S'PSY330'
p396
aI78762
aI24
aI32
aS'M W'
p397
aS' 3:00 PM'
p398
aI15
aI0
aI16
aI15
aNaNaNaNaNaNaNag5
aa(lp399
S'PSY330'
p400
aI84073
aI4
aI14
aS'T Th'
p401
aS' 9:00 AM'
p402
aI9
aI0
aI10
aI15
aNaNaNaNaNaNaNag5
aa(lp403
S'PSY330'
p404
aI88839
aI4
aI14
ag29
aNaNaNaNaNaNaNaNaNaNaNaNag5
aa(lp405
S'PSY341'
p406
aI78557
aI31
aI100
aS'T Th'
p407
aS'10:30 AM'
p408
aI10
aI30
aI11
aI45
aNaNaNaNaNaNaNag5
aa(lp409
S'PSY341'
p410
aI78558
aI0
aI100
aS'T Th'
p411
aS' 1:30 PM'
p412
aI13
aI30
aI14
aI45
aNaNaNaNaNaNaNag22
aa(lp413
S'PSY341'
p414
aI78559
aI59
aI100
ag29
aNaNaNaNaNaNaNaNaNaNaNaNag22
aa(lp415
S'PSY341'
p416
aI80484
aI0
aI60
ag29
aNaNaNaNaNaNaNaNaNaNaNaNag22
aa(lp417
S'PSY344'
p418
aI78561
aI9
aI33
aS'Th'
p419
aS' 4:30 PM'
p420
aI16
aI30
aI17
aI45
aNaNaNaNaNaNaNag5
aa(lp421
S'PSY344'
p422
aI78562
aI0
aI3
aS'M W'
p423
aS' 8:45 AM'
p424
aI8
aI45
aI11
aI45
aNaNaNaNaNaNaNag22
aa(lp425
S'PSY344'
p426
aI78564
aI1
aI2
aS'M W'
p427
aS' 9:15 AM'
p428
aI9
aI15
aI12
aI15
aNaNaNaNaNaNaNag5
aa(lp429
S'PSY344'
p430
aI78565
aI1
aI2
aS'W F'
p431
aS' 8:45 AM'
p432
aI8
aI45
aI11
aI45
aNaNaNaNaNaNaNag5
aa(lp433
S'PSY344'
p434
aI78568
aI0
aI2
aS'W F'
p435
aS' 9:15 AM'
p436
aI9
aI15
aI12
aI15
aNaNaNaNaNaNaNag22
aa(lp437
S'PSY344'
p438
aI78571
aI0
aI3
aS'M W'
p439
aS'12:15 PM'
p440
aI12
aI15
aI15
aI30
aNaNaNaNaNaNaNag22
aa(lp441
S'PSY344'
p442
aI78572
aI0
aI6
aS'T Th'
p443
aS'12:15 PM'
p444
aI12
aI15
aI15
aI30
aNaNaNaNaNaNaNag22
aa(lp445
S'PSY344'
p446
aI78573
aI0
aI3
aS'T Th'
p447
aS' 8:45 AM'
p448
aI8
aI45
aI11
aI45
aNaNaNaNaNaNaNag22
aa(lp449
S'PSY344'
p450
aI78574
aI1
aI3
aS'T Th'
p451
aS' 9:15 AM'
p452
aI9
aI15
aI12
aI15
aNaNaNaNaNaNaNag5
aa(lp453
S'PSY344'
p454
aI78576
aI0
aI1
aS'M F'
p455
aS' 8:45 AM'
p456
aI8
aI45
aI11
aI45
aNaNaNaNaNaNaNag22
aa(lp457
S'PSY344'
p458
aI78578
aI1
aI1
aS'M F'
p459
aS' 9:15 AM'
p460
aI9
aI15
aI12
aI15
aNaNaNaNaNaNaNag5
aa(lp461
S'PSY344'
p462
aI78579
aI2
aI2
aS'M F'
p463
aS' 1:00 PM'
p464
aI13
aI0
aI16
aI0
aNaNaNaNaNaNaNag5
aa(lp465
S'PSY344'
p466
aI80359
aI1
aI3
aS'W F'
p467
aS'12:15 PM'
p468
aI12
aI15
aI15
aI30
aNaNaNaNaNaNaNag5
aa(lp469
S'PSY344'
p470
aI83261
aI1
aI1
aS'M F'
p471
aS' 8:45 AM'
p472
aI8
aI45
aI11
aI45
aNaNaNaNaNaNaNag5
aa(lp473
S'PSY344'
p474
aI83262
aI1
aI1
aS'M F'
p475
aS'12:15 PM'
p476
aI12
aI15
aI15
aI30
aNaNaNaNaNaNaNag5
aa(lp477
S'PSY350'
p478
aI78580
aI96
aI150
aS'T Th'
p479
aS'10:30 AM'
p480
aI10
aI30
aI11
aI45
aNaNaNaNaNaNaNag5
aa(lp481
S'PSY350'
p482
aI78581
aI86
aI150
aS'T Th'
p483
aS'12:00 PM'
p484
aI12
aI0
aI13
aI15
aNaNaNaNaNaNaNag5
aa(lp485
S'PSY350'
p486
aI81429
aI80
aI174
aS'T Th'
p487
aS' 9:00 AM'
p488
aI9
aI0
aI10
aI15
aNaNaNaNaNaNaNag5
aa(lp489
S'PSY350'
p490
aI78767
aI58
aI150
ag29
aNaNaNaNaNaNaNaNaNaNaNaNag22
aa(lp491
S'PSY350'
p492
aI81460
aI7
aI20
ag275
aS'10:30 AM'
p493
aI10
aI30
aI13
aI15
aNaNaNaNaNaNaNag5
aa(lp494
S'PSY350'
p495
aI78895
aI32
aI59
aS'T Th'
p496
aS'12:00 PM'
p497
aI12
aI0
aI13
aI15
aNaNaNaNaNaNaNag5
aa(lp498
S'PSY351'
p499
aI78587
aI4
aI30
aS'M W'
p500
aS' 3:00 PM'
p501
aI15
aI0
aI16
aI15
aNaNaNaNaNaNaNag22
aa(lp502
S'PSY360'
p503
aI91607
aI31
aI50
ag29
aNaNaNaNaNaNaNaNaNaNaNaNag22
aa(lp504
S'PSY366'
p505
aI78605
aI29
aI100
aS'T Th'
p506
aS' 9:00 AM'
p507
aI9
aI0
aI10
aI15
aNaNaNaNaNaNaNag5
aa(lp508
S'PSY366'
p509
aI78606
aI0
aI100
aS'T Th'
p510
aS'10:30 AM'
p511
aI10
aI30
aI11
aI45
aNaNaNaNaNaNaNag22
aa(lp512
S'PSY366'
p513
aI78607
aI0
aI100
ag29
aNaNaNaNaNaNaNaNaNaNaNaNag22
aa(lp514
S'PSY366'
p515
aI78608
aI89
aI100
aS'T Th'
p516
aS'10:30 AM'
p517
aI10
aI30
aI11
aI45
aNaNaNaNaNaNaNag5
aa(lp518
S'PSY366'
p519
aI80463
aI66
aI100
aS'M W'
p520
aS' 9:00 AM'
p521
aI9
aI0
aI10
aI15
aNaNaNaNaNaNaNag5
aa(lp522
S'PSY366'
p523
aI86682
aI17
aI100
aS'M W'
p524
aS'10:30 AM'
p525
aI10
aI30
aI11
aI45
aNaNaNaNaNaNaNag5
aa(lp526
S'PSY366'
p527
aI80439
aI0
aI60
aS'T Th'
p528
aS' 1:30 PM'
p529
aI13
aI30
aI14
aI45
aNaNaNaNaNaNaNag22
aa(lp530
S'PSY366'
p531
aI78768
aI37
aI80
ag29
aNaNaNaNaNaNaNaNaNaNaNaNag22
aa(lp532
S'PSY366'
p533
aI81461
aI2
aI30
ag29
aNaNaNaNaNaNaNaNaNaNaNaNag22
aa(lp534
S'PSY369'
p535
aI73332
aI27
aI60
aS'T Th'
p536
aS' 1:30 PM'
p537
aI13
aI30
aI14
aI45
aNaNaNaNaNaNaNag5
aa(lp538
S'PSY370'
p539
aI82937
aI31
aI60
aS'T Th'
p540
aS' 9:00 AM'
p541
aI9
aI0
aI10
aI15
aNaNaNaNaNaNaNag5
aa(lp542
S'PSY385'
p543
aI78769
aI0
aI60
aS'T Th'
p544
aS'10:30 AM'
p545
aI10
aI30
aI11
aI45
aNaNaNaNaNaNaNag22
aa(lp546
S'PSY394'
p547
aI78588
aI33
aI35
ag29
aNaNaNaNaNaNaNaNaNaNaNaNag5
aa(lp548
S'PSY394'
p549
aI78589
aI14
aI20
ag393
aS' 2:00 PM'
p550
aI14
aI0
aI14
aI50
aNaNaNaNaNaNaNag5
aa(lp551
S'PSY394'
p552
aI78591
aI17
aI100
aS'M W'
p553
aS' 4:30 PM'
p554
aI16
aI30
aI17
aI45
aNaNaNaNaNaNaNag5
aa(lp555
S'PSY394'
p556
aI79742
aI85
aI100
aS'M W'
p557
aS' 3:00 PM'
p558
aI15
aI0
aI16
aI15
aNaNaNaNaNaNaNag5
aa(lp559
S'PSY394'
p560
aI80543
aI87
aI100
ag393
aS' 9:00 AM'
p561
aI9
aI0
aI10
aI15
aNaNaNaNaNaNaNag5
aa(lp562
S'PSY394'
p563
aI82330
aI0
aI50
aS'T Th'
p564
aS'10:30 AM'
p565
aI10
aI30
aI11
aI45
aNaNaNaNaNaNaNag22
aa(lp566
S'PSY394'
p567
aI89391
aI13
aI50
ag99
aS' 4:30 PM'
p568
aI16
aI30
aI19
aI15
aNaNaNaNaNaNaNag5
aa(lp569
S'PSY394'
p570
aI89811
aI76
aI100
ag393
aS'10:30 AM'
p571
aI10
aI30
aI11
aI45
aNaNaNaNaNaNaNag5
aa(lp572
S'PSY394'
p573
aI91615
aI7
aI10
aS'T Th'
p574
aS' 3:00 PM'
p575
aI15
aI0
aI16
aI15
aNaNaNaNaNaNaNag5
aa(lp576
S'PSY394'
p577
aI78771
aI3
aI3
ag29
aNaNaNaNaNaNaNaNaNaNaNaNag5
aa(lp578
S'PSY394'
p579
aI84270
aI5
aI5
ag29
aNaNaNaNaNaNaNaNaNaNaNaNag5
aa(lp580
S'PSY394'
p581
aI85835
aI3
aI3
ag29
aNaNaNaNaNaNaNaNaNaNaNaNag5
aa(lp582
S'PSY394'
p583
aI90694
aI40
aI40
ag393
aS'10:30 AM'
p584
aI10
aI30
aI11
aI20
aNaNaNaNaNaNaNag5
aa(lp585
S'PSY399'
p586
aI75406
aI15
aI15
ag29
aNaNaNaNaNaNaNaNaNaNaNaNag5
aa(lp587
S'PSY399'
p588
aI82487
aI5
aI5
ag29
aNaNaNaNaNaNaNaNaNaNaNaNag5
aa(lp589
S'PSY399'
p590
aI82488
aI5
aI5
ag29
aNaNaNaNaNaNaNaNaNaNaNaNag5
aa(lp591
S'PSY399'
p592
aI82498
aI5
aI5
ag29
aNaNaNaNaNaNaNaNaNaNaNaNag5
aa(lp593
S'PSY399'
p594
aI76735
aI4
aI5
ag29
aNaNaNaNaNaNaNaNaNaNaNaNag5
aa(lp595
S'PSY399'
p596
aI75876
aI30
aI30
ag29
aNaNaNaNaNaNaNaNaNaNaNaNag5
aa(lp597
S'PSY399'
p598
aI82500
aI5
aI5
ag29
aNaNaNaNaNaNaNaNaNaNaNaNag5
aa(lp599
S'PSY399'
p600
aI75385
aI10
aI10
ag29
aNaNaNaNaNaNaNaNaNaNaNaNag5
aa(lp601
S'PSY399'
p602
aI82506
aI5
aI5
ag29
aNaNaNaNaNaNaNaNaNaNaNaNag5
aa(lp603
S'PSY399'
p604
aI82510
aI4
aI5
ag29
aNaNaNaNaNaNaNaNaNaNaNaNag5
aa(lp605
S'PSY399'
p606
aI82525
aI6
aI10
ag29
aNaNaNaNaNaNaNaNaNaNaNaNag5
aa(lp607
S'PSY399'
p608
aI78775
aI10
aI10
ag29
aNaNaNaNaNaNaNaNaNaNaNaNag5
aa(lp609
S'PSY399'
p610
aI78776
aI10
aI10
ag29
aNaNaNaNaNaNaNaNaNaNaNaNag5
aa(lp611
S'PSY399'
p612
aI72501
aI3
aI5
ag29
aNaNaNaNaNaNaNaNaNaNaNaNag5
aa(lp613
S'PSY430'
p614
aI86685
aI11
aI50
aS'T Th'
p615
aS'10:30 AM'
p616
aI10
aI30
aI11
aI45
aNaNaNaNaNaNaNag5
aa(lp617
S'PSY432'
p618
aI90741
aI21
aI40
aS'T Th'
p619
aS'12:00 PM'
p620
aI12
aI0
aI13
aI15
aNaNaNaNaNaNaNag5
aa(lp621
S'PSY434'
p622
aI86688
aI25
aI40
aS'T Th'
p623
aS' 1:30 PM'
p624
aI13
aI30
aI14
aI45
aNaNaNaNaNaNaNag5
aa(lp625
S'PSY437'
p626
aI72280
aI0
aI30
ag29
aNaNaNaNaNaNaNaNaNaNaNaNag22
aa(lp627
S'PSY438'
p628
aI86569
aI34
aI40
aS'M W'
p629
aS'10:30 AM'
p630
aI10
aI30
aI11
aI45
aNaNaNaNaNaNaNag5
aa(lp631
S'PSY439'
p632
aI79833
aI4
aI30
ag29
aNaNaNaNaNaNaNaNaNaNaNaNag22
aa(lp633
S'PSY440'
p634
aI90240
aI10
aI24
aS'Th'
p635
aS' 1:30 PM'
p636
aI13
aI30
aI16
aI15
aNaNaNaNaNaNaNag5
aa(lp637
S'PSY443'
p638
aI78592
aI0
aI35
aS'T Th'
p639
aS' 9:00 AM'
p640
aI9
aI0
aI10
aI15
aNaNaNaNaNaNaNag22
aa(lp641
S'PSY443'
p642
aI78593
aI14
aI35
aS'T Th'
p643
aS'12:00 PM'
p644
aI12
aI0
aI13
aI15
aNaNaNaNaNaNaNag5
aa(lp645
S'PSY443'
p646
aI78594
aI5
aI35
aS'T Th'
p647
aS'10:30 AM'
p648
aI10
aI30
aI11
aI45
aNaNaNaNaNaNaNag5
aa(lp649
S'PSY443'
p650
aI90184
aI17
aI35
aS'M W'
p651
aS' 3:00 PM'
p652
aI15
aI0
aI16
aI15
aNaNaNaNaNaNaNag5
aa(lp653
S'PSY443'
p654
aI82246
aI11
aI32
aS'T Th'
p655
aS' 1:30 PM'
p656
aI13
aI30
aI14
aI45
aNaNaNaNaNaNaNag5
aa(lp657
S'PSY447'
p658
aI78777
aI58
aI80
ag29
aNaNaNaNaNaNaNaNaNaNaNaNag22
aa(lp659
S'PSY449'
p660
aI90239
aI2
aI30
ag29
aNaNaNaNaNaNaNaNaNaNaNaNag22
aa(lp661
S'PSY451'
p662
aI78599
aI13
aI40
aS'T Th'
p663
aS' 9:00 AM'
p664
aI9
aI0
aI10
aI15
aNaNaNaNaNaNaNag5
aa(lp665
S'PSY453'
p666
aI79962
aI15
aI20
ag99
aS'10:30 AM'
p667
aI10
aI30
aI13
aI15
aNaNaNaNaNaNaNag5
aa(lp668
S'PSY458'
p669
aI90243
aI29
aI35
aS'T Th'
p670
aS'10:30 AM'
p671
aI10
aI30
aI11
aI45
aNaNaNaNaNaNaNag5
aa(lp672
S'PSY461'
p673
aI78600
aI15
aI40
aS'T Th'
p674
aS' 9:00 AM'
p675
aI9
aI0
aI10
aI15
aNaNaNaNaNaNaNag5
aa(lp676
S'PSY462'
p677
aI78685
aI18
aI40
aS'T Th'
p678
aS' 1:30 PM'
p679
aI13
aI30
aI14
aI45
aNaNaNaNaNaNaNag5
aa(lp680
S'PSY462'
p681
aI78778
aI34
aI60
ag29
aNaNaNaNaNaNaNaNaNaNaNaNag22
aa(lp682
S'PSY465'
p683
aI78780
aI35
aI60
aS'M W'
p684
aS' 4:30 PM'
p685
aI16
aI30
aI17
aI45
aNaNaNaNaNaNaNag5
aa(lp686
S'PSY468'
p687
aI86690
aI31
aI40
aS'T Th'
p688
aS' 1:30 PM'
p689
aI13
aI30
aI14
aI45
aNaNaNaNaNaNaNag5
aa(lp690
S'PSY468'
p691
aI91322
aI25
aI50
ag29
aNaNaNaNaNaNaNaNaNaNaNaNag22
aa(lp692
S'PSY472'
p693
aI82852
aI0
aI50
ag29
aNaNaNaNaNaNaNaNaNaNaNaNag22
aa(lp694
S'PSY472'
p695
aI88007
aI0
aI39
aS'T Th'
p696
aS'10:30 AM'
p697
aI10
aI30
aI11
aI45
aNaNaNaNaNaNaNag22
aa(lp698
S'PSY475'
p699
aI86652
aI49
aI60
aS'T Th'
p700
aS'12:00 PM'
p701
aI12
aI0
aI13
aI15
aNaNaNaNaNaNaNag5
aa(lp702
S'PSY484'
p703
aI78601
aI10
aI10
ag29
aNaNaNaNaNaNaNaNaNaNaNaNag5
aa(lp704
S'PSY484'
p705
aI78602
aI10
aI10
ag29
aNaNaNaNaNaNaNaNaNaNaNaNag5
aa(lp706
S'PSY484'
p707
aI80580
aI14
aI15
aS'M W'
p708
aS'12:00 PM'
p709
aI12
aI0
aI13
aI15
aNaNaNaNaNaNaNag5
aa(lp710
S'PSY484'
p711
aI82256
aI5
aI5
ag29
aNaNaNaNaNaNaNaNaNaNaNaNag5
aa(lp712
S'PSY492'
p713
aI72295
aI19
aI20
ag29
aNaNaNaNaNaNaNaNaNaNaNaNag22
aa(lp714
S'PSY492'
p715
aI78779
aI5
aI5
ag29
aNaNaNaNaNaNaNaNaNaNaNaNag5
aa(lp716
S'PSY492'
p717
aI84038
aI5
aI5
ag29
aNaNaNaNaNaNaNaNaNaNaNaNag5
aa(lp718
S'PSY493'
p719
aI72296
aI11
aI25
ag29
aNaNaNaNaNaNaNaNaNaNaNaNag22
aa(lp720
S'PSY493'
p721
aI82258
aI5
aI5
ag29
aNaNaNaNaNaNaNaNaNaNaNaNag5
aa(lp722
S'PSY493'
p723
aI86325
aI10
aI10
ag29
aNaNaNaNaNaNaNaNaNaNaNaNag5
aa(lp724
S'PSY494'
p725
aI82259
aI26
aI40
aS'T Th'
p726
aS' 9:00 AM'
p727
aI9
aI0
aI10
aI15
aNaNaNaNaNaNaNag5
aa(lp728
S'PSY494'
p729
aI86667
aI39
aI50
aS'M W'
p730
aS' 3:00 PM'
p731
aI15
aI0
aI16
aI15
aNaNaNaNaNaNaNag5
aa(lp732
S'PSY494'
p733
aI82316
aI5
aI5
ag29
aNaNaNaNaNaNaNaNaNaNaNaNag5
aa(lp734
S'PSY494'
p735
aI85935
aI3
aI3
ag29
aNaNaNaNaNaNaNaNaNaNaNaNag5
aa(lp736
S'PSY497'
p737
aI72297
aI6
aI20
aS'T Th'
p738
aS'12:00 PM'
p739
aI12
aI0
aI13
aI15
aNaNaNaNaNaNaNag22
aa(lp740
S'PSY498'
p741
aI78603
aI9
aI12
ag275
aS' 4:30 PM'
p742
aI16
aI30
aI19
aI15
aNaNaNaNaNaNaNag5
aa(lp743
S'PSY498'
p744
aI78604
aI17
aI20
aS'T Th'
p745
aS' 1:30 PM'
p746
aI13
aI30
aI14
aI45
aNaNaNaNaNaNaNag5
aa(lp747
S'PSY499'
p748
aI91350
aI10
aI10
ag29
aNaNaNaNaNaNaNaNaNaNaNaNag5
aa(lp749
S'PSY499'
p750
aI82528
aI5
aI5
ag29
aNaNaNaNaNaNaNaNaNaNaNaNag5
aa(lp751
S'PSY499'
p752
aI82540
aI5
aI5
ag29
aNaNaNaNaNaNaNaNaNaNaNaNag5
aa(lp753
S'PSY499'
p754
aI82541
aI5
aI5
ag29
aNaNaNaNaNaNaNaNaNaNaNaNag5
aa(lp755
S'PSY499'
p756
aI70396
aI10
aI10
ag29
aNaNaNaNaNaNaNaNaNaNaNaNag5
aa(lp757
S'PSY499'
p758
aI70395
aI20
aI20
ag29
aNaNaNaNaNaNaNaNaNaNaNaNag5
aa(lp759
S'PSY499'
p760
aI82542
aI5
aI5
ag29
aNaNaNaNaNaNaNaNaNaNaNaNag5
aa(lp761
S'PSY499'
p762
aI82543
aI5
aI5
ag29
aNaNaNaNaNaNaNaNaNaNaNaNag5
aa(lp763
S'PSY499'
p764
aI82546
aI5
aI5
ag29
aNaNaNaNaNaNaNaNaNaNaNaNag5
aa(lp765
S'PSY499'
p766
aI82547
aI5
aI5
ag29
aNaNaNaNaNaNaNaNaNaNaNaNag5
aa(lp767
S'PSY499'
p768
aI82548
aI2
aI5
ag29
aNaNaNaNaNaNaNaNaNaNaNaNag5
aa(lp769
S'PSY499'
p770
aI82549
aI5
aI5
ag29
aNaNaNaNaNaNaNaNaNaNaNaNag5
aa(lp771
S'PSY499'
p772
aI78781
aI10
aI10
ag29
aNaNaNaNaNaNaNaNaNaNaNaNag5
aa(lp773
S'PSY501'
p774
aI73017
aI10
aI10
ag29
aNaNaNaNaNaNaNaNaNaNaNaNag22
aa(lp775
S'PSY515'
p776
aI75270
aI23
aI25
aS'T Th'
p777
aS' 1:30 PM'
p778
aI13
aI30
aI14
aI45
aNaNaNaNaNaNaNag5
aa(lp779
S'PSY528'
p780
aI81463
aI27
aI30
aS'T Th'
p781
aS' 4:30 PM'
p782
aI16
aI30
aI17
aI45
aNaNaNaNaNaNaNag5
aa(lp783
S'PSY530'
p784
aI86712
aI39
aI40
aS'T Th'
p785
aS' 8:15 AM'
p786
aI8
aI15
aI10
aI15
aNaNaNaNaNaNaNag5
aa(lp787
S'PSY530'
p788
aI90446
aI6
aI10
aS'T Th'
p789
aS' 9:00 AM'
p790
aI9
aI0
aI10
aI15
aNaNaNaNaNaNaNag5
aa(lp791
S'PSY532'
p792
aI72298
aI8
aI40
aS'M W'
p793
aS' 8:15 AM'
p794
aI8
aI15
aI10
aI15
aNaNaNaNaNaNaNag5
aa(lp795
S'PSY539'
p796
aI82642
aI23
aI40
aS'T Th'
p797
aS' 1:30 PM'
p798
aI13
aI30
aI14
aI45
aNaNaNaNaNaNaNag5
aa(lp799
S'PSY550'
p800
aI86713
aI7
aI15
ag275
aS' 1:30 PM'
p801
aI13
aI30
aI16
aI15
aNaNaNaNaNaNaNag5
aa(lp802
S'PSY555'
p803
aI86714
aI5
aI20
aS'T Th'
p804
aS'10:30 AM'
p805
aI10
aI30
aI12
aI30
aNaNaNaNaNaNaNag5
aa(lp806
S'PSY560'
p807
aI78083
aI21
aI24
ag147
aS' 1:30 PM'
p808
aI13
aI30
aI16
aI15
aNaNaNaNaNaNaNag5
aa(lp809
S'PSY572'
p810
aI72299
aI15
aI15
aS'T Th'
p811
aS'10:30 AM'
p812
aI10
aI30
aI11
aI45
aNaNaNaNaNaNaNag22
aa(lp813
S'PSY573'
p814
aI72300
aI6
aI15
aS'T Th'
p815
aS'10:30 AM'
p816
aI10
aI30
aI11
aI45
aNaNaNaNaNaNaNag5
aa(lp817
S'PSY578'
p818
aI75527
aI12
aI20
ag147
aS' 1:30 PM'
p819
aI13
aI30
aI16
aI15
aNaNaNaNaNaNaNag5
aa(lp820
S'PSY580'
p821
aI77866
aI5
aI5
ag29
aNaNaNaNaNaNaNaNaNaNaNaNag22
aa(lp822
S'PSY580'
p823
aI85522
aI5
aI5
ag29
aNaNaNaNaNaNaNaNaNaNaNaNag5
aa(lp824
S'PSY580'
p825
aI85862
aI5
aI5
ag29
aNaNaNaNaNaNaNaNaNaNaNaNag5
aa(lp826
S'PSY580'
p827
aI72281
aI10
aI10
ag29
aNaNaNaNaNaNaNaNaNaNaNaNag5
aa(lp828
S'PSY590'
p829
aI80516
aI30
aI30
ag29
aNaNaNaNaNaNaNaNaNaNaNaNag22
aa(lp830
S'PSY590'
p831
aI78785
aI5
aI5
ag29
aNaNaNaNaNaNaNaNaNaNaNaNag22
aa(lp832
S'PSY590'
p833
aI85704
aI5
aI5
ag29
aNaNaNaNaNaNaNaNaNaNaNaNag5
aa(lp834
S'PSY591'
p835
aI75528
aI7
aI20
aS'T Th'
p836
aS' 1:30 PM'
p837
aI13
aI30
aI14
aI45
aNaNaNaNaNaNaNag5
aa(lp838
S'PSY591'
p839
aI75530
aI9
aI15
ag147
aS' 4:30 PM'
p840
aI16
aI30
aI19
aI15
aNaNaNaNaNaNaNag5
aa(lp841
S'PSY591'
p842
aI75277
aI23
aI40
aS'M W'
p843
aS'10:30 AM'
p844
aI10
aI30
aI11
aI45
aNaNaNaNaNaNaNag5
aa(lp845
S'PSY591'
p846
aI81529
aI11
aI15
ag99
aS' 1:30 PM'
p847
aI13
aI30
aI16
aI15
aNaNaNaNaNaNaNag5
aa(lp848
S'PSY591'
p849
aI86721
aI15
aI15
aS'Th'
p850
aS' 1:30 PM'
p851
aI13
aI30
aI15
aI30
aNaNaNaNaNaNaNag5
aa(lp852
S'PSY591'
p853
aI86722
aI8
aI15
ag393
aS'10:30 AM'
p854
aI10
aI30
aI13
aI15
aNaNaNaNaNaNaNag5
aa(lp855
S'PSY591'
p856
aI86723
aI20
aI25
ag99
aS' 3:00 PM'
p857
aI15
aI0
aI16
aI15
aNaNaNaNaNaNaNag5
aa(lp858
S'PSY592'
p859
aI80515
aI31
aI40
ag29
aNaNaNaNaNaNaNaNaNaNaNaNag22
aa(lp860
S'PSY592'
p861
aI78789
aI5
aI5
ag29
aNaNaNaNaNaNaNaNaNaNaNaNag5
aa(lp862
S'PSY592'
p863
aI80301
aI5
aI5
ag29
aNaNaNaNaNaNaNaNaNaNaNaNag5
aa(lp864
S'PSY592'
p865
aI80304
aI5
aI5
ag29
aNaNaNaNaNaNaNaNaNaNaNaNag5
aa(lp866
S'PSY592'
p867
aI80369
aI5
aI5
ag29
aNaNaNaNaNaNaNaNaNaNaNaNag5
aa(lp868
S'PSY592'
p869
aI80370
aI3
aI5
ag29
aNaNaNaNaNaNaNaNaNaNaNaNag5
aa(lp870
S'PSY592'
p871
aI80372
aI5
aI5
ag29
aNaNaNaNaNaNaNaNaNaNaNaNag5
aa(lp872
S'PSY592'
p873
aI80472
aI6
aI6
ag29
aNaNaNaNaNaNaNaNaNaNaNaNag5
aa(lp874
S'PSY592'
p875
aI84024
aI5
aI5
ag29
aNaNaNaNaNaNaNaNaNaNaNaNag5
aa(lp876
S'PSY592'
p877
aI84025
aI5
aI5
ag29
aNaNaNaNaNaNaNaNaNaNaNaNag5
aa(lp878
S'PSY592'
p879
aI84026
aI5
aI5
ag29
aNaNaNaNaNaNaNaNaNaNaNaNag5
aa(lp880
S'PSY592'
p881
aI91683
aI4
aI5
ag29
aNaNaNaNaNaNaNaNaNaNaNaNag5
aa(lp882
S'PSY592'
p883
aI79834
aI4
aI5
ag29
aNaNaNaNaNaNaNaNaNaNaNaNag5
aa(lp884
S'PSY593'
p885
aI78790
aI3
aI3
ag29
aNaNaNaNaNaNaNaNaNaNaNaNag22
aa(lp886
S'PSY593'
p887
aI80701
aI3
aI3
ag29
aNaNaNaNaNaNaNaNaNaNaNaNag22
aa(lp888
S'PSY593'
p889
aI80912
aI5
aI5
ag29
aNaNaNaNaNaNaNaNaNaNaNaNag22
aa(lp890
S'PSY593'
p891
aI86323
aI20
aI20
ag275
aS' 1:30 PM'
p892
aI13
aI30
aI16
aI15
aNaNaNaNaNaNaNag5
aa(lp893
S'PSY594'
p894
aI80518
aI30
aI30
ag29
aNaNaNaNaNaNaNaNaNaNaNaNag22
aa(lp895
S'PSY594'
p896
aI72282
aI30
aI30
ag99
aS'12:00PM'
p897
aI12
aI0
aI13
aI15
ag96
ag96
aNaNag96
aNaNag5
aa(lp898
S'PSY595'
p899
aI80517
aI30
aI30
ag29
aNaNaNaNaNaNaNaNaNaNaNaNag22
aa(lp900
S'PSY595'
p901
aI80749
aI4
aI5
ag29
aNaNaNaNaNaNaNaNaNaNaNaNag22
aa(lp902
S'PSY595'
p903
aI85768
aI5
aI5
ag29
aNaNaNaNaNaNaNaNaNaNaNaNag5
aa(lp904
S'PSY595'
p905
aI86324
aI10
aI10
ag29
aNaNaNaNaNaNaNaNaNaNaNaNag5
aa(lp906
S'PSY598'
p907
aI70393
aI20
aI20
aS'Th'
p908
aS' 1:30 PM'
p909
aI13
aI30
aI15
aI0
aNaNaNaNaNaNaNag5
aa(lp910
S'PSY598'
p911
aI73666
aI14
aI20
ag275
aS' 1:30 PM'
p912
aI13
aI30
aI14
aI45
aNaNaNaNaNaNaNag5
aa(lp913
S'PSY598'
p914
aI83753
aI20
aI20
ag393
aS' 3:00 PM'
p915
aI15
aI0
aI16
aI30
aNaNaNaNaNaNaNag5
aa(lp916
S'PSY598'
p917
aI86726
aI0
aI15
ag99
aS' 1:30 PM'
p918
aI13
aI30
aI16
aI0
aNaNaNaNaNaNaNag22
aa(lp919
S'PSY598'
p920
aI87518
aI7
aI10
aS'T Th'
p921
aS' 1:30 PM'
p922
aI13
aI30
aI14
aI45
aNaNaNaNaNaNaNag5
aa(lp923
S'PSY598'
p924
aI91838
aI10
aI10
aS'Th'
p925
aS' 5:00 PM'
p926
aI17
aI0
aI20
aI0
aNaNaNaNaNaNaNag5
aa(lp927
S'PSY598'
p928
aI74381
aI27
aI30
aS'T Th'
p929
aS'12:00 PM'
p930
aI12
aI0
aI13
aI15
aNaNaNaNaNaNaNag5
aa(lp931
S'PSY598'
p932
aI77087
aI9
aI10
aS'M W'
p933
aS' 3:00 PM'
p934
aI15
aI0
aI16
aI15
aNaNaNaNaNaNaNag22
aa(lp935
S'PSY598'
p936
aI80418
aI26
aI30
aS'Th'
p937
aS' 4:30 PM'
p938
aI16
aI30
aI19
aI15
aNaNaNaNaNaNaNag5
aa(lp939
S'PSY598'
p940
aI82832
aI11
aI20
aS'T Th'
p941
aS'10:30 AM'
p942
aI10
aI30
aI11
aI45
aNaNaNaNaNaNaNag5
aa(lp943
S'PSY598'
p944
aI91547
aI5
aI5
ag29
aNaNaNaNaNaNaNaNaNaNaNaNag22
aa(lp945
S'PSY599'
p946
aI70394
aI38
aI50
ag29
aNaNaNaNaNaNaNaNaNaNaNaNag22
aa(lp947
S'PSY599'
p948
aI80410
aI5
aI5
ag29
aNaNaNaNaNaNaNaNaNaNaNaNag22
aa(lp949
S'PSY599'
p950
aI80416
aI3
aI5
ag29
aNaNaNaNaNaNaNaNaNaNaNaNag22
aa(lp951
S'PSY599'
p952
aI80419
aI5
aI5
ag29
aNaNaNaNaNaNaNaNaNaNaNaNag22
aa(lp953
S'PSY599'
p954
aI80545
aI5
aI5
ag29
aNaNaNaNaNaNaNaNaNaNaNaNag22
aa(lp955
S'PSY599'
p956
aI80905
aI5
aI5
ag29
aNaNaNaNaNaNaNaNaNaNaNaNag22
aa(lp957
S'PSY599'
p958
aI83763
aI9
aI10
ag29
aNaNaNaNaNaNaNaNaNaNaNaNag5
aa(lp959
S'PSY599'
p960
aI84122
aI5
aI5
ag29
aNaNaNaNaNaNaNaNaNaNaNaNag5
aa(lp961
S'PSY599'
p962
aI84163
aI5
aI5
ag29
aNaNaNaNaNaNaNaNaNaNaNaNag5
aa(lp963
S'PSY599'
p964
aI91755
aI4
aI5
ag29
aNaNaNaNaNaNaNaNaNaNaNaNag5
aa(lp965
S'PSY599'
p966
aI72283
aI15
aI15
ag29
aNaNaNaNaNaNaNaNaNaNaNaNag5
aa(lp967
S'PSY680'
p968
aI78713
aI2
aI10
ag147
aS' 3:00 PM'
p969
aI15
aI0
aI17
aI30
aNaNaNaNaNaNaNag5
aa(lp970
S'PSY680'
p971
aI86727
aI9
aI10
ag29
aNaNaNaNaNaNaNaNaNaNaNaNag5
aa(lp972
S'PSY780'
p973
aI85745
aI6
aI10
ag147
aS' 1:30 PM'
p974
aI13
aI30
aI16
aI15
aNaNaNaNaNaNaNag5
aa(lp975
S'PSY780'
p976
aI91627
aI29
aI30
ag29
aNaNaNaNaNaNaNaNaNaNaNaNag22
aa(lp977
S'PSY784'
p978
aI72301
aI7
aI10
ag29
aNaNaNaNaNaNaNaNaNaNaNaNag22
aa(lp979
S'PSY790'
p980
aI72302
aI48
aI50
ag29
aNaNaNaNaNaNaNaNaNaNaNaNag22
aa(lp981
S'PSY792'
p982
aI72303
aI38
aI50
ag29
aNaNaNaNaNaNaNaNaNaNaNaNag5
aa(lp983
S'PSY795'
p984
aI72304
aI5
aI5
ag29
aNaNaNaNaNaNaNaNaNaNaNaNag22
aa(lp985
S'PSY799'
p986
aI72305
aI76
aI80
ag29
aNaNaNaNaNaNaNaNaNaNaNaNag22
aa.