(lp0
(lp1
S'PUP190'
p2
aI83800
aI42
aI75
aS'ONLINE'
p3
aNaNaNaNaNaNaNaNaNaNaNaNaS'Not Reserved'
p4
aa(lp5
S'PUP190'
p6
aI73478
aI193
aI217
aS'M W'
p7
aS' 4:30 PM'
p8
aI16
aI30
aI17
aI45
aNaNaNaNaNaNaNag4
aa(lp9
S'PUP190'
p10
aI73507
aI6
aI12
aS'M W'
p11
aS' 4:30 PM'
p12
aI16
aI30
aI17
aI45
aNaNaNaNaNaNaNaS'Reserved'
p13
aa(lp14
S'PUP190'
p15
aI78428
aI6
aI12
aS'W'
p16
aS' 6:30 PM'
p17
aI18
aI30
aI19
aI20
aNaNaNaNaNaNaNag4
aa(lp18
S'PUP191'
p19
aI72308
aI19
aI19
aS'M'
p20
aS'12:00 PM'
p21
aI12
aI0
aI12
aI50
aNaNaNaNaNaNaNag13
aa(lp22
S'PUP200'
p23
aI72309
aI213
aI458
aS'T'
p24
aS' 4:30 PM'
p25
aI16
aI30
aI19
aI15
aNaNaNaNaNaNaNag4
aa(lp26
S'PUP294'
p27
aI77899
aI69
aI75
ag3
aNaNaNaNaNaNaNaNaNaNaNaNag13
aa(lp28
S'PUP301'
p29
aI72310
aI156
aI265
aS'M W'
p30
aS' 4:30 PM'
p31
aI16
aI30
aI17
aI45
aNaNaNaNaNaNaNag4
aa(lp32
S'PUP363'
p33
aI74697
aI100
aI138
ag20
aS' 4:30 PM'
p34
aI16
aI30
aI19
aI15
aNaNaNaNaNaNaNag4
aa(lp35
S'PUP410'
p36
aI76743
aI40
aI90
aS'M W'
p37
aS' 1:30 PM'
p38
aI13
aI30
aI14
aI45
aNaNaNaNaNaNaNag4
aa(lp39
S'PUP424'
p40
aI73073
aI16
aI64
aS'Th'
p41
aS' 4:30 PM'
p42
aI16
aI30
aI19
aI15
aNaNaNaNaNaNaNag4
aa(lp43
S'PUP424'
p44
aI86947
aI0
aI32
aS'F'
p45
aS' 1:30 PM'
p46
aI13
aI30
aI14
aI45
aNaNaNaNaNaNaNag13
aa(lp47
S'PUP424'
p48
aI86948
aI16
aI32
ag45
aS' 1:30 PM'
p49
aI13
aI30
aI14
aI45
aNaNaNaNaNaNaNag4
aa(lp50
S'PUP432'
p51
aI72311
aI8
aI45
aS'T Th'
p52
aS' 3:00 PM'
p53
aI15
aI0
aI16
aI15
aNaNaNaNaNaNaNag4
aa(lp54
S'PUP434'
p55
aI86425
aI7
aI30
aS'M W'
p56
aS'10:30 AM'
p57
aI10
aI30
aI11
aI45
aNaNaNaNaNaNaNag4
aa(lp58
S'PUP442'
p59
aI72312
aI97
aI125
aS'Th'
p60
aS' 6:00 PM'
p61
aI18
aI0
aI20
aI45
aNaNaNaNaNaNaNag4
aa(lp62
S'PUP465'
p63
aI74382
aI29
aI65
ag3
aNaNaNaNaNaNaNaNaNaNaNaNag13
aa(lp64
S'PUP481'
p65
aI90480
aI5
aI5
ag16
aS' 3:00 PM'
p66
aI15
aI0
aI17
aI45
aNaNaNaNaNaNaNag4
aa(lp67
S'PUP484'
p68
aI72313
aI20
aI20
ag20
aS' 4:30 PM'
p69
aI16
aI30
aI19
aI15
aNaNaNaNaNaNaNag4
aa(lp70
S'PUP492'
p71
aI72944
aI3
aI3
ag3
aNaNaNaNaNaNaNaNaNaNaNaNag4
aa(lp72
S'PUP493'
p73
aI83728
aI3
aI3
ag3
aNaNaNaNaNaNaNaNaNaNaNaNag4
aa(lp74
S'PUP494'
p75
aI84349
aI8
aI23
aS'T Th'
p76
aS'10:30 AM'
p77
aI10
aI30
aI11
aI45
aNaNaNaNaNaNaNag4
aa(lp78
S'PUP494'
p79
aI76385
aI16
aI52
aS'T Th'
p80
aS' 1:30 PM'
p81
aI13
aI30
aI14
aI45
aNaNaNaNaNaNaNag4
aa(lp82
S'PUP494'
p83
aI90232
aI6
aI10
ag20
aS' 4:30 PM'
p84
aI16
aI30
aI19
aI15
aNaNaNaNaNaNaNag4
aa(lp85
S'PUP498'
p86
aI77913
aI1
aI5
aS'Th'
p87
aS'10:30 AM'
p88
aI10
aI30
aI13
aI15
aNaNaNaNaNaNaNag4
aa(lp89
S'PUP498'
p90
aI86403
aI7
aI10
aS'Th'
p91
aS'12:00 PM'
p92
aI12
aI0
aI14
aI45
aNaNaNaNaNaNaNag4
aa(lp93
S'PUP499'
p94
aI72314
aI3
aI3
ag3
aNaNaNaNaNaNaNaNaNaNaNaNag4
aa(lp95
S'PUP501'
p96
aI75420
aI29
aI40
ag24
aS'12:00 PM'
p97
aI12
aI0
aI14
aI45
aNaNaNaNaNaNaNag4
aa(lp98
S'PUP520'
p99
aI72315
aI21
aI38
ag16
aS' 6:00 PM'
p100
aI18
aI0
aI20
aI45
aNaNaNaNaNaNaNag4
aa(lp101
S'PUP535'
p102
aI75251
aI12
aI15
aS'T Th'
p103
aS' 3:30 PM'
p104
aI15
aI30
aI16
aI55
aNaNaNaNaNaNaNag4
aa(lp105
S'PUP565'
p106
aI75281
aI11
aI20
ag3
aNaNaNaNaNaNaNaNaNaNaNaNag13
aa(lp107
S'PUP571'
p108
aI76566
aI22
aI40
aS'M W'
p109
aS' 9:00 AM'
p110
aI9
aI0
aI10
aI15
aNaNaNaNaNaNaNag4
aa(lp111
S'PUP581'
p112
aI90481
aI5
aI5
ag16
aS' 3:00 PM'
p113
aI15
aI0
aI17
aI45
aNaNaNaNaNaNaNag4
aa(lp114
S'PUP584'
p115
aI72316
aI8
aI10
ag20
aS' 4:30 PM'
p116
aI16
aI30
aI19
aI15
aNaNaNaNaNaNaNag4
aa(lp117
S'PUP590'
p118
aI73074
aI1
aI1
ag3
aNaNaNaNaNaNaNaNaNaNaNaNag4
aa(lp119
S'PUP590'
p120
aI85512
aI2
aI3
ag3
aNaNaNaNaNaNaNaNaNaNaNaNag4
aa(lp121
S'PUP590'
p122
aI85843
aI1
aI1
ag3
aNaNaNaNaNaNaNaNaNaNaNaNag4
aa(lp123
S'PUP590'
p124
aI80867
aI0
aI1
ag3
aNaNaNaNaNaNaNaNaNaNaNaNag13
aa(lp125
S'PUP591'
p126
aI72317
aI16
aI22
aS'Th'
p127
aS' 6:00 PM'
p128
aI18
aI0
aI20
aI45
aNaNaNaNaNaNaNag4
aa(lp129
S'PUP591'
p130
aI85830
aI20
aI20
ag45
aS'12:00 PM'
p131
aI12
aI0
aI13
aI0
aNaNaNaNaNaNaNag4
aa(lp132
S'PUP591'
p133
aI86404
aI8
aI10
aS'Th'
p134
aS'12:00 PM'
p135
aI12
aI0
aI14
aI45
aNaNaNaNaNaNaNag4
aa(lp136
S'PUP591'
p137
aI77921
aI11
aI15
aS'Th'
p138
aS'10:30 AM'
p139
aI10
aI30
aI13
aI15
aNaNaNaNaNaNaNag4
aa(lp140
S'PUP591'
p141
aI86812
aI10
aI20
ag16
aS'12:00 PM'
p142
aI12
aI0
aI14
aI45
aNaNaNaNaNaNaNag4
aa(lp143
S'PUP592'
p144
aI86015
aI30
aI30
ag3
aNaNaNaNaNaNaNaNaNaNaNaNag4
aa(lp145
S'PUP592'
p146
aI80941
aI1
aI1
ag3
aNaNaNaNaNaNaNaNaNaNaNaNag4
aa(lp147
S'PUP593'
p148
aI72318
aI3
aI5
ag3
aNaNaNaNaNaNaNaNaNaNaNaNag13
aa(lp149
S'PUP593'
p150
aI73075
aI4
aI5
ag3
aNaNaNaNaNaNaNaNaNaNaNaNag4
aa(lp151
S'PUP595'
p152
aI72319
aI5
aI5
ag3
aNaNaNaNaNaNaNaNaNaNaNaNag4
aa(lp153
S'PUP598'
p154
aI77521
aI14
aI18
aS'T Th'
p155
aS' 1:30 PM'
p156
aI13
aI30
aI14
aI45
aNaNaNaNaNaNaNag4
aa(lp157
S'PUP598'
p158
aI74269
aI1
aI10
aS'Th'
p159
aS' 6:00 PM'
p160
aI18
aI0
aI20
aI45
aNaNaNaNaNaNaNag4
aa(lp161
S'PUP598'
p162
aI86426
aI6
aI10
aS'M W'
p163
aS'10:30 AM'
p164
aI10
aI30
aI11
aI45
aNaNaNaNaNaNaNag4
aa(lp165
S'PUP598'
p166
aI78267
aI1
aI10
aS'M W'
p167
aS' 1:30 PM'
p168
aI13
aI30
aI14
aI45
aNaNaNaNaNaNaNag4
aa(lp169
S'PUP598'
p170
aI90233
aI14
aI15
ag20
aS' 4:30 PM'
p171
aI16
aI30
aI19
aI15
aNaNaNaNaNaNaNag4
aa(lp172
S'PUP598'
p173
aI91018
aI6
aI9
aS'M W F'
p174
aS'6:00PM'
p175
aI18
aI0
aI19
aI20
aS'W F'
p176
aS'6:00PM'
p177
aI18
aI0
aS'7:20PM'
p178
aI19
aI20
ag4
aa(lp179
S'PUP599'
p180
aI74354
aI3
aI3
ag3
aNaNaNaNaNaNaNaNaNaNaNaNag4
aa(lp181
S'PUP642'
p182
aI72320
aI21
aI40
aS'M W'
p183
aS' 4:30 PM'
p184
aI16
aI30
aI17
aI45
aNaNaNaNaNaNaNag4
aa(lp185
S'PUP701'
p186
aI77094
aI6
aI7
ag45
aS'12:00 PM'
p187
aI12
aI0
aI13
aI0
aNaNaNaNaNaNaNag4
aa(lp188
S'PUP710'
p189
aI78746
aI2
aI3
ag16
aS' 9:00 AM'
p190
aI9
aI0
aI11
aI45
aNaNaNaNaNaNaNag4
aa(lp191
S'PUP790'
p192
aI77906
aI1
aI1
ag3
aNaNaNaNaNaNaNaNaNaNaNaNag4
aa(lp193
S'PUP790'
p194
aI80968
aI1
aI1
ag3
aNaNaNaNaNaNaNaNaNaNaNaNag4
aa(lp195
S'PUP792'
p196
aI78072
aI3
aI3
ag3
aNaNaNaNaNaNaNaNaNaNaNaNag4
aa(lp197
S'PUP792'
p198
aI78229
aI3
aI3
ag3
aNaNaNaNaNaNaNaNaNaNaNaNag4
aa(lp199
S'PUP792'
p200
aI80944
aI1
aI1
ag3
aNaNaNaNaNaNaNaNaNaNaNaNag4
aa(lp201
S'PUP795'
p202
aI84567
aI1
aI1
ag3
aNaNaNaNaNaNaNaNaNaNaNaNag4
aa.