(lp0
(lp1
S'RDG291'
p2
aI88109
aI25
aI35
aS'ONLINE'
p3
aNaNaNaNaNaNaNaNaNaNaNaNaS'Reserved'
p4
aa(lp5
S'RDG291'
p6
aI77272
aI10
aI35
aS'T Th'
p7
aS' 9:00 AM'
p8
aI9
aI0
aI10
aI15
aNaNaNaNaNaNaNaS'Not Reserved'
p9
aa(lp10
S'RDG291'
p11
aI77273
aI28
aI35
aS'M'
p12
aS' 4:30 PM'
p13
aI16
aI30
aI19
aI15
aNaNaNaNaNaNaNag9
aa(lp14
S'RDG291'
p15
aI77274
aI29
aI35
aS'W'
p16
aS' 4:30 PM'
p17
aI16
aI30
aI19
aI15
aNaNaNaNaNaNaNag9
aa(lp18
S'RDG291'
p19
aI77276
aI0
aI35
aS'T Th'
p20
aS' 1:30 PM'
p21
aI13
aI30
aI14
aI45
aNaNaNaNaNaNaNag4
aa(lp22
S'RDG291'
p23
aI77351
aI33
aI35
aS'T'
p24
aS' 4:30 PM'
p25
aI16
aI30
aI19
aI15
aNaNaNaNaNaNaNag9
aa(lp26
S'RDG291'
p27
aI77352
aI23
aI35
aS'T Th'
p28
aS' 3:00 PM'
p29
aI15
aI0
aI16
aI15
aNaNaNaNaNaNaNag9
aa(lp30
S'RDG291'
p31
aI77474
aI30
aI35
ag24
aS' 4:30 PM'
p32
aI16
aI30
aI19
aI15
aNaNaNaNaNaNaNag9
aa(lp33
S'RDG291'
p34
aI79939
aI25
aI35
aS'M W'
p35
aS' 3:00 PM'
p36
aI15
aI0
aI16
aI15
aNaNaNaNaNaNaNag9
aa(lp37
S'RDG291'
p38
aI79940
aI27
aI35
aS'T Th'
p39
aS' 4:30 PM'
p40
aI16
aI30
aI17
aI45
aNaNaNaNaNaNaNag9
aa(lp41
S'RDG507'
p42
aI76748
aI29
aI32
ag16
aS' 4:30 PM'
p43
aI16
aI30
aI22
aI15
aNaNaNaNaNaNaNag4
aa(lp44
S'RDG507'
p45
aI74425
aI39
aI45
aS'Th'
p46
aS' 4:30 PM'
p47
aI16
aI30
aI22
aI0
aNaNaNaNaNaNaNag4
aa(lp48
S'RDG507'
p49
aI74449
aI29
aI30
ag12
aS' 4:30 PM'
p50
aI16
aI30
aI22
aI0
aNaNaNaNaNaNaNag4
aa(lp51
S'RDG507'
p52
aI74481
aI20
aI30
ag12
aS' 8:15 AM'
p53
aI8
aI15
aI11
aI0
aNaNaNaNaNaNaNag4
aa(lp54
S'RDG508'
p55
aI76824
aI24
aI30
ag12
aS' 4:30 PM'
p56
aI16
aI30
aI19
aI15
aNaNaNaNaNaNaNag9
aa(lp57
S'RDG520'
p58
aI78835
aI23
aI30
ag24
aS' 4:30 PM'
p59
aI16
aI30
aI19
aI15
aNaNaNaNaNaNaNag9
aa(lp60
S'RDG531'
p61
aI74483
aI27
aI36
ag16
aS'4:30PM'
p62
aI16
aI30
aI20
aI45
aS''
p63
aS'12:00AM'
p64
aNaNaS'12:00AM'
p65
aNaNag4
aa(lp66
S'RDG531'
p67
aI76949
aI25
aI30
aS'T F'
p68
aS' 2:20 PM'
p69
aI14
aI20
aI16
aI50
aNaNaNaNaNaNaNag4
aa(lp70
S'RDG531'
p71
aI74169
aI24
aI24
ag24
aS'4:30PM'
p72
aI16
aI30
aI19
aI15
ag63
aS'12:00AM'
p73
aNaNaS'12:00AM'
p74
aNaNag4
aa(lp75
S'RDG532'
p76
aI74970
aI25
aI30
aS'T F'
p77
aS' 7:30 AM'
p78
aI7
aI30
aI10
aI0
aNaNaNaNaNaNaNag4
aa(lp79
S'RDG555'
p80
aI76825
aI25
aI30
aS'Th'
p81
aS' 7:30 PM'
p82
aI19
aI30
aI22
aI15
aNaNaNaNaNaNaNag9
aa(lp83
S'RDG563'
p84
aI75815
aI19
aI30
ag16
aS' 4:30 PM'
p85
aI16
aI30
aI19
aI15
aNaNaNaNaNaNaNag9
aa(lp86
S'RDG598'
p87
aI77671
aI11
aI24
aS'Th'
p88
aS' 4:30 PM'
p89
aI16
aI30
aI19
aI15
aNaNaNaNaNaNaNag9
aa(lp90
S'RDG691'
p91
aI84075
aI18
aI30
ag16
aS' 4:30 PM'
p92
aI16
aI30
aI19
aI15
aNaNaNaNaNaNaNag9
aa.