(lp0
(lp1
S'REL100'
p2
aI80876
aI20
aI50
aS'ONLINE'
p3
aNaNaNaNaNaNaNaNaNaNaNaNaS'Reserved'
p4
aa(lp5
S'REL100'
p6
aI82558
aI110
aI160
aS'M W'
p7
aS'10:30 AM'
p8
aI10
aI30
aI11
aI45
aNaNaNaNaNaNaNaS'Not Reserved'
p9
aa(lp10
S'REL100'
p11
aI74775
aI232
aI250
aS'M W'
p12
aS' 3:00 PM'
p13
aI15
aI0
aI16
aI15
aNaNaNaNaNaNaNag9
aa(lp14
S'REL100'
p15
aI89216
aI83
aI100
ag3
aNaNaNaNaNaNaNaNaNaNaNaNag4
aa(lp16
S'REL100'
p17
aI70399
aI134
aI150
ag3
aNaNaNaNaNaNaNaNaNaNaNaNag4
aa(lp18
S'REL100'
p19
aI82769
aI31
aI60
aS'M W'
p20
aS' 3:00 PM'
p21
aI15
aI0
aI16
aI15
aNaNaNaNaNaNaNag9
aa(lp22
S'REL100'
p23
aI74740
aI41
aI50
aS'T'
p24
aS' 6:00 PM'
p25
aI18
aI0
aI20
aI45
aNaNaNaNaNaNaNag9
aa(lp26
S'REL100'
p27
aI70398
aI46
aI60
aS'T Th'
p28
aS'10:30 AM'
p29
aI10
aI30
aI11
aI45
aNaNaNaNaNaNaNag9
aa(lp30
S'REL100'
p31
aI78136
aI45
aI60
aS'T Th'
p32
aS'12:00 PM'
p33
aI12
aI0
aI13
aI15
aNaNaNaNaNaNaNag9
aa(lp34
S'REL111'
p35
aI79909
aI14
aI20
aS'M W'
p36
aS'12:00 PM'
p37
aI12
aI0
aI13
aI15
aNaNaNaNaNaNaNag9
aa(lp38
S'REL194'
p39
aI80457
aI11
aI12
aS'F'
p40
aS'12:00 PM'
p41
aI12
aI0
aI12
aI50
aNaNaNaNaNaNaNag9
aa(lp42
S'REL201'
p43
aI90998
aI47
aI55
aS'T Th'
p44
aS' 1:30 PM'
p45
aI13
aI30
aI14
aI45
aNaNaNaNaNaNaNag9
aa(lp46
S'REL202'
p47
aI89218
aI114
aI200
ag3
aNaNaNaNaNaNaNaNaNaNaNaNag9
aa(lp48
S'REL202'
p49
aI90800
aI38
aI68
aS'M W F'
p50
aS'10:30 AM'
p51
aI10
aI30
aI11
aI20
aNaNaNaNaNaNaNag9
aa(lp52
S'REL202'
p53
aI77667
aI0
aI50
ag3
aNaNaNaNaNaNaNaNaNaNaNaNag4
aa(lp54
S'REL203'
p55
aI77195
aI32
aI65
ag3
aNaNaNaNaNaNaNaNaNaNaNaNag4
aa(lp56
S'REL205'
p57
aI82572
aI131
aI140
aS'T Th'
p58
aS' 3:00 PM'
p59
aI15
aI0
aI16
aI15
aNaNaNaNaNaNaNag9
aa(lp60
S'REL205'
p61
aI89734
aI36
aI60
aS'T Th'
p62
aS' 1:30 PM'
p63
aI13
aI30
aI14
aI45
aNaNaNaNaNaNaNag9
aa(lp64
S'REL207'
p65
aI82577
aI39
aI48
aS'M W'
p66
aS' 4:30 PM'
p67
aI16
aI30
aI17
aI45
aNaNaNaNaNaNaNag9
aa(lp68
S'REL207'
p69
aI80228
aI78
aI99
ag3
aNaNaNaNaNaNaNaNaNaNaNaNag4
aa(lp70
S'REL207'
p71
aI84479
aI130
aI151
aS'T Th'
p72
aS' 1:30 PM'
p73
aI13
aI30
aI14
aI45
aNaNaNaNaNaNaNag9
aa(lp74
S'REL207'
p75
aI78213
aI0
aI10
ag3
aNaNaNaNaNaNaNaNaNaNaNaNag4
aa(lp76
S'REL207'
p77
aI90590
aI36
aI40
ag3
aNaNaNaNaNaNaNaNaNaNaNaNag4
aa(lp78
S'REL210'
p79
aI80222
aI16
aI21
aS'T Th'
p80
aS' 9:00 AM'
p81
aI9
aI0
aI10
aI15
aNaNaNaNaNaNaNag9
aa(lp82
S'REL231'
p83
aI80092
aI5
aI5
aS'M W'
p84
aS' 3:00 PM'
p85
aI15
aI0
aI16
aI15
aNaNaNaNaNaNaNag9
aa(lp86
S'REL240'
p87
aI79910
aI9
aI10
aS'M W'
p88
aS' 3:00 PM'
p89
aI15
aI0
aI16
aI15
aNaNaNaNaNaNaNag9
aa(lp90
S'REL240'
p91
aI77677
aI14
aI40
ag3
aNaNaNaNaNaNaNaNaNaNaNaNag4
aa(lp92
S'REL270'
p93
aI77027
aI57
aI60
aS'W'
p94
aS' 6:00 PM'
p95
aI18
aI0
aI20
aI45
aNaNaNaNaNaNaNag9
aa(lp96
S'REL294'
p97
aI84052
aI5
aI5
ag3
aNaNaNaNaNaNaNaNaNaNaNaNag9
aa(lp98
S'REL301'
p99
aI85400
aI79
aI100
ag3
aNaNaNaNaNaNaNaNaNaNaNaNag4
aa(lp100
S'REL307'
p101
aI80540
aI2
aI16
ag24
aS'12:00 PM'
p102
aI12
aI0
aI14
aI45
aNaNaNaNaNaNaNag9
aa(lp103
S'REL310'
p104
aI82772
aI17
aI40
aS'T Th'
p105
aS'12:00 PM'
p106
aI12
aI0
aI13
aI15
aNaNaNaNaNaNaNag9
aa(lp107
S'REL312'
p108
aI89302
aI15
aI20
aS'M W'
p109
aS' 3:00 PM'
p110
aI15
aI0
aI16
aI15
aNaNaNaNaNaNaNag9
aa(lp111
S'REL315'
p112
aI79242
aI21
aI40
ag3
aNaNaNaNaNaNaNaNaNaNaNaNag4
aa(lp113
S'REL315'
p114
aI89222
aI25
aI30
ag3
aNaNaNaNaNaNaNaNaNaNaNaNag4
aa(lp115
S'REL315'
p116
aI91337
aI23
aI30
ag94
aS' 4:30 PM'
p117
aI16
aI30
aI19
aI0
aNaNaNaNaNaNaNag9
aa(lp118
S'REL320'
p119
aI76091
aI34
aI50
ag3
aNaNaNaNaNaNaNaNaNaNaNaNag4
aa(lp120
S'REL320'
p121
aI77028
aI37
aI60
aS'M'
p122
aS' 6:00 PM'
p123
aI18
aI0
aI20
aI45
aNaNaNaNaNaNaNag9
aa(lp124
S'REL321'
p125
aI76939
aI21
aI72
aS'T Th'
p126
aS' 9:00 AM'
p127
aI9
aI0
aI10
aI15
aNaNaNaNaNaNaNag9
aa(lp128
S'REL321'
p129
aI79219
aI59
aI100
ag3
aNaNaNaNaNaNaNaNaNaNaNaNag4
aa(lp130
S'REL321'
p131
aI89227
aI111
aI125
ag3
aNaNaNaNaNaNaNaNaNaNaNaNag4
aa(lp132
S'REL321'
p133
aI80350
aI36
aI70
aS'M W'
p134
aS' 4:30 PM'
p135
aI16
aI30
aI17
aI45
aNaNaNaNaNaNaNag9
aa(lp136
S'REL321'
p137
aI83573
aI13
aI53
aS'M W'
p138
aS' 3:00 PM'
p139
aI15
aI0
aI16
aI15
aNaNaNaNaNaNaNag9
aa(lp140
S'REL321'
p141
aI74524
aI54
aI60
ag3
aNaNaNaNaNaNaNaNaNaNaNaNag4
aa(lp142
S'REL321'
p143
aI83360
aI0
aI40
ag3
aNaNaNaNaNaNaNaNaNaNaNaNag4
aa(lp144
S'REL321'
p145
aI83361
aI0
aI40
ag3
aNaNaNaNaNaNaNaNaNaNaNaNag4
aa(lp146
S'REL321'
p147
aI77979
aI17
aI50
ag3
aNaNaNaNaNaNaNaNaNaNaNaNag4
aa(lp148
S'REL321'
p149
aI77868
aI40
aI50
ag3
aNaNaNaNaNaNaNaNaNaNaNaNag4
aa(lp150
S'REL330'
p151
aI89735
aI61
aI68
aS'M W'
p152
aS' 3:00 PM'
p153
aI15
aI0
aI16
aI15
aNaNaNaNaNaNaNag9
aa(lp154
S'REL338'
p155
aI91155
aI15
aI15
ag3
aNaNaNaNaNaNaNaNaNaNaNaNag9
aa(lp156
S'REL343'
p157
aI82588
aI6
aI20
aS'M W'
p158
aS' 3:00 PM'
p159
aI15
aI0
aI16
aI15
aNaNaNaNaNaNaNag9
aa(lp160
S'REL345'
p161
aI83648
aI27
aI40
aS'T Th'
p162
aS' 4:30 PM'
p163
aI16
aI30
aI17
aI45
aNaNaNaNaNaNaNag9
aa(lp164
S'REL351'
p165
aI79244
aI46
aI70
ag3
aNaNaNaNaNaNaNaNaNaNaNaNag4
aa(lp166
S'REL351'
p167
aI91259
aI11
aI60
aS'T Th'
p168
aS' 9:00 AM'
p169
aI9
aI0
aI10
aI15
aNaNaNaNaNaNaNag9
aa(lp170
S'REL354'
p171
aI89738
aI26
aI28
aS'T Th'
p172
aS' 1:30 PM'
p173
aI13
aI30
aI14
aI45
aNaNaNaNaNaNaNag9
aa(lp174
S'REL362'
p175
aI84017
aI13
aI15
aS'T Th'
p176
aS' 4:30 PM'
p177
aI16
aI30
aI17
aI45
aNaNaNaNaNaNaNag9
aa(lp178
S'REL366'
p179
aI84279
aI43
aI70
ag3
aNaNaNaNaNaNaNaNaNaNaNaNag4
aa(lp180
S'REL366'
p181
aI90951
aI20
aI30
ag94
aS' 4:30 PM'
p182
aI16
aI30
aI19
aI15
aNaNaNaNaNaNaNag9
aa(lp183
S'REL371'
p184
aI89234
aI3
aI50
ag3
aNaNaNaNaNaNaNaNaNaNaNaNag4
aa(lp185
S'REL371'
p186
aI76940
aI65
aI75
ag3
aNaNaNaNaNaNaNaNaNaNaNaNag4
aa(lp187
S'REL374'
p188
aI80072
aI0
aI25
ag3
aNaNaNaNaNaNaNaNaNaNaNaNag4
aa(lp189
S'REL374'
p190
aI78983
aI0
aI40
ag3
aNaNaNaNaNaNaNaNaNaNaNaNag4
aa(lp191
S'REL378'
p192
aI89743
aI44
aI70
aS'T Th'
p193
aS'12:00 PM'
p194
aI12
aI0
aI13
aI15
aNaNaNaNaNaNaNag9
aa(lp195
S'REL379'
p196
aI89236
aI32
aI40
ag3
aNaNaNaNaNaNaNaNaNaNaNaNag4
aa(lp197
S'REL390'
p198
aI77623
aI18
aI30
ag3
aNaNaNaNaNaNaNaNaNaNaNaNag4
aa(lp199
S'REL492'
p200
aI91249
aI9
aI10
ag3
aNaNaNaNaNaNaNaNaNaNaNaNag9
aa(lp201
S'REL494'
p202
aI79862
aI11
aI22
aS'Th'
p203
aS' 3:00 PM'
p204
aI15
aI0
aI17
aI45
aNaNaNaNaNaNaNag9
aa(lp205
S'REL494'
p206
aI80088
aI5
aI5
aS'T Th'
p207
aS' 1:30 PM'
p208
aI13
aI30
aI14
aI45
aNaNaNaNaNaNaNag9
aa(lp209
S'REL591'
p210
aI91379
aI11
aI15
aS'Th'
p211
aS' 4:30 PM'
p212
aI16
aI30
aI19
aI15
aNaNaNaNaNaNaNag9
aa(lp213
S'REL593'
p214
aI91821
aI5
aI5
ag3
aNaNaNaNaNaNaNaNaNaNaNaNag9
aa(lp215
S'REL595'
p216
aI85610
aI15
aI15
ag3
aNaNaNaNaNaNaNaNaNaNaNaNag9
aa(lp217
S'REL595'
p218
aI91710
aI29
aI30
ag3
aNaNaNaNaNaNaNaNaNaNaNaNag9
aa(lp219
S'REL598'
p220
aI80089
aI5
aI5
aS'T Th'
p221
aS' 1:30 PM'
p222
aI13
aI30
aI14
aI45
aNaNaNaNaNaNaNag9
aa(lp223
S'REL598'
p224
aI84158
aI4
aI10
ag24
aS' 4:30 PM'
p225
aI16
aI30
aI19
aI15
aNaNaNaNaNaNaNag9
aa(lp226
S'REL598'
p227
aI90899
aI16
aI18
ag24
aS' 4:30 PM'
p228
aI16
aI30
aI19
aI15
aNaNaNaNaNaNaNag9
aa(lp229
S'REL598'
p230
aI91244
aI15
aI16
ag122
aS' 2:00 PM'
p231
aI14
aI0
aI16
aI50
aNaNaNaNaNaNaNag9
aa(lp232
S'REL599'
p233
aI91823
aI29
aI30
ag3
aNaNaNaNaNaNaNaNaNaNaNaNag9
aa(lp234
S'REL792'
p235
aI91043
aI29
aI30
ag3
aNaNaNaNaNaNaNaNaNaNaNaNag9
aa(lp236
S'REL792'
p237
aI91825
aI4
aI5
ag3
aNaNaNaNaNaNaNaNaNaNaNaNag9
aa(lp238
S'REL795'
p239
aI84260
aI3
aI5
ag3
aNaNaNaNaNaNaNaNaNaNaNaNag9
aa(lp240
S'REL799'
p241
aI91787
aI29
aI30
ag3
aNaNaNaNaNaNaNaNaNaNaNaNag9
aa.