(lp0
(lp1
S'RUS101'
p2
aI73209
aI25
aI28
aS'M T W Th'
p3
aS'9:00AM'
p4
aI9
aI0
aI9
aI50
aS''
p5
ag5
aNaNag5
aNaNaS'Not Reserved'
p6
aa(lp7
S'RUS101'
p8
aI73210
aI20
aI28
aS'M T W Th'
p9
aS'10:30AM'
p10
aI10
aI30
aI11
aI20
ag5
ag5
aNaNag5
aNaNag6
aa(lp11
S'RUS102'
p12
aI73803
aI9
aI28
aS'M T W Th'
p13
aS'1:30PM'
p14
aI13
aI30
aI14
aI20
ag5
ag5
aNaNag5
aNaNag6
aa(lp15
S'RUS201'
p16
aI73211
aI10
aI28
aS'M T W Th'
p17
aS'12:00PM'
p18
aI12
aI0
aI12
aI50
ag5
ag5
aNaNag5
aNaNag6
aa(lp19
S'RUS202'
p20
aI91257
aI21
aI28
aS'M T W Th'
p21
aS'7:30AM'
p22
aI7
aI30
aI8
aI20
ag5
ag5
aNaNag5
aNaNag6
aa(lp23
S'RUS211'
p24
aI73212
aI19
aI28
aS'M W F'
p25
aS'10:30 AM'
p26
aI10
aI30
aI11
aI20
aNaNaNaNaNaNaNag6
aa(lp27
S'RUS311'
p28
aI72333
aI18
aI28
aS'M W F'
p29
aS'12:00 PM'
p30
aI12
aI0
aI12
aI50
aNaNaNaNaNaNaNag6
aa(lp31
S'RUS394'
p32
aI77230
aI27
aI30
aS'T Th'
p33
aS' 3:00 PM'
p34
aI15
aI0
aI16
aI15
aNaNaNaNaNaNaNag6
aa(lp35
S'RUS411'
p36
aI72624
aI19
aI24
aS'T Th'
p37
aS' 1:30 PM'
p38
aI13
aI30
aI14
aI45
aNaNaNaNaNaNaNag6
aa(lp39
S'RUS440'
p40
aI90022
aI22
aI30
aS'T Th'
p41
aS' 9:00 AM'
p42
aI9
aI0
aI10
aI15
aNaNaNaNaNaNaNag6
aa(lp43
S'RUS484'
p44
aI72334
aI5
aI5
aS'ONLINE'
p45
aNaNaNaNaNaNaNaNaNaNaNaNag6
aa(lp46
S'RUS492'
p47
aI72335
aI1
aI1
ag45
aNaNaNaNaNaNaNaNaNaNaNaNag6
aa(lp48
S'RUS493'
p49
aI72336
aI1
aI1
ag45
aNaNaNaNaNaNaNaNaNaNaNaNag6
aa(lp50
S'RUS494'
p51
aI81219
aI7
aI10
aS'T Th'
p52
aS' 1:30 PM'
p53
aI13
aI30
aI14
aI45
aNaNaNaNaNaNaNag6
aa(lp54
S'RUS499'
p55
aI72337
aI2
aI2
ag45
aNaNaNaNaNaNaNaNaNaNaNaNag6
aa(lp56
S'RUS590'
p57
aI72338
aI5
aI5
ag45
aNaNaNaNaNaNaNaNaNaNaNaNag6
aa.