(lp0
(lp1
S'SBS200'
p2
aI78806
aI38
aI60
aS'W'
p3
aS' 3:00 PM'
p4
aI15
aI0
aI16
aI15
aNaNaNaNaNaNaNaS'Not Reserved'
p5
aa(lp6
S'SBS301'
p7
aI72805
aI25
aI36
ag3
aS' 6:00 PM'
p8
aI18
aI0
aI20
aI45
aNaNaNaNaNaNaNag5
aa(lp9
S'SBS302'
p10
aI72339
aI17
aI36
aS'T Th'
p11
aS'10:30 AM'
p12
aI10
aI30
aI11
aI45
aNaNaNaNaNaNaNag5
aa(lp13
S'SBS303'
p14
aI77146
aI24
aI40
aS'T Th'
p15
aS' 1:30 PM'
p16
aI13
aI30
aI14
aI45
aNaNaNaNaNaNaNag5
aa(lp17
S'SBS304'
p18
aI72340
aI8
aI40
aS'T Th'
p19
aS' 6:00 PM'
p20
aI18
aI0
aI19
aI15
aNaNaNaNaNaNaNag5
aa(lp21
S'SBS394'
p22
aI79055
aI7
aI10
aS'T'
p23
aS' 6:00 PM'
p24
aI18
aI0
aI20
aI45
aNaNaNaNaNaNaNag5
aa(lp25
S'SBS394'
p26
aI86761
aI13
aI16
aS'T Th'
p27
aS' 4:30 PM'
p28
aI16
aI30
aI17
aI45
aNaNaNaNaNaNaNag5
aa(lp29
S'SBS394'
p30
aI90261
aI7
aI10
aS'ONLINE'
p31
aNaNaNaNaNaNaNaNaNaNaNaNaS'Reserved'
p32
aa(lp33
S'SBS480'
p34
aI76093
aI15
aI25
ag31
aNaNaNaNaNaNaNaNaNaNaNaNag32
aa(lp35
S'SBS484'
p36
aI76584
aI10
aI10
ag31
aNaNaNaNaNaNaNaNaNaNaNaNag5
aa(lp37
S'SBS492'
p38
aI86771
aI3
aI3
ag31
aNaNaNaNaNaNaNaNaNaNaNaNag5
aa(lp39
S'SBS493'
p40
aI81528
aI3
aI3
ag31
aNaNaNaNaNaNaNaNaNaNaNaNag5
aa(lp41
S'SBS494'
p42
aI81538
aI1
aI1
ag31
aNaNaNaNaNaNaNaNaNaNaNaNag5
aa(lp43
S'SBS494'
p44
aI78279
aI4
aI4
ag31
aNaNaNaNaNaNaNaNaNaNaNaNag5
aa(lp45
S'SBS494'
p46
aI84066
aI5
aI5
ag31
aNaNaNaNaNaNaNaNaNaNaNaNag5
aa(lp47
S'SBS494'
p48
aI84277
aI5
aI5
ag31
aNaNaNaNaNaNaNaNaNaNaNaNag5
aa(lp49
S'SBS498'
p50
aI77935
aI23
aI25
ag31
aNaNaNaNaNaNaNaNaNaNaNaNag5
aa(lp51
S'SBS498'
p52
aI84347
aI1
aI2
ag31
aNaNaNaNaNaNaNaNaNaNaNaNag5
aa.