(lp0
(lp1
S'SCM300'
p2
aI80238
aI0
aI220
aS'ONLINE'
p3
aNaNaNaNaNaNaNaNaNaNaNaNaS'Reserved'
p4
aa(lp5
S'SCM300'
p6
aI70400
aI0
aI255
aS'M W'
p7
aS'12:00 PM'
p8
aI12
aI0
aI13
aI15
aNaNaNaNaNaNaNag4
aa(lp9
S'SCM300'
p10
aI70401
aI0
aI255
aS'T Th'
p11
aS' 3:00 PM'
p12
aI15
aI0
aI16
aI15
aNaNaNaNaNaNaNag4
aa(lp13
S'SCM300'
p14
aI74405
aI8
aI60
aS'M'
p15
aS' 4:30 PM'
p16
aI16
aI30
aI19
aI15
aNaNaNaNaNaNaNaS'Not Reserved'
p17
aa(lp18
S'SCM300'
p19
aI74493
aI0
aI255
aS'M W'
p20
aS' 1:30 PM'
p21
aI13
aI30
aI14
aI45
aNaNaNaNaNaNaNag4
aa(lp22
S'SCM300'
p23
aI77860
aI4
aI55
ag15
aS' 4:30 PM'
p24
aI16
aI30
aI19
aI15
aNaNaNaNaNaNaNag17
aa(lp25
S'SCM300'
p26
aI87286
aI45
aI300
ag3
aNaNaNaNaNaNaNaNaNaNaNaNag17
aa(lp27
S'SCM300'
p28
aI87287
aI0
aI44
ag15
aS' 9:00 AM'
p29
aI9
aI0
aI10
aI15
aNaNaNaNaNaNaNag4
aa(lp30
S'SCM300'
p31
aI87288
aI1
aI44
ag15
aS'10:30 PM'
p32
aI22
aI30
aI23
aI45
aNaNaNaNaNaNaNag17
aa(lp33
S'SCM300'
p34
aI87289
aI0
aI44
ag15
aS'12:00 PM'
p35
aI12
aI0
aI13
aI15
aNaNaNaNaNaNaNag4
aa(lp36
S'SCM300'
p37
aI87290
aI0
aI44
ag15
aS' 1:30 PM'
p38
aI13
aI30
aI14
aI45
aNaNaNaNaNaNaNag4
aa(lp39
S'SCM300'
p40
aI87316
aI0
aI44
ag15
aS' 3:00 PM'
p41
aI15
aI0
aI16
aI15
aNaNaNaNaNaNaNag4
aa(lp42
S'SCM300'
p43
aI87317
aI24
aI44
ag15
aS' 4:30 PM'
p44
aI16
aI30
aI17
aI45
aNaNaNaNaNaNaNag17
aa(lp45
S'SCM300'
p46
aI87346
aI25
aI44
aS'W'
p47
aS' 9:00 AM'
p48
aI9
aI0
aI10
aI15
aNaNaNaNaNaNaNag17
aa(lp49
S'SCM300'
p50
aI87347
aI0
aI44
ag47
aS'10:30 AM'
p51
aI10
aI30
aI11
aI45
aNaNaNaNaNaNaNag4
aa(lp52
S'SCM300'
p53
aI87348
aI0
aI44
ag47
aS'12:00 PM'
p54
aI12
aI0
aI13
aI15
aNaNaNaNaNaNaNag4
aa(lp55
S'SCM300'
p56
aI87349
aI0
aI44
ag47
aS' 1:30 PM'
p57
aI13
aI30
aI14
aI45
aNaNaNaNaNaNaNag4
aa(lp58
S'SCM300'
p59
aI87350
aI6
aI44
ag47
aS' 3:00 PM'
p60
aI15
aI0
aI16
aI15
aNaNaNaNaNaNaNag17
aa(lp61
S'SCM300'
p62
aI87351
aI36
aI44
ag47
aS' 4:30 PM'
p63
aI16
aI30
aI17
aI45
aNaNaNaNaNaNaNag17
aa(lp64
S'SCM300'
p65
aI87353
aI35
aI44
aS'F'
p66
aS' 9:00 AM'
p67
aI9
aI0
aI10
aI15
aNaNaNaNaNaNaNag17
aa(lp68
S'SCM300'
p69
aI87354
aI41
aI44
ag66
aS'10:30 AM'
p70
aI10
aI30
aI11
aI45
aNaNaNaNaNaNaNag17
aa(lp71
S'SCM300'
p72
aI87355
aI1
aI44
ag66
aS'12:00 PM'
p73
aI12
aI0
aI13
aI15
aNaNaNaNaNaNaNag17
aa(lp74
S'SCM300'
p75
aI87356
aI26
aI44
ag66
aS' 1:30 PM'
p76
aI13
aI30
aI14
aI45
aNaNaNaNaNaNaNag17
aa(lp77
S'SCM303'
p78
aI73122
aI1
aI50
ag66
aS' 9:00 AM'
p79
aI9
aI0
aI11
aI45
aNaNaNaNaNaNaNag4
aa(lp80
S'SCM314'
p81
aI81494
aI0
aI51
ag66
aS' 1:30 PM'
p82
aI13
aI30
aI16
aI15
aNaNaNaNaNaNaNag4
aa(lp83
S'SCM315'
p84
aI78420
aI2
aI200
ag3
aNaNaNaNaNaNaNaNaNaNaNaNag17
aa(lp85
S'SCM315'
p86
aI87457
aI0
aI40
aS'T'
p87
aS'10:30 AM'
p88
aI10
aI30
aI11
aI45
aNaNaNaNaNaNaNag4
aa(lp89
S'SCM315'
p90
aI87461
aI0
aI40
ag87
aS' 1:30 PM'
p91
aI13
aI30
aI14
aI45
aNaNaNaNaNaNaNag4
aa(lp92
S'SCM315'
p93
aI87463
aI0
aI40
aS'Th'
p94
aS'10:30 AM'
p95
aI10
aI30
aI11
aI45
aNaNaNaNaNaNaNag4
aa(lp96
S'SCM315'
p97
aI87464
aI0
aI40
aS'Th'
p98
aS' 1:30 PM'
p99
aI13
aI30
aI14
aI45
aNaNaNaNaNaNaNag4
aa(lp100
S'SCM315'
p101
aI87465
aI17
aI40
aS'Th'
p102
aS' 3:00 PM'
p103
aI15
aI0
aI16
aI15
aNaNaNaNaNaNaNag17
aa(lp104
S'SCM344'
p105
aI81471
aI0
aI50
ag66
aS' 9:00 AM'
p106
aI9
aI0
aI11
aI45
aNaNaNaNaNaNaNag4
aa(lp107
S'SCM345'
p108
aI73120
aI0
aI45
aS'M W'
p109
aS' 9:00 AM'
p110
aI9
aI0
aI10
aI15
aNaNaNaNaNaNaNag4
aa(lp111
S'SCM345'
p112
aI72342
aI0
aI45
aS'M W'
p113
aS'10:30 AM'
p114
aI10
aI30
aI11
aI45
aNaNaNaNaNaNaNag4
aa(lp115
S'SCM345'
p116
aI72343
aI0
aI45
aS'M W'
p117
aS' 3:00 PM'
p118
aI15
aI0
aI16
aI15
aNaNaNaNaNaNaNag4
aa(lp119
S'SCM345'
p120
aI91554
aI26
aI40
aS'T Th'
p121
aS' 7:30 AM'
p122
aI7
aI30
aI8
aI45
aNaNaNaNaNaNaNag17
aa(lp123
S'SCM355'
p124
aI83860
aI61
aI200
aS'T Th'
p125
aS' 7:30 AM'
p126
aI7
aI30
aI8
aI45
aNaNaNaNaNaNaNag17
aa(lp127
S'SCM355'
p128
aI83907
aI11
aI40
aS'M W'
p129
aS'10:30 AM'
p130
aI10
aI30
aI11
aI45
aNaNaNaNaNaNaNag4
aa(lp131
S'SCM385'
p132
aI76806
aI27
aI130
ag3
aNaNaNaNaNaNaNaNaNaNaNaNag4
aa(lp133
S'SCM394'
p134
aI80523
aI40
aI40
ag3
aNaNaNaNaNaNaNaNaNaNaNaNag17
aa(lp135
S'SCM432'
p136
aI91193
aI0
aI90
aS'T Th'
p137
aS' 4:30 PM'
p138
aI16
aI30
aI17
aI45
aNaNaNaNaNaNaNag4
aa(lp139
S'SCM432'
p140
aI83892
aI0
aI90
aS'T Th'
p141
aS' 1:30 PM'
p142
aI13
aI30
aI14
aI45
aNaNaNaNaNaNaNag4
aa(lp143
S'SCM455'
p144
aI83861
aI23
aI200
aS'T Th'
p145
aS' 7:30 AM'
p146
aI7
aI30
aI8
aI45
aNaNaNaNaNaNaNag17
aa(lp147
S'SCM463'
p148
aI91854
aI80
aI80
ag3
aNaNaNaNaNaNaNaNaNaNaNaNag17
aa(lp149
S'SCM463'
p150
aI80619
aI0
aI80
ag3
aNaNaNaNaNaNaNaNaNaNaNaNag4
aa(lp151
S'SCM479'
p152
aI72345
aI0
aI56
ag15
aS' 9:00 AM'
p153
aI9
aI0
aI11
aI45
aNaNaNaNaNaNaNag4
aa(lp154
S'SCM479'
p155
aI72346
aI0
aI56
ag47
aS' 9:00 AM'
p156
aI9
aI0
aI11
aI45
aNaNaNaNaNaNaNag4
aa(lp157
S'SCM479'
p158
aI72347
aI0
aI56
ag66
aS' 9:00 AM'
p159
aI9
aI0
aI11
aI45
aNaNaNaNaNaNaNag4
aa(lp160
S'SCM493'
p161
aI72348
aI38
aI40
ag3
aNaNaNaNaNaNaNaNaNaNaNaNag4
aa(lp162
S'SCM499'
p163
aI72349
aI40
aI40
ag3
aNaNaNaNaNaNaNaNaNaNaNaNag17
aa(lp164
S'SCM502'
p165
aI72352
aI9
aI50
ag87
aS' 6:00 PM'
p166
aI18
aI0
aI22
aI0
aNaNaNaNaNaNaNag4
aa(lp167
S'SCM502'
p168
aI72351
aI39
aI50
aS'Th'
p169
aS' 6:00 PM'
p170
aI18
aI0
aI22
aI0
aNaNaNaNaNaNaNag4
aa(lp171
S'SCM502'
p172
aI82071
aI30
aI30
aS'M W'
p173
aS' 1:30 PM'
p174
aI13
aI30
aI16
aI0
aNaNaNaNaNaNaNag17
aa(lp175
S'SCM502'
p176
aI73558
aI22
aI55
aS'F Sa'
p177
aS' 8:00 AM'
p178
aI8
aI0
aI17
aI0
aNaNaNaNaNaNaNag4
aa(lp179
S'SCM502'
p180
aI72353
aI52
aI52
aS'M W'
p181
aS' 8:00 AM'
p182
aI8
aI0
aI10
aI5
aNaNaNaNaNaNaNag4
aa(lp183
S'SCM502'
p184
aI72354
aI52
aI52
aS'M W'
p185
aS'10:20 AM'
p186
aI10
aI20
aI12
aI25
aNaNaNaNaNaNaNag4
aa(lp187
S'SCM502'
p188
aI77825
aI60
aI60
aS'T Th'
p189
aS' 1:30 PM'
p190
aI13
aI30
aI16
aI0
aNaNaNaNaNaNaNag4
aa(lp191
S'SCM515'
p192
aI82075
aI30
aI30
aS'M W'
p193
aS' 1:30 PM'
p194
aI13
aI30
aI16
aI0
aNaNaNaNaNaNaNag17
aa(lp195
S'SCM516'
p196
aI80343
aI60
aI60
aS'T Th'
p197
aS' 1:30 PM'
p198
aI13
aI30
aI14
aI45
aNaNaNaNaNaNaNag17
aa(lp199
S'SCM516'
p200
aI84097
aI60
aI60
aS'T Th'
p201
aS'11:00 AM'
p202
aI11
aI0
aI12
aI15
aNaNaNaNaNaNaNag17
aa(lp203
S'SCM516'
p204
aI90454
aI60
aI60
ag3
aNaNaNaNaNaNaNaNaNaNaNaNag17
aa(lp205
S'SCM517'
p206
aI90455
aI60
aI60
aS'M W'
p207
aS'11:00 AM'
p208
aI11
aI0
aI12
aI15
aNaNaNaNaNaNaNag17
aa(lp209
S'SCM517'
p210
aI90456
aI60
aI60
aS'M W'
p211
aS' 1:30 PM'
p212
aI13
aI30
aI14
aI45
aNaNaNaNaNaNaNag17
aa(lp213
S'SCM517'
p214
aI90457
aI60
aI60
ag3
aNaNaNaNaNaNaNaNaNaNaNaNag17
aa(lp215
S'SCM518'
p216
aI80345
aI60
aI60
aS'T Th'
p217
aS'11:00 AM'
p218
aI11
aI0
aI12
aI15
aNaNaNaNaNaNaNag17
aa(lp219
S'SCM518'
p220
aI84100
aI60
aI60
aS'T Th'
p221
aS' 1:30 PM'
p222
aI13
aI30
aI14
aI45
aNaNaNaNaNaNaNag17
aa(lp223
S'SCM518'
p224
aI90453
aI60
aI60
ag3
aNaNaNaNaNaNaNaNaNaNaNaNag17
aa(lp225
S'SCM519'
p226
aI90450
aI50
aI50
ag3
aNaNaNaNaNaNaNaNaNaNaNaNag17
aa(lp227
S'SCM520'
p228
aI78070
aI63
aI63
ag3
aNaNaNaNaNaNaNaNaNaNaNaNag4
aa(lp229
S'SCM521'
p230
aI78071
aI63
aI63
ag3
aNaNaNaNaNaNaNaNaNaNaNaNag4
aa(lp231
S'SCM532'
p232
aI90458
aI30
aI30
ag3
aNaNaNaNaNaNaNaNaNaNaNaNag17
aa(lp233
S'SCM541'
p234
aI72355
aI48
aI48
ag3
aNaNaNaNaNaNaNaNaNaNaNaNag4
aa(lp235
S'SCM551'
p236
aI77253
aI39
aI45
aS'T Th'
p237
aS' 3:40 PM'
p238
aI15
aI40
aI17
aI45
aNaNaNaNaNaNaNag4
aa(lp239
S'SCM581'
p240
aI78069
aI63
aI63
ag3
aNaNaNaNaNaNaNaNaNaNaNaNag4
aa(lp241
S'SCM587'
p242
aI77662
aI44
aI45
ag87
aS' 3:40 PM'
p243
aI15
aI40
aI17
aI45
aNaNaNaNaNaNaNag4
aa(lp244
S'SCM591'
p245
aI84619
aI5
aI5
ag15
aS' 4:30 PM'
p246
aI16
aI30
aI19
aI15
aNaNaNaNaNaNaNag17
aa(lp247
S'SCM591'
p248
aI91219
aI100
aI100
aS'M T W Th F Sa Su'
p249
aS' 8:00 AM'
p250
aI8
aI0
aI17
aI0
aNaNaNaNaNaNaNag4
aa(lp251
S'SCM792'
p252
aI73680
aI13
aI15
ag66
aS' 7:30 AM'
p253
aI7
aI30
aI8
aI45
aNaNaNaNaNaNaNag17
aa(lp254
S'SCM799'
p255
aI72356
aI37
aI40
ag66
aS'10:30 AM'
p256
aI10
aI30
aI11
aI45
aNaNaNaNaNaNaNag17
aa.