(lp0
(lp1
S'SCN300'
p2
aI79970
aI25
aI40
aS'ONLINE'
p3
aNaNaNaNaNaNaNaNaNaNaNaNaS'Reserved'
p4
aa(lp5
S'SCN301'
p6
aI84151
aI26
aI30
aS'T'
p7
aS'5:30PM'
p8
aI17
aI30
aI19
aI30
aS''
p9
aS'12:00AM'
p10
aNaNaS'12:00AM'
p11
aNaNaS'Not Reserved'
p12
aa(lp13
S'SCN301'
p14
aI91008
aI23
aI30
aS'Th'
p15
aS'6:00PM'
p16
aI18
aI0
aI20
aI0
aS'Sa'
p17
aS'9:00AM'
p18
aI9
aI0
aS'1:30PM'
p19
aI13
aI30
ag12
aa(lp20
S'SCN302'
p21
aI87037
aI13
aI32
ag7
aS'4:30PM'
p22
aI16
aI30
aI17
aI20
aS'Sa'
p23
aS'9:00AM'
p24
aI9
aI0
aS'1:30PM'
p25
aI13
aI30
ag12
aa(lp26
S'SCN400'
p27
aI87578
aI35
aI35
aS'W'
p28
aS'3:00PM'
p29
aI15
aI0
aI16
aI15
ag9
ag9
aNaNag9
aNaNag12
aa(lp30
S'SCN494'
p31
aI90099
aI12
aI15
ag3
aNaNaNaNaNaNaNaNaNaNaNaNag4
aa(lp32
S'SCN494'
p33
aI87044
aI27
aI30
aS'Th'
p34
aS'4:30PM'
p35
aI16
aI30
aI17
aI50
aS'Sa'
p36
aS'9:00AM'
p37
aI9
aI0
aS'1:30PM'
p38
aI13
aI30
ag12
aa.