(lp0
(lp1
S'SEC584'
p2
aI80582
aI30
aI30
aS'ONLINE'
p3
aNaNaNaNaNaNaNaNaNaNaNaNaS'Not Reserved'
p4
aa(lp5
S'SEC588'
p6
aI80144
aI18
aI30
aS'W'
p7
aS' 6:00 PM'
p8
aI18
aI0
aI20
aI45
aNaNaNaNaNaNaNag4
aa(lp9
S'SEC592'
p10
aI80584
aI30
aI30
ag3
aNaNaNaNaNaNaNaNaNaNaNaNag4
aa(lp11
S'SEC593'
p12
aI80581
aI30
aI30
ag3
aNaNaNaNaNaNaNaNaNaNaNaNag4
aa(lp13
S'SEC595'
p14
aI80583
aI30
aI30
ag3
aNaNaNaNaNaNaNaNaNaNaNaNag4
aa(lp15
S'SEC598'
p16
aI89702
aI9
aI25
aS'T Th'
p17
aS' 4:30 PM'
p18
aI16
aI30
aI17
aI45
aNaNaNaNaNaNaNag4
aa.