(lp0
(lp1
S'SED111'
p2
aI75126
aI28
aI35
aS'M W'
p3
aS' 3:00 PM'
p4
aI15
aI0
aI16
aI15
aNaNaNaNaNaNaNaS'Not Reserved'
p5
aa(lp6
S'SED482'
p7
aI73738
aI33
aI35
aS'M'
p8
aS' 4:30 PM'
p9
aI16
aI30
aI19
aI15
aNaNaNaNaNaNaNag5
aa(lp10
S'SED482'
p11
aI77459
aI17
aI35
aS'T'
p12
aS' 4:30 PM'
p13
aI16
aI30
aI19
aI15
aNaNaNaNaNaNaNag5
aa(lp14
S'SED501'
p15
aI87115
aI32
aI32
ag8
aS' 4:30 PM'
p16
aI16
aI30
aI20
aI45
aNaNaNaNaNaNaNaS'Reserved'
p17
aa(lp18
S'SED501'
p19
aI74426
aI34
aI40
ag12
aS'4:30PM'
p20
aI16
aI30
aI20
aI45
aS''
p21
aS'12:00AM'
p22
aNaNaS'12:00AM'
p23
aNaNag17
aa(lp24
S'SED501'
p25
aI72358
aI29
aI30
aS'W'
p26
aS'4:30PM'
p27
aI16
aI30
aI20
aI45
ag21
aS'12:00AM'
p28
aNaNaS'12:00AM'
p29
aNaNag17
aa(lp30
S'SED501'
p31
aI75164
aI24
aI24
ag8
aS'4:30PM'
p32
aI16
aI30
aI19
aI15
ag21
aS'12:00AM'
p33
aNaNaS'12:00AM'
p34
aNaNag17
aa(lp35
S'SED501'
p36
aI75171
aI24
aI24
ag12
aS'4:30PM'
p37
aI16
aI30
aI19
aI15
ag21
aS'12:00AM'
p38
aNaNaS'12:00AM'
p39
aNaNag17
aa(lp40
S'SED501'
p41
aI75165
aI24
aI24
aS'Th'
p42
aS'4:30PM'
p43
aI16
aI30
aI19
aI15
ag21
aS'12:00AM'
p44
aNaNaS'12:00AM'
p45
aNaNag17
aa(lp46
S'SED511'
p47
aI81325
aI24
aI24
ag8
aS'7:30PM'
p48
aI19
aI30
aI21
aI0
ag21
aS'12:00AM'
p49
aNaNaS'12:00AM'
p50
aNaNag17
aa(lp51
S'SED512'
p52
aI81326
aI24
aI24
aS'Th'
p53
aS'4:30PM'
p54
aI16
aI30
aI19
aI15
ag21
aS'12:00AM'
p55
aNaNaS'12:00AM'
p56
aNaNag17
aa(lp57
S'SED513'
p58
aI81327
aI24
aI24
ag12
aS'7:30PM'
p59
aI19
aI30
aI21
aI0
ag21
aS'12:00AM'
p60
aNaNaS'12:00AM'
p61
aNaNag17
aa(lp62
S'SED533'
p63
aI75151
aI28
aI35
ag12
aS' 7:30 PM'
p64
aI19
aI30
aI22
aI15
aNaNaNaNaNaNaNag17
aa(lp65
S'SED544'
p66
aI87118
aI29
aI32
ag26
aS' 4:30 PM'
p67
aI16
aI30
aI22
aI15
aNaNaNaNaNaNaNag17
aa(lp68
S'SED544'
p69
aI75152
aI33
aI40
aS'Th'
p70
aS' 4:30 PM'
p71
aI16
aI30
aI22
aI0
aNaNaNaNaNaNaNag17
aa(lp72
S'SED544'
p73
aI75166
aI29
aI30
ag8
aS' 4:30 PM'
p74
aI16
aI30
aI22
aI0
aNaNaNaNaNaNaNag17
aa(lp75
S'SED544'
p76
aI75167
aI24
aI24
ag8
aS'4:30PM'
p77
aI16
aI30
aI19
aI15
ag21
aS'12:00AM'
p78
aNaNaS'12:00AM'
p79
aNaNag17
aa(lp80
S'SED544'
p81
aI75169
aI24
aI24
ag12
aS'4:30PM'
p82
aI16
aI30
aI19
aI15
ag21
aS'12:00AM'
p83
aNaNaS'12:00AM'
p84
aNaNag17
aa(lp85
S'SED544'
p86
aI75168
aI24
aI24
aS'Th'
p87
aS'7:30PM'
p88
aI19
aI30
aI21
aI0
ag21
aS'12:00AM'
p89
aNaNaS'12:00AM'
p90
aNaNag17
aa(lp91
S'SED560'
p92
aI76751
aI16
aI20
ag12
aS' 1:30 PM'
p93
aI13
aI30
aI16
aI20
aNaNaNaNaNaNaNag17
aa(lp94
S'SED561'
p95
aI76750
aI14
aI20
ag12
aS'12:00 PM'
p96
aI12
aI0
aI14
aI50
aNaNaNaNaNaNaNag17
aa(lp97
S'SED567'
p98
aI87729
aI32
aI32
ag8
aS'9:00PM'
p99
aI21
aI0
aI22
aI0
ag21
ag21
aNaNag21
aNaNag17
aa(lp100
S'SED567'
p101
aI87280
aI35
aI40
ag12
aS'9:00PM'
p102
aI21
aI0
aI22
aI0
ag12
aS'9:00PM'
p103
aI21
aI0
aS'10:00PM'
p104
aI22
aI0
ag17
aa(lp105
S'SED567'
p106
aI87357
aI29
aI30
ag26
aS'9:00PM'
p107
aI21
aI0
aI22
aI0
ag26
aS'9:00PM'
p108
aI21
aI0
aS'10:00PM'
p109
aI22
aI0
ag17
aa(lp110
S'SED576'
p111
aI74375
aI24
aI35
aS'Th'
p112
aS'9:00PM'
p113
aI21
aI0
aI22
aI0
aS'Th'
p114
aS'9:00PM'
p115
aI21
aI0
aS'10:00PM'
p116
aI22
aI0
ag17
aa(lp117
S'SED578'
p118
aI74971
aI26
aI30
aS'M T W Th F'
p119
aS' 8:00 AM'
p120
aI8
aI0
aI16
aI0
aNaNaNaNaNaNaNag17
aa(lp121
S'SED579'
p122
aI76296
aI16
aI24
aS'ONLINE'
p123
aNaNaNaNaNaNaNaNaNaNaNaNag17
aa(lp124
S'SED579'
p125
aI73118
aI21
aI24
ag123
aNaNaNaNaNaNaNaNaNaNaNaNag17
aa(lp126
S'SED579'
p127
aI76295
aI18
aI24
ag123
aNaNaNaNaNaNaNaNaNaNaNaNag17
aa(lp128
S'SED579'
p129
aI76292
aI24
aI24
ag123
aNaNaNaNaNaNaNaNaNaNaNaNag17
aa(lp130
S'SED579'
p131
aI76293
aI24
aI24
ag123
aNaNaNaNaNaNaNaNaNaNaNaNag17
aa(lp132
S'SED579'
p133
aI76294
aI24
aI24
ag123
aNaNaNaNaNaNaNaNaNaNaNaNag17
aa(lp134
S'SED593'
p135
aI74374
aI15
aI35
ag26
aS' 4:30 PM'
p136
aI16
aI30
aI19
aI15
aNaNaNaNaNaNaNag17
aa(lp137
S'SED593'
p138
aI72908
aI25
aI30
ag26
aS' 4:30 PM'
p139
aI16
aI30
aI19
aI15
aNaNaNaNaNaNaNag17
aa(lp140
S'SED593'
p141
aI75267
aI16
aI24
ag8
aS'7:30PM'
p142
aI19
aI30
aI21
aI0
ag21
aS'12:00AM'
p143
aNaNaS'12:00AM'
p144
aNaNag17
aa(lp145
S'SED593'
p146
aI75268
aI21
aI24
aS'Th'
p147
aS'7:30PM'
p148
aI19
aI30
aI21
aI0
ag21
aS'12:00AM'
p149
aNaNaS'12:00AM'
p150
aNaNag17
aa(lp151
S'SED593'
p152
aI75269
aI18
aI24
ag12
aS'7:30PM'
p153
aI19
aI30
aI21
aI0
ag21
aS'12:00AM'
p154
aNaNaS'12:00AM'
p155
aNaNag17
aa.