(lp0
(lp1
S'SER215'
p2
aI77731
aI39
aI78
aS'T Th'
p3
aS' 4:30 PM'
p4
aI16
aI30
aI17
aI45
aNaNaNaNaNaNaNaS'Not Reserved'
p5
aa(lp6
S'SER215'
p7
aI84738
aI35
aI81
aS'T Th'
p8
aS' 9:00 AM'
p9
aI9
aI0
aI10
aI15
aNaNaNaNaNaNaNag5
aa(lp10
S'SER216'
p11
aI86843
aI49
aI50
aS'T Th'
p12
aS' 6:00 PM'
p13
aI18
aI0
aI19
aI15
aNaNaNaNaNaNaNag5
aa(lp14
S'SER221'
p15
aI79454
aI17
aI100
aS'T Th'
p16
aS'10:30 AM'
p17
aI10
aI30
aI11
aI45
aNaNaNaNaNaNaNag5
aa(lp18
S'SER222'
p19
aI86846
aI39
aI50
aS'T Th'
p20
aS'12:00 PM'
p21
aI12
aI0
aI13
aI15
aNaNaNaNaNaNaNag5
aa(lp22
S'SER232'
p23
aI86848
aI61
aI100
aS'T Th'
p24
aS' 4:30 PM'
p25
aI16
aI30
aI17
aI45
aNaNaNaNaNaNaNag5
aa(lp26
S'SER234'
p27
aI90307
aI42
aI45
aS'M W'
p28
aS' 4:30 PM'
p29
aI16
aI30
aI17
aI45
aNaNaNaNaNaNaNag5
aa(lp30
S'SER321'
p31
aI77795
aI1
aI72
aS'T Th'
p32
aS' 9:00 AM'
p33
aI9
aI0
aI10
aI15
aNaNaNaNaNaNaNag5
aa(lp34
S'SER401'
p35
aI79486
aI28
aI54
aS'T Th'
p36
aS' 3:00 PM'
p37
aI15
aI0
aI16
aI15
aNaNaNaNaNaNaNag5
aa(lp38
S'SER421'
p39
aI79490
aI5
aI23
aS'M W'
p40
aS' 3:00 PM'
p41
aI15
aI0
aI16
aI15
aNaNaNaNaNaNaNag5
aa(lp42
S'SER431'
p43
aI83530
aI19
aI31
aS'T Th'
p44
aS'12:00 PM'
p45
aI12
aI0
aI13
aI15
aNaNaNaNaNaNaNag5
aa(lp46
S'SER501'
p47
aI79459
aI67
aI72
aS'T Th'
p48
aS' 4:30 PM'
p49
aI16
aI30
aI17
aI45
aNaNaNaNaNaNaNag5
aa(lp50
S'SER515'
p51
aI77793
aI64
aI70
aS'M'
p52
aS' 4:30 PM'
p53
aI16
aI30
aI19
aI15
aNaNaNaNaNaNaNag5
aa(lp54
S'SER517'
p55
aI77794
aI22
aI40
aS'W'
p56
aS' 4:30 PM'
p57
aI16
aI30
aI19
aI15
aNaNaNaNaNaNaNag5
aa(lp58
S'SER520'
p59
aI78227
aI0
aI24
aS'T Th'
p60
aS' 9:00 AM'
p61
aI9
aI0
aI10
aI15
aNaNaNaNaNaNaNaS'Reserved'
p62
aa(lp63
S'SER590'
p64
aI89915
aI30
aI30
aS'ONLINE'
p65
aNaNaNaNaNaNaNaNaNaNaNaNag5
aa(lp66
S'SER593'
p67
aI89916
aI23
aI30
ag65
aNaNaNaNaNaNaNaNaNaNaNaNag5
aa(lp68
S'SER594'
p69
aI90007
aI22
aI30
aS'T Th'
p70
aS' 3:00 PM'
p71
aI15
aI0
aI16
aI15
aNaNaNaNaNaNaNag5
aa(lp72
S'SER594'
p73
aI90009
aI15
aI48
aS'T Th'
p74
aS' 1:30 PM'
p75
aI13
aI30
aI14
aI45
aNaNaNaNaNaNaNag5
aa(lp76
S'SER598'
p77
aI90306
aI19
aI40
aS'T Th'
p78
aS'12:00 PM'
p79
aI12
aI0
aI13
aI15
aNaNaNaNaNaNaNag5
aa(lp80
S'SER599'
p81
aI89917
aI26
aI30
ag65
aNaNaNaNaNaNaNaNaNaNaNaNag5
aa.