(lp0
(lp1
S'SES100'
p2
aI72360
aI110
aI160
aS'M W F'
p3
aS' 9:00 AM'
p4
aI9
aI0
aI9
aI50
aNaNaNaNaNaNaNaS'Not Reserved'
p5
aa(lp6
S'SES106'
p7
aI79884
aI116
aI200
aS'ONLINE'
p8
aNaNaNaNaNaNaNaNaNaNaNaNag5
aa(lp9
S'SES121'
p10
aI72799
aI80
aI130
aS'T Th'
p11
aS' 9:00 AM'
p12
aI9
aI0
aI10
aI15
aNaNaNaNaNaNaNag5
aa(lp13
S'SES123'
p14
aI80643
aI12
aI30
aS'M'
p15
aS'1:30PM'
p16
aI13
aI30
aI15
aI30
ag15
aS'7:30PM'
p17
aI19
aI30
aS'9:30PM'
p18
aI21
aI30
aS'Reserved'
p19
aa(lp20
S'SES123'
p21
aI73971
aI21
aI30
aS'W'
p22
aS'1:30PM'
p23
aI13
aI30
aI15
aI30
ag22
aS'7:30PM'
p24
aI19
aI30
aS'9:30PM'
p25
aI21
aI30
ag19
aa(lp26
S'SES123'
p27
aI83502
aI23
aI30
aS'Th'
p28
aS'1:30PM'
p29
aI13
aI30
aI15
aI30
aS'Th'
p30
aS'7:30PM'
p31
aI19
aI30
aS'9:30PM'
p32
aI21
aI30
ag19
aa(lp33
S'SES191'
p34
aI77644
aI9
aI19
aS'T'
p35
aS'11:00 AM'
p36
aI11
aI0
aI11
aI50
aNaNaNaNaNaNaNag19
aa(lp37
S'SES191'
p38
aI77810
aI19
aI19
ag35
aS' 1:30 PM'
p39
aI13
aI30
aI14
aI20
aNaNaNaNaNaNaNag19
aa(lp40
S'SES191'
p41
aI82837
aI19
aI19
ag35
aS' 1:30 PM'
p42
aI13
aI30
aI14
aI20
aNaNaNaNaNaNaNag19
aa(lp43
S'SES191'
p44
aI77811
aI19
aI19
ag22
aS'12:00 PM'
p45
aI12
aI0
aI12
aI50
aNaNaNaNaNaNaNag19
aa(lp46
S'SES191'
p47
aI78084
aI19
aI19
ag22
aS'12:00 PM'
p48
aI12
aI0
aI12
aI50
aNaNaNaNaNaNaNag19
aa(lp49
S'SES191'
p50
aI80897
aI10
aI30
aS'Sa'
p51
aS' 8:00 AM'
p52
aI8
aI0
aI8
aI50
aNaNaNaNaNaNaNag5
aa(lp53
S'SES194'
p54
aI91617
aI79
aI80
ag8
aNaNaNaNaNaNaNaNaNaNaNaNag19
aa(lp55
S'SES330'
p56
aI76252
aI19
aI20
aS'M W'
p57
aS' 9:00 AM'
p58
aI9
aI0
aI12
aI0
aNaNaNaNaNaNaNag5
aa(lp59
S'SES350'
p60
aI77645
aI15
aI30
aS'T Th'
p61
aS'1:30PM'
p62
aI13
aI30
aI14
aI45
aS'Th'
p63
aS'2:50PM'
p64
aI14
aI50
aS'4:00PM'
p65
aI16
aI0
ag5
aa(lp66
S'SES410'
p67
aI74140
aI12
aI30
aS'T Th'
p68
aS'10:30 AM'
p69
aI10
aI30
aI11
aI45
aNaNaNaNaNaNaNag19
aa(lp70
S'SES494'
p71
aI91380
aI2
aI5
aS'Th'
p72
aS' 1:30 PM'
p73
aI13
aI30
aI14
aI30
aNaNaNaNaNaNaNag5
aa(lp74
S'SES494'
p75
aI91419
aI5
aI5
ag22
aS'12:00 PM'
p76
aI12
aI0
aI14
aI30
aNaNaNaNaNaNaNag5
aa(lp77
S'SES494'
p78
aI91588
aI10
aI10
aS'Th'
p79
aS' 2:00 PM'
p80
aI14
aI0
aI16
aI0
aNaNaNaNaNaNaNag5
aa(lp81
S'SES494'
p82
aI91645
aI9
aI10
aS'T Th'
p83
aS' 3:00 PM'
p84
aI15
aI0
aI16
aI15
aNaNaNaNaNaNaNag5
aa(lp85
S'SES494'
p86
aI91650
aI5
aI5
aS'F'
p87
aS' 9:00 AM'
p88
aI9
aI0
aI12
aI0
aNaNaNaNaNaNaNag5
aa(lp89
S'SES591'
p90
aI91378
aI7
aI10
aS'Th'
p91
aS' 1:30 PM'
p92
aI13
aI30
aI14
aI30
aNaNaNaNaNaNaNag5
aa(lp93
S'SES598'
p94
aI91420
aI14
aI15
ag22
aS'12:00 PM'
p95
aI12
aI0
aI14
aI30
aNaNaNaNaNaNaNag5
aa(lp96
S'SES598'
p97
aI91646
aI12
aI15
aS'T Th'
p98
aS' 3:00 PM'
p99
aI15
aI0
aI16
aI15
aNaNaNaNaNaNaNag5
aa(lp100
S'SES598'
p101
aI91651
aI15
aI15
ag87
aS' 9:00 AM'
p102
aI9
aI0
aI12
aI0
aNaNaNaNaNaNaNag5
aa.