(lp0
(lp1
S'SHS101'
p2
aI81022
aI19
aI28
aS'M T W Th'
p3
aS' 9:00 AM'
p4
aI9
aI0
aI9
aI50
aNaNaNaNaNaNaNaS'Not Reserved'
p5
aa(lp6
S'SHS101'
p7
aI90804
aI8
aI28
aS'M W'
p8
aS' 6:30 PM'
p9
aI18
aI30
aI20
aI20
aNaNaNaNaNaNaNag5
aa(lp10
S'SHS101'
p11
aI81023
aI14
aI28
aS'M T W Th'
p12
aS'12:00 PM'
p13
aI12
aI0
aI12
aI50
aNaNaNaNaNaNaNag5
aa(lp14
S'SHS101'
p15
aI81024
aI17
aI28
aS'M T W Th'
p16
aS'10:30 AM'
p17
aI10
aI30
aI11
aI20
aNaNaNaNaNaNaNag5
aa(lp18
S'SHS101'
p19
aI81025
aI21
aI28
aS'M T W Th'
p20
aS' 3:00 PM'
p21
aI15
aI0
aI15
aI50
aNaNaNaNaNaNaNag5
aa(lp22
S'SHS101'
p23
aI81026
aI4
aI28
aS'M W'
p24
aS' 4:30 PM'
p25
aI16
aI30
aI18
aI20
aNaNaNaNaNaNaNag5
aa(lp26
S'SHS101'
p27
aI81027
aI11
aI24
aS'M W'
p28
aS' 5:00 PM'
p29
aI17
aI0
aI18
aI50
aNaNaNaNaNaNaNag5
aa(lp30
S'SHS102'
p31
aI81029
aI1
aI25
aS'M T W Th'
p32
aS' 1:30 PM'
p33
aI13
aI30
aI14
aI20
aNaNaNaNaNaNaNag5
aa(lp34
S'SHS102'
p35
aI81030
aI0
aI26
aS'M T W Th'
p36
aS'10:30 AM'
p37
aI10
aI30
aI11
aI20
aNaNaNaNaNaNaNaS'Reserved'
p38
aa(lp39
S'SHS102'
p40
aI83617
aI16
aI26
aS'T Th'
p41
aS' 4:30 PM'
p42
aI16
aI30
aI18
aI20
aNaNaNaNaNaNaNag5
aa(lp43
S'SHS105'
p44
aI81032
aI79
aI125
aS'M W'
p45
aS' 3:00 PM'
p46
aI15
aI0
aI16
aI15
aNaNaNaNaNaNaNag5
aa(lp47
S'SHS201'
p48
aI81033
aI0
aI24
aS'T Th'
p49
aS' 1:30 PM'
p50
aI13
aI30
aI15
aI20
aNaNaNaNaNaNaNag38
aa(lp51
S'SHS201'
p52
aI81034
aI7
aI24
aS'M W'
p53
aS' 4:30 PM'
p54
aI16
aI30
aI18
aI20
aNaNaNaNaNaNaNag5
aa(lp55
S'SHS201'
p56
aI81035
aI7
aI24
aS'M W'
p57
aS' 3:00 PM'
p58
aI15
aI0
aI16
aI50
aNaNaNaNaNaNaNag5
aa(lp59
S'SHS201'
p60
aI81036
aI15
aI24
aS'M T W Th'
p61
aS' 9:00 AM'
p62
aI9
aI0
aI9
aI50
aNaNaNaNaNaNaNag5
aa(lp63
S'SHS202'
p64
aI81037
aI7
aI20
aS'M T W Th'
p65
aS' 9:00 AM'
p66
aI9
aI0
aI9
aI50
aNaNaNaNaNaNaNag5
aa(lp67
S'SHS202'
p68
aI90805
aI0
aI20
aS'M T W Th'
p69
aS'10:30 AM'
p70
aI10
aI30
aI11
aI20
aNaNaNaNaNaNaNag38
aa(lp71
S'SHS202'
p72
aI81038
aI5
aI20
aS'M W'
p73
aS' 1:30 PM'
p74
aI13
aI30
aI15
aI20
aNaNaNaNaNaNaNag5
aa(lp75
S'SHS250'
p76
aI81039
aI1
aI80
aS'M W'
p77
aS'12:00 PM'
p78
aI12
aI0
aI13
aI15
aNaNaNaNaNaNaNag5
aa(lp79
S'SHS298'
p80
aI81044
aI10
aI10
aS'ONLINE'
p81
aNaNaNaNaNaNaNaNaNaNaNaNag38
aa(lp82
S'SHS310'
p83
aI81045
aI12
aI90
aS'M W F'
p84
aS'10:30 AM'
p85
aI10
aI30
aI11
aI20
aNaNaNaNaNaNaNag5
aa(lp86
S'SHS311'
p87
aI81046
aI7
aI135
aS'M W F'
p88
aS' 9:00 AM'
p89
aI9
aI0
aI9
aI50
aNaNaNaNaNaNaNag5
aa(lp90
S'SHS367'
p91
aI81047
aI59
aI135
aS'M W F'
p92
aS' 1:30 PM'
p93
aI13
aI30
aI14
aI20
aNaNaNaNaNaNaNag5
aa(lp94
S'SHS402'
p95
aI81048
aI47
aI80
aS'T Th'
p96
aS' 1:30 PM'
p97
aI13
aI30
aI14
aI45
aNaNaNaNaNaNaNag5
aa(lp98
S'SHS461'
p99
aI84216
aI11
aI16
aS'F'
p100
aS'10:00 AM'
p101
aI10
aI0
aI10
aI50
aNaNaNaNaNaNaNag5
aa(lp102
S'SHS461'
p103
aI89673
aI6
aI8
ag100
aS' 9:00 AM'
p104
aI9
aI0
aI9
aI50
aNaNaNaNaNaNaNag5
aa(lp105
S'SHS461'
p106
aI89680
aI5
aI8
ag100
aS'11:00 AM'
p107
aI11
aI0
aI23
aI50
aNaNaNaNaNaNaNag5
aa(lp108
S'SHS465'
p109
aI81049
aI1
aI65
aS'T Th'
p110
aS' 3:00 PM'
p111
aI15
aI0
aI16
aI15
aNaNaNaNaNaNaNag5
aa(lp112
S'SHS470'
p113
aI81051
aI0
aI70
aS'M W'
p114
aS' 3:00 PM'
p115
aI15
aI0
aI16
aI15
aNaNaNaNaNaNaNag38
aa(lp116
S'SHS473'
p117
aI81052
aI25
aI30
aS'M'
p118
aS' 4:30 PM'
p119
aI16
aI30
aI19
aI15
aNaNaNaNaNaNaNag5
aa(lp120
S'SHS484'
p121
aI81053
aI24
aI30
ag81
aNaNaNaNaNaNaNaNaNaNaNaNag5
aa(lp122
S'SHS492'
p123
aI81054
aI3
aI5
ag81
aNaNaNaNaNaNaNaNaNaNaNaNag38
aa(lp124
S'SHS493'
p125
aI81055
aI8
aI10
ag81
aNaNaNaNaNaNaNaNaNaNaNaNag38
aa(lp126
S'SHS494'
p127
aI81056
aI9
aI10
ag81
aNaNaNaNaNaNaNaNaNaNaNaNag5
aa(lp128
S'SHS494'
p129
aI81057
aI10
aI10
ag81
aNaNaNaNaNaNaNaNaNaNaNaNag5
aa(lp130
S'SHS496'
p131
aI81058
aI12
aI66
aS'T Th'
p132
aS'12:00 PM'
p133
aI12
aI0
aI13
aI15
aNaNaNaNaNaNaNag5
aa(lp134
S'SHS498'
p135
aI81060
aI20
aI20
aS'W'
p136
aS'11:30 AM'
p137
aI11
aI30
aI13
aI0
aNaNaNaNaNaNaNag5
aa(lp138
S'SHS499'
p139
aI81061
aI15
aI15
ag81
aNaNaNaNaNaNaNaNaNaNaNaNag5
aa(lp140
S'SHS499'
p141
aI81062
aI19
aI20
ag81
aNaNaNaNaNaNaNaNaNaNaNaNag5
aa(lp142
S'SHS500'
p143
aI83572
aI40
aI40
ag81
aNaNaNaNaNaNaNaNaNaNaNaNag38
aa(lp144
S'SHS502'
p145
aI81063
aI18
aI18
aS'T Th'
p146
aS'9:00AM'
p147
aI9
aI0
aI10
aI15
aS'T'
p148
aS'1:30PM'
p149
aI13
aI30
aS'2:45PM'
p150
aI14
aI45
ag5
aa(lp151
S'SHS504'
p152
aI81064
aI18
aI18
aS'T Th'
p153
aS'10:30AM'
p154
aI10
aI30
aI11
aI45
aS'Th'
p155
aS'1:30PM'
p156
aI13
aI30
aS'2:45PM'
p157
aI14
aI45
ag5
aa(lp158
S'SHS512'
p159
aI83571
aI12
aI24
ag148
aS'1:30PM'
p160
aI13
aI30
aI16
aI15
aS''
p161
ag161
aNaNag161
aNaNag5
aa(lp162
S'SHS513'
p163
aI86790
aI15
aI15
aS'T Th'
p164
aS' 3:00 PM'
p165
aI15
aI0
aI16
aI15
aNaNaNaNaNaNaNag5
aa(lp166
S'SHS520'
p167
aI81065
aI10
aI15
aS'T Th'
p168
aS' 9:00 AM'
p169
aI9
aI0
aI10
aI50
aNaNaNaNaNaNaNag5
aa(lp170
S'SHS522'
p171
aI86793
aI6
aI15
aS'T Th'
p172
aS'12:00 PM'
p173
aI12
aI0
aI13
aI15
aNaNaNaNaNaNaNag5
aa(lp174
S'SHS525'
p175
aI86794
aI6
aI15
aS'T Th'
p176
aS' 1:30 PM'
p177
aI13
aI30
aI14
aI45
aNaNaNaNaNaNaNag5
aa(lp178
S'SHS526'
p179
aI86796
aI20
aI20
ag136
aS' 9:00 AM'
p180
aI9
aI0
aI9
aI50
aNaNaNaNaNaNaNag5
aa(lp181
S'SHS538'
p182
aI89213
aI80
aI80
ag100
aS' 1:30 PM'
p183
aI13
aI30
aI14
aI45
aNaNaNaNaNaNaNag5
aa(lp184
S'SHS538'
p185
aI89217
aI80
aI80
ag100
aS' 1:30 PM'
p186
aI13
aI30
aI14
aI45
aNaNaNaNaNaNaNag5
aa(lp187
S'SHS565'
p188
aI81050
aI4
aI5
aS'T Th'
p189
aS' 3:00 PM'
p190
aI15
aI0
aI16
aI15
aNaNaNaNaNaNaNag5
aa(lp191
S'SHS567'
p192
aI83559
aI40
aI40
ag118
aS'1:30PM'
p193
aI13
aI30
aI16
aI15
ag161
ag161
aNaNag161
aNaNag5
aa(lp194
S'SHS570'
p195
aI81066
aI19
aI24
ag148
aS' 1:30 PM'
p196
aI13
aI30
aI16
aI15
aNaNaNaNaNaNaNag5
aa(lp197
S'SHS572'
p198
aI83568
aI40
aI40
ag136
aS'1:30PM'
p199
aI13
aI30
aI16
aI15
ag161
ag161
aNaNag161
aNaNag5
aa(lp200
S'SHS577'
p201
aI81067
aI4
aI20
aS'Th'
p202
aS'1:30PM'
p203
aI13
aI30
aI16
aI15
ag161
ag161
aNaNag161
aNaNag5
aa(lp204
S'SHS580'
p205
aI81069
aI39
aI40
ag81
aNaNaNaNaNaNaNaNaNaNaNaNag5
aa(lp206
S'SHS580'
p207
aI81071
aI4
aI5
ag81
aNaNaNaNaNaNaNaNaNaNaNaNag5
aa(lp208
S'SHS580'
p209
aI81072
aI12
aI12
ag81
aNaNaNaNaNaNaNaNaNaNaNaNag5
aa(lp210
S'SHS580'
p211
aI81073
aI10
aI10
ag81
aNaNaNaNaNaNaNaNaNaNaNaNag5
aa(lp212
S'SHS580'
p213
aI81074
aI10
aI10
aS'M W'
p214
aS'8:30AM'
p215
aI8
aI30
aI11
aI45
aS'Th'
p216
aS'12:00PM'
p217
aI12
aI0
aS'1:00PM'
p218
aI13
aI0
ag5
aa(lp219
S'SHS580'
p220
aI81075
aI14
aI15
ag81
aNaNaNaNaNaNaNaNaNaNaNaNag5
aa(lp221
S'SHS580'
p222
aI81076
aI15
aI15
ag81
aNaNaNaNaNaNaNaNaNaNaNaNag5
aa(lp223
S'SHS580'
p224
aI81077
aI15
aI15
ag81
aNaNaNaNaNaNaNaNaNaNaNaNag5
aa(lp225
S'SHS580'
p226
aI81078
aI10
aI10
aS'T Th'
p227
aS'8:30AM'
p228
aI8
aI30
aI11
aI45
aS'Th'
p229
aS'12:00PM'
p230
aI12
aI0
aS'1:00PM'
p231
aI13
aI0
ag5
aa(lp232
S'SHS580'
p233
aI81079
aI15
aI15
ag81
aNaNaNaNaNaNaNaNaNaNaNaNag5
aa(lp234
S'SHS580'
p235
aI81080
aI10
aI10
ag81
aNaNaNaNaNaNaNaNaNaNaNaNag5
aa(lp236
S'SHS580'
p237
aI81081
aI10
aI10
ag81
aNaNaNaNaNaNaNaNaNaNaNaNag5
aa(lp238
S'SHS580'
p239
aI81082
aI10
aI10
ag81
aNaNaNaNaNaNaNaNaNaNaNaNag5
aa(lp240
S'SHS580'
p241
aI84200
aI10
aI10
ag81
aNaNaNaNaNaNaNaNaNaNaNaNag5
aa(lp242
S'SHS580'
p243
aI84342
aI10
aI10
ag81
aNaNaNaNaNaNaNaNaNaNaNaNag5
aa(lp244
S'SHS584'
p245
aI81083
aI15
aI15
ag81
aNaNaNaNaNaNaNaNaNaNaNaNag5
aa(lp246
S'SHS584'
p247
aI81084
aI11
aI15
ag81
aNaNaNaNaNaNaNaNaNaNaNaNag5
aa(lp248
S'SHS584'
p249
aI81085
aI15
aI15
ag81
aNaNaNaNaNaNaNaNaNaNaNaNag5
aa(lp250
S'SHS584'
p251
aI81086
aI24
aI25
ag81
aNaNaNaNaNaNaNaNaNaNaNaNag5
aa(lp252
S'SHS584'
p253
aI81087
aI27
aI30
ag81
aNaNaNaNaNaNaNaNaNaNaNaNag5
aa(lp254
S'SHS584'
p255
aI84201
aI15
aI15
ag81
aNaNaNaNaNaNaNaNaNaNaNaNag5
aa(lp256
S'SHS585'
p257
aI82790
aI40
aI40
ag118
aS' 1:30 PM'
p258
aI13
aI30
aI16
aI15
aNaNaNaNaNaNaNag5
aa(lp259
S'SHS587'
p260
aI83566
aI40
aI40
ag136
aS'1:30PM'
p261
aI13
aI30
aI16
aI15
ag161
ag161
aNaNag161
aNaNag5
aa(lp262
S'SHS588'
p263
aI84212
aI2
aI12
ag118
aS' 4:30 PM'
p264
aI16
aI30
aI19
aI15
aNaNaNaNaNaNaNag5
aa(lp265
S'SHS590'
p266
aI81088
aI10
aI10
ag81
aNaNaNaNaNaNaNaNaNaNaNaNag5
aa(lp267
S'SHS590'
p268
aI91107
aI3
aI5
ag81
aNaNaNaNaNaNaNaNaNaNaNaNag5
aa(lp269
S'SHS590'
p270
aI81089
aI9
aI15
ag81
aNaNaNaNaNaNaNaNaNaNaNaNag5
aa(lp271
S'SHS592'
p272
aI81091
aI10
aI10
ag81
aNaNaNaNaNaNaNaNaNaNaNaNag5
aa(lp273
S'SHS593'
p274
aI81092
aI10
aI10
ag81
aNaNaNaNaNaNaNaNaNaNaNaNag5
aa(lp275
S'SHS595'
p276
aI81093
aI10
aI10
ag81
aNaNaNaNaNaNaNaNaNaNaNaNag5
aa(lp277
S'SHS596'
p278
aI81059
aI0
aI4
aS'T Th'
p279
aS'12:00 PM'
p280
aI12
aI0
aI13
aI15
aNaNaNaNaNaNaNag38
aa(lp281
S'SHS598'
p282
aI81094
aI10
aI10
ag81
aNaNaNaNaNaNaNaNaNaNaNaNag5
aa(lp283
S'SHS598'
p284
aI91476
aI10
aI20
ag118
aS'10:30 AM'
p285
aI10
aI30
aI13
aI15
aNaNaNaNaNaNaNag5
aa(lp286
S'SHS598'
p287
aI82800
aI10
aI10
ag81
aNaNaNaNaNaNaNaNaNaNaNaNag5
aa(lp288
S'SHS599'
p289
aI81095
aI20
aI20
ag81
aNaNaNaNaNaNaNaNaNaNaNaNag5
aa(lp290
S'SHS700'
p291
aI81096
aI10
aI10
ag81
aNaNaNaNaNaNaNaNaNaNaNaNag5
aa(lp292
S'SHS780'
p293
aI81097
aI5
aI5
ag81
aNaNaNaNaNaNaNaNaNaNaNaNag5
aa(lp294
S'SHS790'
p295
aI81099
aI14
aI15
ag136
aS' 4:30 PM'
p296
aI16
aI30
aI18
aI30
aNaNaNaNaNaNaNag5
aa(lp297
S'SHS790'
p298
aI81100
aI17
aI20
ag136
aS' 4:30 PM'
p299
aI16
aI30
aI18
aI30
aNaNaNaNaNaNaNag5
aa(lp300
S'SHS790'
p301
aI81101
aI9
aI10
ag136
aS' 4:30 PM'
p302
aI16
aI30
aI18
aI30
aNaNaNaNaNaNaNag5
aa(lp303
S'SHS792'
p304
aI81102
aI17
aI20
ag81
aNaNaNaNaNaNaNaNaNaNaNaNag5
aa(lp305
S'SHS793'
p306
aI81103
aI20
aI20
ag81
aNaNaNaNaNaNaNaNaNaNaNaNag5
aa(lp307
S'SHS795'
p308
aI81104
aI10
aI10
ag81
aNaNaNaNaNaNaNaNaNaNaNaNag5
aa(lp309
S'SHS799'
p310
aI81105
aI9
aI10
ag81
aNaNaNaNaNaNaNaNaNaNaNaNag5
aa.