(lp0
(lp1
S'SLV440'
p2
aI89789
aI20
aI30
aS'T Th'
p3
aS' 3:00 PM'
p4
aI15
aI0
aI16
aI15
aNaNaNaNaNaNaNaS'Not Reserved'
p5
aa(lp6
S'SLV484'
p7
aI90060
aI3
aI3
aS'ONLINE'
p8
aNaNaNaNaNaNaNaNaNaNaNaNag5
aa(lp9
S'SLV492'
p10
aI84016
aI3
aI3
ag8
aNaNaNaNaNaNaNaNaNaNaNaNag5
aa(lp11
S'SLV493'
p12
aI90061
aI3
aI3
ag8
aNaNaNaNaNaNaNaNaNaNaNaNag5
aa(lp13
S'SLV498'
p14
aI90062
aI9
aI10
ag8
aNaNaNaNaNaNaNaNaNaNaNaNag5
aa(lp15
S'SLV499'
p16
aI90063
aI3
aI3
ag8
aNaNaNaNaNaNaNaNaNaNaNaNag5
aa(lp17
S'SLV590'
p18
aI90064
aI5
aI5
ag8
aNaNaNaNaNaNaNaNaNaNaNaNag5
aa.