(lp0
(lp1
S'SMC540'
p2
aI76103
aI18
aI20
aS'Th'
p3
aS' 1:30 PM'
p4
aI13
aI30
aI16
aI15
aNaNaNaNaNaNaNaS'Not Reserved'
p5
aa(lp6
S'SMC792'
p7
aI78022
aI20
aI20
aS'ONLINE'
p8
aNaNaNaNaNaNaNaNaNaNaNaNaS'Reserved'
p9
aa(lp10
S'SMC799'
p11
aI78085
aI20
aI20
ag8
aNaNaNaNaNaNaNaNaNaNaNaNag5
aa.