(lp0
(lp1
S'SOC101'
p2
aI78700
aI194
aI300
aS'ONLINE'
p3
aNaNaNaNaNaNaNaNaNaNaNaNaS'Reserved'
p4
aa(lp5
S'SOC101'
p6
aI91737
aI150
aI150
ag3
aNaNaNaNaNaNaNaNaNaNaNaNag4
aa(lp7
S'SOC101'
p8
aI74621
aI428
aI460
aS'T Th'
p9
aS' 7:30 AM'
p10
aI7
aI30
aI8
aI45
aNaNaNaNaNaNaNaS'Not Reserved'
p11
aa(lp12
S'SOC101'
p13
aI89898
aI456
aI460
aS'M W F'
p14
aS' 7:30 AM'
p15
aI7
aI30
aI8
aI20
aNaNaNaNaNaNaNag11
aa(lp16
S'SOC101'
p17
aI78699
aI303
aI460
aS'T Th'
p18
aS' 3:00 PM'
p19
aI15
aI0
aI16
aI15
aNaNaNaNaNaNaNag11
aa(lp20
S'SOC101'
p21
aI81490
aI289
aI430
aS'M W'
p22
aS' 3:00 PM'
p23
aI15
aI0
aI16
aI15
aNaNaNaNaNaNaNag11
aa(lp24
S'SOC101'
p25
aI81491
aI342
aI460
aS'M W F'
p26
aS'12:00 PM'
p27
aI12
aI0
aI12
aI50
aNaNaNaNaNaNaNag11
aa(lp28
S'SOC101'
p29
aI81492
aI56
aI450
aS'M W'
p30
aS'10:30 AM'
p31
aI10
aI30
aI11
aI45
aNaNaNaNaNaNaNag11
aa(lp32
S'SOC101'
p33
aI82317
aI367
aI450
aS'M W F'
p34
aS' 7:30 AM'
p35
aI7
aI30
aI8
aI20
aNaNaNaNaNaNaNag11
aa(lp36
S'SOC101'
p37
aI70404
aI37
aI60
aS'T Th'
p38
aS' 9:00 AM'
p39
aI9
aI0
aI10
aI15
aNaNaNaNaNaNaNag11
aa(lp40
S'SOC101'
p41
aI70405
aI49
aI60
aS'T'
p42
aS' 6:00 PM'
p43
aI18
aI0
aI20
aI45
aNaNaNaNaNaNaNag4
aa(lp44
S'SOC101'
p45
aI81551
aI0
aI60
ag3
aNaNaNaNaNaNaNaNaNaNaNaNag4
aa(lp46
S'SOC101'
p47
aI74689
aI29
aI42
aS'T Th'
p48
aS' 1:30 PM'
p49
aI13
aI30
aI14
aI45
aNaNaNaNaNaNaNag11
aa(lp50
S'SOC101'
p51
aI74694
aI39
aI45
aS'M W'
p52
aS' 3:00 PM'
p53
aI15
aI0
aI16
aI15
aNaNaNaNaNaNaNag11
aa(lp54
S'SOC101'
p55
aI70402
aI63
aI80
aS'M W'
p56
aS' 1:30 PM'
p57
aI13
aI30
aI14
aI45
aNaNaNaNaNaNaNag4
aa(lp58
S'SOC101'
p59
aI73241
aI105
aI120
aS'T Th'
p60
aS'12:00 PM'
p61
aI12
aI0
aI13
aI15
aNaNaNaNaNaNaNag4
aa(lp62
S'SOC194'
p63
aI84507
aI54
aI65
ag3
aNaNaNaNaNaNaNaNaNaNaNaNag4
aa(lp64
S'SOC241'
p65
aI81552
aI49
aI60
aS'T Th'
p66
aS'12:00 PM'
p67
aI12
aI0
aI13
aI15
aNaNaNaNaNaNaNag11
aa(lp68
S'SOC241'
p69
aI83333
aI31
aI85
ag3
aNaNaNaNaNaNaNaNaNaNaNaNag4
aa(lp70
S'SOC241'
p71
aI83334
aI108
aI125
ag3
aNaNaNaNaNaNaNaNaNaNaNaNag4
aa(lp72
S'SOC241'
p73
aI83340
aI131
aI150
ag3
aNaNaNaNaNaNaNaNaNaNaNaNag4
aa(lp74
S'SOC241'
p75
aI84314
aI27
aI30
aS'T Th'
p76
aS' 3:00 PM'
p77
aI15
aI0
aI16
aI15
aNaNaNaNaNaNaNag11
aa(lp78
S'SOC264'
p79
aI91741
aI98
aI100
ag3
aNaNaNaNaNaNaNaNaNaNaNaNag4
aa(lp80
S'SOC264'
p81
aI80201
aI2
aI55
aS'M W'
p82
aS' 3:00 PM'
p83
aI15
aI0
aI16
aI15
aNaNaNaNaNaNaNag11
aa(lp84
S'SOC264'
p85
aI90319
aI47
aI60
aS'T Th'
p86
aS'10:30 AM'
p87
aI10
aI30
aI11
aI45
aNaNaNaNaNaNaNag11
aa(lp88
S'SOC270'
p89
aI89224
aI142
aI150
ag3
aNaNaNaNaNaNaNaNaNaNaNaNag4
aa(lp90
S'SOC270'
p91
aI77096
aI24
aI40
aS'M W'
p92
aS' 3:00 PM'
p93
aI15
aI0
aI16
aI15
aNaNaNaNaNaNaNag11
aa(lp94
S'SOC270'
p95
aI78243
aI11
aI50
ag3
aNaNaNaNaNaNaNaNaNaNaNaNag11
aa(lp96
S'SOC312'
p97
aI91747
aI99
aI100
ag3
aNaNaNaNaNaNaNaNaNaNaNaNag4
aa(lp98
S'SOC312'
p99
aI81394
aI6
aI50
aS'T Th'
p100
aS' 9:00 AM'
p101
aI9
aI0
aI10
aI15
aNaNaNaNaNaNaNag11
aa(lp102
S'SOC315'
p103
aI76654
aI0
aI145
aS'M W F'
p104
aS' 9:00 AM'
p105
aI9
aI0
aI9
aI50
aNaNaNaNaNaNaNag4
aa(lp106
S'SOC315'
p107
aI83489
aI47
aI60
aS'M W'
p108
aS' 3:00 PM'
p109
aI15
aI0
aI16
aI15
aNaNaNaNaNaNaNag11
aa(lp110
S'SOC315'
p111
aI74690
aI25
aI30
aS'M W'
p112
aS' 4:30 PM'
p113
aI16
aI30
aI17
aI45
aNaNaNaNaNaNaNag11
aa(lp114
S'SOC324'
p115
aI91751
aI148
aI150
ag3
aNaNaNaNaNaNaNaNaNaNaNaNag4
aa(lp116
S'SOC332'
p117
aI84317
aI38
aI50
ag3
aNaNaNaNaNaNaNaNaNaNaNaNag4
aa(lp118
S'SOC332'
p119
aI83359
aI18
aI75
ag3
aNaNaNaNaNaNaNaNaNaNaNaNag4
aa(lp120
S'SOC332'
p121
aI83354
aI236
aI250
ag3
aNaNaNaNaNaNaNaNaNaNaNaNag4
aa(lp122
S'SOC332'
p123
aI86243
aI23
aI30
aS'T Th'
p124
aS' 1:30 PM'
p125
aI13
aI30
aI14
aI45
aNaNaNaNaNaNaNag11
aa(lp126
S'SOC333'
p127
aI89659
aI0
aI60
aS'T Th'
p128
aS'12:00 PM'
p129
aI12
aI0
aI13
aI15
aNaNaNaNaNaNaNag4
aa(lp130
S'SOC334'
p131
aI78815
aI242
aI300
ag3
aNaNaNaNaNaNaNaNaNaNaNaNag4
aa(lp132
S'SOC334'
p133
aI78816
aI283
aI300
ag3
aNaNaNaNaNaNaNaNaNaNaNaNag4
aa(lp134
S'SOC334'
p135
aI75195
aI156
aI300
ag3
aNaNaNaNaNaNaNaNaNaNaNaNag4
aa(lp136
S'SOC340'
p137
aI91735
aI149
aI150
ag3
aNaNaNaNaNaNaNaNaNaNaNaNag4
aa(lp138
S'SOC340'
p139
aI81486
aI24
aI145
aS'M W F'
p140
aS' 1:30 PM'
p141
aI13
aI30
aI14
aI20
aNaNaNaNaNaNaNag11
aa(lp142
S'SOC350'
p143
aI91299
aI7
aI10
ag3
aNaNaNaNaNaNaNaNaNaNaNaNag4
aa(lp144
S'SOC352'
p145
aI89026
aI242
aI300
ag3
aNaNaNaNaNaNaNaNaNaNaNaNag4
aa(lp146
S'SOC352'
p147
aI78703
aI283
aI300
ag3
aNaNaNaNaNaNaNaNaNaNaNaNag4
aa(lp148
S'SOC352'
p149
aI73951
aI284
aI300
ag3
aNaNaNaNaNaNaNaNaNaNaNaNag4
aa(lp150
S'SOC352'
p151
aI70403
aI8
aI40
aS'W'
p152
aS' 6:00 PM'
p153
aI18
aI0
aI20
aI45
aNaNaNaNaNaNaNag11
aa(lp154
S'SOC352'
p155
aI81710
aI53
aI60
ag3
aNaNaNaNaNaNaNaNaNaNaNaNag4
aa(lp156
S'SOC352'
p157
aI84287
aI46
aI50
ag3
aNaNaNaNaNaNaNaNaNaNaNaNag4
aa(lp158
S'SOC352'
p159
aI83336
aI52
aI150
ag3
aNaNaNaNaNaNaNaNaNaNaNaNag4
aa(lp160
S'SOC352'
p161
aI83864
aI34
aI40
aS'T Th'
p162
aS' 1:30 PM'
p163
aI13
aI30
aI14
aI45
aNaNaNaNaNaNaNag11
aa(lp164
S'SOC353'
p165
aI72704
aI0
aI30
ag152
aS' 6:00 PM'
p166
aI18
aI0
aI20
aI45
aNaNaNaNaNaNaNag4
aa(lp167
S'SOC360'
p168
aI74611
aI44
aI60
aS'M'
p169
aS' 4:30 PM'
p170
aI16
aI30
aI19
aI15
aNaNaNaNaNaNaNag11
aa(lp171
S'SOC365'
p172
aI83621
aI54
aI80
ag3
aNaNaNaNaNaNaNaNaNaNaNaNag11
aa(lp173
S'SOC390'
p174
aI72361
aI0
aI45
ag3
aNaNaNaNaNaNaNaNaNaNaNaNag4
aa(lp175
S'SOC390'
p176
aI75196
aI2
aI45
ag3
aNaNaNaNaNaNaNaNaNaNaNaNag4
aa(lp177
S'SOC390'
p178
aI80098
aI43
aI50
aS'T Th'
p179
aS' 4:30 PM'
p180
aI16
aI30
aI17
aI45
aNaNaNaNaNaNaNag11
aa(lp181
S'SOC390'
p182
aI78819
aI12
aI30
aS'T Th'
p183
aS'10:30 AM'
p184
aI10
aI30
aI11
aI45
aNaNaNaNaNaNaNag11
aa(lp185
S'SOC390'
p186
aI78818
aI31
aI50
aS'T Th'
p187
aS' 3:00 PM'
p188
aI15
aI0
aI16
aI15
aNaNaNaNaNaNaNag11
aa(lp189
S'SOC390'
p190
aI82825
aI31
aI36
aS'T Th'
p191
aS' 7:30 AM'
p192
aI7
aI30
aI8
aI45
aNaNaNaNaNaNaNag11
aa(lp193
S'SOC390'
p194
aI81697
aI18
aI30
aS'T Th'
p195
aS' 9:00 AM'
p196
aI9
aI0
aI10
aI15
aNaNaNaNaNaNaNag11
aa(lp197
S'SOC390'
p198
aI81701
aI21
aI45
aS'T Th'
p199
aS' 1:30 PM'
p200
aI13
aI30
aI14
aI45
aNaNaNaNaNaNaNag11
aa(lp201
S'SOC390'
p202
aI73382
aI42
aI50
aS'T Th'
p203
aS' 1:30 PM'
p204
aI13
aI30
aI14
aI45
aNaNaNaNaNaNaNag11
aa(lp205
S'SOC390'
p206
aI77994
aI13
aI16
aS'T Th'
p207
aS'10:30 AM'
p208
aI10
aI30
aI11
aI45
aNaNaNaNaNaNaNag4
aa(lp209
S'SOC391'
p210
aI80829
aI0
aI25
ag3
aNaNaNaNaNaNaNaNaNaNaNaNag4
aa(lp211
S'SOC391'
p212
aI78681
aI10
aI20
aS'T Th'
p213
aS' 3:00 PM'
p214
aI15
aI0
aI16
aI15
aNaNaNaNaNaNaNag11
aa(lp215
S'SOC391'
p216
aI72362
aI10
aI20
aS'T Th'
p217
aS' 1:30 PM'
p218
aI13
aI30
aI14
aI45
aNaNaNaNaNaNaNag11
aa(lp219
S'SOC391'
p220
aI73165
aI11
aI20
aS'T Th'
p221
aS' 9:00 AM'
p222
aI9
aI0
aI10
aI15
aNaNaNaNaNaNaNag11
aa(lp223
S'SOC391'
p224
aI78680
aI11
aI20
aS'T Th'
p225
aS'12:00 PM'
p226
aI12
aI0
aI13
aI15
aNaNaNaNaNaNaNag11
aa(lp227
S'SOC394'
p228
aI79070
aI18
aI20
ag42
aS' 6:00 PM'
p229
aI18
aI0
aI20
aI45
aNaNaNaNaNaNaNag11
aa(lp230
S'SOC394'
p231
aI90260
aI19
aI25
ag3
aNaNaNaNaNaNaNaNaNaNaNaNag4
aa(lp232
S'SOC420'
p233
aI91414
aI8
aI30
ag3
aNaNaNaNaNaNaNaNaNaNaNaNag4
aa(lp234
S'SOC420'
p235
aI84326
aI93
aI100
ag3
aNaNaNaNaNaNaNaNaNaNaNaNag4
aa(lp236
S'SOC420'
p237
aI83351
aI185
aI200
ag3
aNaNaNaNaNaNaNaNaNaNaNaNag4
aa(lp238
S'SOC421'
p239
aI83357
aI19
aI40
ag3
aNaNaNaNaNaNaNaNaNaNaNaNag4
aa(lp240
S'SOC421'
p241
aI84312
aI36
aI40
ag3
aNaNaNaNaNaNaNaNaNaNaNaNag4
aa(lp242
S'SOC424'
p243
aI78704
aI213
aI300
ag3
aNaNaNaNaNaNaNaNaNaNaNaNag4
aa(lp244
S'SOC426'
p245
aI78843
aI18
aI35
aS'T Th'
p246
aS' 4:30 PM'
p247
aI16
aI30
aI17
aI45
aNaNaNaNaNaNaNag11
aa(lp248
S'SOC435'
p249
aI78676
aI125
aI150
ag3
aNaNaNaNaNaNaNaNaNaNaNaNag4
aa(lp250
S'SOC435'
p251
aI78671
aI19
aI23
aS'M W'
p252
aS' 3:00 PM'
p253
aI15
aI0
aI16
aI15
aNaNaNaNaNaNaNag11
aa(lp254
S'SOC435'
p255
aI78672
aI22
aI23
ag42
aS' 4:30 PM'
p256
aI16
aI30
aI19
aI15
aNaNaNaNaNaNaNag11
aa(lp257
S'SOC460'
p258
aI90086
aI11
aI21
aS'M W'
p259
aS'10:30 AM'
p260
aI10
aI30
aI11
aI45
aNaNaNaNaNaNaNag11
aa(lp261
S'SOC483'
p262
aI78820
aI280
aI300
ag3
aNaNaNaNaNaNaNaNaNaNaNaNag4
aa(lp263
S'SOC483'
p264
aI73982
aI80
aI130
aS'T Th'
p265
aS' 1:30 PM'
p266
aI13
aI30
aI14
aI45
aNaNaNaNaNaNaNag11
aa(lp267
S'SOC483'
p268
aI89102
aI270
aI300
ag3
aNaNaNaNaNaNaNaNaNaNaNaNag4
aa(lp269
S'SOC484'
p270
aI72363
aI23
aI24
ag42
aS' 4:30 PM'
p271
aI16
aI30
aI19
aI15
aNaNaNaNaNaNaNag11
aa(lp272
S'SOC484'
p273
aI76639
aI5
aI5
ag3
aNaNaNaNaNaNaNaNaNaNaNaNag11
aa(lp274
S'SOC486'
p275
aI79679
aI16
aI32
aS'T Th'
p276
aS' 9:00 AM'
p277
aI9
aI0
aI10
aI15
aNaNaNaNaNaNaNag11
aa(lp278
S'SOC492'
p279
aI91814
aI0
aI1
ag3
aNaNaNaNaNaNaNaNaNaNaNaNag4
aa(lp280
S'SOC492'
p281
aI77933
aI3
aI3
ag3
aNaNaNaNaNaNaNaNaNaNaNaNag11
aa(lp282
S'SOC493'
p283
aI86770
aI3
aI3
ag3
aNaNaNaNaNaNaNaNaNaNaNaNag11
aa(lp284
S'SOC499'
p285
aI84391
aI20
aI20
ag3
aNaNaNaNaNaNaNaNaNaNaNaNag11
aa(lp286
S'SOC499'
p287
aI83959
aI20
aI20
ag3
aNaNaNaNaNaNaNaNaNaNaNaNag4
aa(lp288
S'SOC499'
p289
aI84392
aI20
aI20
ag3
aNaNaNaNaNaNaNaNaNaNaNaNag11
aa(lp290
S'SOC499'
p291
aI83908
aI20
aI20
ag3
aNaNaNaNaNaNaNaNaNaNaNaNag4
aa(lp292
S'SOC499'
p293
aI84029
aI20
aI20
ag3
aNaNaNaNaNaNaNaNaNaNaNaNag11
aa(lp294
S'SOC499'
p295
aI84109
aI11
aI20
ag3
aNaNaNaNaNaNaNaNaNaNaNaNag11
aa(lp296
S'SOC499'
p297
aI91195
aI30
aI30
ag3
aNaNaNaNaNaNaNaNaNaNaNaNag11
aa(lp298
S'SOC584'
p299
aI72364
aI20
aI20
ag3
aNaNaNaNaNaNaNaNaNaNaNaNag11
aa(lp300
S'SOC590'
p301
aI72365
aI20
aI20
ag3
aNaNaNaNaNaNaNaNaNaNaNaNag11
aa(lp302
S'SOC591'
p303
aI90115
aI18
aI20
aS'T Th'
p304
aS' 9:00 AM'
p305
aI9
aI0
aI10
aI15
aNaNaNaNaNaNaNag11
aa(lp306
S'SOC592'
p307
aI73170
aI20
aI20
ag3
aNaNaNaNaNaNaNaNaNaNaNaNag11
aa(lp308
S'SOC599'
p309
aI72366
aI20
aI20
ag3
aNaNaNaNaNaNaNaNaNaNaNaNag11
aa(lp310
S'SOC792'
p311
aI72367
aI20
aI20
ag3
aNaNaNaNaNaNaNaNaNaNaNaNag11
aa(lp312
S'SOC795'
p313
aI72368
aI20
aI20
ag3
aNaNaNaNaNaNaNaNaNaNaNaNag11
aa(lp314
S'SOC799'
p315
aI72369
aI20
aI20
ag3
aNaNaNaNaNaNaNaNaNaNaNaNag11
aa.