(lp0
(lp1
S'SOS100'
p2
aI74968
aI65
aI125
aS'ONLINE'
p3
aNaNaNaNaNaNaNaNaNaNaNaNaS'Reserved'
p4
aa(lp5
S'SOS100'
p6
aI85498
aI115
aI125
ag3
aNaNaNaNaNaNaNaNaNaNaNaNag4
aa(lp7
S'SOS100'
p8
aI75004
aI111
aI125
ag3
aNaNaNaNaNaNaNaNaNaNaNaNag4
aa(lp9
S'SOS101'
p10
aI76797
aI41
aI53
aS'T Th'
p11
aS'12:00 PM'
p12
aI12
aI0
aI13
aI15
aNaNaNaNaNaNaNaS'Not Reserved'
p13
aa(lp14
S'SOS101'
p15
aI80814
aI49
aI60
aS'T Th'
p16
aS'10:30 AM'
p17
aI10
aI30
aI11
aI45
aNaNaNaNaNaNaNag13
aa(lp18
S'SOS110'
p19
aI74002
aI79
aI138
aS'M'
p20
aS' 3:00 PM'
p21
aI15
aI0
aI16
aI15
aNaNaNaNaNaNaNag13
aa(lp22
S'SOS110'
p23
aI74364
aI1
aI23
aS'T'
p24
aS' 3:00 PM'
p25
aI15
aI0
aI16
aI15
aNaNaNaNaNaNaNag13
aa(lp26
S'SOS110'
p27
aI74365
aI14
aI23
ag24
aS' 4:30 PM'
p28
aI16
aI30
aI17
aI45
aNaNaNaNaNaNaNag13
aa(lp29
S'SOS110'
p30
aI78320
aI0
aI23
ag24
aS' 1:30 PM'
p31
aI13
aI30
aI14
aI45
aNaNaNaNaNaNaNag4
aa(lp32
S'SOS110'
p33
aI82669
aI18
aI23
ag24
aS' 1:30 PM'
p34
aI13
aI30
aI14
aI45
aNaNaNaNaNaNaNag13
aa(lp35
S'SOS110'
p36
aI74003
aI114
aI138
aS'W'
p37
aS' 3:00 PM'
p38
aI15
aI0
aI16
aI15
aNaNaNaNaNaNaNag13
aa(lp39
S'SOS110'
p40
aI76781
aI13
aI23
aS'Th'
p41
aS' 3:00 PM'
p42
aI15
aI0
aI16
aI15
aNaNaNaNaNaNaNag13
aa(lp43
S'SOS110'
p44
aI76782
aI19
aI23
aS'Th'
p45
aS' 4:30 PM'
p46
aI16
aI30
aI17
aI45
aNaNaNaNaNaNaNag13
aa(lp47
S'SOS110'
p48
aI76783
aI21
aI23
aS'Th'
p49
aS' 1:30 PM'
p50
aI13
aI30
aI14
aI45
aNaNaNaNaNaNaNag13
aa(lp51
S'SOS110'
p52
aI82671
aI15
aI23
aS'Th'
p53
aS' 1:30 PM'
p54
aI13
aI30
aI14
aI45
aNaNaNaNaNaNaNag13
aa(lp55
S'SOS111'
p56
aI83795
aI30
aI75
ag3
aNaNaNaNaNaNaNaNaNaNaNaNag4
aa(lp57
S'SOS111'
p58
aI73598
aI135
aI217
aS'M W'
p59
aS' 4:30 PM'
p60
aI16
aI30
aI17
aI45
aNaNaNaNaNaNaNag13
aa(lp61
S'SOS111'
p62
aI76785
aI11
aI12
aS'M W'
p63
aS' 4:30 PM'
p64
aI16
aI30
aI17
aI45
aNaNaNaNaNaNaNag13
aa(lp65
S'SOS111'
p66
aI78325
aI11
aI12
ag37
aS' 6:00 PM'
p67
aI18
aI0
aI18
aI50
aNaNaNaNaNaNaNag13
aa(lp68
S'SOS111'
p69
aI75805
aI38
aI60
ag20
aS' 3:00 PM'
p70
aI15
aI0
aI16
aI15
aNaNaNaNaNaNaNag13
aa(lp71
S'SOS117'
p72
aI91705
aI33
aI40
aS'T Th'
p73
aS'10:30 AM'
p74
aI10
aI30
aI11
aI45
aNaNaNaNaNaNaNag13
aa(lp75
S'SOS171'
p76
aI79371
aI20
aI69
aS'T Th'
p77
aS' 1:30 PM'
p78
aI13
aI30
aI14
aI45
aNaNaNaNaNaNaNag13
aa(lp79
S'SOS181'
p80
aI80631
aI44
aI48
ag20
aS' 4:30 PM'
p81
aI16
aI30
aI17
aI45
aNaNaNaNaNaNaNag13
aa(lp82
S'SOS181'
p83
aI82530
aI8
aI8
aS'Th'
p84
aS' 9:00 AM'
p85
aI9
aI0
aI10
aI15
aNaNaNaNaNaNaNag13
aa(lp86
S'SOS181'
p87
aI82531
aI5
aI7
aS'Th'
p88
aS'12:00 PM'
p89
aI12
aI0
aI13
aI15
aNaNaNaNaNaNaNag13
aa(lp90
S'SOS181'
p91
aI82534
aI8
aI8
aS'Th'
p92
aS' 1:30 PM'
p93
aI13
aI30
aI14
aI45
aNaNaNaNaNaNaNag13
aa(lp94
S'SOS181'
p95
aI82538
aI6
aI8
ag24
aS'12:00 PM'
p96
aI12
aI0
aI13
aI15
aNaNaNaNaNaNaNag13
aa(lp97
S'SOS201'
p98
aI79198
aI13
aI19
ag20
aS'10:30 AM'
p99
aI10
aI30
aI11
aI45
aNaNaNaNaNaNaNag4
aa(lp100
S'SOS201'
p101
aI79199
aI18
aI19
ag37
aS'10:30 AM'
p102
aI10
aI30
aI11
aI45
aNaNaNaNaNaNaNag4
aa(lp103
S'SOS210'
p104
aI79202
aI19
aI40
aS'T Th'
p105
aS'12:00 PM'
p106
aI12
aI0
aI13
aI15
aNaNaNaNaNaNaNag13
aa(lp107
S'SOS211'
p108
aI82148
aI22
aI40
aS'T Th'
p109
aS' 3:00 PM'
p110
aI15
aI0
aI16
aI15
aNaNaNaNaNaNaNag13
aa(lp111
S'SOS220'
p112
aI79207
aI36
aI75
aS'M W F'
p113
aS' 9:00 AM'
p114
aI9
aI0
aI9
aI50
aNaNaNaNaNaNaNag13
aa(lp115
S'SOS230'
p116
aI79203
aI12
aI25
aS'M W'
p117
aS' 4:30 PM'
p118
aI16
aI30
aI17
aI45
aNaNaNaNaNaNaNag4
aa(lp119
S'SOS230'
p120
aI89981
aI0
aI30
ag3
aNaNaNaNaNaNaNaNaNaNaNaNag4
aa(lp121
S'SOS230'
p122
aI79204
aI21
aI25
aS'M W'
p123
aS' 4:30 PM'
p124
aI16
aI30
aI17
aI45
aNaNaNaNaNaNaNag4
aa(lp125
S'SOS231'
p126
aI79205
aI17
aI25
aS'F'
p127
aS'10:30 AM'
p128
aI10
aI30
aI11
aI45
aNaNaNaNaNaNaNag4
aa(lp129
S'SOS231'
p130
aI79206
aI17
aI25
ag127
aS'10:30 AM'
p131
aI10
aI30
aI11
aI45
aNaNaNaNaNaNaNag4
aa(lp132
S'SOS272'
p133
aI91235
aI48
aI50
aS'M W'
p134
aS' 1:30 PM'
p135
aI13
aI30
aI14
aI45
aNaNaNaNaNaNaNag13
aa(lp136
S'SOS300'
p137
aI75939
aI67
aI125
ag3
aNaNaNaNaNaNaNaNaNaNaNaNag4
aa(lp138
S'SOS300'
p139
aI77405
aI105
aI125
ag3
aNaNaNaNaNaNaNaNaNaNaNaNag4
aa(lp140
S'SOS311'
p141
aI83821
aI34
aI60
ag3
aNaNaNaNaNaNaNaNaNaNaNaNag4
aa(lp142
S'SOS314'
p143
aI89450
aI1
aI30
ag3
aNaNaNaNaNaNaNaNaNaNaNaNag4
aa(lp144
S'SOS314'
p145
aI82455
aI0
aI40
aS'M W'
p146
aS' 9:00 AM'
p147
aI9
aI0
aI10
aI15
aNaNaNaNaNaNaNag4
aa(lp148
S'SOS315'
p149
aI89455
aI7
aI30
ag3
aNaNaNaNaNaNaNaNaNaNaNaNag4
aa(lp150
S'SOS315'
p151
aI82454
aI2
aI25
aS'T Th'
p152
aS' 9:00 AM'
p153
aI9
aI0
aI10
aI15
aNaNaNaNaNaNaNag13
aa(lp154
S'SOS320'
p155
aI73741
aI52
aI60
ag37
aS' 4:30 PM'
p156
aI16
aI30
aI19
aI15
aNaNaNaNaNaNaNag13
aa(lp157
S'SOS320'
p158
aI74466
aI46
aI68
aS'T Th'
p159
aS' 1:30 PM'
p160
aI13
aI30
aI14
aI45
aNaNaNaNaNaNaNag13
aa(lp161
S'SOS321'
p162
aI76216
aI34
aI40
aS'T Th'
p163
aS' 9:00 AM'
p164
aI9
aI0
aI10
aI15
aNaNaNaNaNaNaNag13
aa(lp165
S'SOS322'
p166
aI73543
aI21
aI40
aS'T Th'
p167
aS' 9:00 AM'
p168
aI9
aI0
aI10
aI15
aNaNaNaNaNaNaNag13
aa(lp169
S'SOS323'
p170
aI82465
aI128
aI138
aS'M W F'
p171
aS'10:30 AM'
p172
aI10
aI30
aI11
aI20
aNaNaNaNaNaNaNag13
aa(lp173
S'SOS324'
p174
aI74467
aI29
aI68
aS'T Th'
p175
aS' 1:30 PM'
p176
aI13
aI30
aI14
aI45
aNaNaNaNaNaNaNag13
aa(lp177
S'SOS325'
p178
aI89726
aI28
aI30
ag3
aNaNaNaNaNaNaNaNaNaNaNaNag4
aa(lp179
S'SOS325'
p180
aI73742
aI14
aI68
aS'T Th'
p181
aS' 3:00 PM'
p182
aI15
aI0
aI16
aI15
aNaNaNaNaNaNaNag13
aa(lp183
S'SOS326'
p184
aI86320
aI31
aI50
aS'M W'
p185
aS' 3:00 PM'
p186
aI15
aI0
aI16
aI15
aNaNaNaNaNaNaNag13
aa(lp187
S'SOS327'
p188
aI76998
aI98
aI138
aS'T Th'
p189
aS'12:00PM'
p190
aI12
aI0
aI13
aI15
aS''
p191
ag191
aNaNag191
aNaNag13
aa(lp192
S'SOS328'
p193
aI79131
aI10
aI30
ag24
aS' 4:30 PM'
p194
aI16
aI30
aI19
aI15
aNaNaNaNaNaNaNag13
aa(lp195
S'SOS372'
p196
aI80481
aI7
aI15
aS'T Th'
p197
aS' 9:00 AM'
p198
aI9
aI0
aI10
aI15
aNaNaNaNaNaNaNag13
aa(lp199
S'SOS385'
p200
aI76792
aI58
aI70
ag3
aNaNaNaNaNaNaNaNaNaNaNaNag4
aa(lp201
S'SOS394'
p202
aI79855
aI12
aI15
ag37
aS' 4:30 PM'
p203
aI16
aI30
aI19
aI15
aNaNaNaNaNaNaNag13
aa(lp204
S'SOS394'
p205
aI80914
aI10
aI10
ag3
aNaNaNaNaNaNaNaNaNaNaNaNag13
aa(lp206
S'SOS394'
p207
aI81921
aI36
aI40
aS'M W'
p208
aS'10:30 AM'
p209
aI10
aI30
aI11
aI45
aNaNaNaNaNaNaNag13
aa(lp210
S'SOS433'
p211
aI86737
aI8
aI30
aS'T Th'
p212
aS'12:00 PM'
p213
aI12
aI0
aI13
aI15
aNaNaNaNaNaNaNag13
aa(lp214
S'SOS434'
p215
aI83954
aI16
aI18
aS'M W'
p216
aS' 1:30 PM'
p217
aI13
aI30
aI14
aI45
aNaNaNaNaNaNaNag13
aa(lp218
S'SOS442'
p219
aI86741
aI15
aI15
ag37
aS' 4:30 PM'
p220
aI16
aI30
aI19
aI15
aNaNaNaNaNaNaNag13
aa(lp221
S'SOS465'
p222
aI91069
aI10
aI15
ag3
aNaNaNaNaNaNaNaNaNaNaNaNag4
aa(lp223
S'SOS480'
p224
aI82452
aI17
aI20
ag24
aS'4:30PM'
p225
aI16
aI30
aI17
aI45
ag191
ag191
aNaNag191
aNaNag4
aa(lp226
S'SOS484'
p227
aI73922
aI16
aI16
aS'Th'
p228
aS'3:00PM'
p229
aI15
aI0
aI16
aI15
ag191
aS'12:00AM'
p230
aNaNaS'12:00AM'
p231
aNaNag13
aa(lp232
S'SOS484'
p233
aI74367
aI5
aI5
ag3
aNaNaNaNaNaNaNaNaNaNaNaNag13
aa(lp234
S'SOS484'
p235
aI73923
aI15
aI15
ag3
aNaNaNaNaNaNaNaNaNaNaNaNag4
aa(lp236
S'SOS492'
p237
aI76636
aI4
aI5
ag3
aNaNaNaNaNaNaNaNaNaNaNaNag13
aa(lp238
S'SOS493'
p239
aI73941
aI7
aI10
ag3
aNaNaNaNaNaNaNaNaNaNaNaNag13
aa(lp240
S'SOS494'
p241
aI83388
aI7
aI8
ag37
aS' 9:00 AM'
p242
aI9
aI0
aI11
aI45
aNaNaNaNaNaNaNag13
aa(lp243
S'SOS494'
p244
aI77724
aI15
aI20
ag3
aNaNaNaNaNaNaNaNaNaNaNaNag13
aa(lp245
S'SOS494'
p246
aI83927
aI5
aI5
ag37
aS' 4:30 PM'
p247
aI16
aI30
aI19
aI15
aNaNaNaNaNaNaNag13
aa(lp248
S'SOS494'
p249
aI80031
aI18
aI19
aS'M W'
p250
aS' 3:00 PM'
p251
aI15
aI0
aI16
aI15
aNaNaNaNaNaNaNag13
aa(lp252
S'SOS494'
p253
aI80111
aI12
aI15
ag37
aS' 6:00 PM'
p254
aI18
aI0
aI20
aI45
aNaNaNaNaNaNaNag13
aa(lp255
S'SOS494'
p256
aI90686
aI20
aI20
aS'T Th'
p257
aS'10:30 AM'
p258
aI10
aI30
aI11
aI45
aNaNaNaNaNaNaNag13
aa(lp259
S'SOS498'
p260
aI83561
aI0
aI6
aS'Th'
p261
aS' 4:30 PM'
p262
aI16
aI30
aI19
aI15
aNaNaNaNaNaNaNag4
aa(lp263
S'SOS498'
p264
aI80490
aI1
aI5
ag127
aS' 9:00 AM'
p265
aI9
aI0
aI12
aI50
aNaNaNaNaNaNaNag13
aa(lp266
S'SOS498'
p267
aI91200
aI6
aI15
ag127
aS' 9:00 AM'
p268
aI9
aI0
aI11
aI45
aNaNaNaNaNaNaNag13
aa(lp269
S'SOS498'
p270
aI91452
aI14
aI15
ag20
aS' 4:30 PM'
p271
aI16
aI30
aI19
aI15
aNaNaNaNaNaNaNag13
aa(lp272
S'SOS499'
p273
aI78187
aI4
aI4
ag3
aNaNaNaNaNaNaNaNaNaNaNaNag13
aa(lp274
S'SOS510'
p275
aI72705
aI18
aI30
ag24
aS' 9:00 AM'
p276
aI9
aI0
aI11
aI45
aNaNaNaNaNaNaNag4
aa(lp277
S'SOS510'
p278
aI82173
aI25
aI30
ag24
aS' 9:00 AM'
p279
aI9
aI0
aI11
aI45
aNaNaNaNaNaNaNag4
aa(lp280
S'SOS512'
p281
aI89460
aI24
aI30
aS'T Th'
p282
aS'10:30 AM'
p283
aI10
aI30
aI11
aI45
aNaNaNaNaNaNaNag13
aa(lp284
S'SOS513'
p285
aI83915
aI24
aI30
aS'M W'
p286
aS' 1:30 PM'
p287
aI13
aI30
aI14
aI45
aNaNaNaNaNaNaNag13
aa(lp288
S'SOS515'
p289
aI77876
aI0
aI12
ag24
aS' 4:30 PM'
p290
aI16
aI30
aI19
aI15
aNaNaNaNaNaNaNag4
aa(lp291
S'SOS520'
p292
aI82893
aI21
aI30
aS'Th'
p293
aS' 9:00 AM'
p294
aI9
aI0
aI11
aI45
aNaNaNaNaNaNaNag4
aa(lp295
S'SOS525'
p296
aI83391
aI23
aI32
aS'T Th'
p297
aS' 1:30 PM'
p298
aI13
aI30
aI14
aI45
aNaNaNaNaNaNaNag4
aa(lp299
S'SOS531'
p300
aI82892
aI12
aI20
ag24
aS' 6:00 PM'
p301
aI18
aI0
aI19
aI15
aNaNaNaNaNaNaNag4
aa(lp302
S'SOS532'
p303
aI89443
aI14
aI30
aS'T Th'
p304
aS'12:00 PM'
p305
aI12
aI0
aI13
aI15
aNaNaNaNaNaNaNag13
aa(lp306
S'SOS534'
p307
aI91191
aI23
aI30
aS'T Th'
p308
aS' 3:00 PM'
p309
aI15
aI0
aI16
aI15
aNaNaNaNaNaNaNag13
aa(lp310
S'SOS542'
p311
aI86743
aI2
aI5
ag37
aS' 4:30 PM'
p312
aI16
aI30
aI19
aI15
aNaNaNaNaNaNaNag13
aa(lp313
S'SOS545'
p314
aI86744
aI7
aI18
aS'T Th'
p315
aS' 9:00 AM'
p316
aI9
aI0
aI10
aI15
aNaNaNaNaNaNaNag13
aa(lp317
S'SOS577'
p318
aI86326
aI27
aI30
ag24
aS' 1:30 PM'
p319
aI13
aI30
aI14
aI45
aNaNaNaNaNaNaNag13
aa(lp320
S'SOS579'
p321
aI77669
aI10
aI12
aS'T Th'
p322
aS'10:30 AM'
p323
aI10
aI30
aI11
aI45
aNaNaNaNaNaNaNag4
aa(lp324
S'SOS582'
p325
aI86322
aI39
aI43
aS'Th'
p326
aS'12:00 PM'
p327
aI12
aI0
aI13
aI40
aNaNaNaNaNaNaNag13
aa(lp328
S'SOS584'
p329
aI78249
aI4
aI5
ag3
aNaNaNaNaNaNaNaNaNaNaNaNag13
aa(lp330
S'SOS589'
p331
aI83392
aI32
aI40
ag127
aS' 9:00 AM'
p332
aI9
aI0
aI9
aI50
aNaNaNaNaNaNaNag4
aa(lp333
S'SOS590'
p334
aI91816
aI15
aI15
ag3
aNaNaNaNaNaNaNaNaNaNaNaNag13
aa(lp335
S'SOS591'
p336
aI74301
aI9
aI9
ag20
aS'12:00 PM'
p337
aI12
aI0
aI13
aI0
aNaNaNaNaNaNaNag13
aa(lp338
S'SOS591'
p339
aI83390
aI7
aI7
ag37
aS' 9:00 AM'
p340
aI9
aI0
aI11
aI45
aNaNaNaNaNaNaNag13
aa(lp341
S'SOS591'
p342
aI83184
aI10
aI10
ag24
aS' 4:30 PM'
p343
aI16
aI30
aI19
aI15
aNaNaNaNaNaNaNag13
aa(lp344
S'SOS591'
p345
aI83792
aI22
aI25
ag37
aS' 4:30 PM'
p346
aI16
aI30
aI19
aI15
aNaNaNaNaNaNaNag13
aa(lp347
S'SOS591'
p348
aI75908
aI17
aI20
aS'M W F'
p349
aS'10:30 AM'
p350
aI10
aI30
aI11
aI20
aNaNaNaNaNaNaNag13
aa(lp351
S'SOS591'
p352
aI80107
aI17
aI17
ag37
aS' 6:00 PM'
p353
aI18
aI0
aI20
aI45
aNaNaNaNaNaNaNag13
aa(lp354
S'SOS591'
p355
aI88481
aI18
aI20
aS'M W'
p356
aS' 9:00 AM'
p357
aI9
aI0
aI10
aI15
aNaNaNaNaNaNaNag4
aa(lp358
S'SOS592'
p359
aI78300
aI7
aI7
ag3
aNaNaNaNaNaNaNaNaNaNaNaNag13
aa(lp360
S'SOS593'
p361
aI76607
aI20
aI20
ag3
aNaNaNaNaNaNaNaNaNaNaNaNag13
aa(lp362
S'SOS594'
p363
aI74323
aI11
aI11
ag20
aS' 9:00 AM'
p364
aI9
aI0
aI11
aI0
aNaNaNaNaNaNaNag13
aa(lp365
S'SOS594'
p366
aI83562
aI3
aI10
aS'Th'
p367
aS' 4:30 PM'
p368
aI16
aI30
aI19
aI15
aNaNaNaNaNaNaNag13
aa(lp369
S'SOS594'
p370
aI84388
aI10
aI10
ag127
aS'10:00 AM'
p371
aI10
aI0
aI12
aI0
aNaNaNaNaNaNaNag13
aa(lp372
S'SOS594'
p373
aI80491
aI2
aI5
ag127
aS' 9:00 AM'
p374
aI9
aI0
aI12
aI50
aNaNaNaNaNaNaNag13
aa(lp375
S'SOS594'
p376
aI91199
aI3
aI15
ag127
aS' 9:00 AM'
p377
aI9
aI0
aI11
aI45
aNaNaNaNaNaNaNag13
aa(lp378
S'SOS594'
p379
aI91453
aI9
aI15
ag20
aS' 4:30 PM'
p380
aI16
aI30
aI19
aI15
aNaNaNaNaNaNaNag13
aa(lp381
S'SOS595'
p382
aI75237
aI30
aI30
ag3
aNaNaNaNaNaNaNaNaNaNaNaNag13
aa(lp383
S'SOS596'
p384
aI91630
aI9
aI10
ag3
aNaNaNaNaNaNaNaNaNaNaNaNag13
aa(lp385
S'SOS598'
p386
aI90687
aI6
aI10
aS'T Th'
p387
aS'10:30 AM'
p388
aI10
aI30
aI11
aI45
aNaNaNaNaNaNaNag13
aa(lp389
S'SOS598'
p390
aI76888
aI9
aI10
aS'T Th'
p391
aS' 3:00 PM'
p392
aI15
aI0
aI16
aI15
aNaNaNaNaNaNaNag13
aa(lp393
S'SOS598'
p394
aI91841
aI0
aI0
ag3
aNaNaNaNaNaNaNaNaNaNaNaNag4
aa(lp395
S'SOS598'
p396
aI75911
aI4
aI7
ag37
aS' 6:00 PM'
p397
aI18
aI0
aI21
aI0
aNaNaNaNaNaNaNag13
aa(lp398
S'SOS598'
p399
aI82595
aI7
aI14
ag37
aS' 4:30 PM'
p400
aI16
aI30
aI19
aI15
aNaNaNaNaNaNaNag13
aa(lp401
S'SOS598'
p402
aI91223
aI3
aI5
aS'Th'
p403
aS' 3:00 PM'
p404
aI15
aI0
aI17
aI45
aNaNaNaNaNaNaNag13
aa(lp405
S'SOS598'
p406
aI80032
aI17
aI19
aS'M W'
p407
aS' 3:00 PM'
p408
aI15
aI0
aI16
aI15
aNaNaNaNaNaNaNag13
aa(lp409
S'SOS598'
p410
aI91357
aI9
aI10
aS'M W F'
p411
aS'6:00PM'
p412
aI18
aI0
aI19
aI20
aS'W F'
p413
aS'6:00PM'
p414
aI18
aI0
aS'7:20PM'
p415
aI19
aI20
ag13
aa(lp416
S'SOS599'
p417
aI86060
aI2
aI2
ag3
aNaNaNaNaNaNaNaNaNaNaNaNag13
aa(lp418
S'SOS599'
p419
aI72955
aI30
aI30
ag3
aNaNaNaNaNaNaNaNaNaNaNaNag13
aa(lp420
S'SOS790'
p421
aI75408
aI29
aI30
ag3
aNaNaNaNaNaNaNaNaNaNaNaNag13
aa(lp422
S'SOS792'
p423
aI75407
aI30
aI30
ag3
aNaNaNaNaNaNaNaNaNaNaNaNag13
aa(lp424
S'SOS795'
p425
aI75379
aI10
aI10
ag3
aNaNaNaNaNaNaNaNaNaNaNaNag13
aa(lp426
S'SOS799'
p427
aI72956
aI28
aI30
ag3
aNaNaNaNaNaNaNaNaNaNaNaNag13
aa.