(lp0
(lp1
S'SPA101'
p2
aI86923
aI26
aI28
aS'T Th'
p3
aS'10:30AM'
p4
aI10
aI30
aI13
aI15
aS''
p5
ag5
aNaNag5
aNaNaS'Not Reserved'
p6
aa(lp7
S'SPA101'
p8
aI89694
aI28
aI28
aS'T Th'
p9
aS'10:30AM'
p10
aI10
aI30
aI13
aI15
ag5
ag5
aNaNag5
aNaNag6
aa(lp11
S'SPA101'
p12
aI74281
aI22
aI28
aS'T Th'
p13
aS'9:00AM'
p14
aI9
aI0
aI10
aI15
ag5
ag5
aNaNag5
aNaNag6
aa(lp15
S'SPA101'
p16
aI73709
aI23
aI28
aS'M W'
p17
aS'9:00AM'
p18
aI9
aI0
aI10
aI15
ag5
ag5
aNaNag5
aNaNag6
aa(lp19
S'SPA101'
p20
aI73706
aI22
aI28
aS'M W'
p21
aS'10:30AM'
p22
aI10
aI30
aI11
aI45
ag5
ag5
aNaNag5
aNaNag6
aa(lp23
S'SPA101'
p24
aI73708
aI11
aI28
aS'M W'
p25
aS'12:00PM'
p26
aI12
aI0
aI13
aI15
ag5
ag5
aNaNag5
aNaNag6
aa(lp27
S'SPA101'
p28
aI76582
aI24
aI28
aS'T Th'
p29
aS'12:00PM'
p30
aI12
aI0
aI13
aI15
ag5
ag5
aNaNag5
aNaNag6
aa(lp31
S'SPA101'
p32
aI89696
aI21
aI25
aS'T Th'
p33
aS'1:30PM'
p34
aI13
aI30
aI14
aI45
ag5
ag5
aNaNag5
aNaNag6
aa(lp35
S'SPA101'
p36
aI82932
aI27
aI28
aS'ONLINE'
p37
aNaNaNaNaNaNaNaNaNaNaNaNaS'Reserved'
p38
aa(lp39
S'SPA101'
p40
aI86273
aI16
aI35
ag37
aNaNaNaNaNaNaNaNaNaNaNaNag38
aa(lp41
S'SPA101'
p42
aI78226
aI0
aI35
ag37
aNaNaNaNaNaNaNaNaNaNaNaNag38
aa(lp43
S'SPA101'
p44
aI77172
aI28
aI30
aS'T Th'
p45
aS'9:00AM'
p46
aI9
aI0
aI10
aI15
ag5
ag5
aNaNag5
aNaNag6
aa(lp47
S'SPA101'
p48
aI70406
aI21
aI24
aS'M W'
p49
aS'7:30AM'
p50
aI7
aI30
aI8
aI20
aS'M W'
p51
aS'8:35AM'
p52
aI8
aI35
aS'9:25AM'
p53
aI9
aI25
ag6
aa(lp54
S'SPA101'
p55
aI70407
aI23
aI24
aS'M W F'
p56
aS'9:00AM'
p57
aI9
aI0
aI9
aI50
aS'W'
p58
aS'10:05AM'
p59
aI10
aI5
aS'10:55AM'
p60
aI10
aI55
ag6
aa(lp61
S'SPA101'
p62
aI73222
aI21
aI24
aS'M W F'
p63
aS'10:30AM'
p64
aI10
aI30
aI11
aI20
ag58
aS'11:35AM'
p65
aI11
aI35
aS'12:25PM'
p66
aI12
aI25
ag6
aa(lp67
S'SPA101'
p68
aI74227
aI23
aI24
aS'M W F'
p69
aS'1:30PM'
p70
aI13
aI30
aI14
aI20
ag58
aS'2:35PM'
p71
aI14
aI35
aS'3:25PM'
p72
aI15
aI25
ag6
aa(lp73
S'SPA101'
p74
aI79115
aI24
aI24
aS'T Th'
p75
aS'7:00PM'
p76
aI19
aI0
aI19
aI50
aS'T Th'
p77
aS'8:05PM'
p78
aI20
aI5
aS'8:55PM'
p79
aI20
aI55
ag6
aa(lp80
S'SPA101'
p81
aI79116
aI19
aI24
aS'T Th'
p82
aS'12:00PM'
p83
aI12
aI0
aI12
aI50
aS'T Th'
p84
aS'1:05PM'
p85
aI13
aI5
aS'1:55PM'
p86
aI13
aI55
ag6
aa(lp87
S'SPA101'
p88
aI79117
aI19
aI24
aS'T Th'
p89
aS'4:30PM'
p90
aI16
aI30
aI17
aI20
aS'T Th'
p91
aS'5:35PM'
p92
aI17
aI35
aS'6:25PM'
p93
aI18
aI25
ag6
aa(lp94
S'SPA101'
p95
aI85404
aI20
aI24
aS'M W'
p96
aS'3:00PM'
p97
aI15
aI0
aI15
aI50
aS'M W'
p98
aS'4:05PM'
p99
aI16
aI5
aS'4:55PM'
p100
aI16
aI55
ag6
aa(lp101
S'SPA102'
p102
aI86924
aI21
aI28
aS'M W'
p103
aS'1:30PM'
p104
aI13
aI30
aI16
aI15
ag5
ag5
aNaNag5
aNaNag6
aa(lp105
S'SPA102'
p106
aI89698
aI26
aI28
aS'M W'
p107
aS'1:30PM'
p108
aI13
aI30
aI16
aI15
ag5
ag5
aNaNag5
aNaNag6
aa(lp109
S'SPA102'
p110
aI72371
aI12
aI28
aS'M W'
p111
aS'12:00PM'
p112
aI12
aI0
aI13
aI15
ag5
ag5
aNaNag5
aNaNag6
aa(lp113
S'SPA102'
p114
aI72372
aI14
aI28
aS'M W'
p115
aS'10:30AM'
p116
aI10
aI30
aI11
aI45
ag5
ag5
aNaNag5
aNaNag6
aa(lp117
S'SPA102'
p118
aI72373
aI11
aI28
aS'M W'
p119
aS'1:30PM'
p120
aI13
aI30
aI14
aI45
ag5
ag5
aNaNag5
aNaNag6
aa(lp121
S'SPA102'
p122
aI72836
aI8
aI28
aS'T Th'
p123
aS'1:30PM'
p124
aI13
aI30
aI14
aI45
ag5
ag5
aNaNag5
aNaNag6
aa(lp125
S'SPA102'
p126
aI72375
aI24
aI28
aS'T Th'
p127
aS'9:00AM'
p128
aI9
aI0
aI10
aI15
ag5
aS'12:00AM'
p129
aNaNaS'12:00AM'
p130
aNaNag6
aa(lp131
S'SPA102'
p132
aI72374
aI24
aI28
aS'T Th'
p133
aS'12:00PM'
p134
aI12
aI0
aI13
aI15
ag5
aS'12:00AM'
p135
aNaNaS'12:00AM'
p136
aNaNag6
aa(lp137
S'SPA102'
p138
aI74282
aI3
aI28
ag37
aNaNaNaNaNaNaNaNaNaNaNaNag38
aa(lp139
S'SPA102'
p140
aI77175
aI30
aI30
aS'T Th'
p141
aS'10:30AM'
p142
aI10
aI30
aI11
aI45
ag5
ag5
aNaNag5
aNaNag6
aa(lp143
S'SPA102'
p144
aI74691
aI17
aI24
aS'M W'
p145
aS'4:30PM'
p146
aI16
aI30
aI17
aI20
aS'M W'
p147
aS'5:35PM'
p148
aI17
aI35
aS'6:25PM'
p149
aI18
aI25
ag6
aa(lp150
S'SPA102'
p151
aI74693
aI18
aI24
aS'T Th'
p152
aS'9:00AM'
p153
aI9
aI0
aI9
aI50
aS'T Th'
p154
aS'10:05AM'
p155
aI10
aI5
aS'10:55AM'
p156
aI10
aI55
ag6
aa(lp157
S'SPA110'
p158
aI91789
aI26
aI28
aS'M T W Th'
p159
aS'10:30 AM'
p160
aI10
aI30
aI11
aI45
aNaNaNaNaNaNaNag6
aa(lp161
S'SPA111'
p162
aI70409
aI20
aI28
aS'M W'
p163
aS'10:30AM'
p164
aI10
aI30
aI11
aI45
ag5
ag5
aNaNag5
aNaNag6
aa(lp165
S'SPA111'
p166
aI70413
aI25
aI28
aS'M W'
p167
aS'1:30PM'
p168
aI13
aI30
aI14
aI45
ag5
ag5
aNaNag5
aNaNag6
aa(lp169
S'SPA111'
p170
aI70412
aI23
aI28
aS'T Th'
p171
aS'12:00PM'
p172
aI12
aI0
aI13
aI15
ag5
ag5
aNaNag5
aNaNag6
aa(lp173
S'SPA111'
p174
aI70410
aI22
aI28
aS'T Th'
p175
aS'9:00AM'
p176
aI9
aI0
aI10
aI15
ag5
ag5
aNaNag5
aNaNag6
aa(lp177
S'SPA111'
p178
aI70411
aI17
aI28
aS'M W'
p179
aS'12:00PM'
p180
aI12
aI0
aI13
aI15
ag5
ag5
aNaNag5
aNaNag6
aa(lp181
S'SPA194'
p182
aI80273
aI9
aI24
ag37
aNaNaNaNaNaNaNaNaNaNaNaNag38
aa(lp183
S'SPA194'
p184
aI80274
aI20
aI24
ag37
aNaNaNaNaNaNaNaNaNaNaNaNag38
aa(lp185
S'SPA201'
p186
aI89700
aI23
aI28
aS'M W'
p187
aS'10:30AM'
p188
aI10
aI30
aI13
aI15
ag5
ag5
aNaNag5
aNaNag6
aa(lp189
S'SPA201'
p190
aI89704
aI25
aI28
aS'M W'
p191
aS'10:30AM'
p192
aI10
aI30
aI13
aI15
ag5
ag5
aNaNag5
aNaNag6
aa(lp193
S'SPA201'
p194
aI73715
aI0
aI28
aS'T Th'
p195
aS'12:00PM'
p196
aI12
aI0
aI13
aI15
ag5
ag5
aNaNag5
aNaNag38
aa(lp197
S'SPA201'
p198
aI73710
aI6
aI28
aS'M W'
p199
aS'9:00AM'
p200
aI9
aI0
aI10
aI15
ag5
ag5
aNaNag5
aNaNag6
aa(lp201
S'SPA201'
p202
aI73711
aI2
aI28
aS'M W'
p203
aS'10:30AM'
p204
aI10
aI30
aI11
aI45
ag5
ag5
aNaNag5
aNaNag6
aa(lp205
S'SPA201'
p206
aI73713
aI0
aI28
aS'M W'
p207
aS'1:30PM'
p208
aI13
aI30
aI14
aI45
ag5
ag5
aNaNag5
aNaNag38
aa(lp209
S'SPA201'
p210
aI89737
aI0
aI28
aS'T Th'
p211
aS'1:30PM'
p212
aI13
aI30
aI14
aI45
ag5
ag5
aNaNag5
aNaNag38
aa(lp213
S'SPA201'
p214
aI73714
aI13
aI28
aS'T Th'
p215
aS'9:00AM'
p216
aI9
aI0
aI10
aI15
ag5
ag5
aNaNag5
aNaNag6
aa(lp217
S'SPA201'
p218
aI73716
aI16
aI28
aS'T Th'
p219
aS'6:00PM'
p220
aI18
aI0
aI19
aI15
ag5
ag5
aNaNag5
aNaNag6
aa(lp221
S'SPA201'
p222
aI73717
aI6
aI28
aS'M W'
p223
aS'12:00PM'
p224
aI12
aI0
aI13
aI15
ag5
ag5
aNaNag5
aNaNag6
aa(lp225
S'SPA201'
p226
aI78180
aI4
aI28
ag37
aNaNaNaNaNaNaNaNaNaNaNaNag38
aa(lp227
S'SPA201'
p228
aI90357
aI22
aI28
aS'M W'
p229
aS'12:00PM'
p230
aI12
aI0
aI13
aI15
ag5
ag5
aNaNag5
aNaNag6
aa(lp231
S'SPA201'
p232
aI73800
aI0
aI35
ag37
aNaNaNaNaNaNaNaNaNaNaNaNag38
aa(lp233
S'SPA201'
p234
aI91122
aI28
aI30
aS'T Th'
p235
aS'3:00PM'
p236
aI15
aI0
aI16
aI15
ag5
ag5
aNaNag5
aNaNag6
aa(lp237
S'SPA201'
p238
aI70408
aI12
aI24
aS'M W F'
p239
aS'12:00PM'
p240
aI12
aI0
aI12
aI50
aS'M'
p241
aS'1:05PM'
p242
aI13
aI5
aS'1:55PM'
p243
aI13
aI55
ag6
aa(lp244
S'SPA201'
p245
aI73223
aI1
aI24
aS'T Th'
p246
aS'1:30PM'
p247
aI13
aI30
aI14
aI20
aS'T Th'
p248
aS'2:30PM'
p249
aI14
aI30
aS'3:20PM'
p250
aI15
aI20
ag6
aa(lp251
S'SPA201'
p252
aI73224
aI18
aI24
aS'T Th'
p253
aS'3:00PM'
p254
aI15
aI0
aI15
aI50
aS'T Th'
p255
aS'4:05PM'
p256
aI16
aI5
aS'4:55PM'
p257
aI16
aI55
ag6
aa(lp258
S'SPA202'
p259
aI89707
aI26
aI28
aS'T Th'
p260
aS'1:30PM'
p261
aI13
aI30
aI16
aI15
ag5
ag5
aNaNag5
aNaNag6
aa(lp262
S'SPA202'
p263
aI82182
aI18
aI22
ag37
aNaNaNaNaNaNaNaNaNaNaNaNag38
aa(lp264
S'SPA202'
p265
aI89717
aI23
aI28
aS'T Th'
p266
aS'1:30PM'
p267
aI13
aI30
aI16
aI15
ag5
ag5
aNaNag5
aNaNag6
aa(lp268
S'SPA202'
p269
aI73727
aI22
aI28
aS'M W'
p270
aS'9:00AM'
p271
aI9
aI0
aI10
aI15
ag5
ag5
aNaNag5
aNaNag6
aa(lp272
S'SPA202'
p273
aI73720
aI5
aI28
aS'M W'
p274
aS'10:30AM'
p275
aI10
aI30
aI11
aI45
ag5
ag5
aNaNag5
aNaNag6
aa(lp276
S'SPA202'
p277
aI73726
aI3
aI28
aS'T Th'
p278
aS'10:30AM'
p279
aI10
aI30
aI11
aI45
ag5
ag5
aNaNag5
aNaNag6
aa(lp280
S'SPA202'
p281
aI73725
aI22
aI28
aS'T Th'
p282
aS'9:00AM'
p283
aI9
aI0
aI10
aI15
ag5
ag5
aNaNag5
aNaNag6
aa(lp284
S'SPA202'
p285
aI73721
aI4
aI28
aS'M W'
p286
aS'1:30PM'
p287
aI13
aI30
aI14
aI45
ag5
ag5
aNaNag5
aNaNag6
aa(lp288
S'SPA202'
p289
aI73722
aI20
aI28
aS'M W'
p290
aS'3:00PM'
p291
aI15
aI0
aI16
aI15
ag5
ag5
aNaNag5
aNaNag6
aa(lp292
S'SPA202'
p293
aI89742
aI7
aI28
aS'M W'
p294
aS'12:00PM'
p295
aI12
aI0
aI13
aI15
ag5
ag5
aNaNag5
aNaNag6
aa(lp296
S'SPA202'
p297
aI73723
aI4
aI28
aS'T Th'
p298
aS'12:00PM'
p299
aI12
aI0
aI13
aI15
ag5
ag5
aNaNag5
aNaNag6
aa(lp300
S'SPA202'
p301
aI73724
aI10
aI28
aS'T Th'
p302
aS'1:30PM'
p303
aI13
aI30
aI14
aI45
ag5
ag5
aNaNag5
aNaNag6
aa(lp304
S'SPA202'
p305
aI78181
aI0
aI28
ag37
aNaNaNaNaNaNaNaNaNaNaNaNag38
aa(lp306
S'SPA202'
p307
aI77690
aI21
aI28
ag37
aNaNaNaNaNaNaNaNaNaNaNaNag38
aa(lp308
S'SPA202'
p309
aI80237
aI29
aI30
aS'T Th'
p310
aS'1:30PM'
p311
aI13
aI30
aI14
aI45
ag5
ag5
aNaNag5
aNaNag6
aa(lp312
S'SPA202'
p313
aI73226
aI20
aI24
aS'M W F'
p314
aS'10:30AM'
p315
aI10
aI30
aI11
aI20
ag241
aS'11:35AM'
p316
aI11
aI35
aS'12:25PM'
p317
aI12
aI25
ag6
aa(lp318
S'SPA202'
p319
aI73227
aI3
aI24
aS'T Th'
p320
aS'10:30AM'
p321
aI10
aI30
aI11
aI20
aS'T Th'
p322
aS'11:35AM'
p323
aI11
aI35
aS'12:25PM'
p324
aI12
aI25
ag6
aa(lp325
S'SPA203'
p326
aI90358
aI28
aI28
aS'M W'
p327
aS'12:00PM'
p328
aI12
aI0
aI13
aI15
ag5
ag5
aNaNag5
aNaNag6
aa(lp329
S'SPA203'
p330
aI89744
aI23
aI28
aS'T Th'
p331
aS'10:30AM'
p332
aI10
aI30
aI11
aI45
ag5
ag5
aNaNag5
aNaNag6
aa(lp333
S'SPA204'
p334
aI72377
aI21
aI28
aS'T Th'
p335
aS'12:00PM'
p336
aI12
aI0
aI13
aI15
ag5
ag5
aNaNag5
aNaNag6
aa(lp337
S'SPA204'
p338
aI89745
aI23
aI28
aS'T Th'
p339
aS'1:30PM'
p340
aI13
aI30
aI14
aI45
ag5
ag5
aNaNag5
aNaNag6
aa(lp341
S'SPA294'
p342
aI76390
aI11
aI24
ag37
aNaNaNaNaNaNaNaNaNaNaNaNag38
aa(lp343
S'SPA313'
p344
aI78211
aI15
aI22
ag37
aNaNaNaNaNaNaNaNaNaNaNaNag38
aa(lp345
S'SPA313'
p346
aI79923
aI22
aI22
ag37
aNaNaNaNaNaNaNaNaNaNaNaNag38
aa(lp347
S'SPA313'
p348
aI72378
aI11
aI28
aS'M W'
p349
aS'10:30 AM'
p350
aI10
aI30
aI11
aI45
aNaNaNaNaNaNaNag6
aa(lp351
S'SPA313'
p352
aI72381
aI20
aI28
aS'T Th'
p353
aS' 1:30 PM'
p354
aI13
aI30
aI14
aI45
aNaNaNaNaNaNaNag6
aa(lp355
S'SPA313'
p356
aI72380
aI21
aI28
aS'M W'
p357
aS'12:00 PM'
p358
aI12
aI0
aI13
aI15
aNaNaNaNaNaNaNag6
aa(lp359
S'SPA313'
p360
aI72379
aI16
aI28
aS'T Th'
p361
aS'12:00 PM'
p362
aI12
aI0
aI13
aI15
aNaNaNaNaNaNaNag6
aa(lp363
S'SPA313'
p364
aI89756
aI27
aI28
aS'M W'
p365
aS' 9:00 AM'
p366
aI9
aI0
aI10
aI15
aNaNaNaNaNaNaNag6
aa(lp367
S'SPA313'
p368
aI86274
aI32
aI35
ag58
aS' 6:00 PM'
p369
aI18
aI0
aI20
aI45
aNaNaNaNaNaNaNag6
aa(lp370
S'SPA313'
p371
aI73487
aI17
aI20
aS'T Th'
p372
aS'10:30 AM'
p373
aI10
aI30
aI11
aI45
aNaNaNaNaNaNaNag6
aa(lp374
S'SPA313'
p375
aI77882
aI18
aI20
aS'M W'
p376
aS' 4:30 PM'
p377
aI16
aI30
aI17
aI45
aNaNaNaNaNaNaNag6
aa(lp378
S'SPA314'
p379
aI78212
aI14
aI22
ag37
aNaNaNaNaNaNaNaNaNaNaNaNag38
aa(lp380
S'SPA314'
p381
aI89762
aI15
aI28
aS'T Th'
p382
aS'12:00 PM'
p383
aI12
aI0
aI13
aI15
aNaNaNaNaNaNaNag6
aa(lp384
S'SPA314'
p385
aI89764
aI23
aI28
aS'M W'
p386
aS'12:00 PM'
p387
aI12
aI0
aI13
aI15
aNaNaNaNaNaNaNag6
aa(lp388
S'SPA314'
p389
aI72383
aI18
aI28
aS'M W'
p390
aS' 1:30 PM'
p391
aI13
aI30
aI14
aI45
aNaNaNaNaNaNaNag6
aa(lp392
S'SPA314'
p393
aI72382
aI20
aI28
aS'T Th'
p394
aS'10:30 AM'
p395
aI10
aI30
aI11
aI45
aNaNaNaNaNaNaNag6
aa(lp396
S'SPA314'
p397
aI73954
aI15
aI20
aS'T Th'
p398
aS' 4:30 PM'
p399
aI16
aI30
aI17
aI45
aNaNaNaNaNaNaNag6
aa(lp400
S'SPA315'
p401
aI76087
aI25
aI28
aS'T Th'
p402
aS' 9:00 AM'
p403
aI9
aI0
aI10
aI15
aNaNaNaNaNaNaNag6
aa(lp404
S'SPA315'
p405
aI72846
aI19
aI28
aS'M W'
p406
aS' 1:30 PM'
p407
aI13
aI30
aI14
aI45
aNaNaNaNaNaNaNag6
aa(lp408
S'SPA315'
p409
aI89766
aI20
aI28
aS'T Th'
p410
aS'10:30 AM'
p411
aI10
aI30
aI11
aI45
aNaNaNaNaNaNaNag6
aa(lp412
S'SPA316'
p413
aI72384
aI22
aI28
aS'T Th'
p414
aS'12:00 PM'
p415
aI12
aI0
aI13
aI15
aNaNaNaNaNaNaNag6
aa(lp416
S'SPA316'
p417
aI73270
aI25
aI28
aS'M W'
p418
aS' 9:00 AM'
p419
aI9
aI0
aI10
aI15
aNaNaNaNaNaNaNag6
aa(lp420
S'SPA316'
p421
aI89767
aI26
aI28
aS'M W'
p422
aS' 1:30 PM'
p423
aI13
aI30
aI14
aI45
aNaNaNaNaNaNaNag6
aa(lp424
S'SPA317'
p425
aI82917
aI13
aI24
ag37
aNaNaNaNaNaNaNaNaNaNaNaNag38
aa(lp426
S'SPA317'
p427
aI90183
aI19
aI24
aS'T Th'
p428
aS' 9:00 AM'
p429
aI9
aI0
aI10
aI15
aNaNaNaNaNaNaNag6
aa(lp430
S'SPA325'
p431
aI78269
aI22
aI28
ag37
aNaNaNaNaNaNaNaNaNaNaNaNag38
aa(lp432
S'SPA325'
p433
aI72385
aI16
aI28
aS'T Th'
p434
aS'12:00 PM'
p435
aI12
aI0
aI13
aI15
aNaNaNaNaNaNaNag6
aa(lp436
S'SPA325'
p437
aI89769
aI23
aI28
aS'T Th'
p438
aS' 1:30 PM'
p439
aI13
aI30
aI14
aI45
aNaNaNaNaNaNaNag6
aa(lp440
S'SPA325'
p441
aI72386
aI26
aI28
aS'T Th'
p442
aS' 9:00 AM'
p443
aI9
aI0
aI10
aI15
aNaNaNaNaNaNaNag6
aa(lp444
S'SPA325'
p445
aI83486
aI20
aI28
aS'M W'
p446
aS'12:00 PM'
p447
aI12
aI0
aI13
aI15
aNaNaNaNaNaNaNag6
aa(lp448
S'SPA394'
p449
aI85657
aI25
aI28
aS'T'
p450
aS' 4:30 PM'
p451
aI16
aI30
aI19
aI15
aNaNaNaNaNaNaNag6
aa(lp452
S'SPA394'
p453
aI77881
aI15
aI24
ag37
aNaNaNaNaNaNaNaNaNaNaNaNag38
aa(lp454
S'SPA400'
p455
aI80179
aI9
aI22
ag37
aNaNaNaNaNaNaNaNaNaNaNaNag38
aa(lp456
S'SPA400'
p457
aI89771
aI18
aI28
aS'M W'
p458
aS'10:30 AM'
p459
aI10
aI30
aI11
aI45
aNaNaNaNaNaNaNag6
aa(lp460
S'SPA400'
p461
aI90361
aI15
aI24
aS'T Th'
p462
aS'12:00 PM'
p463
aI12
aI0
aI13
aI15
aNaNaNaNaNaNaNag6
aa(lp464
S'SPA403'
p465
aI79170
aI19
aI24
ag37
aNaNaNaNaNaNaNaNaNaNaNaNag38
aa(lp466
S'SPA404'
p467
aI90244
aI20
aI24
ag37
aNaNaNaNaNaNaNaNaNaNaNaNag38
aa(lp468
S'SPA405'
p469
aI79171
aI19
aI24
aS'T Th'
p470
aS' 4:30 PM'
p471
aI16
aI30
aI17
aI45
aNaNaNaNaNaNaNag6
aa(lp472
S'SPA412'
p473
aI72387
aI9
aI28
aS'T Th'
p474
aS'10:30 AM'
p475
aI10
aI30
aI11
aI45
aNaNaNaNaNaNaNag6
aa(lp476
S'SPA412'
p477
aI72388
aI0
aI28
aS'T Th'
p478
aS' 1:30 PM'
p479
aI13
aI30
aI14
aI45
aNaNaNaNaNaNaNag38
aa(lp480
S'SPA412'
p481
aI76088
aI10
aI28
aS'M W'
p482
aS' 9:00 AM'
p483
aI9
aI0
aI10
aI15
aNaNaNaNaNaNaNag6
aa(lp484
S'SPA413'
p485
aI72389
aI10
aI28
aS'M W'
p486
aS'12:00 PM'
p487
aI12
aI0
aI13
aI15
aNaNaNaNaNaNaNag6
aa(lp488
S'SPA413'
p489
aI89774
aI20
aI28
aS'T Th'
p490
aS'10:30 AM'
p491
aI10
aI30
aI11
aI45
aNaNaNaNaNaNaNag6
aa(lp492
S'SPA413'
p493
aI79982
aI23
aI28
ag37
aNaNaNaNaNaNaNaNaNaNaNaNag38
aa(lp494
S'SPA418'
p495
aI83074
aI11
aI28
aS'M W'
p496
aS' 1:30 PM'
p497
aI13
aI30
aI14
aI45
aNaNaNaNaNaNaNag6
aa(lp498
S'SPA420'
p499
aI90342
aI22
aI28
aS'T Th'
p500
aS' 4:30 PM'
p501
aI16
aI30
aI17
aI45
aNaNaNaNaNaNaNag6
aa(lp502
S'SPA421'
p503
aI83075
aI18
aI28
aS'T Th'
p504
aS' 3:00 PM'
p505
aI15
aI0
aI16
aI15
aNaNaNaNaNaNaNag6
aa(lp506
S'SPA425'
p507
aI89777
aI19
aI28
aS'T Th'
p508
aS' 1:30 PM'
p509
aI13
aI30
aI14
aI45
aNaNaNaNaNaNaNag6
aa(lp510
S'SPA426'
p511
aI80187
aI16
aI28
ag37
aNaNaNaNaNaNaNaNaNaNaNaNag38
aa(lp512
S'SPA426'
p513
aI73501
aI27
aI28
ag58
aS'10:30AM'
p514
aI10
aI30
aI11
aI45
ag5
ag5
aNaNag5
aNaNag6
aa(lp515
S'SPA427'
p516
aI80188
aI21
aI28
ag37
aNaNaNaNaNaNaNaNaNaNaNaNag38
aa(lp517
S'SPA427'
p518
aI73271
aI23
aI28
aS'T Th'
p519
aS' 1:30 PM'
p520
aI13
aI30
aI14
aI45
aNaNaNaNaNaNaNag6
aa(lp521
S'SPA428'
p522
aI73272
aI11
aI28
aS'T Th'
p523
aS'12:00 PM'
p524
aI12
aI0
aI13
aI15
aNaNaNaNaNaNaNag6
aa(lp525
S'SPA429'
p526
aI80189
aI0
aI8
ag37
aNaNaNaNaNaNaNaNaNaNaNaNag38
aa(lp527
S'SPA464'
p528
aI90693
aI18
aI28
ag58
aS' 4:30 PM'
p529
aI16
aI30
aI19
aI15
aNaNaNaNaNaNaNag6
aa(lp530
S'SPA471'
p531
aI91000
aI18
aI28
ag37
aNaNaNaNaNaNaNaNaNaNaNaNag38
aa(lp532
S'SPA471'
p533
aI90698
aI17
aI28
aS'T Th'
p534
aS'10:30 AM'
p535
aI10
aI30
aI11
aI45
aNaNaNaNaNaNaNag6
aa(lp536
S'SPA472'
p537
aI91001
aI22
aI28
ag37
aNaNaNaNaNaNaNaNaNaNaNaNag38
aa(lp538
S'SPA472'
p539
aI90496
aI22
aI28
aS'T Th'
p540
aS'10:30 AM'
p541
aI10
aI30
aI11
aI45
aNaNaNaNaNaNaNag6
aa(lp542
S'SPA473'
p543
aI91002
aI27
aI28
ag37
aNaNaNaNaNaNaNaNaNaNaNaNag38
aa(lp544
S'SPA473'
p545
aI72391
aI24
aI28
ag450
aS' 4:30 PM'
p546
aI16
aI30
aI19
aI15
aNaNaNaNaNaNaNag6
aa(lp547
S'SPA484'
p548
aI72392
aI3
aI3
aS'F'
p549
aS'10:30 AM'
p550
aI10
aI30
aI11
aI20
aNaNaNaNaNaNaNag6
aa(lp551
S'SPA484'
p552
aI76563
aI10
aI10
ag549
aS' 1:30 PM'
p553
aI13
aI30
aI16
aI20
aNaNaNaNaNaNaNag6
aa(lp554
S'SPA485'
p555
aI90661
aI23
aI28
ag241
aS' 4:30 PM'
p556
aI16
aI30
aI19
aI15
aNaNaNaNaNaNaNag6
aa(lp557
S'SPA492'
p558
aI72393
aI2
aI2
ag37
aNaNaNaNaNaNaNaNaNaNaNaNag6
aa(lp559
S'SPA492'
p560
aI80616
aI5
aI5
ag37
aNaNaNaNaNaNaNaNaNaNaNaNag6
aa(lp561
S'SPA493'
p562
aI72394
aI2
aI2
ag37
aNaNaNaNaNaNaNaNaNaNaNaNag6
aa(lp563
S'SPA494'
p564
aI84631
aI5
aI10
ag37
aNaNaNaNaNaNaNaNaNaNaNaNag38
aa(lp565
S'SPA494'
p566
aI90255
aI17
aI20
aS'Th'
p567
aS' 4:30 PM'
p568
aI16
aI30
aI19
aI15
aNaNaNaNaNaNaNag6
aa(lp569
S'SPA494'
p570
aI86666
aI21
aI24
ag241
aS' 6:00 PM'
p571
aI18
aI0
aI20
aI45
aNaNaNaNaNaNaNag6
aa(lp572
S'SPA494'
p573
aI90145
aI21
aI24
aS'T Th'
p574
aS' 4:30 PM'
p575
aI16
aI30
aI17
aI45
aNaNaNaNaNaNaNag6
aa(lp576
S'SPA494'
p577
aI90235
aI21
aI24
ag37
aNaNaNaNaNaNaNaNaNaNaNaNag38
aa(lp578
S'SPA499'
p579
aI72395
aI1
aI1
ag37
aNaNaNaNaNaNaNaNaNaNaNaNag6
aa(lp580
S'SPA499'
p581
aI80987
aI10
aI10
ag37
aNaNaNaNaNaNaNaNaNaNaNaNag6
aa(lp582
S'SPA520'
p583
aI90549
aI18
aI25
aS'M W'
p584
aS' 7:30 PM'
p585
aI19
aI30
aI20
aI45
aNaNaNaNaNaNaNag6
aa(lp586
S'SPA544'
p587
aI89684
aI22
aI25
ag450
aS' 4:30 PM'
p588
aI16
aI30
aI19
aI15
aNaNaNaNaNaNaNag6
aa(lp589
S'SPA553'
p590
aI90336
aI19
aI25
ag58
aS' 4:30 PM'
p591
aI16
aI30
aI19
aI15
aNaNaNaNaNaNaNag6
aa(lp592
S'SPA568'
p593
aI90550
aI16
aI25
aS'Th'
p594
aS' 4:30 PM'
p595
aI16
aI30
aI19
aI15
aNaNaNaNaNaNaNag6
aa(lp596
S'SPA573'
p597
aI90551
aI18
aI25
ag241
aS' 4:30 PM'
p598
aI16
aI30
aI19
aI15
aNaNaNaNaNaNaNag6
aa(lp599
S'SPA580'
p600
aI72396
aI15
aI15
ag37
aNaNaNaNaNaNaNaNaNaNaNaNag6
aa(lp601
S'SPA584'
p602
aI72397
aI5
aI5
ag37
aNaNaNaNaNaNaNaNaNaNaNaNag6
aa(lp603
S'SPA586'
p604
aI90535
aI23
aI25
aS'M W'
p605
aS' 7:30 PM'
p606
aI19
aI30
aI20
aI45
aNaNaNaNaNaNaNag6
aa(lp607
S'SPA590'
p608
aI72398
aI10
aI10
ag37
aNaNaNaNaNaNaNaNaNaNaNaNag6
aa(lp609
S'SPA591'
p610
aI74056
aI25
aI28
ag58
aS' 4:30 PM'
p611
aI16
aI30
aI19
aI15
aNaNaNaNaNaNaNag6
aa(lp612
S'SPA592'
p613
aI72390
aI10
aI10
ag37
aNaNaNaNaNaNaNaNaNaNaNaNag6
aa(lp614
S'SPA595'
p615
aI72399
aI5
aI5
ag37
aNaNaNaNaNaNaNaNaNaNaNaNag6
aa(lp616
S'SPA598'
p617
aI89682
aI25
aI25
ag37
aNaNaNaNaNaNaNaNaNaNaNaNag38
aa(lp618
S'SPA598'
p619
aI90895
aI25
aI25
ag450
aS' 4:30 PM'
p620
aI16
aI30
aI19
aI15
aNaNaNaNaNaNaNag6
aa(lp621
S'SPA598'
p622
aI91336
aI24
aI25
ag241
aS' 4:30 PM'
p623
aI16
aI30
aI19
aI15
aNaNaNaNaNaNaNag6
aa(lp624
S'SPA599'
p625
aI72400
aI30
aI30
ag37
aNaNaNaNaNaNaNaNaNaNaNaNag6
aa(lp626
S'SPA684'
p627
aI72401
aI2
aI2
ag37
aNaNaNaNaNaNaNaNaNaNaNaNag6
aa(lp628
S'SPA692'
p629
aI72402
aI2
aI2
ag37
aNaNaNaNaNaNaNaNaNaNaNaNag6
aa(lp630
S'SPA695'
p631
aI72403
aI2
aI2
ag37
aNaNaNaNaNaNaNaNaNaNaNaNag6
aa(lp632
S'SPA784'
p633
aI72404
aI2
aI2
ag37
aNaNaNaNaNaNaNaNaNaNaNaNag6
aa(lp634
S'SPA790'
p635
aI72405
aI4
aI5
ag37
aNaNaNaNaNaNaNaNaNaNaNaNag6
aa(lp636
S'SPA792'
p637
aI72406
aI8
aI10
ag37
aNaNaNaNaNaNaNaNaNaNaNaNag6
aa(lp638
S'SPA795'
p639
aI72407
aI5
aI5
ag37
aNaNaNaNaNaNaNaNaNaNaNaNag6
aa(lp640
S'SPA799'
p641
aI72408
aI15
aI15
ag37
aNaNaNaNaNaNaNaNaNaNaNaNag6
aa.