(lp0
(lp1
S'SPE222'
p2
aI77126
aI88
aI105
aS'ONLINE'
p3
aNaNaNaNaNaNaNaNaNaNaNaNaS'Reserved'
p4
aa(lp5
S'SPE222'
p6
aI72409
aI24
aI35
aS'T Th'
p7
aS' 9:00 AM'
p8
aI9
aI0
aI10
aI15
aNaNaNaNaNaNaNaS'Not Reserved'
p9
aa(lp10
S'SPE222'
p11
aI72410
aI17
aI35
ag3
aNaNaNaNaNaNaNaNaNaNaNaNag4
aa(lp12
S'SPE222'
p13
aI74234
aI35
aI35
ag3
aNaNaNaNaNaNaNaNaNaNaNaNag4
aa(lp14
S'SPE222'
p15
aI74585
aI29
aI35
aS'Th'
p16
aS' 4:30 PM'
p17
aI16
aI30
aI19
aI15
aNaNaNaNaNaNaNag9
aa(lp18
S'SPE222'
p19
aI74588
aI2
aI25
aS'T Th'
p20
aS'12:00 PM'
p21
aI12
aI0
aI13
aI15
aNaNaNaNaNaNaNag9
aa(lp22
S'SPE222'
p23
aI74591
aI19
aI35
aS'M W'
p24
aS' 3:00 PM'
p25
aI15
aI0
aI16
aI15
aNaNaNaNaNaNaNag9
aa(lp26
S'SPE222'
p27
aI74592
aI27
aI35
aS'M W F'
p28
aS'10:30 AM'
p29
aI10
aI30
aI11
aI20
aNaNaNaNaNaNaNag9
aa(lp30
S'SPE222'
p31
aI74593
aI25
aI35
aS'T'
p32
aS' 4:30 PM'
p33
aI16
aI30
aI19
aI15
aNaNaNaNaNaNaNag9
aa(lp34
S'SPE222'
p35
aI74594
aI30
aI35
aS'W'
p36
aS' 4:30 PM'
p37
aI16
aI30
aI19
aI15
aNaNaNaNaNaNaNag9
aa(lp38
S'SPE222'
p39
aI74597
aI18
aI35
aS'T Th'
p40
aS' 3:00 PM'
p41
aI15
aI0
aI16
aI15
aNaNaNaNaNaNaNag9
aa(lp42
S'SPE222'
p43
aI74598
aI31
aI35
ag3
aNaNaNaNaNaNaNaNaNaNaNaNag4
aa(lp44
S'SPE222'
p45
aI76579
aI33
aI35
aS'Th'
p46
aS' 4:30 PM'
p47
aI16
aI30
aI19
aI15
aNaNaNaNaNaNaNag9
aa(lp48
S'SPE222'
p49
aI80134
aI15
aI25
aS'Th'
p50
aS' 4:30 PM'
p51
aI16
aI30
aI19
aI15
aNaNaNaNaNaNaNag9
aa(lp52
S'SPE222'
p53
aI74590
aI19
aI35
aS'T Th'
p54
aS'12:00 PM'
p55
aI12
aI0
aI13
aI15
aNaNaNaNaNaNaNag4
aa(lp56
S'SPE222'
p57
aI74595
aI27
aI35
aS'T Th'
p58
aS' 9:00 AM'
p59
aI9
aI0
aI10
aI15
aNaNaNaNaNaNaNag9
aa(lp60
S'SPE222'
p61
aI74596
aI14
aI35
aS'T Th'
p62
aS' 1:30 PM'
p63
aI13
aI30
aI14
aI45
aNaNaNaNaNaNaNag9
aa(lp64
S'SPE222'
p65
aI88112
aI23
aI35
aS'T Th'
p66
aS'12:00 PM'
p67
aI12
aI0
aI13
aI15
aNaNaNaNaNaNaNag9
aa(lp68
S'SPE222'
p69
aI89972
aI25
aI30
aS'T Th'
p70
aS' 9:00 AM'
p71
aI9
aI0
aI10
aI15
aNaNaNaNaNaNaNag9
aa(lp72
S'SPE222'
p73
aI91213
aI32
aI35
aS'M W'
p74
aS' 3:00 PM'
p75
aI15
aI0
aI16
aI15
aNaNaNaNaNaNaNag9
aa(lp76
S'SPE411'
p77
aI82995
aI15
aI35
aS'T Th'
p78
aS' 3:00 PM'
p79
aI15
aI0
aI16
aI15
aNaNaNaNaNaNaNag9
aa(lp80
S'SPE501'
p81
aI83612
aI32
aI37
ag36
aS'4:30PM'
p82
aI16
aI30
aI20
aI45
aS''
p83
aS'12:00AM'
p84
aNaNaS'12:00AM'
p85
aNaNag4
aa(lp86
S'SPE501'
p87
aI83611
aI11
aI24
ag32
aS'7:30PM'
p88
aI19
aI30
aI21
aI0
ag83
aS'12:00AM'
p89
aNaNaS'12:00AM'
p90
aNaNag4
aa(lp91
S'SPE521'
p92
aI79832
aI9
aI10
ag3
aNaNaNaNaNaNaNaNaNaNaNaNag4
aa(lp93
S'SPE524'
p94
aI75178
aI32
aI37
aS'M'
p95
aS'4:30PM'
p96
aI16
aI30
aI19
aI15
ag83
aS'12:00AM'
p97
aNaNaS'12:00AM'
p98
aNaNag4
aa(lp99
S'SPE524'
p100
aI75170
aI24
aI24
ag32
aS'4:30PM'
p101
aI16
aI30
aI19
aI15
ag83
aS'12:00AM'
p102
aNaNaS'12:00AM'
p103
aNaNag4
aa(lp104
S'SPE534'
p105
aI75613
aI21
aI30
ag32
aS'4:30PM'
p106
aI16
aI30
aI20
aI45
ag83
ag83
aNaNag83
aNaNag4
aa(lp107
S'SPE534'
p108
aI81328
aI22
aI30
ag95
aS'4:30PM'
p109
aI16
aI30
aI20
aI45
ag83
aS'12:00AM'
p110
aNaNaS'12:00AM'
p111
aNaNag4
aa(lp112
S'SPE535'
p113
aI74479
aI22
aI30
ag32
aS'4:30PM'
p114
aI16
aI30
aI20
aI45
ag83
ag83
aNaNag83
aNaNag4
aa(lp115
S'SPE535'
p116
aI81329
aI22
aI30
ag95
aS'4:30PM'
p117
aI16
aI30
aI20
aI45
ag83
aS'12:00AM'
p118
aNaNaS'12:00AM'
p119
aNaNag4
aa(lp120
S'SPE535'
p121
aI74235
aI24
aI24
ag32
aS'7:30PM'
p122
aI19
aI30
aI21
aI0
ag83
aS'12:00AM'
p123
aNaNaS'12:00AM'
p124
aNaNag4
aa(lp125
S'SPE538'
p126
aI87367
aI32
aI37
ag36
aS'4:30PM'
p127
aI16
aI30
aI20
aI45
ag83
ag83
aNaNag83
aNaNag4
aa(lp128
S'SPE540'
p129
aI74438
aI22
aI30
aS'Th'
p130
aS'4:30PM'
p131
aI16
aI30
aI19
aI15
ag83
ag83
aNaNag83
aNaNag4
aa(lp132
S'SPE540'
p133
aI81330
aI22
aI30
ag36
aS' 4:30 PM'
p134
aI16
aI30
aI19
aI15
aNaNaNaNaNaNaNag4
aa(lp135
S'SPE541'
p136
aI75733
aI11
aI24
ag32
aS'4:30PM'
p137
aI16
aI30
aI19
aI15
ag83
aS'12:00AM'
p138
aNaNaS'12:00AM'
p139
aNaNag4
aa(lp140
S'SPE555'
p141
aI75191
aI16
aI24
ag95
aS'4:30PM'
p142
aI16
aI30
aI19
aI15
ag83
aS'12:00AM'
p143
aNaNaS'12:00AM'
p144
aNaNag4
aa(lp145
S'SPE555'
p146
aI75734
aI21
aI24
aS'Th'
p147
aS'4:30PM'
p148
aI16
aI30
aI19
aI15
ag83
aS'12:00AM'
p149
aNaNaS'12:00AM'
p150
aNaNag4
aa(lp151
S'SPE555'
p152
aI75735
aI18
aI24
ag32
aS'4:30PM'
p153
aI16
aI30
aI19
aI15
ag83
aS'12:00AM'
p154
aNaNaS'12:00AM'
p155
aNaNag4
aa(lp156
S'SPE555'
p157
aI75192
aI23
aI35
aS'Th'
p158
aS'4:30PM'
p159
aI16
aI30
aI20
aI45
ag83
ag83
aNaNag83
aNaNag4
aa(lp160
S'SPE555'
p161
aI76752
aI20
aI30
ag95
aS'12:00 PM'
p162
aI12
aI0
aI14
aI45
aNaNaNaNaNaNaNag4
aa(lp163
S'SPE566'
p164
aI79672
aI10
aI10
ag3
aNaNaNaNaNaNaNaNaNaNaNaNag4
aa(lp165
S'SPE568'
p166
aI78861
aI5
aI5
ag3
aNaNaNaNaNaNaNaNaNaNaNaNag4
aa(lp167
S'SPE569'
p168
aI77775
aI10
aI10
ag3
aNaNaNaNaNaNaNaNaNaNaNaNag4
aa(lp169
S'SPE572'
p170
aI82639
aI10
aI10
ag3
aNaNaNaNaNaNaNaNaNaNaNaNag4
aa(lp171
S'SPE573'
p172
aI79670
aI10
aI10
ag3
aNaNaNaNaNaNaNaNaNaNaNaNag4
aa(lp173
S'SPE575'
p174
aI80402
aI32
aI37
ag95
aS'4:30PM'
p175
aI16
aI30
aI19
aI15
ag83
aS'12:00AM'
p176
aNaNaS'12:00AM'
p177
aNaNag4
aa(lp178
S'SPE575'
p179
aI78786
aI24
aI24
ag32
aS'4:30PM'
p180
aI16
aI30
aI19
aI15
ag83
aS'12:00AM'
p181
aNaNaS'12:00AM'
p182
aNaNag4
aa(lp183
S'SPE576'
p184
aI75188
aI22
aI30
ag32
aS'9:00PM'
p185
aI21
aI0
aI22
aI0
ag32
aS'9:00PM'
p186
aI21
aI0
aS'10:00PM'
p187
aI22
aI0
ag4
aa(lp188
S'SPE576'
p189
aI81331
aI23
aI30
ag95
aS'9:00PM'
p190
aI21
aI0
aI22
aI0
ag95
aS'9:00PM'
p191
aI21
aI0
aS'10:00PM'
p192
aI22
aI0
ag4
aa(lp193
S'SPE579'
p194
aI76298
aI39
aI50
ag3
aNaNaNaNaNaNaNaNaNaNaNaNag4
aa(lp195
S'SPE579'
p196
aI76297
aI22
aI24
ag3
aNaNaNaNaNaNaNaNaNaNaNaNag9
aa(lp197
S'SPE580'
p198
aI77518
aI5
aI5
ag3
aNaNaNaNaNaNaNaNaNaNaNaNag4
aa(lp199
S'SPE585'
p200
aI76440
aI9
aI10
ag3
aNaNaNaNaNaNaNaNaNaNaNaNag4
aa(lp201
S'SPE593'
p202
aI75410
aI22
aI30
aS'Th'
p203
aS' 7:30 PM'
p204
aI19
aI30
aI22
aI15
aNaNaNaNaNaNaNag4
aa(lp205
S'SPE593'
p206
aI81332
aI22
aI30
ag36
aS' 7:30 PM'
p207
aI19
aI30
aI22
aI15
aNaNaNaNaNaNaNag4
aa(lp208
S'SPE790'
p209
aI80534
aI15
aI15
ag3
aNaNaNaNaNaNaNaNaNaNaNaNag9
aa.