(lp0
(lp1
S'SSH301'
p2
aI83170
aI29
aI50
aS'T Th'
p3
aS' 9:00 AM'
p4
aI9
aI0
aI10
aI15
aNaNaNaNaNaNaNaS'Not Reserved'
p5
aa(lp6
S'SSH314'
p7
aI83505
aI27
aI30
aS'M W'
p8
aS' 6:00 PM'
p9
aI18
aI0
aI19
aI15
aNaNaNaNaNaNaNag5
aa(lp10
S'SSH314'
p11
aI83506
aI9
aI10
aS'M W'
p12
aS' 6:00 PM'
p13
aI18
aI0
aI19
aI15
aNaNaNaNaNaNaNaS'Reserved'
p14
aa(lp15
S'SSH402'
p16
aI90655
aI0
aI20
aS'T Th'
p17
aS' 1:30 PM'
p18
aI13
aI30
aI14
aI45
aNaNaNaNaNaNaNag14
aa(lp19
S'SSH590'
p20
aI78288
aI30
aI30
aS'ONLINE'
p21
aNaNaNaNaNaNaNaNaNaNaNaNag14
aa(lp22
S'SSH591'
p23
aI86937
aI11
aI15
aS'W'
p24
aS' 9:00 AM'
p25
aI9
aI0
aI11
aI45
aNaNaNaNaNaNaNag5
aa(lp26
S'SSH593'
p27
aI78289
aI30
aI30
ag21
aNaNaNaNaNaNaNaNaNaNaNaNag14
aa(lp28
S'SSH790'
p29
aI77649
aI30
aI30
ag21
aNaNaNaNaNaNaNaNaNaNaNaNag14
aa(lp30
S'SSH792'
p31
aI75224
aI30
aI30
ag21
aNaNaNaNaNaNaNaNaNaNaNaNag14
aa(lp32
S'SSH799'
p33
aI75225
aI29
aI30
ag21
aNaNaNaNaNaNaNaNaNaNaNaNag14
aa.