(lp0
(lp1
S'SST484'
p2
aI84543
aI5
aI5
aS'ONLINE'
p3
aNaNaNaNaNaNaNaNaNaNaNaNaS'Not Reserved'
p4
aa(lp5
S'SST494'
p6
aI83742
aI1
aI2
aS'F'
p7
aS'10:00AM'
p8
aI10
aI0
aI12
aI0
ag7
aS'9:00AM'
p9
aI9
aI0
aS'9:50AM'
p10
aI9
aI50
ag4
aa(lp11
S'SST498'
p12
aI80191
aI5
aI5
ag3
aNaNaNaNaNaNaNaNaNaNaNaNag4
aa(lp13
S'SST510'
p14
aI77480
aI12
aI20
aS'M'
p15
aS' 4:30 PM'
p16
aI16
aI30
aI19
aI15
aNaNaNaNaNaNaNag4
aa(lp17
S'SST590'
p18
aI80495
aI5
aI5
ag3
aNaNaNaNaNaNaNaNaNaNaNaNag4
aa(lp19
S'SST591'
p20
aI83741
aI3
aI10
ag7
aS'10:00AM'
p21
aI10
aI0
aI12
aI0
ag7
aS'9:00AM'
p22
aI9
aI0
aS'9:50AM'
p23
aI9
aI50
ag4
aa(lp24
S'SST591'
p25
aI90658
aI12
aI15
aS'W'
p26
aS' 4:30 PM'
p27
aI16
aI30
aI19
aI15
aNaNaNaNaNaNaNag4
aa(lp28
S'SST592'
p29
aI80496
aI2
aI5
ag3
aNaNaNaNaNaNaNaNaNaNaNaNag4
aa(lp30
S'SST593'
p31
aI80497
aI8
aI10
ag3
aNaNaNaNaNaNaNaNaNaNaNaNag4
aa(lp32
S'SST595'
p33
aI80498
aI3
aI3
ag3
aNaNaNaNaNaNaNaNaNaNaNaNag4
aa(lp34
S'SST599'
p35
aI80499
aI5
aI5
ag3
aNaNaNaNaNaNaNaNaNaNaNaNag4
aa(lp36
S'SST691'
p37
aI80879
aI4
aI15
aS'T Th'
p38
aS' 1:30 PM'
p39
aI13
aI30
aI14
aI45
aNaNaNaNaNaNaNag4
aa(lp40
S'SST691'
p41
aI85840
aI14
aI15
ag7
aS' 1:30 PM'
p42
aI13
aI30
aI15
aI0
aNaNaNaNaNaNaNag4
aa(lp43
S'SST691'
p44
aI90223
aI5
aI10
aS'T'
p45
aS' 4:30 PM'
p46
aI16
aI30
aI19
aI15
aNaNaNaNaNaNaNag4
aa.