(lp0
(lp1
S'STC505'
p2
aI86255
aI24
aI25
aS'T'
p3
aS' 6:00 PM'
p4
aI18
aI0
aI20
aI45
aNaNaNaNaNaNaNaS'Not Reserved'
p5
aa(lp6
S'STC510'
p7
aI86256
aI20
aI25
aS'M'
p8
aS' 6:00 PM'
p9
aI18
aI0
aI20
aI45
aNaNaNaNaNaNaNag5
aa.