(lp0
(lp1
S'STS101'
p2
aI80689
aI56
aI65
aS'ONLINE'
p3
aNaNaNaNaNaNaNaNaNaNaNaNaS'Reserved'
p4
aa(lp5
S'STS101'
p6
aI74723
aI27
aI34
aS'T Th'
p7
aS'10:30 AM'
p8
aI10
aI30
aI11
aI45
aNaNaNaNaNaNaNaS'Not Reserved'
p9
aa(lp10
S'STS110'
p11
aI77654
aI61
aI65
aS'T Th'
p12
aS' 9:00 AM'
p13
aI9
aI0
aI10
aI15
aNaNaNaNaNaNaNag9
aa(lp14
S'STS235'
p15
aI77149
aI61
aI65
ag3
aNaNaNaNaNaNaNaNaNaNaNaNag4
aa(lp16
S'STS260'
p17
aI83304
aI17
aI20
ag3
aNaNaNaNaNaNaNaNaNaNaNaNag4
aa(lp18
S'STS301'
p19
aI85874
aI29
aI30
ag3
aNaNaNaNaNaNaNaNaNaNaNaNag4
aa(lp20
S'STS302'
p21
aI74700
aI60
aI65
ag3
aNaNaNaNaNaNaNaNaNaNaNaNag4
aa(lp22
S'STS303'
p23
aI75691
aI96
aI100
ag3
aNaNaNaNaNaNaNaNaNaNaNaNag4
aa(lp24
S'STS304'
p25
aI83299
aI0
aI30
ag3
aNaNaNaNaNaNaNaNaNaNaNaNag4
aa(lp26
S'STS304'
p27
aI85515
aI0
aI10
ag3
aNaNaNaNaNaNaNaNaNaNaNaNag4
aa(lp28
S'STS304'
p29
aI83302
aI0
aI10
ag3
aNaNaNaNaNaNaNaNaNaNaNaNag4
aa(lp30
S'STS304'
p31
aI82350
aI28
aI30
aS'T Th'
p32
aS' 3:00 PM'
p33
aI15
aI0
aI16
aI15
aNaNaNaNaNaNaNag9
aa(lp34
S'STS305'
p35
aI74701
aI65
aI65
ag3
aNaNaNaNaNaNaNaNaNaNaNaNag4
aa(lp36
S'STS317'
p37
aI74698
aI59
aI65
ag3
aNaNaNaNaNaNaNaNaNaNaNaNag4
aa(lp38
S'STS325'
p39
aI74699
aI62
aI65
ag3
aNaNaNaNaNaNaNaNaNaNaNaNag4
aa(lp40
S'STS328'
p41
aI80713
aI4
aI20
ag3
aNaNaNaNaNaNaNaNaNaNaNaNag4
aa(lp42
S'STS330'
p43
aI91679
aI28
aI30
ag3
aNaNaNaNaNaNaNaNaNaNaNaNag4
aa(lp44
S'STS331'
p45
aI74456
aI21
aI30
ag3
aNaNaNaNaNaNaNaNaNaNaNaNag4
aa(lp46
S'STS332'
p47
aI84315
aI22
aI30
ag3
aNaNaNaNaNaNaNaNaNaNaNaNag4
aa(lp48
S'STS364'
p49
aI77573
aI37
aI40
ag3
aNaNaNaNaNaNaNaNaNaNaNaNag4
aa(lp50
S'STS401'
p51
aI78174
aI33
aI40
ag3
aNaNaNaNaNaNaNaNaNaNaNaNag9
aa(lp52
S'STS425'
p53
aI77655
aI40
aI42
aS'T Th'
p54
aS' 1:30 PM'
p55
aI13
aI30
aI14
aI45
aNaNaNaNaNaNaNag9
aa(lp56
S'STS484'
p57
aI74843
aI10
aI10
ag3
aNaNaNaNaNaNaNaNaNaNaNaNag9
aa(lp58
S'STS498'
p59
aI74844
aI10
aI10
ag3
aNaNaNaNaNaNaNaNaNaNaNaNag9
aa(lp60
S'STS499'
p61
aI74845
aI10
aI10
ag3
aNaNaNaNaNaNaNaNaNaNaNaNag9
aa.