(lp0
(lp1
S'SWU171'
p2
aI78899
aI51
aI100
aS'ONLINE'
p3
aNaNaNaNaNaNaNaNaNaNaNaNaS'Reserved'
p4
aa(lp5
S'SWU171'
p6
aI78900
aI88
aI100
ag3
aNaNaNaNaNaNaNaNaNaNaNaNag4
aa(lp7
S'SWU171'
p8
aI70028
aI30
aI66
aS'T Th'
p9
aS'12:00 PM'
p10
aI12
aI0
aI13
aI15
aNaNaNaNaNaNaNaS'Not Reserved'
p11
aa(lp12
S'SWU171'
p13
aI74789
aI155
aI200
ag3
aNaNaNaNaNaNaNaNaNaNaNaNag4
aa(lp14
S'SWU171'
p15
aI75619
aI52
aI70
aS'T Th'
p16
aS'12:00 PM'
p17
aI12
aI0
aI13
aI15
aNaNaNaNaNaNaNag11
aa(lp18
S'SWU171'
p19
aI75620
aI54
aI70
aS'T Th'
p20
aS' 3:00 PM'
p21
aI15
aI0
aI16
aI15
aNaNaNaNaNaNaNag11
aa(lp22
S'SWU171'
p23
aI87885
aI136
aI168
aS'T Th'
p24
aS' 1:30 PM'
p25
aI13
aI30
aI14
aI45
aNaNaNaNaNaNaNag11
aa(lp26
S'SWU180'
p27
aI78901
aI51
aI100
ag3
aNaNaNaNaNaNaNaNaNaNaNaNag4
aa(lp28
S'SWU181'
p29
aI78902
aI59
aI100
ag3
aNaNaNaNaNaNaNaNaNaNaNaNag4
aa(lp30
S'SWU182'
p31
aI78903
aI88
aI100
ag3
aNaNaNaNaNaNaNaNaNaNaNaNag4
aa(lp32
S'SWU183'
p33
aI78904
aI92
aI100
ag3
aNaNaNaNaNaNaNaNaNaNaNaNag4
aa(lp34
S'SWU250'
p35
aI87906
aI0
aI60
ag3
aNaNaNaNaNaNaNaNaNaNaNaNag4
aa(lp36
S'SWU250'
p37
aI91856
aI60
aI60
ag3
aNaNaNaNaNaNaNaNaNaNaNaNag11
aa(lp38
S'SWU250'
p39
aI83739
aI2
aI60
ag3
aNaNaNaNaNaNaNaNaNaNaNaNag4
aa(lp40
S'SWU250'
p41
aI91857
aI60
aI60
ag3
aNaNaNaNaNaNaNaNaNaNaNaNag11
aa(lp42
S'SWU250'
p43
aI74044
aI30
aI60
aS'T Th'
p44
aS' 3:00 PM'
p45
aI15
aI0
aI16
aI15
aNaNaNaNaNaNaNag11
aa(lp46
S'SWU250'
p47
aI74755
aI41
aI60
aS'T Th'
p48
aS' 3:00 PM'
p49
aI15
aI0
aI16
aI15
aNaNaNaNaNaNaNag11
aa(lp50
S'SWU250'
p51
aI75622
aI29
aI60
aS'M W'
p52
aS' 3:00 PM'
p53
aI15
aI0
aI16
aI15
aNaNaNaNaNaNaNag11
aa(lp54
S'SWU250'
p55
aI75692
aI48
aI60
aS'T Th'
p56
aS' 3:00 PM'
p57
aI15
aI0
aI16
aI15
aNaNaNaNaNaNaNag11
aa(lp58
S'SWU250'
p59
aI75693
aI41
aI60
aS'M W'
p60
aS' 3:00 PM'
p61
aI15
aI0
aI16
aI15
aNaNaNaNaNaNaNag11
aa(lp62
S'SWU250'
p63
aI75694
aI38
aI60
aS'T Th'
p64
aS' 3:00 PM'
p65
aI15
aI0
aI16
aI15
aNaNaNaNaNaNaNag11
aa(lp66
S'SWU250'
p67
aI77509
aI38
aI60
aS'T Th'
p68
aS' 4:30 PM'
p69
aI16
aI30
aI17
aI45
aNaNaNaNaNaNaNag11
aa(lp70
S'SWU250'
p71
aI77510
aI41
aI60
aS'M W'
p72
aS' 4:30 PM'
p73
aI16
aI30
aI17
aI45
aNaNaNaNaNaNaNag11
aa(lp74
S'SWU250'
p75
aI79003
aI47
aI60
aS'T Th'
p76
aS' 4:30 PM'
p77
aI16
aI30
aI17
aI45
aNaNaNaNaNaNaNag11
aa(lp78
S'SWU291'
p79
aI70030
aI25
aI62
aS'T Th'
p80
aS'12:00 PM'
p81
aI12
aI0
aI13
aI15
aNaNaNaNaNaNaNag11
aa(lp82
S'SWU291'
p83
aI75621
aI64
aI80
ag3
aNaNaNaNaNaNaNaNaNaNaNaNag4
aa(lp84
S'SWU294'
p85
aI82608
aI36
aI60
aS'M W'
p86
aS' 3:00 PM'
p87
aI15
aI0
aI16
aI15
aNaNaNaNaNaNaNag11
aa(lp88
S'SWU294'
p89
aI82609
aI48
aI60
aS'M W'
p90
aS' 4:30 PM'
p91
aI16
aI30
aI17
aI45
aNaNaNaNaNaNaNag11
aa(lp92
S'SWU295'
p93
aI74756
aI3
aI20
aS'T Th'
p94
aS' 9:00 AM'
p95
aI9
aI0
aI10
aI15
aNaNaNaNaNaNaNag11
aa(lp96
S'SWU295'
p97
aI74757
aI19
aI20
aS'T Th'
p98
aS' 9:00 AM'
p99
aI9
aI0
aI10
aI15
aNaNaNaNaNaNaNag11
aa(lp100
S'SWU295'
p101
aI85501
aI1
aI20
aS'T Th'
p102
aS' 1:30 PM'
p103
aI13
aI30
aI14
aI45
aNaNaNaNaNaNaNag11
aa(lp104
S'SWU302'
p105
aI70032
aI45
aI100
ag3
aNaNaNaNaNaNaNaNaNaNaNaNag4
aa(lp106
S'SWU303'
p107
aI70031
aI4
aI24
ag3
aNaNaNaNaNaNaNaNaNaNaNaNag11
aa(lp108
S'SWU303'
p109
aI76468
aI20
aI24
ag3
aNaNaNaNaNaNaNaNaNaNaNaNag11
aa(lp110
S'SWU303'
p111
aI76469
aI22
aI24
ag3
aNaNaNaNaNaNaNaNaNaNaNaNag11
aa(lp112
S'SWU303'
p113
aI76470
aI24
aI24
ag3
aNaNaNaNaNaNaNaNaNaNaNaNag4
aa(lp114
S'SWU303'
p115
aI77089
aI0
aI24
aS'T Th'
p116
aS' 3:00 PM'
p117
aI15
aI0
aI16
aI15
aNaNaNaNaNaNaNag4
aa(lp118
S'SWU303'
p119
aI77090
aI0
aI24
aS'T Th'
p120
aS' 3:00 PM'
p121
aI15
aI0
aI16
aI15
aNaNaNaNaNaNaNag4
aa(lp122
S'SWU303'
p123
aI77599
aI19
aI24
aS'T Th'
p124
aS' 3:00 PM'
p125
aI15
aI0
aI16
aI15
aNaNaNaNaNaNaNag11
aa(lp126
S'SWU303'
p127
aI79336
aI9
aI15
aS'T'
p128
aS' 5:40 PM'
p129
aI17
aI40
aI20
aI30
aNaNaNaNaNaNaNag11
aa(lp130
S'SWU310'
p131
aI70033
aI0
aI20
aS'T Th'
p132
aS'10:30 AM'
p133
aI10
aI30
aI11
aI45
aNaNaNaNaNaNaNag4
aa(lp134
S'SWU310'
p135
aI74761
aI7
aI20
aS'T Th'
p136
aS'10:30 AM'
p137
aI10
aI30
aI11
aI45
aNaNaNaNaNaNaNag11
aa(lp138
S'SWU310'
p139
aI74762
aI15
aI20
aS'T Th'
p140
aS'12:00 PM'
p141
aI12
aI0
aI13
aI15
aNaNaNaNaNaNaNag11
aa(lp142
S'SWU310'
p143
aI75624
aI7
aI20
aS'T Th'
p144
aS'12:00 PM'
p145
aI12
aI0
aI13
aI15
aNaNaNaNaNaNaNag11
aa(lp146
S'SWU310'
p147
aI78905
aI0
aI20
aS'T Th'
p148
aS' 1:30 PM'
p149
aI13
aI30
aI14
aI45
aNaNaNaNaNaNaNag4
aa(lp150
S'SWU310'
p151
aI87910
aI11
aI24
aS'M'
p152
aS' 6:00 PM'
p153
aI18
aI0
aI20
aI45
aNaNaNaNaNaNaNag11
aa(lp154
S'SWU320'
p155
aI70034
aI0
aI35
ag3
aNaNaNaNaNaNaNaNaNaNaNaNag4
aa(lp156
S'SWU320'
p157
aI82360
aI13
aI35
ag3
aNaNaNaNaNaNaNaNaNaNaNaNag4
aa(lp158
S'SWU320'
p159
aI74791
aI41
aI60
aS'T Th'
p160
aS' 7:30 AM'
p161
aI7
aI30
aI8
aI45
aNaNaNaNaNaNaNag11
aa(lp162
S'SWU320'
p163
aI75020
aI12
aI18
aS'Th'
p164
aS' 5:40 PM'
p165
aI17
aI40
aI20
aI30
aNaNaNaNaNaNaNag11
aa(lp166
S'SWU321'
p167
aI70035
aI25
aI100
ag3
aNaNaNaNaNaNaNaNaNaNaNaNag4
aa(lp168
S'SWU321'
p169
aI82355
aI83
aI100
ag3
aNaNaNaNaNaNaNaNaNaNaNaNag4
aa(lp170
S'SWU340'
p171
aI70036
aI24
aI70
ag3
aNaNaNaNaNaNaNaNaNaNaNaNag11
aa(lp172
S'SWU340'
p173
aI74792
aI8
aI60
aS'T Th'
p174
aS' 1:30 PM'
p175
aI13
aI30
aI14
aI45
aNaNaNaNaNaNaNag11
aa(lp176
S'SWU374'
p177
aI74048
aI29
aI35
aS'T Th'
p178
aS' 9:00 AM'
p179
aI9
aI0
aI10
aI15
aNaNaNaNaNaNaNag11
aa(lp180
S'SWU374'
p181
aI82374
aI0
aI35
aS'T Th'
p182
aS' 9:00 AM'
p183
aI9
aI0
aI10
aI15
aNaNaNaNaNaNaNag4
aa(lp184
S'SWU374'
p185
aI77121
aI24
aI35
aS'T Th'
p186
aS' 1:30 PM'
p187
aI13
aI30
aI14
aI45
aNaNaNaNaNaNaNag11
aa(lp188
S'SWU374'
p189
aI83964
aI0
aI30
ag3
aNaNaNaNaNaNaNaNaNaNaNaNag4
aa(lp190
S'SWU394'
p191
aI70037
aI30
aI30
ag3
aNaNaNaNaNaNaNaNaNaNaNaNag4
aa(lp192
S'SWU394'
p193
aI70038
aI30
aI30
ag3
aNaNaNaNaNaNaNaNaNaNaNaNag4
aa(lp194
S'SWU410'
p195
aI70039
aI9
aI20
ag128
aS'10:30AM'
p196
aI10
aI30
aI11
aI45
aS''
p197
ag197
aNaNag197
aNaNag11
aa(lp198
S'SWU410'
p199
aI70040
aI20
aI20
aS'Th'
p200
aS'10:30AM'
p201
aI10
aI30
aI11
aI45
ag197
ag197
aNaNag197
aNaNag11
aa(lp202
S'SWU410'
p203
aI74071
aI12
aI20
aS'T Th'
p204
aS'12:00 PM'
p205
aI12
aI0
aI13
aI15
aNaNaNaNaNaNaNag11
aa(lp206
S'SWU410'
p207
aI74072
aI18
aI20
aS'T Th'
p208
aS'12:00 PM'
p209
aI12
aI0
aI13
aI15
aNaNaNaNaNaNaNag11
aa(lp210
S'SWU410'
p211
aI75696
aI13
aI20
aS'Th'
p212
aS' 6:00 PM'
p213
aI18
aI0
aI20
aI45
aNaNaNaNaNaNaNag11
aa(lp214
S'SWU410'
p215
aI77600
aI17
aI18
ag128
aS' 1:00 PM'
p216
aI13
aI0
aI15
aI50
aNaNaNaNaNaNaNag11
aa(lp217
S'SWU410'
p218
aI80644
aI18
aI18
aS'Th'
p219
aS' 5:40 PM'
p220
aI17
aI40
aI20
aI30
aNaNaNaNaNaNaNag11
aa(lp221
S'SWU411'
p222
aI75697
aI0
aI24
aS'T Th'
p223
aS'10:30 AM'
p224
aI10
aI30
aI11
aI45
aNaNaNaNaNaNaNag4
aa(lp225
S'SWU411'
p226
aI87912
aI15
aI24
aS'T Th'
p227
aS'12:00 PM'
p228
aI12
aI0
aI13
aI15
aNaNaNaNaNaNaNag11
aa(lp229
S'SWU411'
p230
aI78907
aI20
aI25
ag128
aS' 6:00 PM'
p231
aI18
aI0
aI20
aI45
aNaNaNaNaNaNaNag11
aa(lp232
S'SWU412'
p233
aI73730
aI121
aI150
aS'M W'
p234
aS' 8:00 AM'
p235
aI8
aI0
aI17
aI0
aNaNaNaNaNaNaNag11
aa(lp236
S'SWU412'
p237
aI73731
aI49
aI50
aS'M W'
p238
aS' 8:00 AM'
p239
aI8
aI0
aI17
aI0
aNaNaNaNaNaNaNag11
aa(lp240
S'SWU413'
p241
aI73732
aI12
aI20
aS'T Th'
p242
aS'12:00 PM'
p243
aI12
aI0
aI13
aI15
aNaNaNaNaNaNaNag11
aa(lp244
S'SWU413'
p245
aI73733
aI20
aI20
aS'T Th'
p246
aS'12:00 PM'
p247
aI12
aI0
aI13
aI15
aNaNaNaNaNaNaNag11
aa(lp248
S'SWU413'
p249
aI73734
aI20
aI20
aS'T Th'
p250
aS'12:00 PM'
p251
aI12
aI0
aI13
aI15
aNaNaNaNaNaNaNag11
aa(lp252
S'SWU413'
p253
aI74069
aI11
aI20
aS'T Th'
p254
aS' 1:30 PM'
p255
aI13
aI30
aI14
aI45
aNaNaNaNaNaNaNag11
aa(lp256
S'SWU413'
p257
aI74070
aI18
aI20
aS'T Th'
p258
aS' 1:30 PM'
p259
aI13
aI30
aI14
aI45
aNaNaNaNaNaNaNag11
aa(lp260
S'SWU413'
p261
aI75699
aI10
aI20
ag128
aS' 6:00 PM'
p262
aI18
aI0
aI20
aI45
aNaNaNaNaNaNaNag11
aa(lp263
S'SWU413'
p264
aI77621
aI17
aI18
aS'Th'
p265
aS' 1:00 PM'
p266
aI13
aI0
aI15
aI50
aNaNaNaNaNaNaNag11
aa(lp267
S'SWU413'
p268
aI80645
aI18
aI18
ag128
aS' 5:40 PM'
p269
aI17
aI40
aI20
aI30
aNaNaNaNaNaNaNag11
aa(lp270
S'SWU414'
p271
aI75424
aI87
aI125
aS'M W'
p272
aS' 8:00 AM'
p273
aI8
aI0
aI17
aI0
aNaNaNaNaNaNaNag11
aa(lp274
S'SWU415'
p275
aI76321
aI3
aI24
aS'T Th'
p276
aS'12:00 PM'
p277
aI12
aI0
aI13
aI15
aNaNaNaNaNaNaNag11
aa(lp278
S'SWU415'
p279
aI87914
aI12
aI24
aS'T Th'
p280
aS' 1:30 PM'
p281
aI13
aI30
aI14
aI45
aNaNaNaNaNaNaNag11
aa(lp282
S'SWU415'
p283
aI77124
aI20
aI25
aS'Th'
p284
aS' 6:00 PM'
p285
aI18
aI0
aI20
aI45
aNaNaNaNaNaNaNag11
aa(lp286
S'SWU432'
p287
aI74186
aI76
aI100
ag3
aNaNaNaNaNaNaNaNaNaNaNaNag4
aa(lp288
S'SWU432'
p289
aI75700
aI10
aI10
ag152
aS' 5:40 PM'
p290
aI17
aI40
aI20
aI30
aNaNaNaNaNaNaNag11
aa(lp291
S'SWU432'
p292
aI90786
aI9
aI10
ag152
aS' 9:00 AM'
p293
aI9
aI0
aI11
aI50
aNaNaNaNaNaNaNag11
aa(lp294
S'SWU432'
p295
aI74185
aI30
aI45
aS'T Th'
p296
aS' 9:00 AM'
p297
aI9
aI0
aI10
aI15
aNaNaNaNaNaNaNag11
aa(lp298
S'SWU456'
p299
aI82509
aI7
aI15
aS'Th'
p300
aS' 6:00 PM'
p301
aI18
aI0
aI20
aI45
aNaNaNaNaNaNaNag11
aa(lp302
S'SWU458'
p303
aI82532
aI12
aI35
ag3
aNaNaNaNaNaNaNaNaNaNaNaNag4
aa(lp304
S'SWU460'
p305
aI82527
aI11
aI30
ag3
aNaNaNaNaNaNaNaNaNaNaNaNag4
aa(lp306
S'SWU461'
p307
aI82496
aI0
aI30
ag3
aNaNaNaNaNaNaNaNaNaNaNaNag4
aa(lp308
S'SWU492'
p309
aI72906
aI5
aI5
ag3
aNaNaNaNaNaNaNaNaNaNaNaNag11
aa(lp310
S'SWU492'
p311
aI74068
aI3
aI3
ag3
aNaNaNaNaNaNaNaNaNaNaNaNag11
aa(lp312
S'SWU493'
p313
aI70041
aI10
aI10
ag3
aNaNaNaNaNaNaNaNaNaNaNaNag11
aa(lp314
S'SWU493'
p315
aI70042
aI5
aI5
ag3
aNaNaNaNaNaNaNaNaNaNaNaNag11
aa(lp316
S'SWU498'
p317
aI77812
aI4
aI9
ag3
aNaNaNaNaNaNaNaNaNaNaNaNag11
aa(lp318
S'SWU498'
p319
aI91124
aI8
aI15
aS'W'
p320
aS' 6:00 PM'
p321
aI18
aI0
aI20
aI45
aNaNaNaNaNaNaNag11
aa(lp322
S'SWU499'
p323
aI70043
aI10
aI10
ag3
aNaNaNaNaNaNaNaNaNaNaNaNag11
aa(lp324
S'SWU499'
p325
aI70044
aI5
aI5
ag3
aNaNaNaNaNaNaNaNaNaNaNaNag11
aa.