(lp0
(lp1
S'TDM205'
p2
aI73858
aI0
aI30
aS'ONLINE'
p3
aNaNaNaNaNaS''
p4
aNaNaNaNaNaNaS'Reserved'
p5
aa(lp6
S'TDM205'
p7
aI72657
aI8
aI45
aS'T Th'
p8
aS' 3:00 PM'
p9
aI15
aI0
aI16
aI15
aNaNaNaNaNaNaNaS'Not Reserved'
p10
aa(lp11
S'TDM205'
p12
aI72658
aI23
aI70
aS'Th'
p13
aS'10:30AM'
p14
aI10
aI30
aI11
aI45
ag4
aS'12:00AM'
p15
aNaNaS'12:00AM'
p16
aNaNag10
aa(lp17
S'TDM205'
p18
aI90024
aI0
aI48
aS'M W'
p19
aS' 3:00 PM'
p20
aI15
aI0
aI16
aI15
aNaNaNaNaNaNaNag5
aa(lp21
S'TDM205'
p22
aI90187
aI21
aI30
aS'M W F'
p23
aS'12:00 PM'
p24
aI12
aI0
aI12
aI50
aNaNaNaNaNaNaNag10
aa(lp25
S'TDM225'
p26
aI72659
aI42
aI65
aS'T Th'
p27
aS'10:30 AM'
p28
aI10
aI30
aI11
aI45
aNaNaNaNaNaNaNag10
aa(lp29
S'TDM225'
p30
aI75330
aI30
aI65
ag3
aNaNaNaNaNaNaNaNaNaNaNaNag5
aa(lp31
S'TDM345'
p32
aI72660
aI32
aI80
aS'Th'
p33
aS' 4:30 PM'
p34
aI16
aI30
aI19
aI15
aNaNaNaNaNaNaNag10
aa(lp35
S'TDM350'
p36
aI72661
aI44
aI75
aS'T Th'
p37
aS' 1:30 PM'
p38
aI13
aI30
aI14
aI45
aNaNaNaNaNaNaNag10
aa(lp39
S'TDM350'
p40
aI75331
aI12
aI60
ag3
aNaNaNaNaNaNaNaNaNaNaNaNag5
aa(lp41
S'TDM372'
p42
aI72662
aI21
aI35
aS'M W'
p43
aS' 3:00 PM'
p44
aI15
aI0
aI16
aI15
aNaNaNaNaNaNaNag10
aa(lp45
S'TDM372'
p46
aI79180
aI10
aI36
aS'T Th'
p47
aS'10:30 AM'
p48
aI10
aI30
aI11
aI45
aNaNaNaNaNaNaNag10
aa(lp49
S'TDM386'
p50
aI72946
aI31
aI75
aS'T Th'
p51
aS' 3:00 PM'
p52
aI15
aI0
aI16
aI15
aNaNaNaNaNaNaNag10
aa(lp53
S'TDM401'
p54
aI72748
aI32
aI59
aS'M W'
p55
aS' 4:30 PM'
p56
aI16
aI30
aI17
aI45
aNaNaNaNaNaNaNag10
aa(lp57
S'TDM402'
p58
aI72717
aI32
aI60
aS'M W'
p59
aS' 3:00 PM'
p60
aI15
aI0
aI16
aI15
aNaNaNaNaNaNaNag10
aa(lp61
S'TDM415'
p62
aI73117
aI75
aI100
ag3
aNaNaNaNaNaNaNaNaNaNaNaNag5
aa(lp63
S'TDM448'
p64
aI72751
aI39
aI60
ag3
aNaNaNaNaNaNaNaNaNaNaNaNag5
aa(lp65
S'TDM458'
p66
aI72663
aI29
aI110
ag3
aNaNaNaNaNaNaNaNaNaNaNaNag10
aa(lp67
S'TDM463'
p68
aI72798
aI40
aI40
ag3
aNaNaNaNaNaNaNaNaNaNaNaNag5
aa(lp69
S'TDM475'
p70
aI79812
aI5
aI25
ag3
aNaNaNaNaNaNaNaNaNaNaNaNag5
aa(lp71
S'TDM480'
p72
aI75959
aI40
aI90
ag3
aNaNaNaNaNaNaNaNaNaNaNaNag5
aa(lp73
S'TDM492'
p74
aI76567
aI2
aI3
ag3
aNaNaNaNaNaNaNaNaNaNaNaNag10
aa(lp75
S'TDM493'
p76
aI79434
aI5
aI5
ag3
aNaNaNaNaNaNaNaNaNaNaNaNag10
aa(lp77
S'TDM499'
p78
aI72802
aI5
aI5
ag3
aNaNaNaNaNaNaNaNaNaNaNaNag10
aa(lp79
S'TDM520'
p80
aI83809
aI9
aI10
ag3
aNaNaNaNaNaNaNaNaNaNaNaNag5
aa(lp81
S'TDMII<'
p82
aI83810
aI10
aI10
ag3
aNaNaNaNaNaNaNaNaNaNaNaNag5
aa(lp83
S'TDM561'
p84
aI83811
aI10
aI10
ag3
aNaNaNaNaNaNaNaNaNaNaNaNag5
aa(lp85
S'TDM570'
p86
aI77312
aI10
aI10
ag3
aNaNaNaNaNaNaNaNaNaNaNaNag5
aa.