(lp0
(lp1
S'TEL101'
p2
aI78726
aI52
aI55
aS'F'
p3
aS'2:30PM'
p4
aI14
aI30
aI16
aI30
ag3
aS'2:30PM'
p5
aI14
aI30
aS'4:30PM'
p6
aI16
aI30
aS'Not Reserved'
p7
aa(lp8
S'TEL101'
p9
aI78727
aI54
aI60
ag3
aS'2:30PM'
p10
aI14
aI30
aI16
aI30
ag3
aS'2:30PM'
p11
aI14
aI30
aS'4:30PM'
p12
aI16
aI30
ag7
aa(lp13
S'TEL101'
p14
aI78728
aI186
aI200
ag3
aS'2:30PM'
p15
aI14
aI30
aI16
aI30
ag3
aS'2:30PM'
p16
aI14
aI30
aS'4:30PM'
p17
aI16
aI30
ag7
aa(lp18
S'TEL101'
p19
aI78730
aI179
aI200
ag3
aS'2:30PM'
p20
aI14
aI30
aI16
aI30
ag3
aS'2:30PM'
p21
aI14
aI30
aS'4:30PM'
p22
aI16
aI30
ag7
aa(lp23
S'TEL111'
p24
aI82819
aI26
aI50
aS'ONLINE'
p25
aNaNaNaNaNaNaNaNaNaNaNaNaS'Reserved'
p26
aa(lp27
S'TEL212'
p28
aI80296
aI25
aI35
ag25
aNaNaNaNaNaNaNaNaNaNaNaNag26
aa(lp29
S'TEL212'
p30
aI74019
aI23
aI35
ag25
aNaNaNaNaNaNaNaNaNaNaNaNag26
aa(lp31
S'TEL212'
p32
aI74103
aI28
aI35
aS'M W'
p33
aS' 4:30 PM'
p34
aI16
aI30
aI17
aI45
aNaNaNaNaNaNaNag7
aa(lp35
S'TEL212'
p36
aI74104
aI11
aI35
aS'T Th'
p37
aS' 1:30 PM'
p38
aI13
aI30
aI14
aI45
aNaNaNaNaNaNaNag7
aa(lp39
S'TEL212'
p40
aI80297
aI26
aI35
aS'T Th'
p41
aS' 3:00 PM'
p42
aI15
aI0
aI16
aI15
aNaNaNaNaNaNaNag7
aa(lp43
S'TEL215'
p44
aI77301
aI32
aI35
aS'T Th'
p45
aS' 9:00 AM'
p46
aI9
aI0
aI10
aI15
aNaNaNaNaNaNaNag26
aa(lp47
S'TEL215'
p48
aI77302
aI0
aI35
aS'T Th'
p49
aS'10:30 AM'
p50
aI10
aI30
aI11
aI45
aNaNaNaNaNaNaNag26
aa(lp51
S'TEL215'
p52
aI77303
aI7
aI35
aS'T Th'
p53
aS'12:00 PM'
p54
aI12
aI0
aI13
aI15
aNaNaNaNaNaNaNag7
aa(lp55
S'TEL215'
p56
aI77353
aI21
aI35
aS'T Th'
p57
aS' 1:30 PM'
p58
aI13
aI30
aI14
aI45
aNaNaNaNaNaNaNag7
aa(lp59
S'TEL215'
p60
aI80218
aI33
aI35
aS'T Th'
p61
aS' 1:30 PM'
p62
aI13
aI30
aI14
aI45
aNaNaNaNaNaNaNag7
aa(lp63
S'TEL215'
p64
aI80295
aI25
aI35
aS'T'
p65
aS' 4:30 PM'
p66
aI16
aI30
aI19
aI15
aNaNaNaNaNaNaNag7
aa(lp67
S'TEL313'
p68
aI79941
aI17
aI35
ag25
aNaNaNaNaNaNaNaNaNaNaNaNag26
aa(lp69
S'TEL315'
p70
aI77309
aI77
aI105
ag25
aNaNaNaNaNaNaNaNaNaNaNaNag26
aa(lp71
S'TEL315'
p72
aI74093
aI61
aI70
ag25
aNaNaNaNaNaNaNaNaNaNaNaNag26
aa(lp73
S'TEL315'
p74
aI74138
aI26
aI35
aS'T Th'
p75
aS' 1:30 PM'
p76
aI13
aI30
aI14
aI45
aNaNaNaNaNaNaNag7
aa(lp77
S'TEL315'
p78
aI74139
aI23
aI35
aS'T Th'
p79
aS'12:00 PM'
p80
aI12
aI0
aI13
aI15
aNaNaNaNaNaNaNag7
aa(lp81
S'TEL315'
p82
aI74667
aI33
aI35
ag65
aS' 4:30 PM'
p83
aI16
aI30
aI19
aI15
aNaNaNaNaNaNaNag7
aa(lp84
S'TEL315'
p85
aI77909
aI59
aI70
ag25
aNaNaNaNaNaNaNaNaNaNaNaNag26
aa(lp86
S'TEL394'
p87
aI80448
aI5
aI5
aS'Th'
p88
aS' 4:30 PM'
p89
aI16
aI30
aI19
aI15
aNaNaNaNaNaNaNag7
aa(lp90
S'TEL404'
p91
aI91279
aI28
aI35
ag25
aNaNaNaNaNaNaNaNaNaNaNaNag26
aa(lp92
S'TEL405'
p93
aI91281
aI34
aI35
ag25
aNaNaNaNaNaNaNaNaNaNaNaNag26
aa(lp94
S'TEL430'
p95
aI88198
aI10
aI35
ag25
aNaNaNaNaNaNaNaNaNaNaNaNag26
aa(lp96
S'TEL431'
p97
aI88191
aI18
aI35
ag25
aNaNaNaNaNaNaNaNaNaNaNaNag26
aa(lp98
S'TEL431'
p99
aI87813
aI15
aI35
ag65
aS' 4:30 PM'
p100
aI16
aI30
aI19
aI15
aNaNaNaNaNaNaNag7
aa(lp101
S'TEL492'
p102
aI74253
aI6
aI10
ag25
aNaNaNaNaNaNaNaNaNaNaNaNag26
aa(lp103
S'TEL493'
p104
aI75236
aI7
aI10
ag25
aNaNaNaNaNaNaNaNaNaNaNaNag26
aa(lp105
S'TEL494'
p106
aI82998
aI11
aI12
aS'T Th'
p107
aS' 3:00 PM'
p108
aI15
aI0
aI16
aI15
aNaNaNaNaNaNaNag26
aa(lp109
S'TEL494'
p110
aI91692
aI9
aI10
ag25
aNaNaNaNaNaNaNaNaNaNaNaNag7
aa(lp111
S'TEL494'
p112
aI85858
aI29
aI30
ag25
aNaNaNaNaNaNaNaNaNaNaNaNag7
aa(lp113
S'TEL499'
p114
aI80544
aI4
aI6
ag25
aNaNaNaNaNaNaNaNaNaNaNaNag7
aa(lp115
S'TEL595'
p116
aI78889
aI25
aI25
ag25
aNaNaNaNaNaNaNaNaNaNaNaNag26
aa(lp117
S'TEL595'
p118
aI73025
aI50
aI50
ag25
aNaNaNaNaNaNaNaNaNaNaNaNag7
aa(lp119
S'TEL701'
p120
aI91812
aI22
aI22
aS'Th'
p121
aS'4:30PM'
p122
aI16
aI30
aI19
aI15
aS'Th'
p123
aS'4:30PM'
p124
aI16
aI30
aS'7:15PM'
p125
aI19
aI15
ag7
aa(lp126
S'TEL701'
p127
aI91811
aI22
aI22
aS'Th'
p128
aS'4:30PM'
p129
aI16
aI30
aI19
aI15
aS'Th'
p130
aS'4:30PM'
p131
aI16
aI30
aS'7:15PM'
p132
aI19
aI15
ag7
aa(lp133
S'TEL703'
p134
aI81334
aI23
aI25
aS'Th'
p135
aS' 4:30 PM'
p136
aI16
aI30
aI19
aI15
aNaNaNaNaNaNaNag7
aa(lp137
S'TEL711'
p138
aI81335
aI23
aI25
aS'Th'
p139
aS' 7:30 PM'
p140
aI19
aI30
aI22
aI15
aNaNaNaNaNaNaNag7
aa(lp141
S'TEL713'
p142
aI90521
aI15
aI22
aS'Th'
p143
aS'4:30PM'
p144
aI16
aI30
aI19
aI15
aS'Th'
p145
aS'4:30PM'
p146
aI16
aI30
aS'7:15PM'
p147
aI19
aI15
ag7
aa(lp148
S'TEL713'
p149
aI77942
aI19
aI22
aS'Th'
p150
aS'4:30PM'
p151
aI16
aI30
aI19
aI15
aS''
p152
aS'12:00AM'
p153
aNaNaS'12:00AM'
p154
aNaNag7
aa(lp155
S'TEL792'
p156
aI90524
aI8
aI8
ag25
aNaNaNaNaNaNaNaNaNaNaNaNag7
aa(lp157
S'TEL792'
p158
aI76300
aI8
aI8
ag25
aNaNaNaNaNaNaNaNaNaNaNaNag7
aa(lp159
S'TEL792'
p160
aI90529
aI6
aI6
ag25
aNaNaNaNaNaNaNaNaNaNaNaNag7
aa(lp161
S'TEL792'
p162
aI76301
aI6
aI6
ag25
aNaNaNaNaNaNaNaNaNaNaNaNag7
aa(lp163
S'TEL792'
p164
aI90530
aI8
aI8
ag25
aNaNaNaNaNaNaNaNaNaNaNaNag7
aa(lp165
S'TEL792'
p166
aI76302
aI7
aI8
ag25
aNaNaNaNaNaNaNaNaNaNaNaNag7
aa(lp167
S'TEL799'
p168
aI73351
aI5
aI8
ag25
aNaNaNaNaNaNaNaNaNaNaNaNag7
aa(lp169
S'TEL799'
p170
aI76303
aI6
aI8
ag25
aNaNaNaNaNaNaNaNaNaNaNaNag7
aa(lp171
S'TEL799'
p172
aI76304
aI6
aI8
ag25
aNaNaNaNaNaNaNaNaNaNaNaNag7
aa.