(lp0
(lp1
S'THE100'
p2
aI77591
aI25
aI40
aS'ONLINE'
p3
aNaNaNaNaNaNaNaNaNaNaNaNaS'Reserved'
p4
aa(lp5
S'THE320'
p6
aI70047
aI32
aI50
aS'T Th'
p7
aS' 1:30 PM'
p8
aI13
aI30
aI14
aI45
aNaNaNaNaNaNaNaS'Not Reserved'
p9
aa(lp10
S'THE321'
p11
aI70048
aI3
aI28
aS'T Th'
p12
aS'12:00 PM'
p13
aI12
aI0
aI13
aI15
aNaNaNaNaNaNaNag9
aa(lp14
S'THE322'
p15
aI70049
aI19
aI35
ag3
aNaNaNaNaNaNaNaNaNaNaNaNag4
aa(lp16
S'THE325'
p17
aI75729
aI5
aI5
ag3
aNaNaNaNaNaNaNaNaNaNaNaNag9
aa(lp18
S'THE403'
p19
aI72448
aI55
aI115
aS'T'
p20
aS' 4:30 PM'
p21
aI16
aI30
aI19
aI15
aNaNaNaNaNaNaNag9
aa(lp22
S'THE405'
p23
aI78134
aI0
aI40
ag3
aNaNaNaNaNaNaNaNaNaNaNaNag4
aa(lp24
S'THE405'
p25
aI74813
aI0
aI108
ag3
aNaNaNaNaNaNaNaNaNaNaNaNag4
aa(lp26
S'THE405'
p27
aI83646
aI18
aI60
ag3
aNaNaNaNaNaNaNaNaNaNaNaNag4
aa(lp28
S'THE405'
p29
aI74814
aI79
aI100
aS'Th'
p30
aS' 4:30 PM'
p31
aI16
aI30
aI19
aI15
aNaNaNaNaNaNaNag9
aa(lp32
S'THE405'
p33
aI75457
aI11
aI40
aS'Th'
p34
aS' 4:30 PM'
p35
aI16
aI30
aI19
aI15
aNaNaNaNaNaNaNag9
aa(lp36
S'THE406'
p37
aI77290
aI11
aI30
ag20
aS' 4:30 PM'
p38
aI16
aI30
aI19
aI15
aNaNaNaNaNaNaNag9
aa(lp39
S'THE421'
p40
aI73483
aI27
aI65
ag3
aNaNaNaNaNaNaNaNaNaNaNaNag4
aa(lp41
S'THE429'
p42
aI80709
aI5
aI5
aS'T Th'
p43
aS'12:00 PM'
p44
aI12
aI0
aI13
aI15
aNaNaNaNaNaNaNag9
aa(lp45
S'THE440'
p46
aI73084
aI7
aI40
aS'T Th'
p47
aS' 1:30 PM'
p48
aI13
aI30
aI14
aI45
aNaNaNaNaNaNaNag4
aa(lp49
S'THE484'
p50
aI77356
aI5
aI5
ag3
aNaNaNaNaNaNaNaNaNaNaNaNag9
aa(lp51
S'THE484'
p52
aI77357
aI5
aI5
ag3
aNaNaNaNaNaNaNaNaNaNaNaNag9
aa(lp53
S'THE492'
p54
aI70051
aI5
aI6
ag3
aNaNaNaNaNaNaNaNaNaNaNaNag9
aa(lp55
S'THE493'
p56
aI73081
aI6
aI6
ag3
aNaNaNaNaNaNaNaNaNaNaNaNag9
aa(lp57
S'THE494'
p58
aI91154
aI41
aI50
ag3
aNaNaNaNaNaNaNaNaNaNaNaNag4
aa(lp59
S'THE494'
p60
aI84487
aI7
aI8
aS'T Th'
p61
aS' 3:00 PM'
p62
aI15
aI0
aI16
aI15
aNaNaNaNaNaNaNag9
aa(lp63
S'THE499'
p64
aI70052
aI5
aI5
ag3
aNaNaNaNaNaNaNaNaNaNaNaNag9
aa(lp65
S'THE499'
p66
aI82626
aI5
aI5
ag3
aNaNaNaNaNaNaNaNaNaNaNaNag9
aa(lp67
S'THE500'
p68
aI84559
aI15
aI15
aS'T Th'
p69
aS'10:30 AM'
p70
aI10
aI30
aI11
aI45
aNaNaNaNaNaNaNag9
aa(lp71
S'THE500'
p72
aI75758
aI27
aI28
aS'T Th'
p73
aS' 9:00 AM'
p74
aI9
aI0
aI10
aI15
aNaNaNaNaNaNaNag9
aa(lp75
S'THE510'
p76
aI70053
aI5
aI5
ag3
aNaNaNaNaNaNaNaNaNaNaNaNag9
aa(lp77
S'THE520'
p78
aI82904
aI15
aI30
aS'T Th'
p79
aS'10:30 AM'
p80
aI10
aI30
aI11
aI45
aNaNaNaNaNaNaNag9
aa(lp81
S'THE524'
p82
aI78550
aI12
aI12
aS'W'
p83
aS' 1:30 PM'
p84
aI13
aI30
aI16
aI15
aNaNaNaNaNaNaNag9
aa(lp85
S'THE590'
p86
aI76626
aI5
aI5
ag3
aNaNaNaNaNaNaNaNaNaNaNaNag9
aa(lp87
S'THE590'
p88
aI70054
aI5
aI5
ag3
aNaNaNaNaNaNaNaNaNaNaNaNag9
aa(lp89
S'THE590'
p90
aI75730
aI3
aI3
ag3
aNaNaNaNaNaNaNaNaNaNaNaNag9
aa(lp91
S'THE591'
p92
aI89778
aI12
aI12
ag20
aS' 4:30 PM'
p93
aI16
aI30
aI19
aI15
aNaNaNaNaNaNaNag9
aa(lp94
S'THE591'
p95
aI91238
aI10
aI10
aS'M'
p96
aS' 9:00 AM'
p97
aI9
aI0
aI12
aI0
aNaNaNaNaNaNaNag9
aa(lp98
S'THE592'
p99
aI75177
aI5
aI5
ag3
aNaNaNaNaNaNaNaNaNaNaNaNag9
aa(lp100
S'THE592'
p101
aI80462
aI3
aI3
ag3
aNaNaNaNaNaNaNaNaNaNaNaNag9
aa(lp102
S'THE598'
p103
aI70055
aI4
aI5
ag3
aNaNaNaNaNaNaNaNaNaNaNaNag9
aa(lp104
S'THE598'
p105
aI80710
aI3
aI3
aS'T Th'
p106
aS'12:00 PM'
p107
aI12
aI0
aI13
aI15
aNaNaNaNaNaNaNag9
aa(lp108
S'THE598'
p109
aI84488
aI7
aI8
aS'T Th'
p110
aS' 3:00 PM'
p111
aI15
aI0
aI16
aI15
aNaNaNaNaNaNaNag9
aa(lp112
S'THE599'
p113
aI72604
aI1
aI1
ag3
aNaNaNaNaNaNaNaNaNaNaNaNag9
aa(lp114
S'THE691'
p115
aI89775
aI10
aI12
ag83
aS' 3:00 PM'
p116
aI15
aI0
aI17
aI45
aNaNaNaNaNaNaNag9
aa(lp117
S'THE692'
p118
aI74219
aI3
aI3
ag3
aNaNaNaNaNaNaNaNaNaNaNaNag9
aa(lp119
S'THE695'
p120
aI74221
aI5
aI5
ag3
aNaNaNaNaNaNaNaNaNaNaNaNag9
aa(lp121
S'THE695'
p122
aI75905
aI5
aI5
ag3
aNaNaNaNaNaNaNaNaNaNaNaNag9
aa(lp123
S'THE792'
p124
aI75904
aI4
aI5
ag3
aNaNaNaNaNaNaNaNaNaNaNaNag9
aa(lp125
S'THE792'
p126
aI73674
aI4
aI5
ag3
aNaNaNaNaNaNaNaNaNaNaNaNag9
aa(lp127
S'THE799'
p128
aI72488
aI5
aI5
ag3
aNaNaNaNaNaNaNaNaNaNaNaNag9
aa(lp129
S'THE799'
p130
aI73093
aI5
aI5
ag3
aNaNaNaNaNaNaNaNaNaNaNaNag9
aa.