(lp0
(lp1
S'THF101'
p2
aI70416
aI0
aI20
aS'T Th'
p3
aS' 1:30 PM'
p4
aI13
aI30
aI14
aI45
aNaNaNaNaNaNaNaS'Reserved'
p5
aa(lp6
S'THF101'
p7
aI73642
aI17
aI20
aS'F'
p8
aS' 9:00 AM'
p9
aI9
aI0
aI11
aI45
aNaNaNaNaNaNaNaS'Not Reserved'
p10
aa(lp11
S'THF101'
p12
aI79579
aI0
aI20
aS'T Th'
p13
aS' 3:00 PM'
p14
aI15
aI0
aI16
aI15
aNaNaNaNaNaNaNag5
aa(lp15
S'THF101'
p16
aI74250
aI6
aI20
aS'T Th'
p17
aS'12:00 PM'
p18
aI12
aI0
aI13
aI15
aNaNaNaNaNaNaNag10
aa(lp19
S'THF101'
p20
aI76072
aI7
aI20
aS'M W'
p21
aS' 9:00 AM'
p22
aI9
aI0
aI10
aI15
aNaNaNaNaNaNaNag10
aa(lp23
S'THF101'
p24
aI85646
aI15
aI20
aS'T Th'
p25
aS'12:00 PM'
p26
aI12
aI0
aI13
aI15
aNaNaNaNaNaNaNag10
aa(lp27
S'THF125'
p28
aI75606
aI13
aI19
ag8
aS'10:30 AM'
p29
aI10
aI30
aI11
aI45
aNaNaNaNaNaNaNag10
aa(lp30
S'THF125'
p31
aI75607
aI18
aI19
ag8
aS'10:30 AM'
p32
aI10
aI30
aI11
aI45
aNaNaNaNaNaNaNag10
aa(lp33
S'THF125'
p34
aI75608
aI12
aI19
ag8
aS' 1:30 PM'
p35
aI13
aI30
aI14
aI45
aNaNaNaNaNaNaNag10
aa(lp36
S'THF125'
p37
aI75609
aI19
aI19
ag8
aS' 1:30 PM'
p38
aI13
aI30
aI14
aI45
aNaNaNaNaNaNaNag10
aa(lp39
S'THF125'
p40
aI75610
aI16
aI19
ag8
aS' 4:30 PM'
p41
aI16
aI30
aI17
aI45
aNaNaNaNaNaNaNag10
aa(lp42
S'THF125'
p43
aI76959
aI18
aI19
ag8
aS' 1:30 PM'
p44
aI13
aI30
aI14
aI45
aNaNaNaNaNaNaNag10
aa(lp45
S'THF125'
p46
aI76962
aI19
aI19
ag8
aS' 1:30 PM'
p47
aI13
aI30
aI14
aI45
aNaNaNaNaNaNaNag10
aa(lp48
S'THF125'
p49
aI82479
aI17
aI19
ag8
aS'10:30 AM'
p50
aI10
aI30
aI11
aI45
aNaNaNaNaNaNaNag10
aa(lp51
S'THF125'
p52
aI82480
aI19
aI19
ag8
aS' 1:30 PM'
p53
aI13
aI30
aI14
aI45
aNaNaNaNaNaNaNag10
aa(lp54
S'THF125'
p55
aI70046
aI170
aI190
ag8
aS'3:00PM'
p56
aI15
aI0
aI16
aI15
ag8
aS'3:00PM'
p57
aI15
aI0
aS'4:15PM'
p58
aI16
aI15
ag10
aa(lp59
S'THF126'
p60
aI76174
aI85
aI120
aS'T'
p61
aS'12:00PM'
p62
aI12
aI0
aI13
aI15
aS''
p63
aS'12:00AM'
p64
aNaNaS'12:00AM'
p65
aNaNag10
aa(lp66
S'THF160'
p67
aI76171
aI105
aI145
aS'T Th'
p68
aS' 3:00 PM'
p69
aI15
aI0
aI16
aI15
aNaNaNaNaNaNaNag10
aa(lp70
S'THF215'
p71
aI76167
aI85
aI132
aS'ONLINE'
p72
aNaNaNaNaNaNaNaNaNaNaNaNag10
aa(lp73
S'THF215'
p74
aI89909
aI12
aI22
aS'W'
p75
aS' 3:00 PM'
p76
aI15
aI0
aI16
aI15
aNaNaNaNaNaNaNag10
aa(lp77
S'THF215'
p78
aI89910
aI16
aI22
ag75
aS' 4:30 PM'
p79
aI16
aI30
aI17
aI45
aNaNaNaNaNaNaNag10
aa(lp80
S'THF215'
p81
aI89911
aI20
aI22
aS'Th'
p82
aS' 9:00 AM'
p83
aI9
aI0
aI10
aI15
aNaNaNaNaNaNaNag10
aa(lp84
S'THF215'
p85
aI89912
aI1
aI22
aS'Th'
p86
aS'10:30 AM'
p87
aI10
aI30
aI11
aI45
aNaNaNaNaNaNaNag10
aa(lp88
S'THF215'
p89
aI89913
aI21
aI22
ag61
aS' 9:00 AM'
p90
aI9
aI0
aI10
aI15
aNaNaNaNaNaNaNag10
aa(lp91
S'THF215'
p92
aI89914
aI15
aI22
ag61
aS'10:30 AM'
p93
aI10
aI30
aI11
aI45
aNaNaNaNaNaNaNag10
aa(lp94
S'THF220'
p95
aI73564
aI43
aI120
ag72
aNaNaNaNaNaNaNaNaNaNaNaNag10
aa(lp96
S'THF220'
p97
aI73565
aI0
aI20
aS'T Th'
p98
aS'12:00 PM'
p99
aI12
aI0
aI13
aI15
aNaNaNaNaNaNaNag5
aa(lp100
S'THF220'
p101
aI73566
aI0
aI20
aS'T Th'
p102
aS'12:00 PM'
p103
aI12
aI0
aI13
aI15
aNaNaNaNaNaNaNag5
aa(lp104
S'THF220'
p105
aI73567
aI0
aI18
aS'T Th'
p106
aS' 1:30 PM'
p107
aI13
aI30
aI14
aI45
aNaNaNaNaNaNaNag5
aa(lp108
S'THF220'
p109
aI73890
aI1
aI20
aS'T Th'
p110
aS'12:00 PM'
p111
aI12
aI0
aI13
aI15
aNaNaNaNaNaNaNag10
aa(lp112
S'THF397'
p113
aI82481
aI1
aI22
ag8
aS' 3:00 PM'
p114
aI15
aI0
aI16
aI15
aNaNaNaNaNaNaNag10
aa(lp115
S'THF397'
p116
aI80235
aI9
aI22
ag8
aS' 3:00 PM'
p117
aI15
aI0
aI16
aI15
aNaNaNaNaNaNaNag10
aa(lp118
S'THF497'
p119
aI91519
aI30
aI30
ag72
aNaNaNaNaNaNaNaNaNaNaNaNag10
aa(lp120
S'THF497'
p121
aI91520
aI5
aI5
ag72
aNaNaNaNaNaNaNaNaNaNaNaNag10
aa(lp122
S'THF497'
p123
aI91521
aI5
aI5
ag72
aNaNaNaNaNaNaNaNaNaNaNaNag10
aa(lp124
S'THF497'
p125
aI91522
aI5
aI5
ag72
aNaNaNaNaNaNaNaNaNaNaNaNag10
aa(lp126
S'THF497'
p127
aI91523
aI5
aI5
ag72
aNaNaNaNaNaNaNaNaNaNaNaNag10
aa(lp128
S'THF497'
p129
aI91566
aI5
aI5
ag72
aNaNaNaNaNaNaNaNaNaNaNaNag10
aa(lp130
S'THF497'
p131
aI91567
aI5
aI5
ag72
aNaNaNaNaNaNaNaNaNaNaNaNag10
aa(lp132
S'THF497'
p133
aI91568
aI5
aI5
ag72
aNaNaNaNaNaNaNaNaNaNaNaNag10
aa(lp134
S'THF497'
p135
aI91569
aI5
aI5
ag72
aNaNaNaNaNaNaNaNaNaNaNaNag10
aa(lp136
S'THF497'
p137
aI91571
aI5
aI5
ag72
aNaNaNaNaNaNaNaNaNaNaNaNag10
aa(lp138
S'THF497'
p139
aI91572
aI5
aI5
ag72
aNaNaNaNaNaNaNaNaNaNaNaNag10
aa(lp140
S'THF497'
p141
aI91573
aI5
aI5
ag72
aNaNaNaNaNaNaNaNaNaNaNaNag10
aa(lp142
S'THF497'
p143
aI91574
aI5
aI5
ag72
aNaNaNaNaNaNaNaNaNaNaNaNag10
aa(lp144
S'THF497'
p145
aI91575
aI5
aI5
ag72
aNaNaNaNaNaNaNaNaNaNaNaNag10
aa(lp146
S'THF497'
p147
aI91577
aI5
aI5
ag72
aNaNaNaNaNaNaNaNaNaNaNaNag10
aa(lp148
S'THF497'
p149
aI91578
aI5
aI5
ag72
aNaNaNaNaNaNaNaNaNaNaNaNag10
aa(lp150
S'THF497'
p151
aI91579
aI5
aI5
ag72
aNaNaNaNaNaNaNaNaNaNaNaNag10
aa(lp152
S'THF497'
p153
aI91580
aI5
aI5
ag72
aNaNaNaNaNaNaNaNaNaNaNaNag10
aa(lp154
S'THF497'
p155
aI91581
aI5
aI5
ag72
aNaNaNaNaNaNaNaNaNaNaNaNag10
aa(lp156
S'THF497'
p157
aI91582
aI5
aI5
ag72
aNaNaNaNaNaNaNaNaNaNaNaNag10
aa(lp158
S'THF497'
p159
aI91583
aI5
aI5
ag72
aNaNaNaNaNaNaNaNaNaNaNaNag10
aa(lp160
S'THF497'
p161
aI91584
aI5
aI5
ag72
aNaNaNaNaNaNaNaNaNaNaNaNag10
aa(lp162
S'THF497'
p163
aI91585
aI5
aI5
ag72
aNaNaNaNaNaNaNaNaNaNaNaNag10
aa(lp164
S'THF497'
p165
aI91586
aI5
aI5
ag72
aNaNaNaNaNaNaNaNaNaNaNaNag10
aa(lp166
S'THF497'
p167
aI91587
aI5
aI5
ag72
aNaNaNaNaNaNaNaNaNaNaNaNag10
aa(lp168
S'THF497'
p169
aI91570
aI5
aI5
ag72
aNaNaNaNaNaNaNaNaNaNaNaNag10
aa(lp170
S'THF497'
p171
aI80964
aI29
aI30
ag72
aNaNaNaNaNaNaNaNaNaNaNaNag10
aa(lp172
S'THF497'
p173
aI91456
aI5
aI5
ag72
aNaNaNaNaNaNaNaNaNaNaNaNag10
aa(lp174
S'THF497'
p175
aI91457
aI5
aI5
ag72
aNaNaNaNaNaNaNaNaNaNaNaNag10
aa(lp176
S'THF497'
p177
aI91458
aI5
aI5
ag72
aNaNaNaNaNaNaNaNaNaNaNaNag10
aa(lp178
S'THF497'
p179
aI91459
aI5
aI5
ag72
aNaNaNaNaNaNaNaNaNaNaNaNag10
aa(lp180
S'THF497'
p181
aI91460
aI5
aI5
ag72
aNaNaNaNaNaNaNaNaNaNaNaNag10
aa(lp182
S'THF497'
p183
aI91461
aI5
aI5
ag72
aNaNaNaNaNaNaNaNaNaNaNaNag10
aa(lp184
S'THF497'
p185
aI91462
aI5
aI5
ag72
aNaNaNaNaNaNaNaNaNaNaNaNag10
aa(lp186
S'THF497'
p187
aI91463
aI5
aI5
ag72
aNaNaNaNaNaNaNaNaNaNaNaNag10
aa(lp188
S'THF497'
p189
aI91464
aI5
aI5
ag72
aNaNaNaNaNaNaNaNaNaNaNaNag10
aa(lp190
S'THF497'
p191
aI91465
aI5
aI5
ag72
aNaNaNaNaNaNaNaNaNaNaNaNag10
aa(lp192
S'THF497'
p193
aI91466
aI5
aI5
ag72
aNaNaNaNaNaNaNaNaNaNaNaNag10
aa(lp194
S'THF497'
p195
aI91468
aI5
aI5
ag72
aNaNaNaNaNaNaNaNaNaNaNaNag10
aa(lp196
S'THF497'
p197
aI91469
aI5
aI5
ag72
aNaNaNaNaNaNaNaNaNaNaNaNag10
aa(lp198
S'THF497'
p199
aI91470
aI5
aI5
ag72
aNaNaNaNaNaNaNaNaNaNaNaNag10
aa(lp200
S'THF497'
p201
aI91471
aI5
aI5
ag72
aNaNaNaNaNaNaNaNaNaNaNaNag10
aa(lp202
S'THF497'
p203
aI91472
aI5
aI5
ag72
aNaNaNaNaNaNaNaNaNaNaNaNag10
aa(lp204
S'THF497'
p205
aI91473
aI5
aI5
ag72
aNaNaNaNaNaNaNaNaNaNaNaNag10
aa(lp206
S'THF497'
p207
aI91480
aI5
aI5
ag72
aNaNaNaNaNaNaNaNaNaNaNaNag10
aa(lp208
S'THF497'
p209
aI91481
aI5
aI5
ag72
aNaNaNaNaNaNaNaNaNaNaNaNag10
aa(lp210
S'THF497'
p211
aI91482
aI5
aI5
ag72
aNaNaNaNaNaNaNaNaNaNaNaNag10
aa(lp212
S'THF497'
p213
aI91483
aI5
aI5
ag72
aNaNaNaNaNaNaNaNaNaNaNaNag10
aa(lp214
S'THF497'
p215
aI91484
aI5
aI5
ag72
aNaNaNaNaNaNaNaNaNaNaNaNag10
aa(lp216
S'THF497'
p217
aI91485
aI5
aI5
ag72
aNaNaNaNaNaNaNaNaNaNaNaNag10
aa(lp218
S'THF497'
p219
aI91486
aI5
aI5
ag72
aNaNaNaNaNaNaNaNaNaNaNaNag10
aa(lp220
S'THF497'
p221
aI91487
aI5
aI5
ag72
aNaNaNaNaNaNaNaNaNaNaNaNag10
aa.