(lp0
(lp1
S'TMC110'
p2
aI80038
aI71
aI150
aS'Th'
p3
aS' 4:30 PM'
p4
aI16
aI30
aI19
aI15
aNaNaNaNaNaNaNaS'Not Reserved'
p5
aa(lp6
S'TMC310'
p7
aI80168
aI29
aI50
aS'T Th'
p8
aS'10:30 AM'
p9
aI10
aI30
aI11
aI45
aNaNaNaNaNaNaNaS'Reserved'
p10
aa(lp11
S'TMC320'
p12
aI80045
aI16
aI48
aS'T Th'
p13
aS' 1:30 PM'
p14
aI13
aI30
aI14
aI45
aNaNaNaNaNaNaNag5
aa(lp15
S'TMC330'
p16
aI80040
aI22
aI48
aS'T Th'
p17
aS'10:30 AM'
p18
aI10
aI30
aI11
aI45
aNaNaNaNaNaNaNag5
aa(lp19
S'TMC330'
p20
aI83518
aI36
aI58
aS'W'
p21
aS' 6:00 PM'
p22
aI18
aI0
aI20
aI45
aNaNaNaNaNaNaNag5
aa(lp23
S'TMC330'
p24
aI83519
aI33
aI50
aS'M W F'
p25
aS'10:30 AM'
p26
aI10
aI30
aI11
aI20
aNaNaNaNaNaNaNag5
aa(lp27
S'TMC330'
p28
aI91616
aI27
aI30
aS'M'
p29
aS' 6:00 PM'
p30
aI18
aI0
aI20
aI45
aNaNaNaNaNaNaNag5
aa(lp31
S'TMC331'
p32
aI80166
aI42
aI70
aS'M W'
p33
aS' 3:00 PM'
p34
aI15
aI0
aI16
aI15
aNaNaNaNaNaNaNag5
aa(lp35
S'TMC410'
p36
aI91162
aI18
aI48
aS'T Th'
p37
aS' 3:00 PM'
p38
aI15
aI0
aI16
aI15
aNaNaNaNaNaNaNag5
aa(lp39
S'TMC430'
p40
aI90656
aI23
aI45
aS'T'
p41
aS'4:30PM'
p42
aI16
aI30
aI19
aI15
aS''
p43
ag43
aNaNag43
aNaNag5
aa(lp44
S'TMC470'
p45
aI83520
aI1
aI50
aS'T Th'
p46
aS'12:00 PM'
p47
aI12
aI0
aI13
aI15
aNaNaNaNaNaNaNag5
aa(lp48
S'TMC480'
p49
aI76263
aI31
aI40
aS'T Th'
p50
aS' 9:00 AM'
p51
aI9
aI0
aI10
aI15
aNaNaNaNaNaNaNag10
aa(lp52
S'TMC499'
p53
aI70080
aI12
aI12
aS'ONLINE'
p54
aNaNaNaNaNaNaNaNaNaNaNaNag5
aa(lp55
S'TMC584'
p56
aI70081
aI5
aI5
ag54
aNaNaNaNaNaNaNaNaNaNaNaNag5
aa(lp57
S'TMC590'
p58
aI70082
aI12
aI12
ag54
aNaNaNaNaNaNaNaNaNaNaNaNag5
aa(lp59
S'TMC592'
p60
aI70083
aI10
aI10
ag54
aNaNaNaNaNaNaNaNaNaNaNaNag10
aa(lp61
S'TMC593'
p62
aI77457
aI5
aI5
ag54
aNaNaNaNaNaNaNaNaNaNaNaNag5
aa(lp63
S'TMC595'
p64
aI70084
aI15
aI15
ag54
aNaNaNaNaNaNaNaNaNaNaNaNag5
aa(lp65
S'TMC599'
p66
aI70085
aI5
aI5
ag54
aNaNaNaNaNaNaNaNaNaNaNaNag5
aa.