(lp0
(lp1
S'TWC301'
p2
aI83628
aI25
aI30
aS'ONLINE'
p3
aNaNaNaNaNaNaNaNaNaNaNaNaS'Reserved'
p4
aa(lp5
S'TWC301'
p6
aI77818
aI0
aI10
ag3
aNaNaNaNaNaNaNaNaNaNaNaNag4
aa(lp7
S'TWC301'
p8
aI83671
aI4
aI10
ag3
aNaNaNaNaNaNaNaNaNaNaNaNag4
aa(lp9
S'TWC301'
p10
aI85571
aI7
aI15
ag3
aNaNaNaNaNaNaNaNaNaNaNaNag4
aa(lp11
S'TWC301'
p12
aI77210
aI16
aI30
ag3
aNaNaNaNaNaNaNaNaNaNaNaNag4
aa(lp13
S'TWC347'
p14
aI83678
aI8
aI30
ag3
aNaNaNaNaNaNaNaNaNaNaNaNag4
aa(lp15
S'TWC347'
p16
aI83679
aI26
aI30
ag3
aNaNaNaNaNaNaNaNaNaNaNaNag4
aa(lp17
S'TWC347'
p18
aI83627
aI29
aI30
ag3
aNaNaNaNaNaNaNaNaNaNaNaNag4
aa(lp19
S'TWC347'
p20
aI89948
aI26
aI30
aS'W'
p21
aS' 9:00 AM'
p22
aI9
aI0
aI11
aI45
aNaNaNaNaNaNaNaS'Not Reserved'
p23
aa(lp24
S'TWC361'
p25
aI78137
aI20
aI20
ag3
aNaNaNaNaNaNaNaNaNaNaNaNag4
aa(lp26
S'TWC361'
p27
aI90626
aI15
aI15
ag3
aNaNaNaNaNaNaNaNaNaNaNaNag4
aa(lp28
S'TWC362'
p29
aI91139
aI10
aI24
aS'M W'
p30
aS' 1:30 PM'
p31
aI13
aI30
aI14
aI45
aNaNaNaNaNaNaNag23
aa(lp32
S'TWC401'
p33
aI83630
aI22
aI25
ag3
aNaNaNaNaNaNaNaNaNaNaNaNag4
aa(lp34
S'TWC401'
p35
aI91446
aI5
aI7
ag3
aNaNaNaNaNaNaNaNaNaNaNaNag4
aa(lp36
S'TWC401'
p37
aI83606
aI6
aI25
ag3
aNaNaNaNaNaNaNaNaNaNaNaNag4
aa(lp38
S'TWC401'
p39
aI78846
aI13
aI22
aS'M'
p40
aS' 9:00 AM'
p41
aI9
aI0
aI11
aI45
aNaNaNaNaNaNaNag23
aa(lp42
S'TWC401'
p43
aI83016
aI27
aI27
ag3
aNaNaNaNaNaNaNaNaNaNaNaNag4
aa(lp44
S'TWC403'
p45
aI78109
aI3
aI8
ag3
aNaNaNaNaNaNaNaNaNaNaNaNag4
aa(lp46
S'TWC411'
p47
aI83607
aI0
aI6
ag3
aNaNaNaNaNaNaNaNaNaNaNaNag4
aa(lp48
S'TWC411'
p49
aI84490
aI3
aI5
ag3
aNaNaNaNaNaNaNaNaNaNaNaNag4
aa(lp50
S'TWC411'
p51
aI83631
aI16
aI20
ag3
aNaNaNaNaNaNaNaNaNaNaNaNag4
aa(lp52
S'TWC411'
p53
aI78102
aI13
aI20
aS'T Th'
p54
aS'12:00 PM'
p55
aI12
aI0
aI13
aI15
aNaNaNaNaNaNaNag23
aa(lp56
S'TWC421'
p57
aI85870
aI8
aI8
ag3
aNaNaNaNaNaNaNaNaNaNaNaNag4
aa(lp58
S'TWC421'
p59
aI89929
aI13
aI20
aS'T Th'
p60
aS' 1:30 PM'
p61
aI13
aI30
aI14
aI45
aNaNaNaNaNaNaNag23
aa(lp62
S'TWC422'
p63
aI91271
aI6
aI10
ag3
aNaNaNaNaNaNaNaNaNaNaNaNag4
aa(lp64
S'TWC431'
p65
aI83632
aI1
aI7
ag3
aNaNaNaNaNaNaNaNaNaNaNaNag4
aa(lp66
S'TWC431'
p67
aI83609
aI9
aI9
ag3
aNaNaNaNaNaNaNaNaNaNaNaNag4
aa(lp68
S'TWC443'
p69
aI80806
aI3
aI10
ag3
aNaNaNaNaNaNaNaNaNaNaNaNag4
aa(lp70
S'TWC444'
p71
aI91231
aI4
aI5
ag3
aNaNaNaNaNaNaNaNaNaNaNaNag4
aa(lp72
S'TWC445'
p73
aI78214
aI7
aI9
ag3
aNaNaNaNaNaNaNaNaNaNaNaNag4
aa(lp74
S'TWC446'
p75
aI83693
aI3
aI10
ag3
aNaNaNaNaNaNaNaNaNaNaNaNag4
aa(lp76
S'TWC446'
p77
aI83694
aI15
aI15
ag3
aNaNaNaNaNaNaNaNaNaNaNaNag4
aa(lp78
S'TWC446'
p79
aI83635
aI8
aI20
ag3
aNaNaNaNaNaNaNaNaNaNaNaNag4
aa(lp80
S'TWC446'
p81
aI77753
aI29
aI30
ag3
aNaNaNaNaNaNaNaNaNaNaNaNag4
aa(lp82
S'TWC451'
p83
aI86070
aI4
aI8
ag3
aNaNaNaNaNaNaNaNaNaNaNaNag4
aa(lp84
S'TWC451'
p85
aI83629
aI0
aI30
ag3
aNaNaNaNaNaNaNaNaNaNaNaNag4
aa(lp86
S'TWC452'
p87
aI77827
aI1
aI5
ag3
aNaNaNaNaNaNaNaNaNaNaNaNag4
aa(lp88
S'TWC454'
p89
aI77657
aI7
aI12
ag3
aNaNaNaNaNaNaNaNaNaNaNaNag4
aa(lp90
S'TWC454'
p91
aI77658
aI7
aI10
ag3
aNaNaNaNaNaNaNaNaNaNaNaNag4
aa(lp92
S'TWC484'
p93
aI74703
aI10
aI10
ag3
aNaNaNaNaNaNaNaNaNaNaNaNag4
aa(lp94
S'TWC484'
p95
aI85415
aI10
aI10
ag3
aNaNaNaNaNaNaNaNaNaNaNaNag23
aa(lp96
S'TWC490'
p97
aI76079
aI9
aI10
ag3
aNaNaNaNaNaNaNaNaNaNaNaNag4
aa(lp98
S'TWC494'
p99
aI91688
aI10
aI10
ag3
aNaNaNaNaNaNaNaNaNaNaNaNag4
aa(lp100
S'TWC501'
p101
aI77856
aI5
aI5
ag3
aNaNaNaNaNaNaNaNaNaNaNaNag4
aa(lp102
S'TWC501'
p103
aI91447
aI2
aI2
ag3
aNaNaNaNaNaNaNaNaNaNaNaNag4
aa(lp104
S'TWC501'
p105
aI77857
aI4
aI5
ag3
aNaNaNaNaNaNaNaNaNaNaNaNag4
aa(lp106
S'TWC501'
p107
aI80326
aI3
aI3
ag40
aS' 9:00 AM'
p108
aI9
aI0
aI11
aI45
aNaNaNaNaNaNaNag4
aa(lp109
S'TWC501'
p110
aI85477
aI3
aI3
ag3
aNaNaNaNaNaNaNaNaNaNaNaNag4
aa(lp111
S'TWC504'
p112
aI84345
aI10
aI12
ag3
aNaNaNaNaNaNaNaNaNaNaNaNag4
aa(lp113
S'TWC511'
p114
aI77952
aI8
aI10
ag3
aNaNaNaNaNaNaNaNaNaNaNaNag4
aa(lp115
S'TWC511'
p116
aI81868
aI10
aI10
aS'T Th'
p117
aS'12:00 PM'
p118
aI12
aI0
aI13
aI15
aNaNaNaNaNaNaNag23
aa(lp119
S'TWC521'
p120
aI89930
aI5
aI5
aS'T Th'
p121
aS' 1:30 PM'
p122
aI13
aI30
aI14
aI45
aNaNaNaNaNaNaNag23
aa(lp123
S'TWC522'
p124
aI91272
aI4
aI5
ag3
aNaNaNaNaNaNaNaNaNaNaNaNag4
aa(lp125
S'TWC543'
p126
aI80807
aI2
aI2
ag3
aNaNaNaNaNaNaNaNaNaNaNaNag4
aa(lp127
S'TWC544'
p128
aI91232
aI0
aI2
ag3
aNaNaNaNaNaNaNaNaNaNaNaNag4
aa(lp129
S'TWC545'
p130
aI85743
aI2
aI3
ag3
aNaNaNaNaNaNaNaNaNaNaNaNag4
aa(lp131
S'TWC546'
p132
aI77221
aI8
aI10
ag3
aNaNaNaNaNaNaNaNaNaNaNaNag4
aa(lp133
S'TWC551'
p134
aI91233
aI2
aI2
ag3
aNaNaNaNaNaNaNaNaNaNaNaNag4
aa(lp135
S'TWC554'
p136
aI85735
aI1
aI2
ag3
aNaNaNaNaNaNaNaNaNaNaNaNag4
aa(lp137
S'TWC554'
p138
aI85739
aI3
aI3
ag3
aNaNaNaNaNaNaNaNaNaNaNaNag4
aa(lp139
S'TWC598'
p140
aI91837
aI2
aI3
ag3
aNaNaNaNaNaNaNaNaNaNaNaNag4
aa(lp141
S'TWC598'
p142
aI91689
aI5
aI5
ag3
aNaNaNaNaNaNaNaNaNaNaNaNag4
aa.