(lp0
(lp1
S'UNI110'
p2
aI74197
aI19
aI20
aS'T Th'
p3
aS' 9:00 AM'
p4
aI9
aI0
aI10
aI15
aNaNaNaNaNaNaNaS'Not Reserved'
p5
aa(lp6
S'UNI110'
p7
aI74201
aI20
aI20
aS'T Th'
p8
aS' 9:00 AM'
p9
aI9
aI0
aI10
aI15
aNaNaNaNaNaNaNag5
aa(lp10
S'UNI110'
p11
aI76954
aI20
aI20
aS'M W'
p12
aS'12:00 PM'
p13
aI12
aI0
aI13
aI15
aNaNaNaNaNaNaNag5
aa(lp14
S'UNI110'
p15
aI74202
aI20
aI20
aS'T Th'
p16
aS' 3:00 PM'
p17
aI15
aI0
aI16
aI15
aNaNaNaNaNaNaNag5
aa(lp18
S'UNI120'
p19
aI77401
aI0
aI12
aS'ONLINE'
p20
aNaNaNaNaNaNaNaNaNaNaNaNaS'Reserved'
p21
aa(lp22
S'UNI120'
p23
aI82629
aI16
aI21
aS'T Th'
p24
aS' 1:30 PM'
p25
aI13
aI30
aI14
aI45
aNaNaNaNaNaNaNag5
aa(lp26
S'UNI120'
p27
aI77533
aI19
aI22
aS'W'
p28
aS' 9:00 AM'
p29
aI9
aI0
aI9
aI50
aNaNaNaNaNaNaNag5
aa(lp30
S'UNI120'
p31
aI77534
aI18
aI22
aS'F'
p32
aS' 9:00 AM'
p33
aI9
aI0
aI9
aI50
aNaNaNaNaNaNaNag5
aa(lp34
S'UNI120'
p35
aI77535
aI18
aI22
aS'M'
p36
aS'10:30 AM'
p37
aI10
aI30
aI11
aI20
aNaNaNaNaNaNaNag5
aa(lp38
S'UNI120'
p39
aI77536
aI21
aI22
ag28
aS'10:30 AM'
p40
aI10
aI30
aI11
aI20
aNaNaNaNaNaNaNag5
aa(lp41
S'UNI120'
p42
aI77538
aI15
aI22
ag36
aS'12:00 PM'
p43
aI12
aI0
aI12
aI50
aNaNaNaNaNaNaNag5
aa(lp44
S'UNI120'
p45
aI77539
aI15
aI22
ag28
aS'12:00 PM'
p46
aI12
aI0
aI12
aI50
aNaNaNaNaNaNaNag5
aa(lp47
S'UNI120'
p48
aI77542
aI20
aI22
ag28
aS' 1:30 PM'
p49
aI13
aI30
aI14
aI20
aNaNaNaNaNaNaNag5
aa(lp50
S'UNI120'
p51
aI77547
aI20
aI22
ag28
aS' 3:00 PM'
p52
aI15
aI0
aI15
aI50
aNaNaNaNaNaNaNag5
aa(lp53
S'UNI120'
p54
aI77550
aI22
aI22
ag32
aS' 9:00 AM'
p55
aI9
aI0
aI9
aI50
aNaNaNaNaNaNaNag5
aa(lp56
S'UNI120'
p57
aI77557
aI20
aI21
ag28
aS'12:00 PM'
p58
aI12
aI0
aI12
aI50
aNaNaNaNaNaNaNag5
aa(lp59
S'UNI120'
p60
aI77565
aI19
aI22
ag32
aS'10:30 AM'
p61
aI10
aI30
aI11
aI20
aNaNaNaNaNaNaNag5
aa(lp62
S'UNI120'
p63
aI77566
aI18
aI20
aS'Th'
p64
aS' 3:00 PM'
p65
aI15
aI0
aI15
aI50
aNaNaNaNaNaNaNag5
aa(lp66
S'UNI120'
p67
aI77568
aI19
aI22
ag36
aS'10:30 AM'
p68
aI10
aI30
aI11
aI20
aNaNaNaNaNaNaNag5
aa(lp69
S'UNI120'
p70
aI77570
aI16
aI22
ag28
aS' 1:30 PM'
p71
aI13
aI30
aI14
aI20
aNaNaNaNaNaNaNag5
aa(lp72
S'UNI120'
p73
aI77938
aI19
aI22
ag36
aS'10:30 AM'
p74
aI10
aI30
aI11
aI20
aNaNaNaNaNaNaNag5
aa(lp75
S'UNI120'
p76
aI80678
aI16
aI22
aS'T'
p77
aS'10:30 AM'
p78
aI10
aI30
aI11
aI20
aNaNaNaNaNaNaNag5
aa(lp79
S'UNI120'
p80
aI80679
aI21
aI22
aS'Th'
p81
aS'10:30 AM'
p82
aI10
aI30
aI11
aI20
aNaNaNaNaNaNaNag5
aa(lp83
S'UNI120'
p84
aI80680
aI22
aI22
ag77
aS' 9:00 AM'
p85
aI9
aI0
aI9
aI50
aNaNaNaNaNaNaNag5
aa(lp86
S'UNI120'
p87
aI80681
aI21
aI22
aS'Th'
p88
aS' 9:00 AM'
p89
aI9
aI0
aI9
aI50
aNaNaNaNaNaNaNag5
aa(lp90
S'UNI120'
p91
aI80837
aI20
aI22
ag77
aS'10:30 AM'
p92
aI10
aI30
aI11
aI20
aNaNaNaNaNaNaNag5
aa(lp93
S'UNI120'
p94
aI80838
aI20
aI22
aS'Th'
p95
aS'10:30 AM'
p96
aI10
aI30
aI11
aI20
aNaNaNaNaNaNaNag5
aa(lp97
S'UNI120'
p98
aI80904
aI21
aI22
ag77
aS' 3:00 PM'
p99
aI15
aI0
aI15
aI50
aNaNaNaNaNaNaNag5
aa(lp100
S'UNI120'
p101
aI82632
aI20
aI22
ag32
aS'10:30 AM'
p102
aI10
aI30
aI11
aI20
aNaNaNaNaNaNaNag5
aa(lp103
S'UNI120'
p104
aI82634
aI15
aI22
ag28
aS' 9:00 AM'
p105
aI9
aI0
aI9
aI50
aNaNaNaNaNaNaNag5
aa(lp106
S'UNI150'
p107
aI87415
aI5
aI19
ag77
aS' 1:30 PM'
p108
aI13
aI30
aI15
aI10
aNaNaNaNaNaNaNag5
aa(lp109
S'UNI150'
p110
aI78925
aI6
aI19
ag36
aS'10:30 AM'
p111
aI10
aI30
aI12
aI10
aNaNaNaNaNaNaNag5
aa(lp112
S'UNI150'
p113
aI78931
aI18
aI19
aS'Th'
p114
aS'10:30 AM'
p115
aI10
aI30
aI12
aI10
aNaNaNaNaNaNaNag5
aa(lp116
S'UNI150'
p117
aI79014
aI11
aI19
aS'Th'
p118
aS' 1:30 PM'
p119
aI13
aI30
aI15
aI10
aNaNaNaNaNaNaNag5
aa(lp120
S'UNI150'
p121
aI88278
aI16
aI19
ag32
aS'10:30 AM'
p122
aI10
aI30
aI12
aI10
aNaNaNaNaNaNaNag5
aa(lp123
S'UNI150'
p124
aI78915
aI19
aI19
ag36
aS'10:30 AM'
p125
aI10
aI30
aI12
aI10
aNaNaNaNaNaNaNag5
aa(lp126
S'UNI150'
p127
aI81820
aI19
aI19
ag36
aS' 1:30 PM'
p128
aI13
aI30
aI15
aI10
aNaNaNaNaNaNaNag5
aa(lp129
S'UNI150'
p130
aI87401
aI18
aI19
ag28
aS'10:30 AM'
p131
aI10
aI30
aI12
aI10
aNaNaNaNaNaNaNag5
aa(lp132
S'UNI150'
p133
aI78982
aI16
aI19
ag36
aS' 4:30 PM'
p134
aI16
aI30
aI18
aI10
aNaNaNaNaNaNaNag5
aa(lp135
S'UNI150'
p136
aI78988
aI13
aI19
ag77
aS'10:30 AM'
p137
aI10
aI30
aI12
aI10
aNaNaNaNaNaNaNag5
aa(lp138
S'UNI150'
p139
aI81823
aI16
aI19
ag36
aS' 1:30 PM'
p140
aI13
aI30
aI15
aI10
aNaNaNaNaNaNaNag21
aa(lp141
S'UNI150'
p142
aI81825
aI9
aI19
ag28
aS' 1:30 PM'
p143
aI13
aI30
aI15
aI10
aNaNaNaNaNaNaNag5
aa(lp144
S'UNI150'
p145
aI79011
aI19
aI19
aS'Th'
p146
aS'10:30 AM'
p147
aI10
aI30
aI12
aI10
aNaNaNaNaNaNaNag5
aa(lp148
S'UNI150'
p149
aI79016
aI16
aI19
ag32
aS'10:30 AM'
p150
aI10
aI30
aI12
aI10
aNaNaNaNaNaNaNag21
aa(lp151
S'UNI150'
p152
aI79020
aI11
aI19
ag32
aS' 1:30 PM'
p153
aI13
aI30
aI15
aI10
aNaNaNaNaNaNaNag5
aa(lp154
S'UNI150'
p155
aI86079
aI18
aI19
ag77
aS' 7:30 AM'
p156
aI7
aI30
aI9
aI10
aNaNaNaNaNaNaNag5
aa(lp157
S'UNI194'
p158
aI78075
aI25
aI25
aS'M W'
p159
aS' 4:30 PM'
p160
aI16
aI30
aI19
aI15
aNaNaNaNaNaNaNag5
aa(lp161
S'UNI194'
p162
aI78076
aI25
aI25
aS'M W'
p163
aS' 4:30 PM'
p164
aI16
aI30
aI19
aI15
aNaNaNaNaNaNaNag5
aa(lp165
S'UNI194'
p166
aI78078
aI25
aI25
aS'M W'
p167
aS' 4:30 PM'
p168
aI16
aI30
aI19
aI15
aNaNaNaNaNaNaNag5
aa(lp169
S'UNI194'
p170
aI78080
aI25
aI25
aS'T Th'
p171
aS' 4:30 PM'
p172
aI16
aI30
aI19
aI15
aNaNaNaNaNaNaNag5
aa(lp173
S'UNI194'
p174
aI76516
aI19
aI19
aS'Th'
p175
aS'12:00 PM'
p176
aI12
aI0
aI12
aI50
aNaNaNaNaNaNaNag5
aa(lp177
S'UNI194'
p178
aI81488
aI19
aI19
ag77
aS'12:00 PM'
p179
aI12
aI0
aI12
aI50
aNaNaNaNaNaNaNag5
aa(lp180
S'UNI220'
p181
aI77578
aI12
aI20
ag28
aS'10:30 AM'
p182
aI10
aI30
aI11
aI20
aNaNaNaNaNaNaNag5
aa(lp183
S'UNI220'
p184
aI77579
aI20
aI22
ag32
aS'10:30 AM'
p185
aI10
aI30
aI11
aI20
aNaNaNaNaNaNaNag5
aa(lp186
S'UNI220'
p187
aI77651
aI15
aI22
ag36
aS'10:30 AM'
p188
aI10
aI30
aI11
aI20
aNaNaNaNaNaNaNag5
aa(lp189
S'UNI220'
p190
aI77652
aI15
aI20
ag77
aS'10:30 AM'
p191
aI10
aI30
aI11
aI20
aNaNaNaNaNaNaNag5
aa(lp192
S'UNI220'
p193
aI88812
aI15
aI20
aS'Th'
p194
aS'10:30 AM'
p195
aI10
aI30
aI11
aI20
aNaNaNaNaNaNaNag5
aa(lp196
S'UNI220'
p197
aI77628
aI13
aI21
ag77
aS' 1:30 PM'
p198
aI13
aI30
aI14
aI30
aNaNaNaNaNaNaNag5
aa(lp199
S'UNI220'
p200
aI77629
aI21
aI22
ag28
aS'10:30 AM'
p201
aI10
aI30
aI11
aI30
aNaNaNaNaNaNaNag5
aa(lp202
S'UNI220'
p203
aI77630
aI17
aI20
aS'Th'
p204
aS' 3:00 PM'
p205
aI15
aI0
aI16
aI0
aNaNaNaNaNaNaNag5
aa(lp206
S'UNI220'
p207
aI79181
aI22
aI22
ag36
aS'10:30 AM'
p208
aI10
aI30
aI11
aI30
aNaNaNaNaNaNaNag5
aa(lp209
S'UNI220'
p210
aI79183
aI20
aI22
ag36
aS' 1:30 PM'
p211
aI13
aI30
aI14
aI30
aNaNaNaNaNaNaNag5
aa(lp212
S'UNI220'
p213
aI79184
aI13
aI22
ag28
aS' 1:30 PM'
p214
aI13
aI30
aI14
aI30
aNaNaNaNaNaNaNag5
aa(lp215
S'UNI220'
p216
aI79774
aI11
aI20
ag28
aS' 6:00 PM'
p217
aI18
aI0
aI19
aI0
aNaNaNaNaNaNaNag5
aa(lp218
S'UNI220'
p219
aI80073
aI20
aI20
ag36
aS' 1:30 PM'
p220
aI13
aI30
aI14
aI30
aNaNaNaNaNaNaNag5
aa(lp221
S'UNI220'
p222
aI80074
aI15
aI20
ag36
aS' 1:30 PM'
p223
aI13
aI30
aI14
aI30
aNaNaNaNaNaNaNag5
aa(lp224
S'UNI220'
p225
aI80075
aI16
aI20
ag28
aS' 1:30 PM'
p226
aI13
aI30
aI14
aI30
aNaNaNaNaNaNaNag5
aa(lp227
S'UNI220'
p228
aI80078
aI14
aI20
ag36
aS'10:30 AM'
p229
aI10
aI30
aI11
aI30
aNaNaNaNaNaNaNag5
aa(lp230
S'UNI220'
p231
aI80080
aI18
aI20
ag28
aS'10:30 AM'
p232
aI10
aI30
aI11
aI30
aNaNaNaNaNaNaNag5
aa(lp233
S'UNI220'
p234
aI80081
aI19
aI20
ag32
aS'10:30 AM'
p235
aI10
aI30
aI11
aI30
aNaNaNaNaNaNaNag5
aa(lp236
S'UNI220'
p237
aI80083
aI20
aI21
ag28
aS' 9:00 AM'
p238
aI9
aI0
aI10
aI0
aNaNaNaNaNaNaNag5
aa(lp239
S'UNI220'
p240
aI80084
aI20
aI21
ag32
aS' 9:00 AM'
p241
aI9
aI0
aI10
aI0
aNaNaNaNaNaNaNag5
aa(lp242
S'UNI220'
p243
aI77580
aI19
aI20
ag28
aS' 1:30 PM'
p244
aI13
aI30
aI14
aI30
aNaNaNaNaNaNaNag5
aa(lp245
S'UNI220'
p246
aI80275
aI15
aI22
ag77
aS'12:00 PM'
p247
aI12
aI0
aI13
aI0
aNaNaNaNaNaNaNag5
aa(lp248
S'UNI220'
p249
aI80276
aI20
aI22
aS'Th'
p250
aS'12:00 PM'
p251
aI12
aI0
aI13
aI0
aNaNaNaNaNaNaNag5
aa(lp252
S'UNI220'
p253
aI80277
aI22
aI22
ag77
aS' 3:00 PM'
p254
aI15
aI0
aI16
aI0
aNaNaNaNaNaNaNag5
aa(lp255
S'UNI220'
p256
aI80278
aI21
aI22
aS'Th'
p257
aS' 3:00 PM'
p258
aI15
aI0
aI16
aI0
aNaNaNaNaNaNaNag5
aa(lp259
S'UNI220'
p260
aI80280
aI19
aI21
aS'Th'
p261
aS' 3:00 PM'
p262
aI15
aI0
aI16
aI0
aNaNaNaNaNaNaNag5
aa(lp263
S'UNI220'
p264
aI80281
aI20
aI21
ag36
aS' 9:00 AM'
p265
aI9
aI0
aI10
aI0
aNaNaNaNaNaNaNag5
aa(lp266
S'UNI220'
p267
aI80282
aI21
aI21
ag28
aS' 9:00 AM'
p268
aI9
aI0
aI10
aI0
aNaNaNaNaNaNaNag5
aa(lp269
S'UNI220'
p270
aI80283
aI21
aI21
ag32
aS' 9:00 AM'
p271
aI9
aI0
aI10
aI0
aNaNaNaNaNaNaNag5
aa(lp272
S'UNI220'
p273
aI80285
aI11
aI20
ag36
aS' 1:30 PM'
p274
aI13
aI30
aI14
aI30
aNaNaNaNaNaNaNag5
aa(lp275
S'UNI220'
p276
aI80286
aI20
aI20
ag28
aS' 1:30 PM'
p277
aI13
aI30
aI14
aI30
aNaNaNaNaNaNaNag5
aa(lp278
S'UNI220'
p279
aI80288
aI16
aI20
ag77
aS'10:30 AM'
p280
aI10
aI30
aI11
aI30
aNaNaNaNaNaNaNag5
aa(lp281
S'UNI220'
p282
aI80289
aI19
aI20
aS'Th'
p283
aS'10:30 AM'
p284
aI10
aI30
aI11
aI30
aNaNaNaNaNaNaNag5
aa(lp285
S'UNI220'
p286
aI80909
aI19
aI20
ag36
aS' 3:00 PM'
p287
aI15
aI0
aI16
aI0
aNaNaNaNaNaNaNag5
aa(lp288
S'UNI220'
p289
aI80910
aI20
aI20
ag28
aS' 3:00 PM'
p290
aI15
aI0
aI16
aI0
aNaNaNaNaNaNaNag5
aa(lp291
S'UNI220'
p292
aI80949
aI19
aI22
ag28
aS' 4:30 PM'
p293
aI16
aI30
aI17
aI30
aNaNaNaNaNaNaNag5
aa(lp294
S'UNI220'
p295
aI82630
aI17
aI20
ag77
aS' 3:00 PM'
p296
aI15
aI0
aI16
aI0
aNaNaNaNaNaNaNag5
aa(lp297
S'UNI220'
p298
aI82631
aI18
aI20
ag32
aS' 1:30 PM'
p299
aI13
aI30
aI14
aI30
aNaNaNaNaNaNaNag5
aa(lp300
S'UNI220'
p301
aI88752
aI17
aI20
ag28
aS' 3:00 PM'
p302
aI15
aI0
aI16
aI0
aNaNaNaNaNaNaNag5
aa(lp303
S'UNI220'
p304
aI88757
aI18
aI20
ag36
aS'12:00 PM'
p305
aI12
aI0
aI13
aI0
aNaNaNaNaNaNaNag5
aa(lp306
S'UNI220'
p307
aI88758
aI19
aI20
ag28
aS'12:00 PM'
p308
aI12
aI0
aI13
aI0
aNaNaNaNaNaNaNag5
aa(lp309
S'UNI220'
p310
aI88759
aI18
aI20
ag32
aS'12:00 PM'
p311
aI12
aI0
aI13
aI0
aNaNaNaNaNaNaNag5
aa(lp312
S'UNI220'
p313
aI88760
aI20
aI20
ag77
aS' 1:30 PM'
p314
aI13
aI30
aI14
aI30
aNaNaNaNaNaNaNag5
aa(lp315
S'UNI220'
p316
aI88761
aI17
aI20
aS'Th'
p317
aS' 1:30 PM'
p318
aI13
aI30
aI14
aI30
aNaNaNaNaNaNaNag5
aa(lp319
S'UNI220'
p320
aI88814
aI20
aI20
aS'Th'
p321
aS' 1:30 PM'
p322
aI13
aI30
aI14
aI30
aNaNaNaNaNaNaNag5
aa(lp323
S'UNI220'
p324
aI88827
aI18
aI20
ag32
aS'12:00 PM'
p325
aI12
aI0
aI13
aI0
aNaNaNaNaNaNaNag5
aa(lp326
S'UNI220'
p327
aI89487
aI20
aI20
ag32
aS' 1:30 PM'
p328
aI13
aI30
aI14
aI20
aNaNaNaNaNaNaNag5
aa(lp329
S'UNI220'
p330
aI88755
aI20
aI20
ag28
aS' 7:30 AM'
p331
aI7
aI30
aI8
aI30
aNaNaNaNaNaNaNag5
aa(lp332
S'UNI250'
p333
aI87436
aI8
aI19
ag28
aS' 1:30 PM'
p334
aI13
aI30
aI15
aI10
aNaNaNaNaNaNaNag5
aa(lp335
S'UNI250'
p336
aI87455
aI18
aI19
aS'Th'
p337
aS' 4:30 PM'
p338
aI16
aI30
aI18
aI10
aNaNaNaNaNaNaNag5
aa(lp339
S'UNI250'
p340
aI81839
aI9
aI19
ag36
aS' 4:30 PM'
p341
aI16
aI30
aI18
aI10
aNaNaNaNaNaNaNag5
aa(lp342
S'UNI250'
p343
aI81841
aI15
aI19
ag77
aS'10:30 AM'
p344
aI10
aI30
aI12
aI10
aNaNaNaNaNaNaNag5
aa(lp345
S'UNI250'
p346
aI81842
aI11
aI19
aS'Th'
p347
aS' 1:30 PM'
p348
aI13
aI30
aI15
aI10
aNaNaNaNaNaNaNag5
aa(lp349
S'UNI250'
p350
aI87454
aI17
aI19
aS'Th'
p351
aS' 4:30 PM'
p352
aI16
aI30
aI18
aI10
aNaNaNaNaNaNaNag5
aa(lp353
S'UNI250'
p354
aI79022
aI15
aI19
aS'Th'
p355
aS' 7:30 AM'
p356
aI7
aI30
aI9
aI10
aNaNaNaNaNaNaNag5
aa(lp357
S'UNI250'
p358
aI81844
aI13
aI19
ag28
aS' 4:30 PM'
p359
aI16
aI30
aI18
aI10
aNaNaNaNaNaNaNag5
aa(lp360
S'UNI270'
p361
aI79213
aI7
aI19
ag77
aS' 1:30 PM'
p362
aI13
aI30
aI15
aI10
aNaNaNaNaNaNaNag5
aa(lp363
S'UNI270'
p364
aI81847
aI19
aI19
aS'Th'
p365
aS'10:30 AM'
p366
aI10
aI30
aI12
aI10
aNaNaNaNaNaNaNag5
aa(lp367
S'UNI270'
p368
aI81845
aI3
aI19
ag36
aS' 4:30 PM'
p369
aI16
aI30
aI18
aI10
aNaNaNaNaNaNaNag5
aa(lp370
S'UNI270'
p371
aI87459
aI9
aI19
ag32
aS'10:30 AM'
p372
aI10
aI30
aI12
aI10
aNaNaNaNaNaNaNag5
aa(lp373
S'UNI270'
p374
aI91328
aI17
aI19
aS'Th'
p375
aS' 4:30 PM'
p376
aI16
aI30
aI18
aI10
aNaNaNaNaNaNaNag5
aa(lp377
S'UNI394'
p378
aI76617
aI25
aI25
ag20
aNaNaNaNaNaNaNaNaNaNaNaNag5
aa(lp379
S'UNI394'
p380
aI80604
aI25
aI25
ag20
aNaNaNaNaNaNaNaNaNaNaNaNag5
aa(lp381
S'UNI400'
p382
aI82038
aI16
aI24
aS'T Th'
p383
aS'4:30PM'
p384
aI16
aI30
aI17
aI45
aS''
p385
aS'12:00AM'
p386
aNaNaS'12:00AM'
p387
aNaNag5
aa.