(lp0
(lp1
S'URB220'
p2
aI72726
aI54
aI60
aS'W'
p3
aS' 6:00 PM'
p4
aI18
aI0
aI20
aI45
aNaNaNaNaNaNaNaS'Not Reserved'
p5
aa(lp6
S'URB300'
p7
aI72691
aI64
aI80
aS'M'
p8
aS' 6:00 PM'
p9
aI18
aI0
aI20
aI45
aNaNaNaNaNaNaNag5
aa(lp10
S'URB300'
p11
aI78010
aI27
aI80
aS'ONLINE'
p12
aNaNaNaNaNaNaNaNaNaNaNaNaS'Reserved'
p13
aa(lp14
S'URB305'
p15
aI72692
aI22
aI40
ag12
aNaNaNaNaNaNaNaNaNaNaNaNag13
aa(lp16
S'URB405'
p17
aI79337
aI17
aI24
aS'T'
p18
aS' 6:00 PM'
p19
aI18
aI0
aI20
aI45
aNaNaNaNaNaNaNag5
aa(lp20
S'URB484'
p21
aI72738
aI5
aI5
ag12
aNaNaNaNaNaNaNaNaNaNaNaNag5
aa.