(lp0
(lp1
S'USL210'
p2
aI75038
aI20
aI36
aS'T'
p3
aS' 3:00 PM'
p4
aI15
aI0
aI16
aI15
aNaNaNaNaNaNaNaS'Not Reserved'
p5
aa(lp6
S'USL210'
p7
aI77073
aI7
aI36
aS'W'
p8
aS'12:00 PM'
p9
aI12
aI0
aI13
aI15
aNaNaNaNaNaNaNag5
aa(lp10
S'USL210'
p11
aI77074
aI28
aI36
ag8
aS' 4:30 PM'
p12
aI16
aI30
aI17
aI45
aNaNaNaNaNaNaNag5
aa(lp13
S'USL210'
p14
aI82392
aI27
aI36
aS'Th'
p15
aS' 3:00 PM'
p16
aI15
aI0
aI16
aI15
aNaNaNaNaNaNaNag5
aa(lp17
S'USL210'
p18
aI87915
aI18
aI36
aS'Th'
p19
aS'10:30 AM'
p20
aI10
aI30
aI11
aI45
aNaNaNaNaNaNaNag5
aa(lp21
S'USL210'
p22
aI87916
aI32
aI36
ag3
aS' 6:00 PM'
p23
aI18
aI0
aI19
aI15
aNaNaNaNaNaNaNag5
aa(lp24
S'USL216'
p25
aI77069
aI0
aI30
aS'Th'
p26
aS'10:30 AM'
p27
aI10
aI30
aI11
aI45
aNaNaNaNaNaNaNaS'Reserved'
p28
aa(lp29
S'USL216'
p30
aI78117
aI0
aI30
ag8
aS' 9:00 AM'
p31
aI9
aI0
aI10
aI15
aNaNaNaNaNaNaNag28
aa(lp32
S'USL216'
p33
aI78865
aI16
aI30
aS'F'
p34
aS' 9:00 AM'
p35
aI9
aI0
aI10
aI15
aNaNaNaNaNaNaNag5
aa(lp36
S'USL216'
p37
aI78866
aI11
aI30
ag34
aS'12:00 PM'
p38
aI12
aI0
aI13
aI15
aNaNaNaNaNaNaNag5
aa(lp39
S'USL216'
p40
aI78867
aI22
aI30
ag3
aS' 4:30 PM'
p41
aI16
aI30
aI17
aI45
aNaNaNaNaNaNaNag28
aa(lp42
S'USL216'
p43
aI80505
aI11
aI30
ag8
aS' 4:30 PM'
p44
aI16
aI30
aI17
aI45
aNaNaNaNaNaNaNag28
aa(lp45
S'USL216'
p46
aI82403
aI0
aI30
ag3
aS' 1:30 PM'
p47
aI13
aI30
aI14
aI45
aNaNaNaNaNaNaNag28
aa(lp48
S'USL216'
p49
aI87933
aI7
aI30
aS'Th'
p50
aS'10:30 AM'
p51
aI10
aI30
aI11
aI45
aNaNaNaNaNaNaNag28
aa(lp52
S'USL216'
p53
aI87953
aI16
aI30
aS'Th'
p54
aS' 6:00 PM'
p55
aI18
aI0
aI19
aI15
aNaNaNaNaNaNaNag28
aa(lp56
S'USL402'
p57
aI77398
aI30
aI36
ag8
aS' 6:00 PM'
p58
aI18
aI0
aI19
aI15
aNaNaNaNaNaNaNag5
aa(lp59
S'USL410'
p60
aI75775
aI14
aI36
ag3
aS'10:30 AM'
p61
aI10
aI30
aI11
aI45
aNaNaNaNaNaNaNag5
aa(lp62
S'USL410'
p63
aI75777
aI24
aI36
aS'Th'
p64
aS' 3:00 PM'
p65
aI15
aI0
aI16
aI15
aNaNaNaNaNaNaNag5
aa(lp66
S'USL410'
p67
aI77318
aI31
aI36
ag8
aS' 4:30 PM'
p68
aI16
aI30
aI17
aI45
aNaNaNaNaNaNaNag5
aa(lp69
S'USL410'
p70
aI87954
aI19
aI36
ag8
aS' 1:30 PM'
p71
aI13
aI30
aI14
aI45
aNaNaNaNaNaNaNag5
aa(lp72
S'USL496'
p73
aI77789
aI14
aI36
aS'M'
p74
aS' 9:00 AM'
p75
aI9
aI0
aI10
aI15
aNaNaNaNaNaNaNag28
aa(lp76
S'USL497'
p77
aI78869
aI27
aI36
ag74
aS'12:00 PM'
p78
aI12
aI0
aI13
aI15
aNaNaNaNaNaNaNag28
aa.