(lp0
(lp1
S'WAC101'
p2
aI70093
aI13
aI19
aS'T Th'
p3
aS'10:30 AM'
p4
aI10
aI30
aI11
aI45
aNaNaNaNaNaNaNaS'Not Reserved'
p5
aa(lp6
S'WAC101'
p7
aI76945
aI19
aI19
aS'T Th'
p8
aS'10:30 AM'
p9
aI10
aI30
aI11
aI45
aNaNaNaNaNaNaNag5
aa(lp10
S'WAC101'
p11
aI76946
aI19
aI19
aS'T Th'
p12
aS'10:30 AM'
p13
aI10
aI30
aI11
aI45
aNaNaNaNaNaNaNag5
aa(lp14
S'WAC101'
p15
aI75310
aI19
aI19
aS'T Th'
p16
aS' 9:00 AM'
p17
aI9
aI0
aI10
aI15
aNaNaNaNaNaNaNaS'Reserved'
p18
aa(lp19
S'WAC101'
p20
aI73328
aI18
aI19
aS'T Th'
p21
aS'10:30 AM'
p22
aI10
aI30
aI11
aI45
aNaNaNaNaNaNaNag5
aa(lp23
S'WAC101'
p24
aI70095
aI18
aI19
aS'T Th'
p25
aS' 1:30 PM'
p26
aI13
aI30
aI14
aI45
aNaNaNaNaNaNaNag5
aa(lp27
S'WAC101'
p28
aI73326
aI19
aI19
aS'T Th'
p29
aS'10:30 AM'
p30
aI10
aI30
aI11
aI45
aNaNaNaNaNaNaNag18
aa(lp31
S'WAC101'
p32
aI70096
aI17
aI19
aS'M W F'
p33
aS'10:30 AM'
p34
aI10
aI30
aI11
aI20
aNaNaNaNaNaNaNag5
aa(lp35
S'WAC101'
p36
aI73327
aI18
aI19
aS'T Th'
p37
aS' 4:30 PM'
p38
aI16
aI30
aI17
aI45
aNaNaNaNaNaNaNag5
aa(lp39
S'WAC101'
p40
aI72991
aI16
aI19
aS'T Th'
p41
aS'12:00 PM'
p42
aI12
aI0
aI13
aI15
aNaNaNaNaNaNaNag5
aa(lp43
S'WAC101'
p44
aI72990
aI19
aI19
aS'T Th'
p45
aS' 9:00 AM'
p46
aI9
aI0
aI10
aI15
aNaNaNaNaNaNaNag5
aa(lp47
S'WAC101'
p48
aI70097
aI16
aI19
aS'M W F'
p49
aS' 9:00 AM'
p50
aI9
aI0
aI9
aI50
aNaNaNaNaNaNaNag5
aa(lp51
S'WAC101'
p52
aI70098
aI18
aI19
aS'T Th'
p53
aS' 3:00 PM'
p54
aI15
aI0
aI16
aI15
aNaNaNaNaNaNaNag5
aa(lp55
S'WAC101'
p56
aI70099
aI19
aI19
aS'T Th'
p57
aS' 9:00 AM'
p58
aI9
aI0
aI10
aI15
aNaNaNaNaNaNaNag5
aa(lp59
S'WAC101'
p60
aI70100
aI19
aI19
aS'T Th'
p61
aS' 7:30 AM'
p62
aI7
aI30
aI8
aI45
aNaNaNaNaNaNaNag5
aa(lp63
S'WAC101'
p64
aI70101
aI18
aI19
aS'M W F'
p65
aS'12:00 PM'
p66
aI12
aI0
aI12
aI50
aNaNaNaNaNaNaNag5
aa(lp67
S'WAC101'
p68
aI70102
aI18
aI19
aS'T Th'
p69
aS' 9:00 AM'
p70
aI9
aI0
aI10
aI15
aNaNaNaNaNaNaNag5
aa(lp71
S'WAC101'
p72
aI72862
aI19
aI19
aS'T Th'
p73
aS'12:00 PM'
p74
aI12
aI0
aI13
aI15
aNaNaNaNaNaNaNag5
aa(lp75
S'WAC101'
p76
aI70115
aI19
aI19
aS'T Th'
p77
aS' 9:00 AM'
p78
aI9
aI0
aI10
aI15
aNaNaNaNaNaNaNag5
aa(lp79
S'WAC101'
p80
aI72837
aI19
aI19
aS'T Th'
p81
aS' 3:00 PM'
p82
aI15
aI0
aI16
aI15
aNaNaNaNaNaNaNag5
aa(lp83
S'WAC101'
p84
aI70103
aI19
aI19
aS'T Th'
p85
aS' 1:30 PM'
p86
aI13
aI30
aI14
aI45
aNaNaNaNaNaNaNag5
aa(lp87
S'WAC101'
p88
aI72861
aI18
aI19
aS'T Th'
p89
aS' 1:30 PM'
p90
aI13
aI30
aI14
aI45
aNaNaNaNaNaNaNag5
aa(lp91
S'WAC101'
p92
aI70104
aI19
aI19
aS'M W F'
p93
aS'10:30 AM'
p94
aI10
aI30
aI11
aI20
aNaNaNaNaNaNaNag5
aa(lp95
S'WAC101'
p96
aI70105
aI17
aI19
aS'T Th'
p97
aS' 9:00 AM'
p98
aI9
aI0
aI10
aI15
aNaNaNaNaNaNaNag5
aa(lp99
S'WAC101'
p100
aI70106
aI19
aI19
aS'M W F'
p101
aS' 3:00 PM'
p102
aI15
aI0
aI15
aI50
aNaNaNaNaNaNaNag5
aa(lp103
S'WAC101'
p104
aI70113
aI19
aI19
aS'M W F'
p105
aS' 1:30 PM'
p106
aI13
aI30
aI14
aI20
aNaNaNaNaNaNaNag5
aa(lp107
S'WAC101'
p108
aI70114
aI17
aI19
aS'M W'
p109
aS' 1:30 PM'
p110
aI13
aI30
aI14
aI45
aNaNaNaNaNaNaNag5
aa(lp111
S'WAC101'
p112
aI70107
aI19
aI19
aS'T Th'
p113
aS' 7:30 AM'
p114
aI7
aI30
aI8
aI45
aNaNaNaNaNaNaNag5
aa(lp115
S'WAC101'
p116
aI70112
aI19
aI19
aS'T Th'
p117
aS'10:30 AM'
p118
aI10
aI30
aI11
aI45
aNaNaNaNaNaNaNag5
aa(lp119
S'WAC101'
p120
aI70111
aI19
aI19
aS'T Th'
p121
aS' 3:00 PM'
p122
aI15
aI0
aI16
aI15
aNaNaNaNaNaNaNag5
aa(lp123
S'WAC101'
p124
aI70108
aI19
aI19
aS'T Th'
p125
aS' 1:30 PM'
p126
aI13
aI30
aI14
aI45
aNaNaNaNaNaNaNag5
aa(lp127
S'WAC101'
p128
aI70092
aI19
aI19
aS'T Th'
p129
aS' 7:30 AM'
p130
aI7
aI30
aI8
aI45
aNaNaNaNaNaNaNag5
aa(lp131
S'WAC101'
p132
aI86784
aI18
aI19
aS'T Th'
p133
aS' 4:30 PM'
p134
aI16
aI30
aI17
aI45
aNaNaNaNaNaNaNag5
aa(lp135
S'WAC101'
p136
aI86783
aI19
aI19
aS'T Th'
p137
aS' 3:00 PM'
p138
aI15
aI0
aI16
aI15
aNaNaNaNaNaNaNag5
aa(lp139
S'WAC101'
p140
aI90120
aI19
aI19
aS'M W'
p141
aS' 3:00 PM'
p142
aI15
aI0
aI16
aI15
aNaNaNaNaNaNaNag5
aa(lp143
S'WAC101'
p144
aI90823
aI19
aI19
aS'M W F'
p145
aS' 1:30 PM'
p146
aI13
aI30
aI14
aI20
aNaNaNaNaNaNaNag5
aa(lp147
S'WAC101'
p148
aI90824
aI19
aI19
aS'M W F'
p149
aS' 3:00 PM'
p150
aI15
aI0
aI15
aI50
aNaNaNaNaNaNaNag5
aa(lp151
S'WAC101'
p152
aI70417
aI21
aI22
aS'M W F'
p153
aS'10:30 AM'
p154
aI10
aI30
aI11
aI20
aNaNaNaNaNaNaNag5
aa(lp155
S'WAC101'
p156
aI70418
aI22
aI22
aS'M W F'
p157
aS' 1:30 PM'
p158
aI13
aI30
aI14
aI20
aNaNaNaNaNaNaNag5
aa(lp159
S'WAC101'
p160
aI85537
aI19
aI22
aS'T Th'
p161
aS'12:00 PM'
p162
aI12
aI0
aI13
aI15
aNaNaNaNaNaNaNag5
aa(lp163
S'WAC101'
p164
aI86259
aI20
aI22
aS'T Th'
p165
aS' 1:30 PM'
p166
aI13
aI30
aI14
aI45
aNaNaNaNaNaNaNag5
aa(lp167
S'WAC101'
p168
aI74737
aI22
aI22
aS'M W F'
p169
aS' 3:00 PM'
p170
aI15
aI0
aI15
aI50
aNaNaNaNaNaNaNag5
aa(lp171
S'WAC101'
p172
aI77974
aI21
aI22
aS'T Th'
p173
aS'10:30 AM'
p174
aI10
aI30
aI11
aI45
aNaNaNaNaNaNaNag5
aa(lp175
S'WAC101'
p176
aI80649
aI21
aI22
aS'T Th'
p177
aS'12:00 PM'
p178
aI12
aI0
aI13
aI15
aNaNaNaNaNaNaNag5
aa(lp179
S'WAC101'
p180
aI80650
aI21
aI22
aS'M W F'
p181
aS' 4:30 PM'
p182
aI16
aI30
aI17
aI20
aNaNaNaNaNaNaNag5
aa(lp183
S'WAC101'
p184
aI72992
aI22
aI22
aS'M W'
p185
aS' 9:00 AM'
p186
aI9
aI0
aI10
aI15
aNaNaNaNaNaNaNag18
aa(lp187
S'WAC101'
p188
aI73178
aI22
aI22
aS'M W'
p189
aS'10:30 AM'
p190
aI10
aI30
aI11
aI45
aNaNaNaNaNaNaNag18
aa(lp191
S'WAC101'
p192
aI73179
aI22
aI22
aS'T Th'
p193
aS'10:30 AM'
p194
aI10
aI30
aI11
aI45
aNaNaNaNaNaNaNag18
aa(lp195
S'WAC101'
p196
aI73180
aI22
aI22
aS'M W'
p197
aS'12:00 PM'
p198
aI12
aI0
aI13
aI15
aNaNaNaNaNaNaNag18
aa(lp199
S'WAC101'
p200
aI73181
aI22
aI22
aS'M W'
p201
aS' 1:30 PM'
p202
aI13
aI30
aI14
aI45
aNaNaNaNaNaNaNag18
aa(lp203
S'WAC101'
p204
aI73751
aI22
aI22
aS'M W'
p205
aS' 3:00 PM'
p206
aI15
aI0
aI16
aI15
aNaNaNaNaNaNaNag18
aa(lp207
S'WAC101'
p208
aI74292
aI22
aI22
aS'M W'
p209
aS' 4:30 PM'
p210
aI16
aI30
aI17
aI45
aNaNaNaNaNaNaNag18
aa(lp211
S'WAC101'
p212
aI75341
aI22
aI22
aS'T Th'
p213
aS' 9:00 AM'
p214
aI9
aI0
aI10
aI15
aNaNaNaNaNaNaNag18
aa(lp215
S'WAC107'
p216
aI70090
aI15
aI19
aS'M W F'
p217
aS'10:30 AM'
p218
aI10
aI30
aI11
aI20
aNaNaNaNaNaNaNag5
aa(lp219
S'WAC107'
p220
aI76619
aI19
aI19
aS'M W F'
p221
aS'10:30 AM'
p222
aI10
aI30
aI11
aI20
aNaNaNaNaNaNaNag5
aa(lp223
S'WAC107'
p224
aI70091
aI17
aI19
aS'M W F'
p225
aS' 1:30 PM'
p226
aI13
aI30
aI14
aI20
aNaNaNaNaNaNaNag5
aa(lp227
S'WAC107'
p228
aI73672
aI19
aI19
aS'M W F'
p229
aS' 7:30 AM'
p230
aI7
aI30
aI8
aI20
aNaNaNaNaNaNaNag5
aa(lp231
S'WAC107'
p232
aI73673
aI7
aI19
aS'T Th'
p233
aS'12:00 PM'
p234
aI12
aI0
aI13
aI15
aNaNaNaNaNaNaNag5
aa(lp235
S'WAC107'
p236
aI74668
aI18
aI19
aS'M W F'
p237
aS' 1:30 PM'
p238
aI13
aI30
aI14
aI20
aNaNaNaNaNaNaNag5
aa(lp239
S'WAC107'
p240
aI75367
aI15
aI19
aS'M W'
p241
aS'12:00 PM'
p242
aI12
aI0
aI13
aI15
aNaNaNaNaNaNaNag5
aa(lp243
S'WAC107'
p244
aI76589
aI17
aI19
aS'T Th'
p245
aS' 1:30 PM'
p246
aI13
aI30
aI14
aI45
aNaNaNaNaNaNaNag5
aa(lp247
S'WAC107'
p248
aI76596
aI19
aI19
aS'T Th'
p249
aS' 7:30 AM'
p250
aI7
aI30
aI8
aI45
aNaNaNaNaNaNaNag5
aa(lp251
S'WAC107'
p252
aI79153
aI19
aI19
aS'M W F'
p253
aS' 3:00 PM'
p254
aI15
aI0
aI15
aI50
aNaNaNaNaNaNaNag5
aa(lp255
S'WAC107'
p256
aI76793
aI14
aI19
aS'M W'
p257
aS'10:30 AM'
p258
aI10
aI30
aI11
aI45
aNaNaNaNaNaNaNag5
aa(lp259
S'WAC107'
p260
aI77602
aI16
aI19
aS'M W'
p261
aS' 9:00 AM'
p262
aI9
aI0
aI10
aI15
aNaNaNaNaNaNaNag5
aa(lp263
S'WAC107'
p264
aI78204
aI18
aI19
aS'T Th'
p265
aS' 4:30 PM'
p266
aI16
aI30
aI17
aI45
aNaNaNaNaNaNaNag5
aa(lp267
S'WAC107'
p268
aI78255
aI19
aI19
aS'T Th'
p269
aS' 9:00 AM'
p270
aI9
aI0
aI10
aI15
aNaNaNaNaNaNaNag18
aa(lp271
S'WAC107'
p272
aI78258
aI19
aI19
aS'M W F'
p273
aS' 9:00 AM'
p274
aI9
aI0
aI9
aI50
aNaNaNaNaNaNaNag5
aa(lp275
S'WAC107'
p276
aI78629
aI18
aI19
aS'M W F'
p277
aS' 1:30 PM'
p278
aI13
aI30
aI14
aI20
aNaNaNaNaNaNaNag5
aa(lp279
S'WAC107'
p280
aI78630
aI18
aI19
aS'T Th'
p281
aS' 9:00 AM'
p282
aI9
aI0
aI10
aI15
aNaNaNaNaNaNaNag5
aa(lp283
S'WAC107'
p284
aI78631
aI19
aI19
aS'T Th'
p285
aS' 1:30 PM'
p286
aI13
aI30
aI14
aI45
aNaNaNaNaNaNaNag5
aa(lp287
S'WAC107'
p288
aI78628
aI18
aI18
aS'M W F'
p289
aS'10:30 AM'
p290
aI10
aI30
aI11
aI20
aNaNaNaNaNaNaNag5
aa(lp291
S'WAC107'
p292
aI79155
aI19
aI19
aS'T Th'
p293
aS' 4:30 PM'
p294
aI16
aI30
aI17
aI45
aNaNaNaNaNaNaNag5
aa(lp295
S'WAC107'
p296
aI79156
aI19
aI19
aS'T Th'
p297
aS' 3:00 PM'
p298
aI15
aI0
aI16
aI15
aNaNaNaNaNaNaNag5
aa(lp299
S'WAC107'
p300
aI80021
aI19
aI19
aS'T Th'
p301
aS' 3:00 PM'
p302
aI15
aI0
aI16
aI15
aNaNaNaNaNaNaNag5
aa(lp303
S'WAC107'
p304
aI80050
aI19
aI19
aS'M W F'
p305
aS'10:30 AM'
p306
aI10
aI30
aI11
aI20
aNaNaNaNaNaNaNag5
aa(lp307
S'WAC107'
p308
aI80051
aI19
aI19
aS'T Th'
p309
aS' 3:00 PM'
p310
aI15
aI0
aI16
aI15
aNaNaNaNaNaNaNag5
aa(lp311
S'WAC107'
p312
aI80067
aI19
aI19
aS'T Th'
p313
aS'10:30 AM'
p314
aI10
aI30
aI11
aI45
aNaNaNaNaNaNaNag5
aa(lp315
S'WAC107'
p316
aI80097
aI19
aI19
aS'M W F'
p317
aS'12:00 PM'
p318
aI12
aI0
aI12
aI50
aNaNaNaNaNaNaNag5
aa(lp319
S'WAC107'
p320
aI80192
aI19
aI19
aS'M W F'
p321
aS' 9:00 AM'
p322
aI9
aI0
aI9
aI50
aNaNaNaNaNaNaNag18
aa(lp323
S'WAC107'
p324
aI80193
aI19
aI19
aS'M W F'
p325
aS'10:30 AM'
p326
aI10
aI30
aI11
aI20
aNaNaNaNaNaNaNag18
aa(lp327
S'WAC107'
p328
aI86785
aI19
aI19
aS'M W F'
p329
aS' 3:00 PM'
p330
aI15
aI0
aI15
aI50
aNaNaNaNaNaNaNag5
aa(lp331
S'WAC107'
p332
aI80617
aI19
aI19
aS'M W F'
p333
aS'12:00 PM'
p334
aI12
aI0
aI12
aI50
aNaNaNaNaNaNaNag5
aa(lp335
S'WAC107'
p336
aI84533
aI19
aI19
aS'M W F'
p337
aS'12:00 PM'
p338
aI12
aI0
aI12
aI50
aNaNaNaNaNaNaNag5
aa(lp339
S'WAC107'
p340
aI84555
aI19
aI19
aS'M W F'
p341
aS'10:30 AM'
p342
aI10
aI30
aI11
aI20
aNaNaNaNaNaNaNag5
aa(lp343
S'WAC107'
p344
aI84554
aI17
aI19
aS'M W F'
p345
aS' 1:30 PM'
p346
aI13
aI30
aI14
aI20
aNaNaNaNaNaNaNag5
aa(lp347
S'WAC107'
p348
aI90121
aI19
aI19
aS'M W F'
p349
aS' 9:00 AM'
p350
aI9
aI0
aI9
aI50
aNaNaNaNaNaNaNag5
aa(lp351
S'WAC107'
p352
aI90797
aI19
aI19
aS'T Th'
p353
aS' 9:00 AM'
p354
aI9
aI0
aI10
aI15
aNaNaNaNaNaNaNag5
aa(lp355
S'WAC107'
p356
aI90820
aI17
aI19
aS'T Th'
p357
aS'10:30 AM'
p358
aI10
aI30
aI11
aI45
aNaNaNaNaNaNaNag5
aa(lp359
S'WAC107'
p360
aI85457
aI23
aI24
aS'M W F'
p361
aS'10:30 AM'
p362
aI10
aI30
aI11
aI20
aNaNaNaNaNaNaNag5
aa(lp363
S'WAC107'
p364
aI90005
aI22
aI22
aS'M W'
p365
aS' 3:00 PM'
p366
aI15
aI0
aI16
aI15
aNaNaNaNaNaNaNag18
aa.