(lp0
(lp1
S'WPC194'
p2
aI85815
aI19
aI20
aS'W'
p3
aS'10:30 AM'
p4
aI10
aI30
aI11
aI20
aNaNaNaNaNaNaNaS'Not Reserved'
p5
aa(lp6
S'WPC194'
p7
aI85820
aI17
aI20
aS'M'
p8
aS' 1:30 PM'
p9
aI13
aI30
aI14
aI30
aNaNaNaNaNaNaNag5
aa(lp10
S'WPC301'
p11
aI70116
aI0
aI40
aS'M W F'
p12
aS' 1:30 PM'
p13
aI13
aI30
aI14
aI20
aNaNaNaNaNaNaNaS'Reserved'
p14
aa(lp15
S'WPC301'
p16
aI74613
aI31
aI40
aS'ONLINE'
p17
aNaNaNaNaNaNaNaNaNaNaNaNag14
aa(lp18
S'WPC301'
p19
aI74614
aI128
aI200
ag17
aNaNaNaNaNaNaNaNaNaNaNaNag14
aa(lp20
S'WPC301'
p21
aI75061
aI199
aI200
ag17
aNaNaNaNaNaNaNaNaNaNaNaNag14
aa(lp22
S'WPC301'
p23
aI75064
aI173
aI200
ag17
aNaNaNaNaNaNaNaNaNaNaNaNag14
aa(lp24
S'WPC301'
p25
aI75816
aI187
aI200
ag17
aNaNaNaNaNaNaNaNaNaNaNaNag14
aa(lp26
S'WPC301'
p27
aI75817
aI128
aI200
ag17
aNaNaNaNaNaNaNaNaNaNaNaNag14
aa(lp28
S'WPC301'
p29
aI75818
aI170
aI200
ag17
aNaNaNaNaNaNaNaNaNaNaNaNag14
aa(lp30
S'WPC301'
p31
aI76253
aI196
aI200
ag17
aNaNaNaNaNaNaNaNaNaNaNaNag14
aa(lp32
S'WPC301'
p33
aI76254
aI118
aI200
ag17
aNaNaNaNaNaNaNaNaNaNaNaNag14
aa(lp34
S'WPC301'
p35
aI76255
aI305
aI400
ag17
aNaNaNaNaNaNaNaNaNaNaNaNag14
aa(lp36
S'WPC301'
p37
aI76257
aI190
aI200
ag17
aNaNaNaNaNaNaNaNaNaNaNaNag14
aa(lp38
S'WPC301'
p39
aI76258
aI175
aI200
ag17
aNaNaNaNaNaNaNaNaNaNaNaNag14
aa(lp40
S'WPC301'
p41
aI76259
aI168
aI200
ag17
aNaNaNaNaNaNaNaNaNaNaNaNag14
aa(lp42
S'WPC301'
p43
aI77160
aI198
aI200
ag17
aNaNaNaNaNaNaNaNaNaNaNaNag14
aa(lp44
S'WPC301'
p45
aI77161
aI151
aI200
ag17
aNaNaNaNaNaNaNaNaNaNaNaNag14
aa(lp46
S'WPC301'
p47
aI77162
aI197
aI200
ag17
aNaNaNaNaNaNaNaNaNaNaNaNag14
aa(lp48
S'WPC301'
p49
aI77163
aI197
aI200
ag17
aNaNaNaNaNaNaNaNaNaNaNaNag14
aa(lp50
S'WPC301'
p51
aI79822
aI189
aI200
ag17
aNaNaNaNaNaNaNaNaNaNaNaNag14
aa(lp52
S'WPC301'
p53
aI79823
aI181
aI200
ag17
aNaNaNaNaNaNaNaNaNaNaNaNag14
aa(lp54
S'WPC301'
p55
aI79824
aI196
aI200
ag17
aNaNaNaNaNaNaNaNaNaNaNaNag14
aa(lp56
S'WPC301'
p57
aI79825
aI181
aI200
ag17
aNaNaNaNaNaNaNaNaNaNaNaNag14
aa(lp58
S'WPC301'
p59
aI87992
aI0
aI40
aS'M W F'
p60
aS'10:30 AM'
p61
aI10
aI30
aI11
aI20
aNaNaNaNaNaNaNag14
aa(lp62
S'WPC301'
p63
aI88135
aI0
aI40
aS'T Th'
p64
aS' 9:00 AM'
p65
aI9
aI0
aI10
aI15
aNaNaNaNaNaNaNag14
aa(lp66
S'WPC301'
p67
aI88145
aI0
aI40
aS'T Th'
p68
aS' 1:30 PM'
p69
aI13
aI30
aI14
aI45
aNaNaNaNaNaNaNag14
aa(lp70
S'WPC394'
p71
aI70117
aI0
aI19
aS'Th'
p72
aS'10:30 AM'
p73
aI10
aI30
aI11
aI20
aNaNaNaNaNaNaNag14
aa(lp74
S'WPC394'
p75
aI73522
aI11
aI19
aS'Th'
p76
aS'10:30 AM'
p77
aI10
aI30
aI11
aI20
aNaNaNaNaNaNaNag5
aa(lp78
S'WPC394'
p79
aI73609
aI0
aI19
aS'Th'
p80
aS' 1:30 PM'
p81
aI13
aI30
aI14
aI20
aNaNaNaNaNaNaNag14
aa(lp82
S'WPC394'
p83
aI73610
aI13
aI19
aS'Th'
p84
aS' 1:30 PM'
p85
aI13
aI30
aI14
aI20
aNaNaNaNaNaNaNag5
aa(lp86
S'WPC394'
p87
aI73684
aI0
aI19
aS'Th'
p88
aS' 3:00 PM'
p89
aI15
aI0
aI15
aI50
aNaNaNaNaNaNaNag14
aa(lp90
S'WPC394'
p91
aI73685
aI12
aI19
aS'Th'
p92
aS' 3:00 PM'
p93
aI15
aI0
aI15
aI50
aNaNaNaNaNaNaNag5
aa(lp94
S'WPC394'
p95
aI73826
aI32
aI32
ag8
aS' 4:30 PM'
p96
aI16
aI30
aI19
aI15
aNaNaNaNaNaNaNag5
aa(lp97
S'WPC394'
p98
aI80550
aI15
aI15
ag3
aS' 3:00 PM'
p99
aI15
aI0
aI15
aI50
aNaNaNaNaNaNaNag5
aa(lp100
S'WPC394'
p101
aI81699
aI3
aI19
aS'Th'
p102
aS' 9:00 AM'
p103
aI9
aI0
aI9
aI50
aNaNaNaNaNaNaNag5
aa(lp104
S'WPC394'
p105
aI81700
aI15
aI19
aS'Th'
p106
aS' 9:00 AM'
p107
aI9
aI0
aI9
aI50
aNaNaNaNaNaNaNag5
aa(lp108
S'WPC480'
p109
aI78747
aI0
aI40
aS'T Th'
p110
aS' 9:00 AM'
p111
aI9
aI0
aI10
aI15
aNaNaNaNaNaNaNag14
aa(lp112
S'WPC480'
p113
aI82269
aI0
aI40
aS'T Th'
p114
aS'10:30 AM'
p115
aI10
aI30
aI11
aI45
aNaNaNaNaNaNaNag14
aa(lp116
S'WPC480'
p117
aI88260
aI0
aI39
ag3
aS' 4:30 PM'
p118
aI16
aI30
aI19
aI15
aNaNaNaNaNaNaNag14
aa(lp119
S'WPC480'
p120
aI91212
aI15
aI40
aS'M W'
p121
aS' 3:00 PM'
p122
aI15
aI0
aI16
aI15
aNaNaNaNaNaNaNag5
aa(lp123
S'WPC480'
p124
aI88259
aI28
aI40
ag3
aS' 4:30 PM'
p125
aI16
aI30
aI19
aI15
aNaNaNaNaNaNaNag5
aa(lp126
S'WPC492'
p127
aI73635
aI5
aI5
ag17
aNaNaNaNaNaNaNaNaNaNaNaNag5
aa(lp128
S'WPC493'
p129
aI73582
aI10
aI10
ag17
aNaNaNaNaNaNaNaNaNaNaNaNag5
aa(lp130
S'WPC493'
p131
aI73636
aI5
aI5
ag17
aNaNaNaNaNaNaNaNaNaNaNaNag5
aa(lp132
S'WPC494'
p133
aI75172
aI30
aI30
ag8
aS' 4:30 PM'
p134
aI16
aI30
aI19
aI15
aNaNaNaNaNaNaNag5
aa(lp135
S'WPC494'
p136
aI73544
aI45
aI45
aS'M W'
p137
aS'10:30 AM'
p138
aI10
aI30
aI11
aI20
aNaNaNaNaNaNaNag5
aa(lp139
S'WPC494'
p140
aI75173
aI25
aI25
ag17
aNaNaNaNaNaNaNaNaNaNaNaNag5
aa(lp141
S'WPC494'
p142
aI77502
aI45
aI45
aS'M W'
p143
aS' 1:30 PM'
p144
aI13
aI30
aI14
aI20
aNaNaNaNaNaNaNag5
aa.