(lp0
(lp1
S'WST100'
p2
aI82368
aI29
aI100
aS'ONLINE'
p3
aNaNaNaNaNaNaNaNaNaNaNaNaS'Reserved'
p4
aa(lp5
S'WST100'
p6
aI74498
aI88
aI150
aS'T'
p7
aS'10:30AM'
p8
aI10
aI30
aI11
aI45
aS''
p9
aS'12:00AM'
p10
aNaNaS'12:00AM'
p11
aNaNaS'Not Reserved'
p12
aa(lp13
S'WST100'
p14
aI70118
aI110
aI150
ag7
aS'12:00PM'
p15
aI12
aI0
aI13
aI15
ag9
aS'12:00AM'
p16
aNaNaS'12:00AM'
p17
aNaNag12
aa(lp18
S'WST100'
p19
aI76813
aI130
aI150
aS'Th'
p20
aS'10:30AM'
p21
aI10
aI30
aI11
aI45
ag9
aS'12:00AM'
p22
aNaNaS'12:00AM'
p23
aNaNag12
aa(lp24
S'WST100'
p25
aI89375
aI129
aI150
aS'Th'
p26
aS'12:00PM'
p27
aI12
aI0
aI13
aI15
ag9
aS'12:00AM'
p28
aNaNaS'12:00AM'
p29
aNaNag12
aa(lp30
S'WST100'
p31
aI70420
aI34
aI80
ag3
aNaNaNaNaNaNaNaNaNaNaNaNag4
aa(lp32
S'WST100'
p33
aI70419
aI28
aI30
aS'M W'
p34
aS'3:00PM'
p35
aI15
aI0
aI16
aI15
ag9
aS'12:00AM'
p36
aNaNaS'12:00AM'
p37
aNaNag4
aa(lp38
S'WST191'
p39
aI75652
aI18
aI19
ag7
aS'11:00 AM'
p40
aI11
aI0
aI11
aI50
aNaNaNaNaNaNaNag12
aa(lp41
S'WST220'
p42
aI79512
aI47
aI100
ag3
aNaNaNaNaNaNaNaNaNaNaNaNag4
aa(lp43
S'WST294'
p44
aI89380
aI96
aI100
ag7
aS'12:00PM'
p45
aI12
aI0
aI13
aI15
ag9
aS'12:00AM'
p46
aNaNaS'12:00AM'
p47
aNaNag12
aa(lp48
S'WST300'
p49
aI74265
aI66
aI100
ag3
aNaNaNaNaNaNaNaNaNaNaNaNag4
aa(lp50
S'WST300'
p51
aI90891
aI94
aI100
ag3
aNaNaNaNaNaNaNaNaNaNaNaNag4
aa(lp52
S'WST300'
p53
aI89965
aI27
aI40
aS'T Th'
p54
aS'12:00 PM'
p55
aI12
aI0
aI13
aI15
aNaNaNaNaNaNaNag12
aa(lp56
S'WST300'
p57
aI83758
aI27
aI30
aS'F'
p58
aS'1:30PM'
p59
aI13
aI30
aI14
aI45
ag9
ag9
aNaNag9
aNaNag12
aa(lp60
S'WST302'
p61
aI91038
aI4
aI10
ag3
aNaNaNaNaNaNaNaNaNaNaNaNag12
aa(lp62
S'WST313'
p63
aI76816
aI9
aI200
ag3
aNaNaNaNaNaNaNaNaNaNaNaNag4
aa(lp64
S'WST313'
p65
aI79810
aI2
aI250
ag3
aNaNaNaNaNaNaNaNaNaNaNaNag4
aa(lp66
S'WST313'
p67
aI82340
aI0
aI45
aS'T Th'
p68
aS'10:30 AM'
p69
aI10
aI30
aI11
aI45
aNaNaNaNaNaNaNag4
aa(lp70
S'WST340'
p71
aI79627
aI44
aI45
ag7
aS' 4:30 PM'
p72
aI16
aI30
aI19
aI15
aNaNaNaNaNaNaNag12
aa(lp73
S'WST345'
p74
aI89421
aI20
aI45
aS'T Th'
p75
aS' 1:30 PM'
p76
aI13
aI30
aI14
aI45
aNaNaNaNaNaNaNag12
aa(lp77
S'WST371'
p78
aI82369
aI0
aI200
ag3
aNaNaNaNaNaNaNaNaNaNaNaNag4
aa(lp79
S'WST377'
p80
aI79727
aI56
aI100
ag3
aNaNaNaNaNaNaNaNaNaNaNaNag4
aa(lp81
S'WST380'
p82
aI82353
aI56
aI100
ag3
aNaNaNaNaNaNaNaNaNaNaNaNag4
aa(lp83
S'WST380'
p84
aI89425
aI14
aI45
aS'T Th'
p85
aS'12:00 PM'
p86
aI12
aI0
aI13
aI15
aNaNaNaNaNaNaNag12
aa(lp87
S'WST390'
p88
aI77622
aI16
aI20
ag3
aNaNaNaNaNaNaNaNaNaNaNaNag4
aa(lp89
S'WST394'
p90
aI84470
aI4
aI20
ag3
aNaNaNaNaNaNaNaNaNaNaNaNag12
aa(lp91
S'WST394'
p92
aI91401
aI5
aI6
aS'W'
p93
aS' 4:30 PM'
p94
aI16
aI30
aI18
aI20
aNaNaNaNaNaNaNag12
aa(lp95
S'WST421'
p96
aI90728
aI70
aI100
ag3
aNaNaNaNaNaNaNaNaNaNaNaNag4
aa(lp97
S'WST440'
p98
aI89426
aI10
aI45
aS'T Th'
p99
aS'10:30 AM'
p100
aI10
aI30
aI11
aI45
aNaNaNaNaNaNaNag12
aa(lp101
S'WST447'
p102
aI90219
aI9
aI15
aS'M W'
p103
aS' 3:00 PM'
p104
aI15
aI0
aI16
aI15
aNaNaNaNaNaNaNag12
aa(lp105
S'WST449'
p106
aI82804
aI23
aI25
aS'M'
p107
aS' 4:30 PM'
p108
aI16
aI30
aI19
aI15
aNaNaNaNaNaNaNag12
aa(lp109
S'WST460'
p110
aI90730
aI44
aI75
ag3
aNaNaNaNaNaNaNaNaNaNaNaNag4
aa(lp111
S'WST470'
p112
aI89410
aI88
aI100
aS'Th'
p113
aS'12:00PM'
p114
aI12
aI0
aI13
aI15
ag9
aS'12:00AM'
p115
aNaNaS'12:00AM'
p116
aNaNag12
aa(lp117
S'WST477'
p118
aI90734
aI22
aI40
aS'T Th'
p119
aS' 9:00 AM'
p120
aI9
aI0
aI10
aI15
aNaNaNaNaNaNaNag12
aa(lp121
S'WST484'
p122
aI70120
aI5
aI5
ag3
aNaNaNaNaNaNaNaNaNaNaNaNag4
aa(lp123
S'WST484'
p124
aI80844
aI5
aI5
ag3
aNaNaNaNaNaNaNaNaNaNaNaNag12
aa(lp125
S'WST492'
p126
aI73935
aI10
aI10
ag3
aNaNaNaNaNaNaNaNaNaNaNaNag12
aa(lp127
S'WST493'
p128
aI70121
aI10
aI10
ag3
aNaNaNaNaNaNaNaNaNaNaNaNag12
aa(lp129
S'WST493'
p130
aI91800
aI1
aI1
ag3
aNaNaNaNaNaNaNaNaNaNaNaNag12
aa(lp131
S'WST498'
p132
aI70122
aI5
aI5
ag3
aNaNaNaNaNaNaNaNaNaNaNaNag4
aa(lp133
S'WST498'
p134
aI79696
aI9
aI15
ag93
aS' 4:30 PM'
p135
aI16
aI30
aI19
aI15
aNaNaNaNaNaNaNag12
aa(lp136
S'WST499'
p137
aI70123
aI4
aI5
ag3
aNaNaNaNaNaNaNaNaNaNaNaNag12
aa(lp138
S'WST501'
p139
aI90894
aI11
aI15
aS'Th'
p140
aS' 4:30 PM'
p141
aI16
aI30
aI19
aI15
aNaNaNaNaNaNaNag12
aa(lp142
S'WST598'
p143
aI91421
aI2
aI5
aS'T Th'
p144
aS' 9:00 AM'
p145
aI9
aI0
aI10
aI15
aNaNaNaNaNaNaNag12
aa(lp146
S'WST601'
p147
aI79697
aI11
aI15
ag107
aS' 4:30 PM'
p148
aI16
aI30
aI19
aI15
aNaNaNaNaNaNaNag12
aa(lp149
S'WST690'
p150
aI74211
aI5
aI5
ag3
aNaNaNaNaNaNaNaNaNaNaNaNag12
aa(lp151
S'WST691'
p152
aI91435
aI10
aI15
ag7
aS' 4:30 PM'
p153
aI16
aI30
aI19
aI15
aNaNaNaNaNaNaNag12
aa(lp154
S'WST691'
p155
aI91436
aI12
aI15
ag93
aS' 1:30 PM'
p156
aI13
aI30
aI17
aI15
aNaNaNaNaNaNaNag12
aa(lp157
S'WST790'
p158
aI74212
aI5
aI5
ag3
aNaNaNaNaNaNaNaNaNaNaNaNag12
aa(lp159
S'WST792'
p160
aI73810
aI10
aI10
ag3
aNaNaNaNaNaNaNaNaNaNaNaNag12
aa(lp161
S'WST795'
p162
aI73811
aI5
aI5
ag3
aNaNaNaNaNaNaNaNaNaNaNaNag12
aa(lp163
S'WST799'
p164
aI73812
aI4
aI5
ag3
aNaNaNaNaNaNaNaNaNaNaNaNag12
aa.